L251 LINKER/LOCATER V4.66.93.0                                                          07/17/2023  21:05:08  PAGE 1


L251 LINKER/LOCATER V4.66.93.0, INVOKED BY:
C:\KEIL_V5\C251\BIN\L251.EXE .\Out_File\board.obj, .\Out_File\common.obj, .\Out_File\zf_adc.obj, .\Out_File\zf_delay.obj
>> , .\Out_File\zf_eeprom.obj, .\Out_File\zf_exti.obj, .\Out_File\zf_gpio.obj, .\Out_File\zf_iic.obj, .\Out_File\zf_nvic
>> .obj, .\Out_File\zf_pwm.obj, .\Out_File\zf_spi.obj, .\Out_File\zf_tim.obj, .\Out_File\zf_uart.obj, .\Out_File\zf_fifo
>> .obj, .\Out_File\SEEKFREE_18TFT.obj, .\Out_File\SEEKFREE_ABSOLUTE_ENCODER.obj, .\Out_File\SEEKFREE_AT24C02.obj, .\Out
>> _File\SEEKFREE_BLUETOOTH_CH9141.obj, ..\..\Libraries\seekfree_peripheral\SEEKFREE_CONFIG.LIB, .\Out_File\SEEKFREE_DL1
>> A.obj, .\Out_File\SEEKFREE_FONT.obj, .\Out_File\SEEKFREE_ICM20602.obj, .\Out_File\SEEKFREE_IMU660RA.obj, .\Out_File\S
>> EEKFREE_IMU963RA.obj, .\Out_File\SEEKFREE_IPS114_SPI.obj, .\Out_File\SEEKFREE_MPU6050.obj, .\Out_File\SEEKFREE_OLED.o
>> bj, .\Out_File\SEEKFREE_PRINTF.obj, .\Out_File\SEEKFREE_TSL1401.obj, .\Out_File\SEEKFREE_VIRSCO.obj, .\Out_File\SEEKF
>> REE_WIRELESS.obj, .\Out_File\SEEKFREE_WIRELESS_CH573.obj, .\Out_File\eeprom.obj, .\Out_File\main.obj, .\Out_File\key.
>> obj, .\Out_File\Direction.obj, .\Out_File\control.obj, .\Out_File\encoder.obj, .\Out_File\pid.obj, .\Out_File\round.o
>> bj, .\Out_File\isr.obj, .\Out_File\park.obj TO .\Out_File\SEEKFREE PRINT (.\Out_File\SEEKFREE.map) CASE DISABLEWARNIN
>> G (16, 57) REMOVEUNUSED CLASSES (EDATA (0X0-0XFFF), HDATA (0X0-0XFFF))


CPU MODE:     251 SOURCE MODE
INTR FRAME:   4 BYTES SAVED ON INTERRUPT
MEMORY MODEL: XSMALL WITH FLOATING POINT ARITHMETIC


INPUT MODULES INCLUDED:
  .\Out_File\board.obj (board)
         COMMENT TYPE 0: C251 V5.60.0
  .\Out_File\common.obj (common)
         COMMENT TYPE 0: C251 V5.60.0
  .\Out_File\zf_adc.obj (zf_adc)
         COMMENT TYPE 0: C251 V5.60.0
  .\Out_File\zf_delay.obj (zf_delay)
         COMMENT TYPE 0: C251 V5.60.0
  .\Out_File\zf_eeprom.obj (zf_eeprom)
         COMMENT TYPE 0: C251 V5.60.0
  .\Out_File\zf_exti.obj (zf_exti)
         COMMENT TYPE 0: C251 V5.60.0
  .\Out_File\zf_gpio.obj (zf_gpio)
         COMMENT TYPE 0: C251 V5.60.0
  .\Out_File\zf_iic.obj (zf_iic)
         COMMENT TYPE 0: C251 V5.60.0
  .\Out_File\zf_nvic.obj (zf_nvic)
         COMMENT TYPE 0: C251 V5.60.0
  .\Out_File\zf_pwm.obj (zf_pwm)
         COMMENT TYPE 0: C251 V5.60.0
  .\Out_File\zf_spi.obj (zf_spi)
         COMMENT TYPE 0: C251 V5.60.0
  .\Out_File\zf_tim.obj (zf_tim)
         COMMENT TYPE 0: C251 V5.60.0
  .\Out_File\zf_uart.obj (zf_uart)
         COMMENT TYPE 0: C251 V5.60.0
  .\Out_File\zf_fifo.obj (zf_fifo)
         COMMENT TYPE 0: C251 V5.60.0
  .\Out_File\SEEKFREE_18TFT.obj (SEEKFREE_18TFT)
         COMMENT TYPE 0: C251 V5.60.0
  .\Out_File\SEEKFREE_ABSOLUTE_ENCODER.obj (SEEKFREE_ABSOLUTE_ENCODER)
         COMMENT TYPE 0: C251 V5.60.0
  .\Out_File\SEEKFREE_AT24C02.obj (SEEKFREE_AT24C02)
         COMMENT TYPE 0: C251 V5.60.0
  .\Out_File\SEEKFREE_BLUETOOTH_CH9141.obj (SEEKFREE_BLUETOOTH_CH9141)
         COMMENT TYPE 0: C251 V5.60.0
  .\Out_File\SEEKFREE_DL1A.obj (SEEKFREE_DL1A)
         COMMENT TYPE 0: C251 V5.60.0
  .\Out_File\SEEKFREE_FONT.obj (SEEKFREE_FONT)
         COMMENT TYPE 0: C251 V5.60.0
  .\Out_File\SEEKFREE_ICM20602.obj (SEEKFREE_ICM20602)
         COMMENT TYPE 0: C251 V5.60.0
  .\Out_File\SEEKFREE_IMU660RA.obj (SEEKFREE_IMU660RA)
         COMMENT TYPE 0: C251 V5.60.0
  .\Out_File\SEEKFREE_IMU963RA.obj (SEEKFREE_IMU963RA)
L251 LINKER/LOCATER V4.66.93.0                                                        07/17/2023  21:05:08  PAGE 2


         COMMENT TYPE 0: C251 V5.60.0
  .\Out_File\SEEKFREE_IPS114_SPI.obj (SEEKFREE_IPS114_SPI)
         COMMENT TYPE 0: C251 V5.60.0
  .\Out_File\SEEKFREE_MPU6050.obj (SEEKFREE_MPU6050)
         COMMENT TYPE 0: C251 V5.60.0
  .\Out_File\SEEKFREE_OLED.obj (SEEKFREE_OLED)
         COMMENT TYPE 0: C251 V5.60.0
  .\Out_File\SEEKFREE_PRINTF.obj (SEEKFREE_PRINTF)
         COMMENT TYPE 0: C251 V5.60.0
  .\Out_File\SEEKFREE_TSL1401.obj (SEEKFREE_TSL1401)
         COMMENT TYPE 0: C251 V5.60.0
  .\Out_File\SEEKFREE_VIRSCO.obj (SEEKFREE_VIRSCO)
         COMMENT TYPE 0: C251 V5.60.0
  .\Out_File\SEEKFREE_WIRELESS.obj (SEEKFREE_WIRELESS)
         COMMENT TYPE 0: C251 V5.60.0
  .\Out_File\SEEKFREE_WIRELESS_CH573.obj (SEEKFREE_WIRELESS_CH573)
         COMMENT TYPE 0: C251 V5.60.0
  .\Out_File\eeprom.obj (eeprom)
         COMMENT TYPE 0: C251 V5.60.0
  .\Out_File\main.obj (main)
         COMMENT TYPE 0: C251 V5.60.0
  .\Out_File\key.obj (key)
         COMMENT TYPE 0: C251 V5.60.0
  .\Out_File\Direction.obj (Direction)
         COMMENT TYPE 0: C251 V5.60.0
  .\Out_File\control.obj (control)
         COMMENT TYPE 0: C251 V5.60.0
  .\Out_File\encoder.obj (encoder)
         COMMENT TYPE 0: C251 V5.60.0
  .\Out_File\pid.obj (pid)
         COMMENT TYPE 0: C251 V5.60.0
  .\Out_File\round.obj (round)
         COMMENT TYPE 0: C251 V5.60.0
  .\Out_File\isr.obj (isr)
         COMMENT TYPE 0: C251 V5.60.0
  .\Out_File\park.obj (park)
         COMMENT TYPE 0: C251 V5.60.0
  ..\..\Libraries\seekfree_peripheral\SEEKFREE_CONFIG.LIB (SEEKFREE_CONFIG)
         COMMENT TYPE 0: C251 V5.60.0
  C:\KEIL_V5\C251\LIB\C2SFPXS.LIB (?C?FPADD?)
         COMMENT TYPE 0: A251 V4.69.6.0
  C:\KEIL_V5\C251\LIB\C2SFPXS.LIB (?C?FPMUL?)
         COMMENT TYPE 0: A251 V4.69.6.0
  C:\KEIL_V5\C251\LIB\C2SFPXS.LIB (?C?FPDIV?)
         COMMENT TYPE 0: A251 V4.69.6.0
  C:\KEIL_V5\C251\LIB\C2SFPXS.LIB (?C?FPCMP?)
         COMMENT TYPE 0: A251 V4.69.6.0
  C:\KEIL_V5\C251\LIB\C2SFPXS.LIB (?C?FCAST?)
         COMMENT TYPE 0: A251 V4.69.6.0
  C:\KEIL_V5\C251\LIB\C2SFPXS.LIB (?C?CASTF?)
         COMMENT TYPE 0: A251 V4.69.6.0
  C:\KEIL_V5\C251\LIB\C2SFPXS.LIB (PRINTF?)
         COMMENT TYPE 0: A251 V4.69.6.0
  C:\KEIL_V5\C251\LIB\C2SFPXS.LIB (SQRT??)
         COMMENT TYPE 0: A251 V4.69.6.0
  C:\KEIL_V5\C251\LIB\C2SFPXS.LIB (POW??)
         COMMENT TYPE 0: C251 V5.58.7
  C:\KEIL_V5\C251\LIB\C2SFPXS.LIB (?C?FPGETOPN?)
         COMMENT TYPE 0: A251 V4.69.6.0
  C:\KEIL_V5\C251\LIB\C2SFPXS.LIB (_CHKFLOAT_??)
         COMMENT TYPE 0: A251 V4.69.6.0
  C:\KEIL_V5\C251\LIB\C2SFPXS.LIB (?C?FPNEG?)
         COMMENT TYPE 0: A251 V4.69.6.0
  C:\KEIL_V5\C251\LIB\C2SFPXS.LIB (?C?PRNFMT?)
         COMMENT TYPE 0: A251 V4.69.6.0
L251 LINKER/LOCATER V4.66.93.0                                                        07/17/2023  21:05:08  PAGE 3


  C:\KEIL_V5\C251\LIB\C2SFPXS.LIB (EXP??)
         COMMENT TYPE 0: A251 V4.69.6.0
  C:\KEIL_V5\C251\LIB\C2SFPXS.LIB (LOG??)
         COMMENT TYPE 0: A251 V4.69.6.0
  C:\KEIL_V5\C251\LIB\C2SFPXS.LIB (?C?FPCONVERT?)
         COMMENT TYPE 0: A251 V4.69.6.0
  C:\KEIL_V5\C251\LIB\C2SFPXS.LIB (?C?FPSERIES?)
         COMMENT TYPE 0: A251 V4.69.6.0
  C:\KEIL_V5\C251\LIB\C2SFPXS.LIB (?C?FTNPWR?)
         COMMENT TYPE 0: A251 V4.69.6.0
  C:\KEIL_V5\C251\LIB\C2SXS.LIB (?C_START?)
         COMMENT TYPE 0: A251 V4.69.6.0
  C:\KEIL_V5\C251\LIB\C2SXS.LIB (?C?INITEDATA)
         COMMENT TYPE 0: A251 V4.69.6.0
  C:\KEIL_V5\C251\LIB\C2SXS.LIB (?C?SIDIV?)
         COMMENT TYPE 0: A251 V4.69.6.0
  C:\KEIL_V5\C251\LIB\C2SXS.LIB (?C?LMUL?)
         COMMENT TYPE 0: A251 V4.69.6.0
  C:\KEIL_V5\C251\LIB\C2SXS.LIB (?C?LIMUL?)
         COMMENT TYPE 0: A251 V4.69.6.0
  C:\KEIL_V5\C251\LIB\C2SXS.LIB (?C?ULDIV?)
         COMMENT TYPE 0: A251 V4.69.6.0
  C:\KEIL_V5\C251\LIB\C2SXS.LIB (?C?SLDIV?)
         COMMENT TYPE 0: A251 V4.69.6.0
  C:\KEIL_V5\C251\LIB\C2SXS.LIB (ABS?)
         COMMENT TYPE 0: C251 V5.58.7
  C:\KEIL_V5\C251\LIB\C2SXS.LIB (MEMCPY?)
         COMMENT TYPE 0: C251 V5.58.7
  C:\KEIL_V5\C251\LIB\C2SXS.LIB (MEMSET?)
         COMMENT TYPE 0: C251 V5.58.7
  C:\KEIL_V5\C251\LIB\C2SXS.LIB (?C?INITEDATA_END)
         COMMENT TYPE 0: A251 V4.69.6.0


ACTIVE MEMORY CLASSES OF MODULE:  .\Out_File\SEEKFREE (board)

BASE        START       END         USED      MEMORY CLASS
==========================================================
000000H     000000H     000FFFH     0008D8H   EDATA
000000H     000000H     000FFFH               HDATA
000000H     FF0000H     FFFFFFH     00ADD5H   ECODE
000000H     FF0000H     FFFFFFH     000455H   HCONST
FF0000H     FF0000H     FFFFFFH     002E83H   CODE
000000H     000000H     00007FH     00001AH   DATA


MEMORY MAP OF MODULE:  .\Out_File\SEEKFREE (board)


START     STOP      LENGTH    ALIGN  RELOC    MEMORY CLASS   SEGMENT NAME
=========================================================================
000000H   000007H   000008H   ---    AT..     DATA           "REG BANK 0"
000008H   000019H   000012H   BYTE   UNIT     DATA           ?DT?DIRECTION
00001AH   0002D4H   0002BBH   BYTE   UNIT     EDATA          _EDATA_GROUP_
0002D5H   0003D5H   000101H   BYTE   UNIT     EDATA          ?ED?SEEKFREE_TSL1401
0003D6H   0004A2H   0000CDH   BYTE   UNIT     EDATA          ?ED?ZF_UART
0004A3H   00051AH   000078H   BYTE   UNIT     EDATA          ?ED?DIRECTION
00051BH   00057EH   000064H   BYTE   UNIT     EDATA          ?ED?EEPROM
00057FH   0005DEH   000060H   BYTE   UNIT     EDATA          ?ED?PID
0005DFH   000633H   000055H   BYTE   UNIT     EDATA          ?ED?SEEKFREE_BLUETOOTH_CH9141
000634H   000688H   000055H   BYTE   UNIT     EDATA          ?ED?SEEKFREE_WIRELESS
000689H   0006DDH   000055H   BYTE   UNIT     EDATA          ?ED?SEEKFREE_WIRELESS_CH573
0006DEH   00070DH   000030H   BYTE   UNIT     EDATA          ?ED?ROUND
00070EH   000727H   00001AH   BYTE   UNIT     EDATA          ?ED?KEY
000728H   000739H   000012H   BYTE   UNIT     EDATA          ?ED?SEEKFREE_IMU963RA
L251 LINKER/LOCATER V4.66.93.0                                                        07/17/2023  21:05:08  PAGE 4


00073AH   00074BH   000012H   BYTE   UNIT     EDATA          ?ED?PARK
00074CH   00075AH   00000FH   BYTE   UNIT     EDATA          ?ED?FIFO_READ_BUFFER??ZF_FIFO
00075BH   000766H   00000CH   BYTE   UNIT     EDATA          ?ED?SEEKFREE_ICM20602
000767H   000772H   00000CH   BYTE   UNIT     EDATA          ?ED?SEEKFREE_IMU660RA
000773H   00077EH   00000CH   BYTE   UNIT     EDATA          ?ED?SEEKFREE_MPU6050
00077FH   000788H   00000AH   BYTE   UNIT     EDATA          ?ED?SEEKFREE_VIRSCO
000789H   000790H   000008H   BYTE   UNIT     EDATA          ?ED?CONTROL
000791H   000796H   000006H   BYTE   UNIT     EDATA          ?ED?LCD_SHOWSTR_SIMSPI??SEEKFREE_18TFT
000797H   00079CH   000006H   BYTE   UNIT     EDATA          ?ED?IPS114_SHOWSTR_SIMSPI??SEEKFREE_IPS114_SPI
00079DH   0007A2H   000006H   BYTE   UNIT     EDATA          ?ED?IPS114_SHOWSTR??SEEKFREE_IPS114_SPI
0007A3H   0007A7H   000005H   BYTE   UNIT     EDATA          ?ED?OLED_P6X8STR??SEEKFREE_OLED
0007A8H   0007ACH   000005H   BYTE   UNIT     EDATA          ?ED?OLED_P6X8STR_SPI??SEEKFREE_OLED
0007ADH   0007B0H   000004H   BYTE   UNIT     EDATA          ?ED?BOARD
0007B1H   0007B4H   000004H   BYTE   UNIT     EDATA          ?ED?ZF_DELAY
0007B5H   0007B8H   000004H   BYTE   UNIT     EDATA          ?ED?UART_PUTBUFF??ZF_UART
0007B9H   0007BCH   000004H   BYTE   UNIT     EDATA          ?ED?FIFO_INIT??ZF_FIFO
0007BDH   0007C0H   000004H   BYTE   UNIT     EDATA          ?ED?LCD_SET_REGION_SIMSPI??SEEKFREE_18TFT
0007C1H   0007C4H   000004H   BYTE   UNIT     EDATA          ?ED?LCD_SHOWCHAR_SIMSPI??SEEKFREE_18TFT
0007C5H   0007C8H   000004H   BYTE   UNIT     EDATA          ?ED?ICM20602_SIMSPI_R_REG_BYTES?SEEKFREE_ICM20602
0007C9H   0007CCH   000004H   BYTE   UNIT     EDATA          ?ED?IMU963RA_SIMSPI_R_REG_BYTES?SEEKFREE_IMU963RA
0007CDH   0007D0H   000004H   BYTE   UNIT     EDATA          ?ED?IPS114_SET_REGION_SIMSPI??SEEKFREE_IPS114_SPI
0007D1H   0007D4H   000004H   BYTE   UNIT     EDATA          ?ED?IPS114_SHOWCHAR_SIMSPI??SEEKFREE_IPS114_SPI
0007D5H   0007D8H   000004H   BYTE   UNIT     EDATA          ?ED?IPS114_SET_REGION??SEEKFREE_IPS114_SPI
0007D9H   0007DCH   000004H   BYTE   UNIT     EDATA          ?ED?IPS114_SHOWCHAR??SEEKFREE_IPS114_SPI
0007DDH   0007E0H   000004H   BYTE   UNIT     EDATA          ?ED?ENCODER
0007E1H   0007E3H   000003H   BYTE   UNIT     EDATA          ?ED?SEEKFREE_DL1A
0007E4H   0007E6H   000003H   BYTE   UNIT     EDATA          ?ED?MPU6050_SIMIIC_READ_REGS??SEEKFREE_MPU6050
0007E7H   0007E8H   000002H   BYTE   UNIT     EDATA          ?ED?COMMON
0007E9H   0007EAH   000002H   BYTE   UNIT     EDATA          ?ED?IMU963RA_WRITE_MAG_REGISTER?SEEKFREE_IMU963RA
0007EBH   0007ECH   000002H   BYTE   UNIT     EDATA          ?ED?IPS114_WRITEDATA_16BIT??SEEKFREE_IPS114_SPI
0007EDH   0007EDH   000001H   BYTE   UNIT     EDATA          ?ED?ENCODER_SELF4_CHECK??SEEKFREE_ABSOLUTE_ENCODER
0007EEH   0007EEH   000001H   BYTE   UNIT     EDATA          ?ED?ENCODER_SELF5_CHECK??SEEKFREE_ABSOLUTE_ENCODER
0007EFH   0007EFH   000001H   BYTE   UNIT     EDATA          ?ED?ICM20602_READ_REGISTER?SEEKFREE_ICM20602
0007F0H   0007F0H   000001H   BYTE   UNIT     EDATA          ?ED?IMU963RA_READ_ACC_GYRO_REGISTER?SEEKFREE_IMU963RA
0007F1H   0007F1H   000001H   BYTE   UNIT     EDATA          ?ED?ISR
0007F2H   0008F1H   000100H   BYTE   UNIT     EDATA          ?STACK
0008F2H   FEFFFFH   FEF70EH   ---    ---      **GAP**
FF0000H   FF0002H   000003H   ---    OFFS..   CODE           ?CO?start251?4
FF0003H   FF0006H   000004H   ---    OFFS..   CODE           ?PR?IV?0
FF0007H   FF000AH   000004H   BYTE   INSEG    HCONST         ?HC?PRINTF
FF000BH   FF000EH   000004H   ---    OFFS..   CODE           ?PR?IV?1
FF000FH   FF0012H   000004H   ---    ---      **GAP**
FF0013H   FF0016H   000004H   ---    OFFS..   CODE           ?PR?IV?2
FF0017H   FF001AH   000004H   ---    ---      **GAP**
FF001BH   FF001EH   000004H   ---    OFFS..   CODE           ?PR?IV?3
FF001FH   FF0022H   000004H   ---    ---      **GAP**
FF0023H   FF0026H   000004H   ---    OFFS..   CODE           ?PR?IV?4
FF0027H   FF0040H   00001AH   BYTE   INSEG    ECODE          ?PR?MEMSET_
FF0041H   FF0042H   000002H   ---    ---      **GAP**
FF0043H   FF0046H   000004H   ---    OFFS..   CODE           ?PR?IV?8
FF0047H   FF0050H   00000AH   BYTE   UNIT     HCONST         ?HC?SEEKFREE_OLED
FF0051H   FF0052H   000002H   ---    ---      **GAP**
FF0053H   FF0056H   000004H   ---    OFFS..   CODE           ?PR?IV?10
FF0057H   FF005AH   000004H   ---    ---      **GAP**
FF005BH   FF005EH   000004H   ---    OFFS..   CODE           ?PR?IV?11
FF005FH   FF0062H   000004H   ---    ---      **GAP**
FF0063H   FF0066H   000004H   ---    OFFS..   CODE           ?PR?IV?12
FF0067H   FF0076H   000010H   BYTE   INSEG    ECODE          ?PR?ABS_
FF0077H   FF007CH   000006H   BYTE   UNIT     HCONST         ?HC?SEEKFREE_18TFT
FF007DH   FF0082H   000006H   BYTE   UNIT     HCONST         ?HC?SEEKFREE_IPS114_SPI
FF0083H   FF0086H   000004H   ---    OFFS..   CODE           ?PR?IV?16
FF0087H   FF008AH   000004H   ---    ---      **GAP**
FF008BH   FF008EH   000004H   ---    OFFS..   CODE           ?PR?IV?17
FF008FH   FF0092H   000004H   ---    ---      **GAP**
FF0093H   FF0096H   000004H   ---    OFFS..   CODE           ?PR?IV?18
L251 LINKER/LOCATER V4.66.93.0                                                        07/17/2023  21:05:08  PAGE 5


FF0097H   FF009AH   000004H   ---    ---      **GAP**
FF009BH   FF009EH   000004H   ---    OFFS..   CODE           ?PR?IV?19
FF009FH   FF00A2H   000004H   ---    ---      **GAP**
FF00A3H   FF00A6H   000004H   ---    OFFS..   CODE           ?PR?IV?20
FF00A7H   FF20A6H   002000H   BYTE   UNIT     CODE           ?CO?SEEKFREE_CONFIG
FF20A7H   FF2EAEH   000E08H   BYTE   UNIT     CODE           ?CO?SEEKFREE_FONT
FF2EAFH   FF2EC1H   000013H   BYTE   UNIT     CODE           ?C_C51STARTUP
FF2EC2H   FF2EEAH   000029H   BYTE   UNIT     CODE           ?C_C51STARTUP?2
FF2EEBH   FF2EEEH   000004H   BYTE   UNIT     CODE           ?C_C51STARTUP?3
FF2EEFH   FF416FH   001281H   BYTE   INSEG    ECODE          ?PR?SEEKFREE_OLED
FF4170H   FF52B2H   001143H   BYTE   INSEG    ECODE          ?PR?SEEKFREE_18TFT
FF52B3H   FF6217H   000F65H   BYTE   INSEG    ECODE          ?PR?KEY
FF6218H   FF7159H   000F42H   BYTE   INSEG    ECODE          ?PR?SEEKFREE_IPS114_SPI
FF715AH   FF7F91H   000E38H   BYTE   INSEG    ECODE          ?PR?SEEKFREE_DL1A
FF7F92H   FF8BB8H   000C27H   BYTE   INSEG    ECODE          ?C?LIB_CODE?
FF8BB9H   FF95ACH   0009F4H   BYTE   INSEG    ECODE          ?PR?ROUND
FF95ADH   FF9D57H   0007ABH   BYTE   INSEG    ECODE          ?PR?ZF_PWM
FF9D58H   FFA341H   0005EAH   BYTE   INSEG    ECODE          ?PR?SEEKFREE_PRINTF
FFA342H   FFA8DBH   00059AH   BYTE   INSEG    ECODE          ?PR?DIRECTION
FFA8DCH   FFAD78H   00049DH   BYTE   INSEG    ECODE          ?PR?PID
FFAD79H   FFB1DDH   000465H   BYTE   INSEG    ECODE          ?PR?ZF_GPIO
FFB1DEH   FFB5D5H   0003F8H   BYTE   INSEG    ECODE          ?PR?SEEKFREE_IMU963RA
FFB5D6H   FFB8E7H   000312H   BYTE   INSEG    ECODE          ?PR?ZF_IIC
FFB8E8H   FFBBE8H   000301H   BYTE   INSEG    ECODE          ?PR?ZF_FIFO
FFBBE9H   FFBE6BH   000283H   BYTE   INSEG    ECODE          ?PR?SEEKFREE_MPU6050
FFBE6CH   FFC0E4H   000279H   BYTE   INSEG    ECODE          ?PR?SEEKFREE_ABSOLUTE_ENCODER
FFC0E5H   FFC34AH   000266H   BYTE   INSEG    ECODE          ?PR?SEEKFREE_IMU660RA
FFC34BH   FFC5ABH   000261H   BYTE   INSEG    ECODE          ?PR?ZF_UART
FFC5ACH   FFC7C3H   000218H   BYTE   INSEG    ECODE          ?PR?ISR
FFC7C4H   FFC9D7H   000214H   BYTE   INSEG    ECODE          ?PR?SEEKFREE_ICM20602
FFC9D8H   FFCBE0H   000209H   BYTE   INSEG    ECODE          ?PR?SEEKFREE_AT24C02
FFCBE1H   FFCDB6H   0001D6H   BYTE   INSEG    ECODE          ?PR?PARK
FFCDB7H   FFCF85H   0001CFH   BYTE   INSEG    ECODE          ?PR?BOARD
FFCF86H   FFD14FH   0001CAH   BYTE   INSEG    ECODE          ?PR?ZF_SPI
FFD150H   FFD2CCH   00017DH   BYTE   INSEG    ECODE          ?PR?ZF_TIM
FFD2CDH   FFD41EH   000152H   BYTE   INSEG    ECODE          ?PR?ZF_EEPROM
FFD41FH   FFD548H   00012AH   BYTE   INSEG    ECODE          ?PR?SEEKFREE_BLUETOOTH_CH9141
FFD549H   FFD665H   00011DH   BYTE   INSEG    ECODE          ?PR?EEPROM
FFD666H   FFD764H   0000FFH   BYTE   INSEG    ECODE          ?PR?POW__
FFD765H   FFD862H   0000FEH   BYTE   INSEG    ECODE          ?PR?MAIN
FFD863H   FFD93CH   0000DAH   BYTE   INSEG    ECODE          ?PR?SEEKFREE_WIRELESS_CH573
FFD93DH   FFDA10H   0000D4H   BYTE   INSEG    ECODE          ?PR?SEEKFREE_WIRELESS
FFDA11H   FFDAB4H   0000A4H   BYTE   INSEG    ECODE          ?PR?SEEKFREE_VIRSCO
FFDAB5H   FFDB40H   00008CH   BYTE   INSEG    ECODE          ?PR?ZF_ADC
FFDB41H   FFDBB9H   000079H   BYTE   INSEG    ECODE          ?PR?CONTROL
FFDBBAH   FFDC24H   00006BH   BYTE   INSEG    ECODE          ?PR?ZF_DELAY
FFDC25H   FFDC74H   000050H   BYTE   INSEG    ECODE          ?PR?ENCODER
FFDC75H   FFDC99H   000025H   BYTE   INSEG    ECODE          ?PR?MEMCPY_
FFDC9AH   FFDEC9H   000230H   BYTE   UNIT     HCONST         ?C_INITEDATA
FFDECAH   FFDF86H   0000BDH   BYTE   UNIT     HCONST         ?HC?KEY
FFDF87H   FFDFDEH   000058H   BYTE   UNIT     HCONST         ?HC?ZF_PWM
FFDFDFH   FFE029H   00004BH   BYTE   UNIT     HCONST         ?HC?SEEKFREE_IMU963RA
FFE02AH   FFE05DH   000034H   BYTE   UNIT     HCONST         ?HC?SEEKFREE_IMU660RA
FFE05EH   FFE090H   000033H   BYTE   UNIT     HCONST         ?HC?SEEKFREE_ICM20602
FFE091H   FFE0ABH   00001BH   BYTE   UNIT     HCONST         ?HC?MAIN
FFE0ACH   FFE0C1H   000016H   BYTE   UNIT     HCONST         ?HC?SEEKFREE_MPU6050
FFE0C2H   FFE0D4H   000013H   BYTE   UNIT     HCONST         ?HC?SEEKFREE_DL1A

* * * * * * * * *   R E M O V E D     S E G M E N T S   * * * * * * * *
   *DEL*:           00003EH   BYTE   INSEG    ECODE          ?PR?ZF_EXTI
   *DEL*:           000004H   BYTE   UNIT     EDATA          ?ED?IIC_INIT??ZF_IIC
   *DEL*:           000004H   BYTE   UNIT     EDATA          ?ED?IIC_READ_REG??ZF_IIC
   *DEL*:           000003H   BYTE   UNIT     EDATA          ?ED?IIC_READ_REG_BYTES??ZF_IIC
   *DEL*:           00006CH   BYTE   INSEG    ECODE          ?PR?ZF_NVIC
   *DEL*:           000004H   BYTE   UNIT     EDATA          ?ED?PWM_FREQ??ZF_PWM
L251 LINKER/LOCATER V4.66.93.0                                                        07/17/2023  21:05:08  PAGE 6


   *DEL*:           000002H   BYTE   UNIT     EDATA          ?ED?UART_PUTSTR??ZF_UART
   *DEL*:           000005H   BYTE   UNIT     EDATA          ?ED?LCD_SHOWINT8_SIMSPI??SEEKFREE_18TFT
   *DEL*:           000004H   BYTE   UNIT     EDATA          ?ED?LCD_SHOWUINT8_SIMSPI??SEEKFREE_18TFT
   *DEL*:           000008H   BYTE   UNIT     EDATA          ?ED?LCD_SHOWINT16_SIMSPI??SEEKFREE_18TFT
   *DEL*:           000006H   BYTE   UNIT     EDATA          ?ED?LCD_SHOWUINT16_SIMSPI??SEEKFREE_18TFT
   *DEL*:           000028H   BYTE   UNIT     EDATA          ?ED?LCD_SHOWINT32_SIMSPI??SEEKFREE_18TFT
   *DEL*:           00002BH   BYTE   UNIT     EDATA          ?ED?LCD_SHOWFLOAT_SIMSPI??SEEKFREE_18TFT
   *DEL*:           000005H   BYTE   UNIT     EDATA          ?ED?LCD_SHOWINT8??SEEKFREE_18TFT
   *DEL*:           000004H   BYTE   UNIT     EDATA          ?ED?LCD_SHOWUINT8??SEEKFREE_18TFT
   *DEL*:           000008H   BYTE   UNIT     EDATA          ?ED?LCD_SHOWINT16??SEEKFREE_18TFT
   *DEL*:           000006H   BYTE   UNIT     EDATA          ?ED?LCD_SHOWUINT16??SEEKFREE_18TFT
   *DEL*:           000008H   BYTE   UNIT     EDATA          ?ED?SHOWIMAGE??SEEKFREE_18TFT
   *DEL*:           000002H   BYTE   UNIT     EDATA          ?ED?AT24C02_WRITE_BYTES??SEEKFREE_AT24C02
   *DEL*:           000002H   BYTE   UNIT     EDATA          ?ED?AT24C02_READ_BYTES??SEEKFREE_AT24C02
   *DEL*:           000006H   BYTE   UNIT     EDATA          ?ED?BLUETOOTH_CH9141_SEND_BUFF??SEEKFREE_BLUETOOTH_CH9141
   *DEL*:           000004H   BYTE   UNIT     EDATA          ?ED?BLUETOOTH_CH9141_READ_BUFF??SEEKFREE_BLUETOOTH_CH9141
   *DEL*:           000006H   BYTE   UNIT     EDATA          ?ED?ICM20602_GET_ACC??SEEKFREE_ICM20602
   *DEL*:           000006H   BYTE   UNIT     EDATA          ?ED?ICM20602_GET_GYRO??SEEKFREE_ICM20602
   *DEL*:           000007H   BYTE   UNIT     EDATA          ?ED?IMU660RA_GET_ACC??SEEKFREE_IMU660RA
   *DEL*:           000006H   BYTE   UNIT     EDATA          ?ED?IMU963RA_GET_ACC??SEEKFREE_IMU963RA
   *DEL*:           000006H   BYTE   UNIT     EDATA          ?ED?IMU963RA_GET_GYRO??SEEKFREE_IMU963RA
   *DEL*:           000006H   BYTE   UNIT     EDATA          ?ED?IMU963RA_GET_MAG??SEEKFREE_IMU963RA
   *DEL*:           000002H   BYTE   UNIT     EDATA          ?ED?IPS114_CLEAR_SIMSPI??SEEKFREE_IPS114_SPI
   *DEL*:           000005H   BYTE   UNIT     EDATA          ?ED?IPS114_SHOWINT8_SIMSPI??SEEKFREE_IPS114_SPI
   *DEL*:           000004H   BYTE   UNIT     EDATA          ?ED?IPS114_SHOWUINT8_SIMSPI??SEEKFREE_IPS114_SPI
   *DEL*:           000008H   BYTE   UNIT     EDATA          ?ED?IPS114_SHOWINT16_SIMSPI??SEEKFREE_IPS114_SPI
   *DEL*:           000006H   BYTE   UNIT     EDATA          ?ED?IPS114_SHOWUINT16_SIMSPI??SEEKFREE_IPS114_SPI
   *DEL*:           000028H   BYTE   UNIT     EDATA          ?ED?IPS114_SHOWINT32_SIMSPI??SEEKFREE_IPS114_SPI
   *DEL*:           00002BH   BYTE   UNIT     EDATA          ?ED?IPS114_SHOWFLOAT_SIMSPI??SEEKFREE_IPS114_SPI
   *DEL*:           000002H   BYTE   UNIT     EDATA          ?ED?IPS114_CLEAR??SEEKFREE_IPS114_SPI
   *DEL*:           000005H   BYTE   UNIT     EDATA          ?ED?IPS114_SHOWINT8??SEEKFREE_IPS114_SPI
   *DEL*:           000004H   BYTE   UNIT     EDATA          ?ED?IPS114_SHOWUINT8??SEEKFREE_IPS114_SPI
   *DEL*:           000008H   BYTE   UNIT     EDATA          ?ED?IPS114_SHOWINT16??SEEKFREE_IPS114_SPI
   *DEL*:           000006H   BYTE   UNIT     EDATA          ?ED?IPS114_SHOWUINT16??SEEKFREE_IPS114_SPI
   *DEL*:           000028H   BYTE   UNIT     EDATA          ?ED?IPS114_SHOWINT32??SEEKFREE_IPS114_SPI
   *DEL*:           00002BH   BYTE   UNIT     EDATA          ?ED?IPS114_SHOWFLOAT??SEEKFREE_IPS114_SPI
   *DEL*:           000006H   BYTE   UNIT     EDATA          ?ED?MPU6050_GET_ACCDATA??SEEKFREE_MPU6050
   *DEL*:           000006H   BYTE   UNIT     EDATA          ?ED?MPU6050_GET_GYRO??SEEKFREE_MPU6050
   *DEL*:           000005H   BYTE   UNIT     EDATA          ?ED?OLED_P8X16STR??SEEKFREE_OLED
   *DEL*:           000007H   BYTE   UNIT     EDATA          ?ED?OLED_UINT16??SEEKFREE_OLED
   *DEL*:           000007H   BYTE   UNIT     EDATA          ?ED?OLED_INT16??SEEKFREE_OLED
   *DEL*:           000028H   BYTE   UNIT     EDATA          ?ED?OLED_PRINTF_INT32??SEEKFREE_OLED
   *DEL*:           00002BH   BYTE   UNIT     EDATA          ?ED?OLED_PRINTF_FLOAT??SEEKFREE_OLED
   *DEL*:           00000CH   BYTE   UNIT     EDATA          ?ED?OLED_DIS_BMP??SEEKFREE_OLED
   *DEL*:           00000AH   BYTE   UNIT     EDATA          ?ED?OLED_PRINT_CHINESE??SEEKFREE_OLED
   *DEL*:           000005H   BYTE   UNIT     EDATA          ?ED?OLED_P8X16STR_SPI??SEEKFREE_OLED
   *DEL*:           000007H   BYTE   UNIT     EDATA          ?ED?OLED_UINT16_SPI??SEEKFREE_OLED
   *DEL*:           000007H   BYTE   UNIT     EDATA          ?ED?OLED_INT16_SPI??SEEKFREE_OLED
   *DEL*:           000028H   BYTE   UNIT     EDATA          ?ED?OLED_PRINTF_INT32_SPI??SEEKFREE_OLED
   *DEL*:           00002BH   BYTE   UNIT     EDATA          ?ED?OLED_PRINTF_FLOAT_SPI??SEEKFREE_OLED
   *DEL*:           00000CH   BYTE   UNIT     EDATA          ?ED?OLED_DIS_BMP_SPI??SEEKFREE_OLED
   *DEL*:           00000AH   BYTE   UNIT     EDATA          ?ED?OLED_PRINT_CHINESE_SPI??SEEKFREE_OLED
   *DEL*:           0000C4H   BYTE   INSEG    ECODE          ?PR?SEEKFREE_TSL1401
   *DEL*:           000003H   BYTE   UNIT     EDATA          ?ED?CCD_SEND_DATA??SEEKFREE_TSL1401
   *DEL*:           000004H   BYTE   UNIT     EDATA          ?ED?DATA_CONVERSION??SEEKFREE_VIRSCO
   *DEL*:           000002H   BYTE   UNIT     EDATA          ?ED?WIRELESS_UART_SEND_BUFF??SEEKFREE_WIRELESS
   *DEL*:           000004H   BYTE   UNIT     EDATA          ?ED?WIRELESS_UART_READ_BUFF??SEEKFREE_WIRELESS
   *DEL*:           000002H   BYTE   UNIT     EDATA          ?ED?WIRELESS_CH573_SEND_BUFF??SEEKFREE_WIRELESS_CH573
   *DEL*:           000004H   BYTE   UNIT     EDATA          ?ED?WIRELESS_CH573_READ_BUFF??SEEKFREE_WIRELESS_CH573
   *DEL*:           000004H   BYTE   UNIT     EDATA          ?ED?SAVE_INT??EEPROM
   *DEL*:           000004H   BYTE   UNIT     EDATA          ?ED?READ_INT??EEPROM



OVERLAY MAP OF MODULE:   .\Out_File\SEEKFREE (board)
L251 LINKER/LOCATER V4.66.93.0                                                        07/17/2023  21:05:08  PAGE 7




FUNCTION/MODULE                               EDATA_GROUP
--> CALLED FUNCTION/MODULE                    START  STOP
=========================================================
UART1_Isr?/isr                                ----- -----

*** NEW ROOT ********************************

UART2_Isr?/isr                                ----- -----

*** NEW ROOT ********************************

UART3_Isr?/isr                                ----- -----

*** NEW ROOT ********************************

UART4_Isr?/isr                                ----- -----
  +--> wireless_uart_callback?/SEEKFREE_WIRELESS
  +--> bluetooth_ch9141_uart_callback?/SEEKFREE_BLUETOOTH_CH9141
  +--> wireless_ch573_callback?/SEEKFREE_WIRELESS_CH573

wireless_uart_callback?/SEEKFREE_WIRELES+     ----- -----
... S
  +--> fifo_write_buffer?/zf_fifo

fifo_write_buffer?/zf_fifo                    001AH 0025H
  +--> memcpy??/MEMCPY?
  +--> fifo_head_offset?/zf_fifo

memcpy??/MEMCPY?                              ----- -----

fifo_head_offset?/zf_fifo                     ----- -----

bluetooth_ch9141_uart_callback?/SEEKFREE+     ----- -----
... _BLUETOOTH_CH9141
  +--> fifo_write_buffer?/zf_fifo

wireless_ch573_callback?/SEEKFREE_WIRELE+     ----- -----
... SS_CH573
  +--> fifo_write_buffer?/zf_fifo

*** NEW ROOT ********************************

INT0_Isr?/isr                                 ----- -----

*** NEW ROOT ********************************

INT1_Isr?/isr                                 ----- -----

*** NEW ROOT ********************************

INT2_Isr?/isr                                 ----- -----

*** NEW ROOT ********************************

INT3_Isr?/isr                                 ----- -----

*** NEW ROOT ********************************

INT4_Isr?/isr                                 ----- -----

*** NEW ROOT ********************************

TM0_Isr?/isr                                  ----- -----
L251 LINKER/LOCATER V4.66.93.0                                                        07/17/2023  21:05:08  PAGE 8



*** NEW ROOT ********************************

TM1_Isr?/isr                                  ----- -----

*** NEW ROOT ********************************

TM2_Isr?/isr                                  ----- -----

*** NEW ROOT ********************************

TM3_Isr?/isr                                  ----- -----

*** NEW ROOT ********************************

TM4_Isr?/isr                                  ----- -----
  +--> dl1a_get_distance?/SEEKFREE_DL1A
  +--> knn?/round
  +--> DirectionControl?/Direction
  +--> ctimer_count_read?/zf_tim
  +--> CHUKU?/park
  +--> Obstacle?/round
  +--> RuKu?/park
  +--> Round_Deal?/round
  +--> Cross?/round
  +--> dir_pid?/pid
  +--> read_encoder?/encoder
  +--> speedR_pid?/pid
  +--> speedL_pid?/pid
  +--> Control?/control
  +--> pwm_duty?/zf_pwm

dl1a_get_distance?/SEEKFREE_DL1A              0026H 0028H
  +--> dl1a_simiic_read_regs_1/SEEKFREE_DL1A
  +--> dl1a_simiic_write_reg/SEEKFREE_DL1A

dl1a_simiic_read_regs_1/SEEKFREE_DL1A         0029H 002EH
  +--> dl1a_simiic_start/SEEKFREE_DL1A
  +--> dl1a_send_ch/SEEKFREE_DL1A
  +--> dl1a_read_ch/SEEKFREE_DL1A
  +--> dl1a_simiic_stop/SEEKFREE_DL1A

dl1a_simiic_start/SEEKFREE_DL1A               ----- -----
  +--> dl1a_simiic_delay/SEEKFREE_DL1A

dl1a_simiic_delay/SEEKFREE_DL1A               ----- -----

dl1a_send_ch/SEEKFREE_DL1A                    ----- -----
  +--> dl1a_simiic_delay/SEEKFREE_DL1A
  +--> dl1a_sccb_waitack/SEEKFREE_DL1A

dl1a_sccb_waitack/SEEKFREE_DL1A               ----- -----
  +--> dl1a_simiic_delay/SEEKFREE_DL1A

dl1a_read_ch/SEEKFREE_DL1A                    ----- -----
  +--> dl1a_simiic_delay/SEEKFREE_DL1A
  +--> dl1a_simiic_sendack/SEEKFREE_DL1A

dl1a_simiic_sendack/SEEKFREE_DL1A             ----- -----
  +--> dl1a_simiic_delay/SEEKFREE_DL1A

dl1a_simiic_stop/SEEKFREE_DL1A                ----- -----
  +--> dl1a_simiic_delay/SEEKFREE_DL1A

dl1a_simiic_write_reg/SEEKFREE_DL1A           ----- -----
L251 LINKER/LOCATER V4.66.93.0                                                        07/17/2023  21:05:08  PAGE 9


  +--> dl1a_simiic_start/SEEKFREE_DL1A
  +--> dl1a_send_ch/SEEKFREE_DL1A
  +--> dl1a_simiic_stop/SEEKFREE_DL1A

knn?/round                                    ----- -----
  +--> pow??/POW??
  +--> abs??/ABS?

pow??/POW??                                   ----- -----
  +--> LOG??/LOG??

LOG??/LOG??                                   ----- -----

abs??/ABS?                                    ----- -----

DirectionControl?/Direction                   ----- -----
  +--> InductorNormal?/Direction
  +--> abs??/ABS?

InductorNormal?/Direction                     ----- -----
  +--> Read_ADC?/Direction

Read_ADC?/Direction                           0026H 00C7H
  +--> adc_once?/zf_adc

adc_once?/zf_adc                              ----- -----

ctimer_count_read?/zf_tim                     ----- -----

CHUKU?/park                                   ----- -----

Obstacle?/round                               ----- -----
  +--> ctimer_count_read?/zf_tim
  +--> mpu660_angle?/pid
  +--> abs??/ABS?

mpu660_angle?/pid                             ----- -----
  +--> mpu660_PID?/pid

mpu660_PID?/pid                               0026H 0039H
  +--> imu660ra_get_gyro?/SEEKFREE_IMU660RA
  +--> imu660ra_gyro_transition?/SEEKFREE_IMU660RA
  +--> abs??/ABS?

imu660ra_get_gyro?/SEEKFREE_IMU660RA          003AH 0040H
  +--> imu660ra_read_registers/SEEKFREE_IMU660RA

imu660ra_read_registers/SEEKFREE_IMU660R+     ----- -----
... A
  +--> imu660ra_simspi_r_reg_bytes/SEEKFREE_IMU660RA

imu660ra_simspi_r_reg_bytes/SEEKFREE_IMU+     00CAH 00CDH
... 660RA
  +--> imu660ra_simspi_wr_byte/SEEKFREE_IMU660RA

imu660ra_simspi_wr_byte/SEEKFREE_IMU660R+     ----- -----
... A

imu660ra_gyro_transition?/SEEKFREE_IMU66+     ----- -----
... 0RA

RuKu?/park                                    ----- -----
  +--> ctimer_count_read?/zf_tim
  +--> mpu660_angle?/pid
  +--> abs??/ABS?
L251 LINKER/LOCATER V4.66.93.0                                                        07/17/2023  21:05:08  PAGE 10



Round_Deal?/round                             ----- -----
  +--> Huan_Dao_Z?/round
  +--> Huan_Dao_R?/round

Huan_Dao_Z?/round                             ----- -----
  +--> ctimer_count_read?/zf_tim
  +--> mpu660_angle?/pid
  +--> abs??/ABS?
  +--> Ordinary_trace?/pid

Ordinary_trace?/pid                           ----- -----
  +--> mpu660_PID?/pid
  +--> IMU660ra_Angle_Y_V_Filter?/pid
  +--> Target_speed?/pid

IMU660ra_Angle_Y_V_Filter?/pid                0026H 0039H
  +--> imu660ra_get_gyro?/SEEKFREE_IMU660RA
  +--> imu660ra_gyro_transition?/SEEKFREE_IMU660RA

Target_speed?/pid                             ----- -----
  +--> abs??/ABS?

Huan_Dao_R?/round                             ----- -----
  +--> ctimer_count_read?/zf_tim
  +--> mpu660_angle?/pid
  +--> abs??/ABS?
  +--> Ordinary_trace?/pid

Cross?/round                                  ----- -----
  +--> ctimer_count_read?/zf_tim
  +--> abs??/ABS?

dir_pid?/pid                                  ----- -----
  +--> Ordinary_trace?/pid

read_encoder?/encoder                         ----- -----
  +--> ctimer_count_read?/zf_tim
  +--> ctimer_count_clean?/zf_tim

ctimer_count_clean?/zf_tim                    ----- -----

speedR_pid?/pid                               ----- -----

speedL_pid?/pid                               ----- -----

Control?/control                              ----- -----
  +--> pwm_duty?/zf_pwm

pwm_duty?/zf_pwm                              ----- -----

*** NEW ROOT ********************************

?C_C51STARTUP                                 ----- -----

*** NEW ROOT ********************************

?C_C51STARTUP?3                               ----- -----
  +--> main?/main

main?/main                                    ----- -----
  +--> board_init?/board
  +--> adc_init?/zf_adc
  +--> pwm_init?/zf_pwm
  +--> gpio_mode?/zf_gpio
L251 LINKER/LOCATER V4.66.93.0                                                        07/17/2023  21:05:08  PAGE 11


  +--> lcd_init?/SEEKFREE_18TFT
  +--> EnableGlobalIRQ?/board
  +--> ctimer_count_init?/zf_tim
  +--> delay_ms?/zf_delay
  +--> PRINTF?/PRINTF?
  +--> imu660ra_init?/SEEKFREE_IMU660RA
  +--> dl1a_init?/SEEKFREE_DL1A
  +--> pit_timer_ms?/zf_tim
  +--> Keystroke_Scan?/key
  +--> Keystroke_Menu?/key

board_init?/board                             ----- -----
  +--> set_clk?/board
  +--> delay_init?/zf_delay
  +--> uart_init?/zf_uart
  +--> EnableGlobalIRQ?/board

set_clk?/board                                ----- -----

delay_init?/zf_delay                          ----- -----
  +--> ?C?SLDIV?/?C?SLDIV?

?C?SLDIV?/?C?SLDIV?                           ----- -----
  +--> ?C?ULIDIV?/?C?ULDIV?

?C?ULIDIV?/?C?ULDIV?                          ----- -----

uart_init?/zf_uart                            00C8H 00CDH
  +--> ?C?ULIDIV?/?C?ULDIV?

EnableGlobalIRQ?/board                        ----- -----

adc_init?/zf_adc                              ----- -----

pwm_init?/zf_pwm                              00C8H 00D3H
  +--> pwm_set_gpio?/zf_pwm
  +--> ?C?ULIDIV?/?C?ULDIV?

pwm_set_gpio?/zf_pwm                          ----- -----
  +--> gpio_mode?/zf_gpio

gpio_mode?/zf_gpio                            ----- -----

lcd_init?/SEEKFREE_18TFT                      ----- -----
  +--> spi_init?/zf_spi
  +--> delay_ms?/zf_delay
  +--> lcd_writeIndex?/SEEKFREE_18TFT
  +--> lcd_writeData?/SEEKFREE_18TFT
  +--> lcd_clear?/SEEKFREE_18TFT

spi_init?/zf_spi                              00C8H 00CBH
  +--> gpio_mode?/zf_gpio

delay_ms?/zf_delay                            ----- -----

lcd_writeIndex?/SEEKFREE_18TFT                ----- -----
  +--> spi_mosi?/zf_spi

spi_mosi?/zf_spi                              ----- -----

lcd_writeData?/SEEKFREE_18TFT                 ----- -----
  +--> spi_mosi?/zf_spi

lcd_clear?/SEEKFREE_18TFT                     ----- -----
  +--> lcd_set_region?/SEEKFREE_18TFT
L251 LINKER/LOCATER V4.66.93.0                                                        07/17/2023  21:05:08  PAGE 12


  +--> lcd_writedata_16bit?/SEEKFREE_18TFT

lcd_set_region?/SEEKFREE_18TFT                00FEH 0101H
  +--> lcd_writeIndex?/SEEKFREE_18TFT
  +--> lcd_writeData?/SEEKFREE_18TFT

lcd_writedata_16bit?/SEEKFREE_18TFT           00FEH 00FFH
  +--> spi_mosi?/zf_spi

ctimer_count_init?/zf_tim                     ----- -----

PRINTF?/PRINTF?                               00DAH 0101H
  +--> OUT/PRINTF?

OUT/PRINTF?                                   ----- -----
  +--> PUTCH/PRINTF?

PUTCH/PRINTF?                                 ----- -----
  +--> putchar?/board
  +--> OUT/PRINTF?

putchar?/board                                ----- -----
  +--> uart_putchar?/zf_uart

uart_putchar?/zf_uart                         ----- -----

imu660ra_init?/SEEKFREE_IMU660RA              ----- -----
  +--> delay_ms?/zf_delay
  +--> imu660ra_self_check/SEEKFREE_IMU660RA
  +--> lcd_showfloat?/SEEKFREE_18TFT
  +--> PRINTF?/PRINTF?
  +--> imu660ra_write_register/SEEKFREE_IMU660RA
  +--> imu660ra_write_registers/SEEKFREE_IMU660RA
  +--> imu660ra_read_register/SEEKFREE_IMU660RA

imu660ra_self_check/SEEKFREE_IMU660RA         ----- -----
  +--> imu660ra_read_register/SEEKFREE_IMU660RA
  +--> delay_ms?/zf_delay

imu660ra_read_register/SEEKFREE_IMU660RA      00C8H 00C9H
  +--> imu660ra_simspi_r_reg_bytes/SEEKFREE_IMU660RA

lcd_showfloat?/SEEKFREE_18TFT                 00C9H 00F3H
  +--> zf_sprintf?/SEEKFREE_PRINTF
  +--> lcd_showstr?/SEEKFREE_18TFT

zf_sprintf?/SEEKFREE_PRINTF                   00F4H 0152H
  +--> number_conversion_ascii?/SEEKFREE_PRINTF
  +--> printf_reverse_order?/SEEKFREE_PRINTF
  +--> memcpy??/MEMCPY?

number_conversion_ascii?/SEEKFREE_PRINTF      0153H 0153H
  +--> ?C?SLDIV?/?C?SLDIV?
  +--> ?C?ULIDIV?/?C?ULDIV?

printf_reverse_order?/SEEKFREE_PRINTF         ----- -----

lcd_showstr?/SEEKFREE_18TFT                   00F4H 00F9H
  +--> lcd_showchar?/SEEKFREE_18TFT

lcd_showchar?/SEEKFREE_18TFT                  00FAH 00FDH
  +--> lcd_set_region?/SEEKFREE_18TFT
  +--> lcd_writedata_16bit?/SEEKFREE_18TFT

imu660ra_write_register/SEEKFREE_IMU660R+     ----- -----
L251 LINKER/LOCATER V4.66.93.0                                                        07/17/2023  21:05:08  PAGE 13


... A
  +--> imu660ra_simspi_w_reg_byte/SEEKFREE_IMU660RA

imu660ra_simspi_w_reg_byte/SEEKFREE_IMU6+     ----- -----
... 60RA
  +--> imu660ra_simspi_wr_byte/SEEKFREE_IMU660RA

imu660ra_write_registers/SEEKFREE_IMU660+     ----- -----
... RA
  +--> imu660ra_simspi_w_reg_bytes/SEEKFREE_IMU660RA

imu660ra_simspi_w_reg_bytes/SEEKFREE_IMU+     00C8H 00CBH
... 660RA
  +--> imu660ra_simspi_wr_byte/SEEKFREE_IMU660RA

dl1a_init?/SEEKFREE_DL1A                      00C8H 00D9H
  +--> memset??/MEMSET?
  +--> delay_ms?/zf_delay
  +--> dl1a_simiic_read_reg/SEEKFREE_DL1A
  +--> dl1a_simiic_write_reg/SEEKFREE_DL1A
  +--> dl1a_simiic_read_regs/SEEKFREE_DL1A
  +--> dl1a_set_signal_rate_limit/SEEKFREE_DL1A
  +--> dl1a_get_spad_info/SEEKFREE_DL1A
  +--> PRINTF?/PRINTF?
  +--> dl1a_simiic_write_dats/SEEKFREE_DL1A
  +--> dl1a_get_measurement_timing_budget/SEEKFREE_DL1A
  +--> dl1a_set_measurement_timing_budget/SEEKFREE_DL1A
  +--> dl1a_perform_single_ref_calibration/SEEKFREE_DL1A

memset??/MEMSET?                              ----- -----

dl1a_simiic_read_reg/SEEKFREE_DL1A            ----- -----
  +--> dl1a_simiic_start/SEEKFREE_DL1A
  +--> dl1a_send_ch/SEEKFREE_DL1A
  +--> dl1a_read_ch/SEEKFREE_DL1A
  +--> dl1a_simiic_stop/SEEKFREE_DL1A

dl1a_simiic_read_regs/SEEKFREE_DL1A           0104H 0109H
  +--> dl1a_simiic_start/SEEKFREE_DL1A
  +--> dl1a_send_ch/SEEKFREE_DL1A
  +--> dl1a_read_ch/SEEKFREE_DL1A
  +--> dl1a_simiic_stop/SEEKFREE_DL1A

dl1a_set_signal_rate_limit/SEEKFREE_DL1A      00DAH 00DCH
  +--> dl1a_simiic_write_dats/SEEKFREE_DL1A

dl1a_simiic_write_dats/SEEKFREE_DL1A          00FDH 0101H
  +--> dl1a_simiic_start/SEEKFREE_DL1A
  +--> dl1a_send_ch/SEEKFREE_DL1A
  +--> dl1a_simiic_stop/SEEKFREE_DL1A

dl1a_get_spad_info/SEEKFREE_DL1A              00DAH 00E1H
  +--> dl1a_simiic_write_reg/SEEKFREE_DL1A
  +--> dl1a_simiic_read_regs/SEEKFREE_DL1A

dl1a_get_measurement_timing_budget/SEEKF+     00DAH 00F4H
... REE_DL1A
  +--> dl1a_get_sequence_step_enables/SEEKFREE_DL1A
  +--> dl1a_get_sequence_step_timeouts/SEEKFREE_DL1A

dl1a_get_sequence_step_enables/SEEKFREE_+     00FDH 00FDH
... DL1A
  +--> dl1a_simiic_read_regs/SEEKFREE_DL1A

dl1a_get_sequence_step_timeouts/SEEKFREE+     00FDH 0102H
L251 LINKER/LOCATER V4.66.93.0                                                        07/17/2023  21:05:08  PAGE 14


... _DL1A
  +--> dl1a_get_vcsel_pulse_period/SEEKFREE_DL1A
  +--> dl1a_simiic_read_regs/SEEKFREE_DL1A
  +--> dl1a_timeout_mclks_to_microseconds/SEEKFREE_DL1A
  +--> dl1a_decode_timeout/SEEKFREE_DL1A

dl1a_get_vcsel_pulse_period/SEEKFREE_DL1+     0103H 0103H
... A
  +--> dl1a_simiic_read_regs/SEEKFREE_DL1A

dl1a_timeout_mclks_to_microseconds/SEEKF+     ----- -----
... REE_DL1A
  +--> ?C?ULIDIV?/?C?ULDIV?

dl1a_decode_timeout/SEEKFREE_DL1A             ----- -----

dl1a_set_measurement_timing_budget/SEEKF+     00DAH 00FCH
... REE_DL1A
  +--> dl1a_get_sequence_step_enables/SEEKFREE_DL1A
  +--> dl1a_get_sequence_step_timeouts/SEEKFREE_DL1A
  +--> dl1a_timeout_microseconds_to_mclks/SEEKFREE_DL1A
  +--> dl1a_encode_timeout/SEEKFREE_DL1A
  +--> dl1a_simiic_write_dats/SEEKFREE_DL1A

dl1a_timeout_microseconds_to_mclks/SEEKF+     ----- -----
... REE_DL1A
  +--> ?C?ULIDIV?/?C?ULDIV?

dl1a_encode_timeout/SEEKFREE_DL1A             ----- -----

dl1a_perform_single_ref_calibration/SEEK+     00DAH 00DCH
... FREE_DL1A
  +--> dl1a_simiic_write_reg/SEEKFREE_DL1A
  +--> dl1a_simiic_read_regs/SEEKFREE_DL1A

pit_timer_ms?/zf_tim                          ----- -----
  +--> ?C?SLDIV?/?C?SLDIV?

Keystroke_Scan?/key                           ----- -----

Keystroke_Menu?/key                           ----- -----
  +--> Keystroke_Menu_HOME?/key
  +--> Keystroke_Menu_ONE?/key
  +--> Keystroke_Menu_ONE_One?/key
  +--> Keystroke_Menu_ONE_Two?/key
  +--> Keystroke_Menu_ONE_Three?/key
  +--> Keystroke_Menu_ONE_Four?/key
  +--> Keystroke_Menu_TWO?/key
  +--> Keystroke_Menu_TWO_One?/key
  +--> Keystroke_Menu_TWO_Two?/key
  +--> Keystroke_Menu_TWO_Three?/key
  +--> Keystroke_Menu_TWO_Four?/key
  +--> Keystroke_Menu_TWO_Six?/key
  +--> Keystroke_Menu_TWO_Seven?/key
  +--> Keystroke_Menu_TWO_Eight?/key
  +--> Keystroke_Menu_THREE?/key
  +--> Keystroke_Menu_THREE_One?/key
  +--> Keystroke_Menu_THREE_Two?/key
  +--> Keystroke_Menu_THREE_Three?/key
  +--> Keystroke_Menu_THREE_Four?/key
  +--> Keystroke_Menu_FOUR?/key
  +--> Keystroke_Menu_FIVE?/key
  +--> Keystroke_Menu_FIVE_One?/key
  +--> Keystroke_Menu_FIVE_Two?/key
  +--> Keystroke_Menu_FIVE_Three?/key
L251 LINKER/LOCATER V4.66.93.0                                                        07/17/2023  21:05:08  PAGE 15


  +--> Keystroke_Menu_FIVE_Four?/key

Keystroke_Menu_HOME?/key                      ----- -----
  +--> lcd_showstr?/SEEKFREE_18TFT
  +--> Cursor?/key
  +--> lcd_clear?/SEEKFREE_18TFT

Cursor?/key                                   ----- -----
  +--> Keystroke_Scan?/key
  +--> lcd_showstr?/SEEKFREE_18TFT

Keystroke_Menu_ONE?/key                       ----- -----
  +--> Menu_ONE_Display?/key
  +--> Cursor?/key
  +--> lcd_clear?/SEEKFREE_18TFT

Menu_ONE_Display?/key                         ----- -----
  +--> lcd_showstr?/SEEKFREE_18TFT
  +--> lcd_showint32?/SEEKFREE_18TFT

lcd_showint32?/SEEKFREE_18TFT                 00C8H 00EFH
  +--> zf_sprintf?/SEEKFREE_PRINTF
  +--> lcd_showstr?/SEEKFREE_18TFT

Keystroke_Menu_ONE_One?/key                   ----- -----
  +--> Menu_ONE_Display?/key
  +--> Keystroke_Special_Value?/key

Keystroke_Special_Value?/key                  ----- -----
  +--> Keystroke_Scan?/key
  +--> lcd_clear?/SEEKFREE_18TFT

Keystroke_Menu_ONE_Two?/key                   ----- -----
  +--> Menu_ONE_Display?/key
  +--> Keystroke_Special_Value?/key

Keystroke_Menu_ONE_Three?/key                 ----- -----
  +--> Menu_ONE_Display?/key

Keystroke_Menu_ONE_Four?/key                  ----- -----
  +--> Menu_ONE_Display?/key

Keystroke_Menu_TWO?/key                       ----- -----
  +--> Menu_TWO_Display?/key
  +--> Cursor?/key
  +--> lcd_clear?/SEEKFREE_18TFT

Menu_TWO_Display?/key                         ----- -----
  +--> lcd_showstr?/SEEKFREE_18TFT
  +--> lcd_showint32?/SEEKFREE_18TFT

Keystroke_Menu_TWO_One?/key                   ----- -----
  +--> Menu_TWO_Display?/key
  +--> Keystroke_Special_Value?/key

Keystroke_Menu_TWO_Two?/key                   ----- -----
  +--> Menu_TWO_Display?/key
  +--> Keystroke_Special_Value?/key

Keystroke_Menu_TWO_Three?/key                 ----- -----
  +--> Menu_TWO_Display?/key
  +--> Keystroke_Special_Value?/key

Keystroke_Menu_TWO_Four?/key                  ----- -----
  +--> Menu_TWO_Display?/key
L251 LINKER/LOCATER V4.66.93.0                                                        07/17/2023  21:05:08  PAGE 16


  +--> Keystroke_Special_Value?/key

Keystroke_Menu_TWO_Six?/key                   ----- -----
  +--> Menu_TWO_Display?/key

Keystroke_Menu_TWO_Seven?/key                 ----- -----
  +--> Menu_TWO_Display?/key

Keystroke_Menu_TWO_Eight?/key                 ----- -----
  +--> Menu_TWO_Display?/key

Keystroke_Menu_THREE?/key                     ----- -----
  +--> Menu_THREE_Display?/key
  +--> Cursor?/key
  +--> lcd_clear?/SEEKFREE_18TFT

Menu_THREE_Display?/key                       ----- -----
  +--> lcd_showstr?/SEEKFREE_18TFT
  +--> lcd_showfloat?/SEEKFREE_18TFT

Keystroke_Menu_THREE_One?/key                 ----- -----
  +--> Menu_THREE_Display?/key
  +--> KeystrokeLabel_Switch?/key

KeystrokeLabel_Switch?/key                    00C8H 00C8H
  +--> lcd_showfloat?/SEEKFREE_18TFT
  +--> iap_read_bytes?/zf_eeprom
  +--> read_float?/eeprom
  +--> Keystroke_Scan?/key
  +--> save_float?/eeprom
  +--> lcd_clear?/SEEKFREE_18TFT

iap_read_bytes?/zf_eeprom                     02D1H 02D4H
  +--> eeprom_trig?/zf_eeprom

eeprom_trig?/zf_eeprom                        ----- -----

read_float?/eeprom                            00C9H 00CCH

save_float?/eeprom                            00C9H 00CCH
  +--> extern_iap_write_bytes?/zf_eeprom

extern_iap_write_bytes?/zf_eeprom             00CDH 02D0H
  +--> iap_read_bytes?/zf_eeprom
  +--> iap_erase_page?/zf_eeprom
  +--> iap_write_bytes?/zf_eeprom

iap_erase_page?/zf_eeprom                     ----- -----
  +--> eeprom_trig?/zf_eeprom

iap_write_bytes?/zf_eeprom                    02D1H 02D4H
  +--> eeprom_trig?/zf_eeprom

Keystroke_Menu_THREE_Two?/key                 ----- -----
  +--> Menu_THREE_Display?/key
  +--> KeystrokeLabel_Switch?/key

Keystroke_Menu_THREE_Three?/key               ----- -----
  +--> Menu_THREE_Display?/key
  +--> KeystrokeLabel_Switch?/key

Keystroke_Menu_THREE_Four?/key                ----- -----
  +--> Menu_THREE_Display?/key
  +--> KeystrokeLabel_Switch?/key

L251 LINKER/LOCATER V4.66.93.0                                                        07/17/2023  21:05:08  PAGE 17


Keystroke_Menu_FOUR?/key                      ----- -----
  +--> lcd_showfloat?/SEEKFREE_18TFT
  +--> lcd_showstr?/SEEKFREE_18TFT
  +--> lcd_showint32?/SEEKFREE_18TFT
  +--> Keystroke_Scan?/key
  +--> lcd_clear?/SEEKFREE_18TFT

Keystroke_Menu_FIVE?/key                      ----- -----
  +--> Menu_FIVE_Display?/key
  +--> Cursor?/key
  +--> lcd_clear?/SEEKFREE_18TFT

Menu_FIVE_Display?/key                        ----- -----
  +--> lcd_showstr?/SEEKFREE_18TFT
  +--> lcd_showfloat?/SEEKFREE_18TFT

Keystroke_Menu_FIVE_One?/key                  ----- -----
  +--> Menu_FIVE_Display?/key
  +--> Keystroke_Scan?/key
  +--> lcd_clear?/SEEKFREE_18TFT

Keystroke_Menu_FIVE_Two?/key                  ----- -----
  +--> Menu_FIVE_Display?/key
  +--> Keystroke_Scan?/key
  +--> lcd_clear?/SEEKFREE_18TFT

Keystroke_Menu_FIVE_Three?/key                ----- -----
  +--> Menu_FIVE_Display?/key
  +--> Keystroke_Scan?/key
  +--> lcd_clear?/SEEKFREE_18TFT

Keystroke_Menu_FIVE_Four?/key                 ----- -----
  +--> Menu_FIVE_Display?/key
  +--> Keystroke_Scan?/key
  +--> lcd_clear?/SEEKFREE_18TFT

*** NEW ROOT ********************************

?C_C51STARTUP?2                               ----- -----



PUBLIC SYMBOLS OF MODULE:  .\Out_File\SEEKFREE (board)


      VALUE       CLASS    TYPE      PUBLIC SYMBOL NAME
      =================================================
      00FF81F4H   ECODE    FAR LAB   ?C?CASTF?
      000000FFH   NUMBER   ---       ?C?CODESEG
      00FF81C1H   ECODE    FAR LAB   ?C?FCASTC?
      00FF81BCH   ECODE    FAR LAB   ?C?FCASTI?
      00FF81B7H   ECODE    FAR LAB   ?C?FCASTL?
      00FF8A4CH   ECODE    ---       ?C?FP2SERIES?
      00FF7F98H   ECODE    ---       ?C?FPADD?
      00FF8171H   ECODE    ---       ?C?FPCMP3?
      00FF8173H   ECODE    ---       ?C?FPCMP?
      00FF894FH   ECODE    ---       ?C?FPCONVERT?
      00FF80F0H   ECODE    ---       ?C?FPDIV?
      00FF82F0H   ECODE    ---       ?C?FPGETOPN2?
      00FF8050H   ECODE    ---       ?C?FPMUL?
      00FF832DH   ECODE    ---       ?C?FPNANRESULT?
      00FF835EH   ECODE    ---       ?C?FPNEG?
      00FF8335H   ECODE    ---       ?C?FPOVERFLOW?
      00FF831FH   ECODE    ---       ?C?FPRESULT2?
      00FF8309H   ECODE    ---       ?C?FPRESULT?
L251 LINKER/LOCATER V4.66.93.0                                                        07/17/2023  21:05:08  PAGE 18


      00FF8A09H   ECODE    ---       ?C?FPROUND?
      00FF8A56H   ECODE    ---       ?C?FPSERIES?
      00FF7F95H   ECODE    ---       ?C?FPSUB?
      00FF8332H   ECODE    ---       ?C?FPUNDERFLOW?
      00FF8AACH   ECODE    ---       ?C?FTNPWR?
      00FF2EC2H   CODE     ---       ?C?INITEDATA
      00FFDEC8H   HCONST   WORD      ?C?INITEDATA_END
      00FF8B27H   ECODE    ---       ?C?LIMUL?
      00FF8B16H   ECODE    ---       ?C?LMUL?
      00FF8399H   ECODE    ---       ?C?PRNFMT?
      00FF8AE4H   ECODE    ---       ?C?SIDIV?
      00FF8B83H   ECODE    FAR LAB   ?C?SLDIV?
      00FF0000H   CODE     ---       ?C?STARTUP?
      00FF8B32H   ECODE    FAR LAB   ?C?ULDIV?
      00FF8B30H   ECODE    FAR LAB   ?C?ULIDIV?
      00000001H   NUMBER   ---       ?C?XDATASEG
      00FF0000H   CODE     ---       ?C_STARTUP?
*DEL*:1FFFFFF8H   EDATA    BYTE      ?data_conversion??BYTE
      000007B1H   EDATA    BYTE      ?fifo_init??BYTE
      00000748H   EDATA    BYTE      ?fifo_read_buffer??BYTE
      00000016H   EDATA    BYTE      ?fifo_write_buffer??BYTE
*DEL*:1FFFFFFAH   EDATA    BYTE      ?iic_init??BYTE
*DEL*:1FFFFFFCH   EDATA    BYTE      ?ips114_showfloat??BYTE
*DEL*:1FFFFFFCH   EDATA    BYTE      ?ips114_showfloat_simspi??BYTE
      000000C5H   EDATA    BYTE      ?lcd_showfloat??BYTE
*DEL*:1FFFFFFCH   EDATA    BYTE      ?lcd_showfloat_simspi??BYTE
      0000014AH   EDATA    BYTE      ?number_conversion_ascii??BYTE
*DEL*:1FFFFFFCH   EDATA    BYTE      ?oled_printf_float??BYTE
*DEL*:1FFFFFFCH   EDATA    BYTE      ?oled_printf_float_spi??BYTE
      00000102H   EDATA    ---       ?printf??BYTE
*DEL*:1FFFFFFAH   EDATA    BYTE      ?pwm_freq??BYTE
      000000C6H   EDATA    BYTE      ?pwm_init??BYTE
      000000BFH   EDATA    BYTE      ?spi_init??BYTE
      000000C2H   EDATA    BYTE      ?uart_init??BYTE
      0000011CH   EDATA    BYTE      ?zf_sprintf??BYTE
      00FF8341H   ECODE    ---       _chkfloat_??
      00FF0067H   ECODE    ---       abs??
*SFR* 000000BCH   DATA     BYTE      ADC_CONTR
      00FFDAB5H   ECODE    ---       adc_init?
      00FFDB13H   ECODE    ---       adc_once?
*SFR* 000000BDH   DATA     BYTE      ADC_RES
*SFR* 000000BEH   DATA     BYTE      ADC_RESL
*SFR* 000000DEH   DATA     BYTE      ADCCFG
      00000583H   EDATA    FLOAT     angle
      000005DBH   EDATA    FLOAT     angle_kp1
      000005D7H   EDATA    FLOAT     angle_y
      00FFCB0FH   ECODE    ---       at24c02_read_byte?
      00FFCB81H   ECODE    ---       at24c02_read_bytes?
      00FFCAF5H   ECODE    ---       at24c02_write_byte?
      00FFCB25H   ECODE    ---       at24c02_write_bytes?
*SFR* 000000EFH   DATA     BYTE      AUXINTIF
*SFR* 0000008EH   DATA     BYTE      AUXR
*SFR* 00000097H   DATA     BYTE      AUXR2
      00FFD439H   ECODE    ---       bluetooth_ch9141_init?
      00FFD526H   ECODE    ---       bluetooth_ch9141_read_buff?
      00FFD477H   ECODE    ---       bluetooth_ch9141_send_buff?
      00FFD41FH   ECODE    ---       bluetooth_ch9141_uart_callback?
      00FFCED9H   ECODE    ---       board_init?
      0000049EH   EDATA    ---       busy
*SFR* 000000F1H   DATA     BYTE      CANICR
*DEL*:0000008EH   ECODE    ---       ccd_collect?
      000002D6H   EDATA    ---       ccd_data
*DEL*:00000000H   ECODE    ---       ccd_init?
*DEL*:00000018H   ECODE    ---       ccd_send_data?
      00000587H   EDATA    FLOAT     cha_err1
L251 LINKER/LOCATER V4.66.93.0                                                        07/17/2023  21:05:08  PAGE 19


      0000058BH   EDATA    FLOAT     cha_err2
      00FFCBE1H   ECODE    ---       CHUKU?
      0000073CH   EDATA    INT       CK_count
      00000744H   EDATA    INT       CK_count2
*SFR* 000000EAH   DATA     BYTE      CKCON
*SFR* 000000E6H   DATA     BYTE      CMPCR1
*SFR* 000000E7H   DATA     BYTE      CMPCR2
      00FFDB41H   ECODE    ---       Control?
      00FFDA11H   ECODE    ---       CRC_CHECK?
      00FF941AH   ECODE    ---       Cross?
      000006F6H   EDATA    INT       cross_flag
      00FFD1E7H   ECODE    ---       ctimer_count_clean?
      00FFD150H   ECODE    ---       ctimer_count_init?
      00FFD19AH   ECODE    ---       ctimer_count_read?
      00FF5395H   ECODE    ---       Cursor?
      0000071DH   EDATA    BYTE      CursorRow
      00FFDA4BH   ECODE    ---       data_conversion?
      0000051BH   EDATA    ---       date_buff
      00FFDBBAH   ECODE    ---       delay_init?
      00FFDBF5H   ECODE    ---       delay_ms?
      00FFDC0CH   ECODE    ---       delay_us?
      00000008H   DATA     ---       diangan
      00FFA8DCH   ECODE    ---       dir_pid?
      00FFA6CDH   ECODE    ---       DirectionControl?
      00FFCF80H   ECODE    ---       DisableGlobalIRQ?
      0000071EH   EDATA    INT       Dispay_Codename
      000007E1H   EDATA    WORD      dl1a_distance_mm
      000007E3H   EDATA    BYTE      dl1a_finsh_flag
      00FF7911H   ECODE    ---       dl1a_get_distance?
      00FF796EH   ECODE    ---       dl1a_init?
      0000078DH   EDATA    INT       duty1
      0000078FH   EDATA    INT       duty2
      00000708H   EDATA    INT       e_r1
      0000070AH   EDATA    INT       e_r2
*SFR* 000000A8H.7 DATA     BIT       EA
*SFR* 000000BAH.7 DATA     BIT       EAXFR
      00FFD549H   ECODE    ---       eeprom_init?
      00FFD2CDH   ECODE    ---       eeprom_trig?
      00FFCF83H   ECODE    ---       EnableGlobalIRQ?
      00FFBF62H   ECODE    ---       encoder_angle_simspi?
      00FFC081H   ECODE    ---       encoder_angle_spi?
      00FFBE6CH   ECODE    ---       encoder_delay_us?
      00FFBF99H   ECODE    ---       encoder_init_simspi?
      00FFC0B8H   ECODE    ---       encoder_init_spi?
      00FFBF87H   ECODE    ---       encoder_self4_check?
      00FFC0A6H   ECODE    ---       encoder_self5_check?
      00FFBF08H   ECODE    ---       encoder_simspi_r_reg_byte?
      00FFBECBH   ECODE    ---       encoder_simspi_w_reg_byte?
      00FFC027H   ECODE    ---       encoder_spi_r_reg_byte?
      00FFBFEAH   ECODE    ---       encoder_spi_w_reg_byte?
      000005CBH   EDATA    INT       error1
      000005CDH   EDATA    INT       error2
      000005BDH   EDATA    INT       error_pre
      00000581H   EDATA    INT       error_pre2
*SFR* 000000A8H.4 DATA     BIT       ES
*SFR* 000000A8H.1 DATA     BIT       ET0
*SFR* 000000A8H.3 DATA     BIT       ET1
*SFR* 000000A8H.0 DATA     BIT       EX0
*SFR* 000000A8H.2 DATA     BIT       EX1
*DEL*:00000000H   ECODE    ---       exit_init?
      00FF87E1H   ECODE    ---       exp??
      00FFD3AFH   ECODE    ---       extern_iap_write_bytes?
*SFR* 000000D0H.5 DATA     BIT       F0
      00FFB9B3H   ECODE    ---       fifo_clear?
      00FFB96DH   ECODE    ---       fifo_end_offset?
L251 LINKER/LOCATER V4.66.93.0                                                        07/17/2023  21:05:08  PAGE 20


      00FFB92BH   ECODE    ---       fifo_head_offset?
      00FFB8E8H   ECODE    ---       fifo_init?
      00FFBAD2H   ECODE    ---       fifo_read_buffer?
      00FFB9D8H   ECODE    ---       fifo_used?
      00FFB9EDH   ECODE    ---       fifo_write_buffer?
      000006ECH   EDATA    INT       flag_c_hd
      0000070CH   EDATA    INT       flag_hd_R
      000006E4H   EDATA    INT       flag_hd_Z
      000006F0H   EDATA    INT       flag_r_hd
      0000059BH   EDATA    FLOAT     g_dirControl_D
      000005A3H   EDATA    FLOAT     g_dirControl_P
      000004C9H   EDATA    ---       g_fDirectionError
      000004BBH   EDATA    ---       g_fDirectionError_dot
      000004A9H   EDATA    ---       g_ValueOfAD
      000004DDH   EDATA    ---       g_ValueOfADFilter
      00000746H   EDATA    INT       garage_out_direction
      00FFADE7H   ECODE    ---       gpio_mode?
      00FFAD79H   ECODE    ---       gpio_pull_set?
      000005BFH   EDATA    FLOAT     gr
      000005B1H   EDATA    FLOAT     gr_y
      000006FEH   EDATA    FLOAT     Gyro_Pitch_Angle
      0000073AH   EDATA    INT       Hall
      00FF901DH   ECODE    ---       Huan_Dao_R?
      00FF8E91H   ECODE    ---       Huan_Dao_Z?
*SFR* 000000F6H   DATA     BYTE      IAP_ADDRE
*SFR* 000000C3H   DATA     BYTE      IAP_ADDRH
*SFR* 000000C4H   DATA     BYTE      IAP_ADDRL
*SFR* 000000C5H   DATA     BYTE      IAP_CMD
*SFR* 000000C7H   DATA     BYTE      IAP_CONTR
*SFR* 000000C2H   DATA     BYTE      IAP_DATA
      00FFD3A0H   ECODE    ---       iap_erase_page?
      00FFD2EDH   ECODE    ---       iap_get_cmd_state?
      00FFD2E9H   ECODE    ---       iap_idle?
      00FFD2E2H   ECODE    ---       iap_init?
      00FFD310H   ECODE    ---       iap_read_bytes?
      00FFD2F9H   ECODE    ---       iap_set_tps?
*SFR* 000000F5H   DATA     BYTE      IAP_TPS
*SFR* 000000C6H   DATA     BYTE      IAP_TRIG
      00FFD358H   ECODE    ---       iap_write_bytes?
      00FFC916H   ECODE    ---       icm20602_acc_transition?
      0000075BH   EDATA    INT       icm20602_acc_x
      0000075DH   EDATA    INT       icm20602_acc_y
      0000075FH   EDATA    INT       icm20602_acc_z
      00FFC896H   ECODE    ---       icm20602_get_acc?
      00FFC8D6H   ECODE    ---       icm20602_get_gyro?
      00FFC928H   ECODE    ---       icm20602_gyro_transition?
      00000761H   EDATA    INT       icm20602_gyro_x
      00000763H   EDATA    INT       icm20602_gyro_y
      00000765H   EDATA    INT       icm20602_gyro_z
      00FFC93CH   ECODE    ---       icm20602_init?
*SFR* 000000A8H   DATA     BYTE      IE
*SFR* 000000AFH   DATA     BYTE      IE2
      00FFB8B9H   ECODE    ---       iic_change_pin?
      00FFB5D6H   ECODE    ---       iic_delay_us?
      00FFB6CCH   ECODE    ---       iic_init?
      00FFB792H   ECODE    ---       iic_read_reg?
      00FFB811H   ECODE    ---       iic_read_reg_bytes?
      00FFB72AH   ECODE    ---       iic_write_reg?
      00FFC255H   ECODE    ---       imu660ra_acc_transition?
      00000767H   EDATA    INT       imu660ra_acc_x
      00000769H   EDATA    INT       imu660ra_acc_y
      0000076BH   EDATA    INT       imu660ra_acc_z
      00FFACBDH   ECODE    ---       IMU660ra_Angle_Y?
      00FFABFFH   ECODE    ---       IMU660ra_Angle_Y_V_Filter?
      00FF00A7H   CODE     ---       imu660ra_config_file
L251 LINKER/LOCATER V4.66.93.0                                                        07/17/2023  21:05:08  PAGE 21


      00FFC1D5H   ECODE    ---       imu660ra_get_acc?
      00FFC215H   ECODE    ---       imu660ra_get_gyro?
      00FFC267H   ECODE    ---       imu660ra_gyro_transition?
      0000076DH   EDATA    INT       imu660ra_gyro_x
      0000076FH   EDATA    INT       imu660ra_gyro_y
      00000771H   EDATA    INT       imu660ra_gyro_z
      00FFC27BH   ECODE    ---       imu660ra_init?
      00FFB4AAH   ECODE    ---       imu963ra_acc_transition?
      00000728H   EDATA    INT       imu963ra_acc_x
      0000072AH   EDATA    INT       imu963ra_acc_y
      0000072CH   EDATA    INT       imu963ra_acc_z
      00FFB3D3H   ECODE    ---       imu963ra_get_acc?
      00FFB413H   ECODE    ---       imu963ra_get_gyro?
      00FFB453H   ECODE    ---       imu963ra_get_mag?
      00FFB4ADH   ECODE    ---       imu963ra_gyro_transition?
      00000734H   EDATA    INT       imu963ra_gyro_x
      00000736H   EDATA    INT       imu963ra_gyro_y
      00000738H   EDATA    INT       imu963ra_gyro_z
      00FFB4C4H   ECODE    ---       imu963ra_init?
      00FFB4B0H   ECODE    ---       imu963ra_mag_transition?
      0000072EH   EDATA    INT       imu963ra_mag_x
      00000730H   EDATA    INT       imu963ra_mag_y
      00000732H   EDATA    INT       imu963ra_mag_z
      00FFA4ADH   ECODE    ---       InductorNormal?
      00FFC681H   ECODE    ---       INT0_Isr?
      00FFC684H   ECODE    ---       INT1_Isr?
      00FFC685H   ECODE    ---       INT2_Isr?
      00FFC689H   ECODE    ---       INT3_Isr?
      00FFC68DH   ECODE    ---       INT4_Isr?
*SFR* 0000008FH   DATA     BYTE      INTCLKO
*SFR* 000000B8H   DATA     BYTE      IP
*SFR* 000000B5H   DATA     BYTE      IP2
*SFR* 000000B6H   DATA     BYTE      IP2H
*SFR* 000000DFH   DATA     BYTE      IP3
*SFR* 000000EEH   DATA     BYTE      IP3H
*SFR* 000000B7H   DATA     BYTE      IPH
      00FF6C03H   ECODE    ---       ips114_clear?
      00FF646EH   ECODE    ---       ips114_clear_simspi?
      00FF6C41H   ECODE    ---       ips114_drawpoint?
      00FF64ACH   ECODE    ---       ips114_drawpoint_simspi?
      00FF6A08H   ECODE    ---       ips114_init?
      00FF6296H   ECODE    ---       ips114_init_simspi?
      00FF6BB4H   ECODE    ---       ips114_set_region?
      00FF6423H   ECODE    ---       ips114_set_region_simspi?
      00FF6C56H   ECODE    ---       ips114_showchar?
      00FF64C1H   ECODE    ---       ips114_showchar_simspi?
      00FF705DH   ECODE    ---       ips114_showfloat?
      00FF68D4H   ECODE    ---       ips114_showfloat_simspi?
      00FF6E68H   ECODE    ---       ips114_showint16?
      00FF66DBH   ECODE    ---       ips114_showint16_simspi?
      00FF6FD8H   ECODE    ---       ips114_showint32?
      00FF684FH   ECODE    ---       ips114_showint32_simspi?
      00FF6D32H   ECODE    ---       ips114_showint8?
      00FF659DH   ECODE    ---       ips114_showint8_simspi?
      00FF6CE3H   ECODE    ---       ips114_showstr?
      00FF654EH   ECODE    ---       ips114_showstr_simspi?
      00FF6F4CH   ECODE    ---       ips114_showuint16?
      00FF67C3H   ECODE    ---       ips114_showuint16_simspi?
      00FF6DEEH   ECODE    ---       ips114_showuint8?
      00FF665DH   ECODE    ---       ips114_showuint8_simspi?
      00FF69DCH   ECODE    ---       ips114_writeData?
      00FF69E7H   ECODE    ---       ips114_writedata_16bit?
      00FF6241H   ECODE    ---       ips114_writeData_simspi?
      00FF626AH   ECODE    ---       ips114_writeDatai_16bit_simspi?
      00FF69D1H   ECODE    ---       ips114_writeIndex?
L251 LINKER/LOCATER V4.66.93.0                                                        07/17/2023  21:05:08  PAGE 22


      00FF6218H   ECODE    ---       ips114_writeIndex_simspi?
*SFR* 0000009DH   DATA     BYTE      IRCBAND
*SFR* 0000009FH   DATA     BYTE      IRTRIM
*SFR* 00000088H.0 DATA     BIT       IT0
*SFR* 00000088H.2 DATA     BIT       IT1
      00000720H   EDATA    BYTE      key1_flag
      00000714H   EDATA    BYTE      key1_last_status
      0000070EH   EDATA    BYTE      key1_status
      00000721H   EDATA    BYTE      key2_flag
      00000715H   EDATA    BYTE      key2_last_status
      0000070FH   EDATA    BYTE      key2_status
      00000722H   EDATA    BYTE      key3_flag
      00000716H   EDATA    BYTE      key3_last_status
      00000710H   EDATA    BYTE      key3_status
      00000723H   EDATA    BYTE      key4_flag
      00000717H   EDATA    BYTE      key4_last_status
      00000711H   EDATA    BYTE      key4_status
      00FF55CDH   ECODE    ---       Keystroke_Menu?
      00FF5FFDH   ECODE    ---       Keystroke_Menu_FIVE?
      00FF61D1H   ECODE    ---       Keystroke_Menu_FIVE_Four?
      00FF605CH   ECODE    ---       Keystroke_Menu_FIVE_One?
      00FF618AH   ECODE    ---       Keystroke_Menu_FIVE_Three?
      00FF60F3H   ECODE    ---       Keystroke_Menu_FIVE_Two?
      00FF5C6CH   ECODE    ---       Keystroke_Menu_FOUR?
      00FF56ECH   ECODE    ---       Keystroke_Menu_HOME?
      00FF580BH   ECODE    ---       Keystroke_Menu_ONE?
      00FF58A4H   ECODE    ---       Keystroke_Menu_ONE_Four?
      00FF586AH   ECODE    ---       Keystroke_Menu_ONE_One?
      00FF5896H   ECODE    ---       Keystroke_Menu_ONE_Three?
      00FF5880H   ECODE    ---       Keystroke_Menu_ONE_Two?
      00FF5B9DH   ECODE    ---       Keystroke_Menu_THREE?
      00FF5C50H   ECODE    ---       Keystroke_Menu_THREE_Four?
      00FF5BFCH   ECODE    ---       Keystroke_Menu_THREE_One?
      00FF5C34H   ECODE    ---       Keystroke_Menu_THREE_Three?
      00FF5C18H   ECODE    ---       Keystroke_Menu_THREE_Two?
      00FF5A31H   ECODE    ---       Keystroke_Menu_TWO?
      00FF5B20H   ECODE    ---       Keystroke_Menu_TWO_Eight?
      00FF5AEEH   ECODE    ---       Keystroke_Menu_TWO_Four?
      00FF5AACH   ECODE    ---       Keystroke_Menu_TWO_One?
      00FF5B12H   ECODE    ---       Keystroke_Menu_TWO_Seven?
      00FF5B04H   ECODE    ---       Keystroke_Menu_TWO_Six?
      00FF5AD8H   ECODE    ---       Keystroke_Menu_TWO_Three?
      00FF5AC2H   ECODE    ---       Keystroke_Menu_TWO_Two?
      00FF52B3H   ECODE    ---       Keystroke_Scan?
      00FF5576H   ECODE    ---       Keystroke_Special_Value?
      0000071AH   EDATA    BYTE      KeystrokeLabel
      00FF5466H   ECODE    ---       KeystrokeLabel_Switch?
      00FF8BB9H   ECODE    ---       knn?
      00000597H   EDATA    FLOAT     last_err1
      0000059FH   EDATA    FLOAT     last_err2
      00FF4A78H   ECODE    ---       lcd_clear?
      00FF4245H   ECODE    ---       lcd_clear_simspi?
      00FF4CEFH   ECODE    ---       lcd_drawpoint?
      00FF44BFH   ECODE    ---       lcd_drawpoint_simspi?
      00FF4AA5H   ECODE    ---       lcd_init?
      00FF4272H   ECODE    ---       lcd_init_simspi?
      00FF4A1DH   ECODE    ---       lcd_set_region?
      00FF41EEH   ECODE    ---       lcd_set_region_simspi?
      00FF4D04H   ECODE    ---       lcd_showchar?
      00FF44D4H   ECODE    ---       lcd_showchar_simspi?
      00FF5119H   ECODE    ---       lcd_showfloat?
      00FF48E9H   ECODE    ---       lcd_showfloat_simspi?
      00FF4F20H   ECODE    ---       lcd_showint16?
      00FF46F0H   ECODE    ---       lcd_showint16_simspi?
      00FF5094H   ECODE    ---       lcd_showint32?
L251 LINKER/LOCATER V4.66.93.0                                                        07/17/2023  21:05:08  PAGE 23


      00FF4864H   ECODE    ---       lcd_showint32_simspi?
      00FF4DE2H   ECODE    ---       lcd_showint8?
      00FF45B2H   ECODE    ---       lcd_showint8_simspi?
      00FF4D93H   ECODE    ---       lcd_showstr?
      00FF4563H   ECODE    ---       lcd_showstr_simspi?
      00FF5008H   ECODE    ---       lcd_showuint16?
      00FF47D8H   ECODE    ---       lcd_showuint16_simspi?
      00FF4EA2H   ECODE    ---       lcd_showuint8?
      00FF4672H   ECODE    ---       lcd_showuint8_simspi?
      00FF49F1H   ECODE    ---       lcd_writeData?
      00FF49FCH   ECODE    ---       lcd_writedata_16bit?
      00FF41C2H   ECODE    ---       lcd_writeData_16bit_simspi?
      00FF4199H   ECODE    ---       lcd_writeData_simspi?
      00FF49E6H   ECODE    ---       lcd_writeIndex?
      00FF4170H   ECODE    ---       lcd_writeIndex_simspi?
      000004F1H   EDATA    INT       leftP
      000004A5H   EDATA    INT       leftS
      000004A7H   EDATA    INT       leftV
*SFR* 000000F9H   DATA     BYTE      LINICR
      00FF8874H   ECODE    FAR LAB   log??
      00FFD765H   ECODE    ---       main?
      00FFDC75H   ECODE    ---       memcpy??
      00FF0027H   ECODE    ---       memset??
      00FF5F0CH   ECODE    ---       Menu_FIVE_Display?
      00FF57A0H   ECODE    ---       Menu_ONE_Display?
      00FF5B2EH   ECODE    ---       Menu_THREE_Display?
      00FF58B2H   ECODE    ---       Menu_TWO_Display?
      0000071CH   EDATA    BYTE      MenuNextFlag
      000004EBH   EDATA    INT       middle
      000005B9H   EDATA    FLOAT     Motor_Ki_L
      000005C3H   EDATA    FLOAT     Motor_Ki_R
      000005C7H   EDATA    FLOAT     Motor_Kp_L
      000005D3H   EDATA    FLOAT     Motor_Kp_R
      00000773H   EDATA    INT       mpu6050_acc_x
      00000775H   EDATA    INT       mpu6050_acc_y
      00000777H   EDATA    INT       mpu6050_acc_z
      00FFBDEAH   ECODE    ---       mpu6050_get_accdata?
      00FFBE2BH   ECODE    ---       mpu6050_get_gyro?
      00000779H   EDATA    INT       mpu6050_gyro_x
      0000077BH   EDATA    INT       mpu6050_gyro_y
      0000077DH   EDATA    INT       mpu6050_gyro_z
      00FFBD8DH   ECODE    ---       mpu6050_init?
      00FFBCDBH   ECODE    ---       mpu6050_simiic_read_reg?
      00FFBD04H   ECODE    ---       mpu6050_simiic_read_regs?
      00FFAC94H   ECODE    ---       mpu660_angle?
      00FFAB36H   ECODE    ---       mpu660_PID?
      0000057FH   EDATA    INT       normal_speed
      000005A9H   EDATA    FLOAT     now_x
      000005ADH   EDATA    FLOAT     now_y
      00FF9D58H   ECODE    ---       number_conversion_ascii?
*DEL*:00000000H   ECODE    ---       NVIC_SetPriority?
      000006F4H   EDATA    INT       obstacle1_type
      000006F8H   EDATA    INT       obstacle2_type
      000006FAH   EDATA    INT       obstacle3_type
      00FF92BBH   ECODE    ---       Obstacle?
      00FF9256H   ECODE    ---       Obstacle_Deal?
      00000702H   EDATA    INT       obstacle_flag
      000006FCH   EDATA    INT       obstacle_number
      00FF2C87H   CODE     ---       oled_6x8
      00FF20A7H   CODE     ---       oled_8x16
      00FF30CAH   ECODE    ---       oled_clrpixel?
      00FF3A05H   ECODE    ---       oled_clrpixel_spi?
      00FF347EH   ECODE    ---       oled_dis_bmp?
      00FF3DB7H   ECODE    ---       oled_dis_bmp_spi?
      00FF305BH   ECODE    ---       oled_fill?
L251 LINKER/LOCATER V4.66.93.0                                                        07/17/2023  21:05:08  PAGE 24


      00FF3998H   ECODE    ---       oled_fill_spi?
      00FF2F41H   ECODE    ---       oled_hexascii?
      00FF3863H   ECODE    ---       oled_hexascii_spi?
      00FF2F73H   ECODE    ---       oled_init?
      00FF3895H   ECODE    ---       oled_init_spi?
      00FF32AEH   ECODE    ---       oled_int16?
      00FF3BE7H   ECODE    ---       oled_int16_spi?
      00FF30FBH   ECODE    ---       oled_p6x8str?
      00FF3A34H   ECODE    ---       oled_p6x8str_spi?
      00FF31A5H   ECODE    ---       oled_p8x16str?
      00FF3ADEH   ECODE    ---       oled_p8x16str_spi?
      00FF37BBH   ECODE    ---       oled_print_chinese?
      00FF40DEH   ECODE    ---       oled_print_chinese_spi?
      00FF3381H   ECODE    ---       oled_printf_float?
      00FF3CBAH   ECODE    ---       oled_printf_float_spi?
      00FF32FCH   ECODE    ---       oled_printf_int32?
      00FF3C35H   ECODE    ---       oled_printf_int32_spi?
      00FF3092H   ECODE    ---       oled_putpixel?
      00FF39CFH   ECODE    ---       oled_putpixel_spi?
      00FF3035H   ECODE    ---       oled_set_pos?
      00FF3974H   ECODE    ---       oled_set_pos_spi?
      00FF328FH   ECODE    ---       oled_uint16?
      00FF3BC8H   ECODE    ---       oled_uint16_spi?
      00FF2F18H   ECODE    ---       oled_wrcmd?
      00FF3858H   ECODE    ---       oled_wrcmd_spi?
      00FF2EEFH   ECODE    ---       oled_wrdat?
      00FF384DH   ECODE    ---       oled_wrdat_spi?
      00FFACE6H   ECODE    ---       Ordinary_trace?
*SFR* 00000080H   DATA     BYTE      P0
*SFR* 00000080H.7 DATA     BIT       P07
*SFR* 00000094H   DATA     BYTE      P0M0
*SFR* 00000093H   DATA     BYTE      P0M1
*SFR* 00000090H   DATA     BYTE      P1
*SFR* 00000092H   DATA     BYTE      P1M0
*SFR* 00000091H   DATA     BYTE      P1M1
*SFR* 000000A0H   DATA     BYTE      P2
*SFR* 000000A0H.0 DATA     BIT       P20
*SFR* 000000A0H.1 DATA     BIT       P21
*SFR* 000000A0H.2 DATA     BIT       P22
*SFR* 000000A0H.3 DATA     BIT       P23
*SFR* 000000A0H.4 DATA     BIT       P24
*SFR* 000000A0H.5 DATA     BIT       P25
*SFR* 000000A0H.6 DATA     BIT       P26
*SFR* 000000A0H.7 DATA     BIT       P27
*SFR* 00000096H   DATA     BYTE      P2M0
*SFR* 00000095H   DATA     BYTE      P2M1
*SFR* 000000B0H   DATA     BYTE      P3
*SFR* 000000B0H.2 DATA     BIT       P32
*SFR* 000000B0H.3 DATA     BIT       P33
*SFR* 000000B0H.5 DATA     BIT       P35
*SFR* 000000B2H   DATA     BYTE      P3M0
*SFR* 000000B1H   DATA     BYTE      P3M1
*SFR* 000000C0H   DATA     BYTE      P4
*SFR* 000000C0H.0 DATA     BIT       P40
*SFR* 000000C0H.1 DATA     BIT       P41
*SFR* 000000C0H.2 DATA     BIT       P42
*SFR* 000000C0H.3 DATA     BIT       P43
*SFR* 000000C0H.5 DATA     BIT       P45
*SFR* 000000C0H.7 DATA     BIT       P47
*SFR* 000000B4H   DATA     BYTE      P4M0
*SFR* 000000B3H   DATA     BYTE      P4M1
*SFR* 000000C8H   DATA     BYTE      P5
*SFR* 000000C8H.2 DATA     BIT       P52
*SFR* 000000C8H.3 DATA     BIT       P53
*SFR* 000000CAH   DATA     BYTE      P5M0
L251 LINKER/LOCATER V4.66.93.0                                                        07/17/2023  21:05:08  PAGE 25


*SFR* 000000C9H   DATA     BYTE      P5M1
*SFR* 000000E8H   DATA     BYTE      P6
*SFR* 000000E8H.0 DATA     BIT       P60
*SFR* 000000E8H.1 DATA     BIT       P61
*SFR* 000000E8H.3 DATA     BIT       P63
*SFR* 000000E8H.4 DATA     BIT       P64
*SFR* 000000E8H.5 DATA     BIT       P65
*SFR* 000000E8H.7 DATA     BIT       P67
*SFR* 000000CCH   DATA     BYTE      P6M0
*SFR* 000000CBH   DATA     BYTE      P6M1
*SFR* 000000F8H   DATA     BYTE      P7
*SFR* 000000F8H.0 DATA     BIT       P70
*SFR* 000000F8H.1 DATA     BIT       P71
*SFR* 000000F8H.2 DATA     BIT       P72
*SFR* 000000F8H.3 DATA     BIT       P73
*SFR* 000000F8H.5 DATA     BIT       P75
*SFR* 000000F8H.6 DATA     BIT       P76
*SFR* 000000E2H   DATA     BYTE      P7M0
*SFR* 000000E1H   DATA     BYTE      P7M1
*SFR* 000000A2H   DATA     BYTE      P_SW1
*SFR* 000000BAH   DATA     BYTE      P_SW2
*SFR* 000000BBH   DATA     BYTE      P_SW3
      0000073EH   EDATA    INT       park_number
*SFR* 00000087H   DATA     BYTE      PCON
      00FFD238H   ECODE    ---       pit_timer_ms?
      00FFD666H   ECODE    ---       pow??
      00FF8231H   ECODE    FAR LAB   printf?
      00FF9DEEH   ECODE    ---       printf_reverse_order?
*SFR* 000000D0H   DATA     BYTE      PSW
      00FFCF71H   ECODE    ---       putchar?
      00FFDFA7H   HCONST   ---       PWM_ARR_ADDR
      00FFDFAFH   HCONST   ---       PWM_CCER_ADDR
      00FFDFBFH   HCONST   ---       PWM_CCMR_ADDR
      00FFDF87H   HCONST   ---       PWM_CCR_ADDR
      00FF9B53H   ECODE    ---       pwm_duty?
      00FF9C20H   ECODE    ---       pwm_freq?
      00FF984FH   ECODE    ---       pwm_init?
      00FF95ADH   ECODE    ---       pwm_set_gpio?
      00FFCD53H   ECODE    ---       Re_Start?
      00FFA342H   ECODE    ---       Read_ADC?
      00FFDC25H   ECODE    ---       read_encoder?
      00FFD639H   ECODE    ---       read_float?
      00FFD5D4H   ECODE    ---       read_int?
      00000704H   EDATA    INT       real_obstacle_flag
      00FFB65AH   ECODE    ---       recv_ack?
      00FFB66BH   ECODE    ---       recv_data?
      000004E7H   EDATA    INT       rightP
      000004EDH   EDATA    INT       rightS
      000004EFH   EDATA    INT       rightV
      000006DEH   EDATA    INT       round1_type
      000006E0H   EDATA    INT       round2_type
      000006E2H   EDATA    INT       round3_type
      000006E6H   EDATA    INT       round4_type
      00FF8E22H   ECODE    ---       Round_Deal?
      000006EEH   EDATA    INT       round_number
      000005A7H   EDATA    INT       round_speed
      00000706H   EDATA    INT       roundcount
      000006E8H   EDATA    INT       roundcount2
      00000748H   EDATA    INT       roundcount2_k
      000006EAH   EDATA    INT       roundcount3
      00000742H   EDATA    INT       roundcount_k
*SFR* 000000FFH   DATA     BYTE      RSTCFG
      00FFCC4DH   ECODE    ---       RuKu?
*SFR* 0000009BH   DATA     BYTE      S2BUF
*SFR* 0000009AH   DATA     BYTE      S2CON
L251 LINKER/LOCATER V4.66.93.0                                                        07/17/2023  21:05:08  PAGE 26


*SFR* 000000ADH   DATA     BYTE      S3BUF
*SFR* 000000ACH   DATA     BYTE      S3CON
*SFR* 000000FEH   DATA     BYTE      S4BUF
*SFR* 000000FDH   DATA     BYTE      S4CON
      00FFD601H   ECODE    ---       save_float?
      00FFD59CH   ECODE    ---       save_int?
*SFR* 00000099H   DATA     BYTE      SBUF
*SFR* 00000098H   DATA     BYTE      SCON
      000004A3H   EDATA    INT       second_leftp
      000004E9H   EDATA    INT       second_rightp
      00FFB688H   ECODE    ---       send_ack?
      00FFB642H   ECODE    ---       send_data?
      00FFB6A1H   ECODE    ---       send_nak?
      00000789H   EDATA    FLOAT     servo
      00FFCDB7H   ECODE    ---       set_clk?
      00FFBF3CH   ECODE    ---       set_zero_position_simspi?
      00FFC05BH   ECODE    ---       set_zero_position_spi?
      00FF5216H   ECODE    ---       showimage?
      00FFBEADH   ECODE    ---       simspi_r_reg_byte?
      00FFBE91H   ECODE    ---       simspi_w_reg_byte?
      00FFBE72H   ECODE    ---       simspi_wr_byte?
      00FF91A9H   ECODE    ---       Slope?
      000006F2H   EDATA    INT       slope_flag
*SFR* 000000CEH   DATA     BYTE      SPCTL
*SFR* 000000CFH   DATA     BYTE      SPDAT
      000007DDH   EDATA    INT       speed1
      000007DFH   EDATA    INT       speed2
      00FFAA26H   ECODE    ---       speedL_pid?
      00FFAAAEH   ECODE    ---       speedR_pid?
      00FFD133H   ECODE    ---       spi_change_mode?
      00FFD07CH   ECODE    ---       spi_change_pin?
      00FFCF86H   ECODE    ---       spi_init?
      00FFD06EH   ECODE    ---       spi_mosi?
      00FFBFCCH   ECODE    ---       spi_r_reg_byte?
      00FFBFB0H   ECODE    ---       spi_w_reg_byte?
      00FFBFABH   ECODE    ---       spi_wr_byte?
*SFR* 000000CDH   DATA     BYTE      SPSTAT
      00FF825EH   ECODE    ---       sqrt??
      00FFB631H   ECODE    ---       start?
      0000074AH   EDATA    INT       Start_Flag
      00FFB6BBH   ECODE    ---       stop?
      00000718H   EDATA    BYTE      sw1_status
      00000719H   EDATA    BYTE      sw2_status
      000007ADH   EDATA    LONG      sys_clk
*SFR* 000000D6H   DATA     BYTE      T2H
*SFR* 000000D7H   DATA     BYTE      T2L
*SFR* 000000D4H   DATA     BYTE      T3H
*SFR* 000000D5H   DATA     BYTE      T3L
*SFR* 000000D2H   DATA     BYTE      T4H
*SFR* 000000D3H   DATA     BYTE      T4L
*SFR* 000000DDH   DATA     BYTE      T4T3M
      0000058FH   EDATA    FLOAT     Target_speed1
      00000593H   EDATA    FLOAT     Target_speed2
      00FFA931H   ECODE    ---       Target_speed?
      0000071BH   EDATA    BYTE      target_value_bit
*SFR* 00000088H   DATA     BYTE      TCON
      00FF2697H   CODE     ---       tft_ascii
*SFR* 0000008CH   DATA     BYTE      TH0
*SFR* 0000008DH   DATA     BYTE      TH1
      00000712H   EDATA    INT       This_Codename
*SFR* 0000008AH   DATA     BYTE      TL0
*SFR* 0000008BH   DATA     BYTE      TL1
      00FFC691H   ECODE    ---       TM0_Isr?
      00FFC692H   ECODE    ---       TM1_Isr?
      00FFC693H   ECODE    ---       TM2_Isr?
L251 LINKER/LOCATER V4.66.93.0                                                        07/17/2023  21:05:08  PAGE 27


      00FFC697H   ECODE    ---       TM3_Isr?
      00FFC69BH   ECODE    ---       TM4_Isr?
*SFR* 00000089H   DATA     BYTE      TMOD
*SFR* 00000088H.4 DATA     BIT       TR0
*SFR* 00000088H.6 DATA     BIT       TR1
      000002D5H   EDATA    BYTE      tsl1401_finish_flag
      00FFC5ACH   ECODE    ---       UART1_Isr?
      000003D6H   EDATA    ---       uart1_rx_buff
      0000043AH   EDATA    ---       uart1_tx_buff
      00FFC5E5H   ECODE    ---       UART2_Isr?
      00FFC5FFH   ECODE    ---       UART3_Isr?
      00FFC619H   ECODE    ---       UART4_Isr?
      00FFC34BH   ECODE    ---       uart_init?
      00FFC55FH   ECODE    ---       uart_putbuff?
      00FFC50BH   ECODE    ---       uart_putchar?
      00FFC58DH   ECODE    ---       uart_putstr?
*SFR* 000000F4H   DATA     BYTE      USBCON
      000005CFH   EDATA    FLOAT     v_angle
      0000077FH   EDATA    ---       virtual_scope_data
*SFR* 000000A6H   DATA     BYTE      VRTRIM
      00FFB5EBH   ECODE    ---       wait?
*SFR* 000000C1H   DATA     BYTE      WDT_CONTR
      00FFD863H   ECODE    ---       wireless_ch573_callback?
      00FFD8FFH   ECODE    ---       wireless_ch573_init?
      00FFD8DCH   ECODE    ---       wireless_ch573_read_buff?
      00FFD87DH   ECODE    ---       wireless_ch573_send_buff?
      000007E7H   EDATA    INT       wireless_type
      00FFD93DH   ECODE    ---       wireless_uart_callback?
      00FFD9D5H   ECODE    ---       wireless_uart_init?
      00FFD9B2H   ECODE    ---       wireless_uart_read_buff?
      00FFD957H   ECODE    ---       wireless_uart_send_buff?
*SFR* 000000E9H   DATA     BYTE      WTST
      00000740H   EDATA    INT       XJ
      000005B5H   EDATA    FLOAT     y_v_angle
      000007B1H   EDATA    WORD      zf_delay_ms
      000007B3H   EDATA    WORD      zf_delay_us
      00FF9E2CH   ECODE    ---       zf_sprintf?
      000004C7H   EDATA    INT       zhidaoflag



SYMBOL TABLE OF MODULE:  .\Out_File\SEEKFREE (board)

      VALUE       REP       CLASS    TYPE      SYMBOL NAME
      ====================================================
      ---         MODULE    ---      ---       board
      00FFCF83H   PUBLIC    ECODE    ---       EnableGlobalIRQ?
      00FFCED9H   PUBLIC    ECODE    ---       board_init?
      00FFCDB7H   PUBLIC    ECODE    ---       set_clk?
      00FFCF80H   PUBLIC    ECODE    ---       DisableGlobalIRQ?
      00FFCF71H   PUBLIC    ECODE    ---       putchar?
      000007ADH   PUBLIC    EDATA    LONG      sys_clk
      00000094H   SFRSYM    DATA     BYTE      P0M0
      000000D0H   SFRSYM    DATA     BYTE      PSW
      000000BAH.7 SFRSYM    DATA     BIT       EAXFR
      0000009DH   SFRSYM    DATA     BYTE      IRCBAND
      00000097H   SFRSYM    DATA     BYTE      AUXR2
      000000EAH   SFRSYM    DATA     BYTE      CKCON
      000000EFH   SFRSYM    DATA     BYTE      AUXINTIF
      000000FDH   SFRSYM    DATA     BYTE      S4CON
      000000ACH   SFRSYM    DATA     BYTE      S3CON
      0000009AH   SFRSYM    DATA     BYTE      S2CON
      000000A6H   SFRSYM    DATA     BYTE      VRTRIM
      000000B7H   SFRSYM    DATA     BYTE      IPH
      000000CDH   SFRSYM    DATA     BYTE      SPSTAT
L251 LINKER/LOCATER V4.66.93.0                                                        07/17/2023  21:05:08  PAGE 28


      000000DDH   SFRSYM    DATA     BYTE      T4T3M
      0000009FH   SFRSYM    DATA     BYTE      IRTRIM
      000000C1H   SFRSYM    DATA     BYTE      WDT_CONTR
      000000E9H   SFRSYM    DATA     BYTE      WTST
      000000DFH   SFRSYM    DATA     BYTE      IP3
      000000F4H   SFRSYM    DATA     BYTE      USBCON
      000000B5H   SFRSYM    DATA     BYTE      IP2
      000000FFH   SFRSYM    DATA     BYTE      RSTCFG
      000000F9H   SFRSYM    DATA     BYTE      LINICR
      0000008EH   SFRSYM    DATA     BYTE      AUXR
      000000AFH   SFRSYM    DATA     BYTE      IE2
      00000088H   SFRSYM    DATA     BYTE      TCON
      00000089H   SFRSYM    DATA     BYTE      TMOD
      00000098H   SFRSYM    DATA     BYTE      SCON
      000000F1H   SFRSYM    DATA     BYTE      CANICR
      00000087H   SFRSYM    DATA     BYTE      PCON
      000000BCH   SFRSYM    DATA     BYTE      ADC_CONTR
      000000E7H   SFRSYM    DATA     BYTE      CMPCR2
      000000E6H   SFRSYM    DATA     BYTE      CMPCR1
      000000DEH   SFRSYM    DATA     BYTE      ADCCFG
      000000B8H   SFRSYM    DATA     BYTE      IP
      0000008FH   SFRSYM    DATA     BYTE      INTCLKO
      000000EEH   SFRSYM    DATA     BYTE      IP3H
      000000B6H   SFRSYM    DATA     BYTE      IP2H
      000000A8H   SFRSYM    DATA     BYTE      IE
      000000BBH   SFRSYM    DATA     BYTE      P_SW3
      000000BAH   SFRSYM    DATA     BYTE      P_SW2
      000000A2H   SFRSYM    DATA     BYTE      P_SW1
      000000CEH   SFRSYM    DATA     BYTE      SPCTL
      000000F8H   SFRSYM    DATA     BYTE      P7
      000000A8H.7 SFRSYM    DATA     BIT       EA
      000000E1H   SFRSYM    DATA     BYTE      P7M1
      000000E8H   SFRSYM    DATA     BYTE      P6
      000000C8H   SFRSYM    DATA     BYTE      P5
      000000CBH   SFRSYM    DATA     BYTE      P6M1
      000000E2H   SFRSYM    DATA     BYTE      P7M0
      000000C0H   SFRSYM    DATA     BYTE      P4
      000000C9H   SFRSYM    DATA     BYTE      P5M1
      000000CCH   SFRSYM    DATA     BYTE      P6M0
      000000B0H   SFRSYM    DATA     BYTE      P3
      000000B3H   SFRSYM    DATA     BYTE      P4M1
      000000CAH   SFRSYM    DATA     BYTE      P5M0
      000000A0H   SFRSYM    DATA     BYTE      P2
      000000B1H   SFRSYM    DATA     BYTE      P3M1
      000000B4H   SFRSYM    DATA     BYTE      P4M0
      00000090H   SFRSYM    DATA     BYTE      P1
      00000095H   SFRSYM    DATA     BYTE      P2M1
      000000B2H   SFRSYM    DATA     BYTE      P3M0
      00000080H   SFRSYM    DATA     BYTE      P0
      00000091H   SFRSYM    DATA     BYTE      P1M1
      00000096H   SFRSYM    DATA     BYTE      P2M0
      00000092H   SFRSYM    DATA     BYTE      P1M0
      00000093H   SFRSYM    DATA     BYTE      P0M1

      00FFCDB7H   BLOCK     ECODE    ---       LVL=0
      00FFCDB7H   LINE      ECODE    ---       #43
      00FFCDB7H   LINE      ECODE    ---       #46
      00FFCDBAH   LINE      ECODE    ---       #48
      00FFCDCAH   LINE      ECODE    ---       #51
      00FFCDD7H   LINE      ECODE    ---       #52
      00FFCDDBH   LINE      ECODE    ---       #53
      00FFCDDBH   LINE      ECODE    ---       #54
      00FFCDDBH   LINE      ECODE    ---       #55
      00FFCDDBH   LINE      ECODE    ---       #56
      00FFCDDDH   LINE      ECODE    ---       #57
L251 LINKER/LOCATER V4.66.93.0                                                        07/17/2023  21:05:08  PAGE 29


      00FFCDE9H   LINE      ECODE    ---       #60
      00FFCDF6H   LINE      ECODE    ---       #61
      00FFCDFAH   LINE      ECODE    ---       #62
      00FFCDFAH   LINE      ECODE    ---       #63
      00FFCDFAH   LINE      ECODE    ---       #64
      00FFCDFAH   LINE      ECODE    ---       #65
      00FFCDFCH   LINE      ECODE    ---       #66
      00FFCE08H   LINE      ECODE    ---       #69
      00FFCE15H   LINE      ECODE    ---       #70
      00FFCE19H   LINE      ECODE    ---       #71
      00FFCE19H   LINE      ECODE    ---       #72
      00FFCE19H   LINE      ECODE    ---       #73
      00FFCE19H   LINE      ECODE    ---       #74
      00FFCE1BH   LINE      ECODE    ---       #75
      00FFCE27H   LINE      ECODE    ---       #79
      00FFCE34H   LINE      ECODE    ---       #80
      00FFCE38H   LINE      ECODE    ---       #81
      00FFCE38H   LINE      ECODE    ---       #82
      00FFCE38H   LINE      ECODE    ---       #83
      00FFCE38H   LINE      ECODE    ---       #84
      00FFCE3AH   LINE      ECODE    ---       #85
      00FFCE46H   LINE      ECODE    ---       #88
      00FFCE53H   LINE      ECODE    ---       #89
      00FFCE60H   LINE      ECODE    ---       #90
      00FFCE69H   LINE      ECODE    ---       #91
      00FFCE6CH   LINE      ECODE    ---       #92
      00FFCE6CH   LINE      ECODE    ---       #93
      00FFCE6EH   LINE      ECODE    ---       #94
      00FFCE7AH   LINE      ECODE    ---       #97
      00FFCE87H   LINE      ECODE    ---       #98
      00FFCE94H   LINE      ECODE    ---       #99
      00FFCE9DH   LINE      ECODE    ---       #100
      00FFCEA0H   LINE      ECODE    ---       #101
      00FFCEA4H   LINE      ECODE    ---       #102
      00FFCEA6H   LINE      ECODE    ---       #105
      00FFCEAAH   LINE      ECODE    ---       #107
      00FFCEB7H   LINE      ECODE    ---       #108
      00FFCEC4H   LINE      ECODE    ---       #109
      00FFCECDH   LINE      ECODE    ---       #110
      00FFCED0H   LINE      ECODE    ---       #111
      00FFCED4H   LINE      ECODE    ---       #112
      00FFCED4H   LINE      ECODE    ---       #114
      00FFCED8H   LINE      ECODE    ---       #115
      ---         BLOCKEND  ---      ---       LVL=0

      00FFCED9H   BLOCK     ECODE    ---       LVL=0
      00FFCED9H   LINE      ECODE    ---       #121
      00FFCED9H   LINE      ECODE    ---       #123
      00FFCEDCH   LINE      ECODE    ---       #124
      00FFCEDFH   LINE      ECODE    ---       #125
      00FFCEE2H   LINE      ECODE    ---       #126
      00FFCEE5H   LINE      ECODE    ---       #127
      00FFCEE8H   LINE      ECODE    ---       #137
      00FFCEF0H   LINE      ECODE    ---       #143
      00FFCEF4H   LINE      ECODE    ---       #145
      00FFCEF7H   LINE      ECODE    ---       #146
      00FFCEFAH   LINE      ECODE    ---       #147
      00FFCF06H   LINE      ECODE    ---       #149
      00FFCF09H   LINE      ECODE    ---       #150
      00FFCF0CH   LINE      ECODE    ---       #151
      00FFCF0FH   LINE      ECODE    ---       #152
      00FFCF12H   LINE      ECODE    ---       #153
      00FFCF15H   LINE      ECODE    ---       #154
      00FFCF18H   LINE      ECODE    ---       #155
      00FFCF1BH   LINE      ECODE    ---       #156
L251 LINKER/LOCATER V4.66.93.0                                                        07/17/2023  21:05:08  PAGE 30


      00FFCF1EH   LINE      ECODE    ---       #157
      00FFCF21H   LINE      ECODE    ---       #158
      00FFCF24H   LINE      ECODE    ---       #159
      00FFCF27H   LINE      ECODE    ---       #160
      00FFCF2AH   LINE      ECODE    ---       #161
      00FFCF2DH   LINE      ECODE    ---       #162
      00FFCF30H   LINE      ECODE    ---       #163
      00FFCF33H   LINE      ECODE    ---       #164
      00FFCF36H   LINE      ECODE    ---       #166
      00FFCF39H   LINE      ECODE    ---       #167
      00FFCF3CH   LINE      ECODE    ---       #168
      00FFCF3FH   LINE      ECODE    ---       #169
      00FFCF42H   LINE      ECODE    ---       #170
      00FFCF45H   LINE      ECODE    ---       #171
      00FFCF48H   LINE      ECODE    ---       #172
      00FFCF4BH   LINE      ECODE    ---       #173
      00FFCF4EH   LINE      ECODE    ---       #174
      00FFCF51H   LINE      ECODE    ---       #176
      00FFCF6DH   LINE      ECODE    ---       #177
      ---         BLOCKEND  ---      ---       LVL=0

      00FFCF71H   BLOCK     ECODE    ---       LVL=0
      R15         REGSYM    ---      CHAR      c
      00FFCF71H   LINE      ECODE    ---       #183
      00FFCF75H   LINE      ECODE    ---       #185
      00FFCF7BH   LINE      ECODE    ---       #187
      00FFCF7DH   LINE      ECODE    ---       #188
      ---         BLOCKEND  ---      ---       LVL=0

      00FFCF80H   BLOCK     ECODE    ---       LVL=0
      00FFCF80H   LINE      ECODE    ---       #191
      00FFCF80H   LINE      ECODE    ---       #193
      00FFCF82H   LINE      ECODE    ---       #194
      ---         BLOCKEND  ---      ---       LVL=0

      00FFCF83H   BLOCK     ECODE    ---       LVL=0
      00FFCF83H   LINE      ECODE    ---       #197
      00FFCF83H   LINE      ECODE    ---       #199
      00FFCF85H   LINE      ECODE    ---       #200
      ---         BLOCKEND  ---      ---       LVL=0

      ---         MODULE    ---      ---       common
      000007E7H   PUBLIC    EDATA    INT       wireless_type
      000000D0H   SFRSYM    DATA     BYTE      PSW
      0000009DH   SFRSYM    DATA     BYTE      IRCBAND
      00000097H   SFRSYM    DATA     BYTE      AUXR2
      000000EFH   SFRSYM    DATA     BYTE      AUXINTIF
      000000FDH   SFRSYM    DATA     BYTE      S4CON
      000000ACH   SFRSYM    DATA     BYTE      S3CON
      0000009AH   SFRSYM    DATA     BYTE      S2CON
      000000B7H   SFRSYM    DATA     BYTE      IPH
      000000CDH   SFRSYM    DATA     BYTE      SPSTAT
      000000DDH   SFRSYM    DATA     BYTE      T4T3M
      000000C1H   SFRSYM    DATA     BYTE      WDT_CONTR
      000000DFH   SFRSYM    DATA     BYTE      IP3
      000000F4H   SFRSYM    DATA     BYTE      USBCON
      000000B5H   SFRSYM    DATA     BYTE      IP2
      000000FFH   SFRSYM    DATA     BYTE      RSTCFG
      000000F9H   SFRSYM    DATA     BYTE      LINICR
      0000008EH   SFRSYM    DATA     BYTE      AUXR
      000000AFH   SFRSYM    DATA     BYTE      IE2
      00000088H   SFRSYM    DATA     BYTE      TCON
      00000098H   SFRSYM    DATA     BYTE      SCON
      000000F1H   SFRSYM    DATA     BYTE      CANICR
      00000087H   SFRSYM    DATA     BYTE      PCON
L251 LINKER/LOCATER V4.66.93.0                                                        07/17/2023  21:05:08  PAGE 31


      000000BCH   SFRSYM    DATA     BYTE      ADC_CONTR
      000000E7H   SFRSYM    DATA     BYTE      CMPCR2
      000000E6H   SFRSYM    DATA     BYTE      CMPCR1
      000000B8H   SFRSYM    DATA     BYTE      IP
      0000008FH   SFRSYM    DATA     BYTE      INTCLKO
      000000EEH   SFRSYM    DATA     BYTE      IP3H
      000000B6H   SFRSYM    DATA     BYTE      IP2H
      000000A8H   SFRSYM    DATA     BYTE      IE
      000000BBH   SFRSYM    DATA     BYTE      P_SW3
      000000BAH   SFRSYM    DATA     BYTE      P_SW2
      000000A2H   SFRSYM    DATA     BYTE      P_SW1
      000000CEH   SFRSYM    DATA     BYTE      SPCTL
      000000F8H   SFRSYM    DATA     BYTE      P7
      000000E8H   SFRSYM    DATA     BYTE      P6
      000000C8H   SFRSYM    DATA     BYTE      P5
      000000C0H   SFRSYM    DATA     BYTE      P4
      000000B0H   SFRSYM    DATA     BYTE      P3
      000000A0H   SFRSYM    DATA     BYTE      P2
      00000090H   SFRSYM    DATA     BYTE      P1
      00000080H   SFRSYM    DATA     BYTE      P0

      ---         MODULE    ---      ---       zf_adc
      00FFDB13H   PUBLIC    ECODE    ---       adc_once?
      00FFDAB5H   PUBLIC    ECODE    ---       adc_init?
      00000094H   SFRSYM    DATA     BYTE      P0M0
      000000D0H   SFRSYM    DATA     BYTE      PSW
      0000009DH   SFRSYM    DATA     BYTE      IRCBAND
      00000097H   SFRSYM    DATA     BYTE      AUXR2
      000000EFH   SFRSYM    DATA     BYTE      AUXINTIF
      000000FDH   SFRSYM    DATA     BYTE      S4CON
      000000ACH   SFRSYM    DATA     BYTE      S3CON
      0000009AH   SFRSYM    DATA     BYTE      S2CON
      000000B7H   SFRSYM    DATA     BYTE      IPH
      000000CDH   SFRSYM    DATA     BYTE      SPSTAT
      000000BEH   SFRSYM    DATA     BYTE      ADC_RESL
      000000DDH   SFRSYM    DATA     BYTE      T4T3M
      000000C1H   SFRSYM    DATA     BYTE      WDT_CONTR
      000000DFH   SFRSYM    DATA     BYTE      IP3
      000000F4H   SFRSYM    DATA     BYTE      USBCON
      000000B5H   SFRSYM    DATA     BYTE      IP2
      000000FFH   SFRSYM    DATA     BYTE      RSTCFG
      000000F9H   SFRSYM    DATA     BYTE      LINICR
      0000008EH   SFRSYM    DATA     BYTE      AUXR
      000000AFH   SFRSYM    DATA     BYTE      IE2
      00000088H   SFRSYM    DATA     BYTE      TCON
      00000098H   SFRSYM    DATA     BYTE      SCON
      000000F1H   SFRSYM    DATA     BYTE      CANICR
      00000087H   SFRSYM    DATA     BYTE      PCON
      000000BCH   SFRSYM    DATA     BYTE      ADC_CONTR
      000000E7H   SFRSYM    DATA     BYTE      CMPCR2
      000000E6H   SFRSYM    DATA     BYTE      CMPCR1
      000000DEH   SFRSYM    DATA     BYTE      ADCCFG
      000000B8H   SFRSYM    DATA     BYTE      IP
      0000008FH   SFRSYM    DATA     BYTE      INTCLKO
      000000EEH   SFRSYM    DATA     BYTE      IP3H
      000000B6H   SFRSYM    DATA     BYTE      IP2H
      000000BDH   SFRSYM    DATA     BYTE      ADC_RES
      000000A8H   SFRSYM    DATA     BYTE      IE
      000000BBH   SFRSYM    DATA     BYTE      P_SW3
      000000BAH   SFRSYM    DATA     BYTE      P_SW2
      000000A2H   SFRSYM    DATA     BYTE      P_SW1
      000000CEH   SFRSYM    DATA     BYTE      SPCTL
      000000F8H   SFRSYM    DATA     BYTE      P7
      000000E8H   SFRSYM    DATA     BYTE      P6
      000000C8H   SFRSYM    DATA     BYTE      P5
L251 LINKER/LOCATER V4.66.93.0                                                        07/17/2023  21:05:08  PAGE 32


      000000C0H   SFRSYM    DATA     BYTE      P4
      000000B0H   SFRSYM    DATA     BYTE      P3
      000000A0H   SFRSYM    DATA     BYTE      P2
      00000090H   SFRSYM    DATA     BYTE      P1
      00000080H   SFRSYM    DATA     BYTE      P0
      00000091H   SFRSYM    DATA     BYTE      P1M1
      00000092H   SFRSYM    DATA     BYTE      P1M0
      00000093H   SFRSYM    DATA     BYTE      P0M1

      00FFDAB5H   BLOCK     ECODE    ---       LVL=0
      WR4         REGSYM    ---      INT       adcn
      WR2         REGSYM    ---      INT       speed
      00FFDAB5H   LINE      ECODE    ---       #32
      00FFDAB9H   LINE      ECODE    ---       #34
      00FFDABCH   LINE      ECODE    ---       #36
      00FFDABFH   LINE      ECODE    ---       #37
      00FFDAC5H   LINE      ECODE    ---       #39
      00FFDAD1H   LINE      ECODE    ---       #42
      00FFDAE6H   LINE      ECODE    ---       #43
      00FFDAEAH   LINE      ECODE    ---       #44
      00FFDAECH   LINE      ECODE    ---       #45
      00FFDAF0H   LINE      ECODE    ---       #48
      00FFDB05H   LINE      ECODE    ---       #49
      00FFDB09H   LINE      ECODE    ---       #50
      00FFDB09H   LINE      ECODE    ---       #52
      00FFDB0FH   LINE      ECODE    ---       #54
      00FFDB12H   LINE      ECODE    ---       #55
      ---         BLOCKEND  ---      ---       LVL=0

      00FFDB13H   BLOCK     ECODE    ---       LVL=0
      WR6         REGSYM    ---      INT       adcn
      WR4         REGSYM    ---      INT       resolution
      WR6         REGSYM    ---      WORD      adc_value
      00FFDB13H   LINE      ECODE    ---       #66
      00FFDB13H   LINE      ECODE    ---       #67
      00FFDB13H   LINE      ECODE    ---       #70
      00FFDB16H   LINE      ECODE    ---       #71
      00FFDB1AH   LINE      ECODE    ---       #73
      00FFDB1DH   LINE      ECODE    ---       #74
      00FFDB22H   LINE      ECODE    ---       #75
      00FFDB25H   LINE      ECODE    ---       #77
      00FFDB27H   LINE      ECODE    ---       #78
      00FFDB2BH   LINE      ECODE    ---       #79
      00FFDB31H   LINE      ECODE    ---       #81
      00FFDB34H   LINE      ECODE    ---       #82
      00FFDB37H   LINE      ECODE    ---       #84
      00FFDB40H   LINE      ECODE    ---       #87
      00FFDB40H   LINE      ECODE    ---       #88
      ---         BLOCKEND  ---      ---       LVL=0

      ---         MODULE    ---      ---       zf_delay
      00FFDBBAH   PUBLIC    ECODE    ---       delay_init?
      00FFDBF5H   PUBLIC    ECODE    ---       delay_ms?
      00FFDC0CH   PUBLIC    ECODE    ---       delay_us?
      000007B1H   PUBLIC    EDATA    WORD      zf_delay_ms
      000007B3H   PUBLIC    EDATA    WORD      zf_delay_us
      000000D0H   SFRSYM    DATA     BYTE      PSW
      0000009DH   SFRSYM    DATA     BYTE      IRCBAND
      00000097H   SFRSYM    DATA     BYTE      AUXR2
      000000EFH   SFRSYM    DATA     BYTE      AUXINTIF
      000000FDH   SFRSYM    DATA     BYTE      S4CON
      000000ACH   SFRSYM    DATA     BYTE      S3CON
      0000009AH   SFRSYM    DATA     BYTE      S2CON
      000000B7H   SFRSYM    DATA     BYTE      IPH
      000000CDH   SFRSYM    DATA     BYTE      SPSTAT
L251 LINKER/LOCATER V4.66.93.0                                                        07/17/2023  21:05:08  PAGE 33


      000000DDH   SFRSYM    DATA     BYTE      T4T3M
      000000C1H   SFRSYM    DATA     BYTE      WDT_CONTR
      000000DFH   SFRSYM    DATA     BYTE      IP3
      000000F4H   SFRSYM    DATA     BYTE      USBCON
      000000B5H   SFRSYM    DATA     BYTE      IP2
      000000FFH   SFRSYM    DATA     BYTE      RSTCFG
      000000F9H   SFRSYM    DATA     BYTE      LINICR
      0000008EH   SFRSYM    DATA     BYTE      AUXR
      000000AFH   SFRSYM    DATA     BYTE      IE2
      00000088H   SFRSYM    DATA     BYTE      TCON
      00000098H   SFRSYM    DATA     BYTE      SCON
      000000F1H   SFRSYM    DATA     BYTE      CANICR
      00000087H   SFRSYM    DATA     BYTE      PCON
      000000BCH   SFRSYM    DATA     BYTE      ADC_CONTR
      000000E7H   SFRSYM    DATA     BYTE      CMPCR2
      000000E6H   SFRSYM    DATA     BYTE      CMPCR1
      000000B8H   SFRSYM    DATA     BYTE      IP
      0000008FH   SFRSYM    DATA     BYTE      INTCLKO
      000000EEH   SFRSYM    DATA     BYTE      IP3H
      000000B6H   SFRSYM    DATA     BYTE      IP2H
      000000A8H   SFRSYM    DATA     BYTE      IE
      000000BBH   SFRSYM    DATA     BYTE      P_SW3
      000000BAH   SFRSYM    DATA     BYTE      P_SW2
      000000A2H   SFRSYM    DATA     BYTE      P_SW1
      000000CEH   SFRSYM    DATA     BYTE      SPCTL
      000000F8H   SFRSYM    DATA     BYTE      P7
      000000E8H   SFRSYM    DATA     BYTE      P6
      000000C8H   SFRSYM    DATA     BYTE      P5
      000000C0H   SFRSYM    DATA     BYTE      P4
      000000B0H   SFRSYM    DATA     BYTE      P3
      000000A0H   SFRSYM    DATA     BYTE      P2
      00000090H   SFRSYM    DATA     BYTE      P1
      00000080H   SFRSYM    DATA     BYTE      P0

      00FFDBBAH   BLOCK     ECODE    ---       LVL=0
      00FFDBBAH   LINE      ECODE    ---       #34
      00FFDBBAH   LINE      ECODE    ---       #36
      00FFDBCCH   LINE      ECODE    ---       #37
      00FFDBDEH   LINE      ECODE    ---       #38
      00FFDBF4H   LINE      ECODE    ---       #40
      ---         BLOCKEND  ---      ---       LVL=0

      00FFDBF5H   BLOCK     ECODE    ---       LVL=0
      WR4         REGSYM    ---      WORD      ms
      00FFDBF7H   BLOCK     ECODE    NEAR LAB  LVL=1
      WR6         REGSYM    ---      WORD      i
      ---         BLOCKEND  ---      ---       LVL=1
      00FFDBF5H   LINE      ECODE    ---       #48
      00FFDBF7H   LINE      ECODE    ---       #49
      00FFDBF7H   LINE      ECODE    ---       #51
      00FFDBF7H   LINE      ECODE    ---       #52
      00FFDBFBH   LINE      ECODE    ---       #54
      00FFDC03H   LINE      ECODE    ---       #55
      00FFDC0BH   LINE      ECODE    ---       #56
      ---         BLOCKEND  ---      ---       LVL=0

      00FFDC0CH   BLOCK     ECODE    ---       LVL=0
      DR0         REGSYM    ---      DWORD     us
      00FFDC0EH   BLOCK     ECODE    NEAR LAB  LVL=1
      WR6         REGSYM    ---      WORD      i
      ---         BLOCKEND  ---      ---       LVL=1
      00FFDC0CH   LINE      ECODE    ---       #64
      00FFDC0EH   LINE      ECODE    ---       #65
      00FFDC0EH   LINE      ECODE    ---       #67
      00FFDC0EH   LINE      ECODE    ---       #68
L251 LINKER/LOCATER V4.66.93.0                                                        07/17/2023  21:05:08  PAGE 34


      00FFDC12H   LINE      ECODE    ---       #70
      00FFDC1AH   LINE      ECODE    ---       #71
      00FFDC24H   LINE      ECODE    ---       #72
      ---         BLOCKEND  ---      ---       LVL=0

      ---         MODULE    ---      ---       zf_eeprom
      00FFD2F9H   PUBLIC    ECODE    ---       iap_set_tps?
      00FFD2CDH   PUBLIC    ECODE    ---       eeprom_trig?
      00FFD3A0H   PUBLIC    ECODE    ---       iap_erase_page?
      00FFD2E9H   PUBLIC    ECODE    ---       iap_idle?
      00FFD310H   PUBLIC    ECODE    ---       iap_read_bytes?
      00FFD3AFH   PUBLIC    ECODE    ---       extern_iap_write_bytes?
      00FFD2E2H   PUBLIC    ECODE    ---       iap_init?
      00FFD358H   PUBLIC    ECODE    ---       iap_write_bytes?
      00FFD2EDH   PUBLIC    ECODE    ---       iap_get_cmd_state?
      000000D0H   SFRSYM    DATA     BYTE      PSW
      0000009DH   SFRSYM    DATA     BYTE      IRCBAND
      000000D0H.5 SFRSYM    DATA     BIT       F0
      00000097H   SFRSYM    DATA     BYTE      AUXR2
      000000C6H   SFRSYM    DATA     BYTE      IAP_TRIG
      000000EFH   SFRSYM    DATA     BYTE      AUXINTIF
      000000FDH   SFRSYM    DATA     BYTE      S4CON
      000000ACH   SFRSYM    DATA     BYTE      S3CON
      0000009AH   SFRSYM    DATA     BYTE      S2CON
      000000B7H   SFRSYM    DATA     BYTE      IPH
      000000CDH   SFRSYM    DATA     BYTE      SPSTAT
      000000DDH   SFRSYM    DATA     BYTE      T4T3M
      000000C1H   SFRSYM    DATA     BYTE      WDT_CONTR
      000000C2H   SFRSYM    DATA     BYTE      IAP_DATA
      000000DFH   SFRSYM    DATA     BYTE      IP3
      000000F4H   SFRSYM    DATA     BYTE      USBCON
      000000B5H   SFRSYM    DATA     BYTE      IP2
      000000FFH   SFRSYM    DATA     BYTE      RSTCFG
      000000C7H   SFRSYM    DATA     BYTE      IAP_CONTR
      000000F9H   SFRSYM    DATA     BYTE      LINICR
      0000008EH   SFRSYM    DATA     BYTE      AUXR
      000000AFH   SFRSYM    DATA     BYTE      IE2
      00000088H   SFRSYM    DATA     BYTE      TCON
      00000098H   SFRSYM    DATA     BYTE      SCON
      000000F5H   SFRSYM    DATA     BYTE      IAP_TPS
      000000F1H   SFRSYM    DATA     BYTE      CANICR
      00000087H   SFRSYM    DATA     BYTE      PCON
      000000BCH   SFRSYM    DATA     BYTE      ADC_CONTR
      000000E7H   SFRSYM    DATA     BYTE      CMPCR2
      000000E6H   SFRSYM    DATA     BYTE      CMPCR1
      000000C4H   SFRSYM    DATA     BYTE      IAP_ADDRL
      000000C3H   SFRSYM    DATA     BYTE      IAP_ADDRH
      000000F6H   SFRSYM    DATA     BYTE      IAP_ADDRE
      000000B8H   SFRSYM    DATA     BYTE      IP
      0000008FH   SFRSYM    DATA     BYTE      INTCLKO
      000000EEH   SFRSYM    DATA     BYTE      IP3H
      000000B6H   SFRSYM    DATA     BYTE      IP2H
      000000C5H   SFRSYM    DATA     BYTE      IAP_CMD
      000000A8H   SFRSYM    DATA     BYTE      IE
      000000BBH   SFRSYM    DATA     BYTE      P_SW3
      000000BAH   SFRSYM    DATA     BYTE      P_SW2
      000000A2H   SFRSYM    DATA     BYTE      P_SW1
      000000CEH   SFRSYM    DATA     BYTE      SPCTL
      000000F8H   SFRSYM    DATA     BYTE      P7
      000000A8H.7 SFRSYM    DATA     BIT       EA
      000000E8H   SFRSYM    DATA     BYTE      P6
      000000C8H   SFRSYM    DATA     BYTE      P5
      000000C0H   SFRSYM    DATA     BYTE      P4
      000000B0H   SFRSYM    DATA     BYTE      P3
      000000A0H   SFRSYM    DATA     BYTE      P2
L251 LINKER/LOCATER V4.66.93.0                                                        07/17/2023  21:05:08  PAGE 35


      00000090H   SFRSYM    DATA     BYTE      P1
      00000080H   SFRSYM    DATA     BYTE      P0

      00FFD2CDH   BLOCK     ECODE    ---       LVL=0
      00FFD2CDH   LINE      ECODE    ---       #30
      00FFD2CDH   LINE      ECODE    ---       #32
      00FFD2D1H   LINE      ECODE    ---       #33
      00FFD2D3H   LINE      ECODE    ---       #34
      00FFD2D6H   LINE      ECODE    ---       #35
      00FFD2D9H   LINE      ECODE    ---       #38
      00FFD2DAH   LINE      ECODE    ---       #39
      00FFD2DBH   LINE      ECODE    ---       #40
      00FFD2DCH   LINE      ECODE    ---       #41
      00FFD2DDH   LINE      ECODE    ---       #42
      00FFD2E1H   LINE      ECODE    ---       #43
      ---         BLOCKEND  ---      ---       LVL=0

      00FFD2E2H   BLOCK     ECODE    ---       LVL=0
      00FFD2E2H   LINE      ECODE    ---       #52
      00FFD2E2H   LINE      ECODE    ---       #54
      00FFD2E5H   LINE      ECODE    ---       #55
      ---         BLOCKEND  ---      ---       LVL=0

      00FFD2E9H   BLOCK     ECODE    ---       LVL=0
      00FFD2E9H   LINE      ECODE    ---       #64
      00FFD2E9H   LINE      ECODE    ---       #66
      00FFD2ECH   LINE      ECODE    ---       #67
      ---         BLOCKEND  ---      ---       LVL=0

      00FFD2EDH   BLOCK     ECODE    ---       LVL=0
      00FFD2EDH   LINE      ECODE    ---       #77
      00FFD2EDH   LINE      ECODE    ---       #79
      00FFD2F8H   LINE      ECODE    ---       #80
      ---         BLOCKEND  ---      ---       LVL=0

      00FFD2F9H   BLOCK     ECODE    ---       LVL=0
      R11         REGSYM    ---      BYTE      write_time
      00FFD2F9H   LINE      ECODE    ---       #89
      00FFD2F9H   LINE      ECODE    ---       #90
      00FFD2F9H   LINE      ECODE    ---       #92
      00FFD30DH   LINE      ECODE    ---       #93
      00FFD30FH   LINE      ECODE    ---       #94
      ---         BLOCKEND  ---      ---       LVL=0

      00FFD310H   BLOCK     ECODE    ---       LVL=0
      000002D1H   SYMBOL    EDATA    WORD      addr
      REG=3       REGSYM    ---      ---       buf
      000002D3H   SYMBOL    EDATA    WORD      len
      00FFD310H   LINE      ECODE    ---       #107
      00FFD31CH   LINE      ECODE    ---       #109
      00FFD31FH   LINE      ECODE    ---       #111
      00FFD321H   LINE      ECODE    ---       #113
      00FFD324H   LINE      ECODE    ---       #114
      00FFD32CH   LINE      ECODE    ---       #115
      00FFD330H   LINE      ECODE    ---       #116
      00FFD334H   LINE      ECODE    ---       #117
      00FFD33BH   LINE      ECODE    ---       #118
      00FFD345H   LINE      ECODE    ---       #120
      00FFD355H   LINE      ECODE    ---       #121
      ---         BLOCKEND  ---      ---       LVL=0

      00FFD358H   BLOCK     ECODE    ---       LVL=0
      000002D1H   SYMBOL    EDATA    WORD      addr
      REG=3       REGSYM    ---      ---       buf
      000002D3H   SYMBOL    EDATA    WORD      len
L251 LINKER/LOCATER V4.66.93.0                                                        07/17/2023  21:05:08  PAGE 36


      00FFD358H   LINE      ECODE    ---       #133
      00FFD364H   LINE      ECODE    ---       #135
      00FFD367H   LINE      ECODE    ---       #137
      00FFD369H   LINE      ECODE    ---       #139
      00FFD36CH   LINE      ECODE    ---       #140
      00FFD374H   LINE      ECODE    ---       #141
      00FFD378H   LINE      ECODE    ---       #142
      00FFD37FH   LINE      ECODE    ---       #143
      00FFD389H   LINE      ECODE    ---       #145
      00FFD38DH   LINE      ECODE    ---       #146
      00FFD39DH   LINE      ECODE    ---       #147
      ---         BLOCKEND  ---      ---       LVL=0

      00FFD3A0H   BLOCK     ECODE    ---       LVL=0
      WR6         REGSYM    ---      WORD      addr
      00FFD3A0H   LINE      ECODE    ---       #158
      00FFD3A0H   LINE      ECODE    ---       #160
      00FFD3A3H   LINE      ECODE    ---       #161
      00FFD3A7H   LINE      ECODE    ---       #162
      00FFD3ABH   LINE      ECODE    ---       #163
      ---         BLOCKEND  ---      ---       LVL=0

      00FFD3AFH   BLOCK     ECODE    ---       LVL=0
      000000CDH   SYMBOL    EDATA    WORD      addr
      REG=3       REGSYM    ---      ---       buf
      000000CFH   SYMBOL    EDATA    WORD      len
      00FFD3BBH   BLOCK     ECODE    NEAR LAB  LVL=1
      000000D1H   SYMBOL    EDATA    ---       temp
      WR6         REGSYM    ---      WORD      i
      ---         BLOCKEND  ---      ---       LVL=1
      00FFD3AFH   LINE      ECODE    ---       #180
      00FFD3BBH   LINE      ECODE    ---       #181
      00FFD3BBH   LINE      ECODE    ---       #185
      00FFD3CAH   LINE      ECODE    ---       #186
      00FFD3DEH   LINE      ECODE    ---       #187
      00FFD400H   LINE      ECODE    ---       #188
      00FFD408H   LINE      ECODE    ---       #189
      00FFD41CH   LINE      ECODE    ---       #190
      ---         BLOCKEND  ---      ---       LVL=0

      ---         MODULE    ---      ---       zf_exti
      000000D0H   SFRSYM    DATA     BYTE      PSW
      0000009DH   SFRSYM    DATA     BYTE      IRCBAND
      00000097H   SFRSYM    DATA     BYTE      AUXR2
      000000EFH   SFRSYM    DATA     BYTE      AUXINTIF
      000000FDH   SFRSYM    DATA     BYTE      S4CON
      000000ACH   SFRSYM    DATA     BYTE      S3CON
      0000009AH   SFRSYM    DATA     BYTE      S2CON
      000000B7H   SFRSYM    DATA     BYTE      IPH
      000000CDH   SFRSYM    DATA     BYTE      SPSTAT
      000000DDH   SFRSYM    DATA     BYTE      T4T3M
      000000C1H   SFRSYM    DATA     BYTE      WDT_CONTR
      00000088H.2 SFRSYM    DATA     BIT       IT1
      000000A8H.2 SFRSYM    DATA     BIT       EX1
      00000088H.0 SFRSYM    DATA     BIT       IT0
      000000A8H.0 SFRSYM    DATA     BIT       EX0
      000000DFH   SFRSYM    DATA     BYTE      IP3
      000000F4H   SFRSYM    DATA     BYTE      USBCON
      000000B5H   SFRSYM    DATA     BYTE      IP2
      000000FFH   SFRSYM    DATA     BYTE      RSTCFG
      000000F9H   SFRSYM    DATA     BYTE      LINICR
      0000008EH   SFRSYM    DATA     BYTE      AUXR
      000000AFH   SFRSYM    DATA     BYTE      IE2
      00000088H   SFRSYM    DATA     BYTE      TCON
      00000098H   SFRSYM    DATA     BYTE      SCON
L251 LINKER/LOCATER V4.66.93.0                                                        07/17/2023  21:05:08  PAGE 37


      000000F1H   SFRSYM    DATA     BYTE      CANICR
      00000087H   SFRSYM    DATA     BYTE      PCON
      000000BCH   SFRSYM    DATA     BYTE      ADC_CONTR
      000000E7H   SFRSYM    DATA     BYTE      CMPCR2
      000000E6H   SFRSYM    DATA     BYTE      CMPCR1
      000000B8H   SFRSYM    DATA     BYTE      IP
      0000008FH   SFRSYM    DATA     BYTE      INTCLKO
      000000EEH   SFRSYM    DATA     BYTE      IP3H
      000000B6H   SFRSYM    DATA     BYTE      IP2H
      000000A8H   SFRSYM    DATA     BYTE      IE
      000000BBH   SFRSYM    DATA     BYTE      P_SW3
      000000BAH   SFRSYM    DATA     BYTE      P_SW2
      000000A2H   SFRSYM    DATA     BYTE      P_SW1
      000000CEH   SFRSYM    DATA     BYTE      SPCTL
      000000F8H   SFRSYM    DATA     BYTE      P7
      000000E8H   SFRSYM    DATA     BYTE      P6
      000000C8H   SFRSYM    DATA     BYTE      P5
      000000C0H   SFRSYM    DATA     BYTE      P4
      000000B0H   SFRSYM    DATA     BYTE      P3
      000000A0H   SFRSYM    DATA     BYTE      P2
      00000090H   SFRSYM    DATA     BYTE      P1
      00000080H   SFRSYM    DATA     BYTE      P0
      WR4         REGSYM    ---      INT       int_n
      WR2         REGSYM    ---      INT       mode

      ---         MODULE    ---      ---       zf_gpio
      00FFAD79H   PUBLIC    ECODE    ---       gpio_pull_set?
      00FFADE7H   PUBLIC    ECODE    ---       gpio_mode?
      00000094H   SFRSYM    DATA     BYTE      P0M0
      000000D0H   SFRSYM    DATA     BYTE      PSW
      0000009DH   SFRSYM    DATA     BYTE      IRCBAND
      00000097H   SFRSYM    DATA     BYTE      AUXR2
      000000EFH   SFRSYM    DATA     BYTE      AUXINTIF
      000000FDH   SFRSYM    DATA     BYTE      S4CON
      000000ACH   SFRSYM    DATA     BYTE      S3CON
      0000009AH   SFRSYM    DATA     BYTE      S2CON
      000000B7H   SFRSYM    DATA     BYTE      IPH
      000000CDH   SFRSYM    DATA     BYTE      SPSTAT
      000000DDH   SFRSYM    DATA     BYTE      T4T3M
      000000C1H   SFRSYM    DATA     BYTE      WDT_CONTR
      000000DFH   SFRSYM    DATA     BYTE      IP3
      000000F4H   SFRSYM    DATA     BYTE      USBCON
      000000B5H   SFRSYM    DATA     BYTE      IP2
      000000FFH   SFRSYM    DATA     BYTE      RSTCFG
      000000F9H   SFRSYM    DATA     BYTE      LINICR
      0000008EH   SFRSYM    DATA     BYTE      AUXR
      000000AFH   SFRSYM    DATA     BYTE      IE2
      00000088H   SFRSYM    DATA     BYTE      TCON
      00000098H   SFRSYM    DATA     BYTE      SCON
      000000F1H   SFRSYM    DATA     BYTE      CANICR
      00000087H   SFRSYM    DATA     BYTE      PCON
      000000BCH   SFRSYM    DATA     BYTE      ADC_CONTR
      000000E7H   SFRSYM    DATA     BYTE      CMPCR2
      000000E6H   SFRSYM    DATA     BYTE      CMPCR1
      000000B8H   SFRSYM    DATA     BYTE      IP
      0000008FH   SFRSYM    DATA     BYTE      INTCLKO
      000000EEH   SFRSYM    DATA     BYTE      IP3H
      000000B6H   SFRSYM    DATA     BYTE      IP2H
      000000A8H   SFRSYM    DATA     BYTE      IE
      000000BBH   SFRSYM    DATA     BYTE      P_SW3
      000000BAH   SFRSYM    DATA     BYTE      P_SW2
      000000A2H   SFRSYM    DATA     BYTE      P_SW1
      000000CEH   SFRSYM    DATA     BYTE      SPCTL
      000000F8H   SFRSYM    DATA     BYTE      P7
      000000E1H   SFRSYM    DATA     BYTE      P7M1
L251 LINKER/LOCATER V4.66.93.0                                                        07/17/2023  21:05:08  PAGE 38


      000000E8H   SFRSYM    DATA     BYTE      P6
      000000C8H   SFRSYM    DATA     BYTE      P5
      000000CBH   SFRSYM    DATA     BYTE      P6M1
      000000E2H   SFRSYM    DATA     BYTE      P7M0
      000000C0H   SFRSYM    DATA     BYTE      P4
      000000C9H   SFRSYM    DATA     BYTE      P5M1
      000000CCH   SFRSYM    DATA     BYTE      P6M0
      000000B0H   SFRSYM    DATA     BYTE      P3
      000000B3H   SFRSYM    DATA     BYTE      P4M1
      000000CAH   SFRSYM    DATA     BYTE      P5M0
      000000A0H   SFRSYM    DATA     BYTE      P2
      000000B1H   SFRSYM    DATA     BYTE      P3M1
      000000B4H   SFRSYM    DATA     BYTE      P4M0
      00000090H   SFRSYM    DATA     BYTE      P1
      00000095H   SFRSYM    DATA     BYTE      P2M1
      000000B2H   SFRSYM    DATA     BYTE      P3M0
      00000080H   SFRSYM    DATA     BYTE      P0
      00000091H   SFRSYM    DATA     BYTE      P1M1
      00000096H   SFRSYM    DATA     BYTE      P2M0
      00000092H   SFRSYM    DATA     BYTE      P1M0
      00000093H   SFRSYM    DATA     BYTE      P0M1

      00FFAD79H   BLOCK     ECODE    ---       LVL=0
      WR4         REGSYM    ---      INT       pin
      WR2         REGSYM    ---      INT       pull
      00FFAD79H   LINE      ECODE    ---       #33
      00FFAD7DH   LINE      ECODE    ---       #35
      00FFAD83H   LINE      ECODE    ---       #37
      00FFADAFH   LINE      ECODE    ---       #38
      00FFADB1H   LINE      ECODE    ---       #39
      00FFADB5H   LINE      ECODE    ---       #41
      00FFADE6H   LINE      ECODE    ---       #42
      ---         BLOCKEND  ---      ---       LVL=0

      00FFADE7H   BLOCK     ECODE    ---       LVL=0
      WR4         REGSYM    ---      INT       pin
      WR2         REGSYM    ---      INT       mode
      00FFADE7H   LINE      ECODE    ---       #54
      00FFADEBH   LINE      ECODE    ---       #56
      00FFADF2H   LINE      ECODE    ---       #58
      00FFADFAH   LINE      ECODE    ---       #60
      00FFAE12H   LINE      ECODE    ---       #61
      00FFAE14H   LINE      ECODE    ---       #62
      00FFAE14H   LINE      ECODE    ---       #63
      00FFAE1AH   LINE      ECODE    ---       #65
      00FFAE32H   LINE      ECODE    ---       #66
      00FFAE34H   LINE      ECODE    ---       #67
      00FFAE34H   LINE      ECODE    ---       #68
      00FFAE3AH   LINE      ECODE    ---       #70
      00FFAE52H   LINE      ECODE    ---       #71
      00FFAE54H   LINE      ECODE    ---       #72
      00FFAE54H   LINE      ECODE    ---       #74
      00FFAE5AH   LINE      ECODE    ---       #76
      00FFAE72H   LINE      ECODE    ---       #77
      00FFAE74H   LINE      ECODE    ---       #78
      00FFAE74H   LINE      ECODE    ---       #79
      00FFAE7AH   LINE      ECODE    ---       #81
      00FFAE92H   LINE      ECODE    ---       #82
      00FFAE94H   LINE      ECODE    ---       #83
      00FFAE94H   LINE      ECODE    ---       #84
      00FFAE9AH   LINE      ECODE    ---       #86
      00FFAEB2H   LINE      ECODE    ---       #87
      00FFAEB4H   LINE      ECODE    ---       #88
      00FFAEB4H   LINE      ECODE    ---       #89
      00FFAEBAH   LINE      ECODE    ---       #91
L251 LINKER/LOCATER V4.66.93.0                                                        07/17/2023  21:05:08  PAGE 39


      00FFAED2H   LINE      ECODE    ---       #92
      00FFAED4H   LINE      ECODE    ---       #93
      00FFAED4H   LINE      ECODE    ---       #94
      00FFAEDDH   LINE      ECODE    ---       #96
      00FFAEF5H   LINE      ECODE    ---       #97
      00FFAEF7H   LINE      ECODE    ---       #98
      00FFAEF8H   LINE      ECODE    ---       #100
      00FFAF01H   LINE      ECODE    ---       #102
      00FFAF09H   LINE      ECODE    ---       #104
      00FFAF1EH   LINE      ECODE    ---       #105
      00FFAF22H   LINE      ECODE    ---       #106
      00FFAF22H   LINE      ECODE    ---       #107
      00FFAF28H   LINE      ECODE    ---       #109
      00FFAF3DH   LINE      ECODE    ---       #110
      00FFAF41H   LINE      ECODE    ---       #111
      00FFAF41H   LINE      ECODE    ---       #112
      00FFAF47H   LINE      ECODE    ---       #114
      00FFAF5CH   LINE      ECODE    ---       #115
      00FFAF60H   LINE      ECODE    ---       #116
      00FFAF60H   LINE      ECODE    ---       #118
      00FFAF66H   LINE      ECODE    ---       #120
      00FFAF7BH   LINE      ECODE    ---       #121
      00FFAF7FH   LINE      ECODE    ---       #122
      00FFAF7FH   LINE      ECODE    ---       #123
      00FFAF85H   LINE      ECODE    ---       #125
      00FFAF9AH   LINE      ECODE    ---       #126
      00FFAF9EH   LINE      ECODE    ---       #127
      00FFAF9EH   LINE      ECODE    ---       #128
      00FFAFA4H   LINE      ECODE    ---       #130
      00FFAFB9H   LINE      ECODE    ---       #131
      00FFAFBDH   LINE      ECODE    ---       #132
      00FFAFBDH   LINE      ECODE    ---       #133
      00FFAFC3H   LINE      ECODE    ---       #135
      00FFAFD8H   LINE      ECODE    ---       #136
      00FFAFDCH   LINE      ECODE    ---       #137
      00FFAFDCH   LINE      ECODE    ---       #138
      00FFAFE5H   LINE      ECODE    ---       #140
      00FFAFFCH   LINE      ECODE    ---       #141
      00FFAFFCH   LINE      ECODE    ---       #142
      00FFAFFFH   LINE      ECODE    ---       #145
      00FFB008H   LINE      ECODE    ---       #147
      00FFB010H   LINE      ECODE    ---       #149
      00FFB023H   LINE      ECODE    ---       #150
      00FFB027H   LINE      ECODE    ---       #151
      00FFB027H   LINE      ECODE    ---       #152
      00FFB02DH   LINE      ECODE    ---       #154
      00FFB040H   LINE      ECODE    ---       #155
      00FFB044H   LINE      ECODE    ---       #156
      00FFB044H   LINE      ECODE    ---       #157
      00FFB04AH   LINE      ECODE    ---       #159
      00FFB05DH   LINE      ECODE    ---       #160
      00FFB061H   LINE      ECODE    ---       #161
      00FFB061H   LINE      ECODE    ---       #163
      00FFB067H   LINE      ECODE    ---       #165
      00FFB07AH   LINE      ECODE    ---       #166
      00FFB07EH   LINE      ECODE    ---       #167
      00FFB07EH   LINE      ECODE    ---       #168
      00FFB084H   LINE      ECODE    ---       #170
      00FFB097H   LINE      ECODE    ---       #171
      00FFB09BH   LINE      ECODE    ---       #172
      00FFB09BH   LINE      ECODE    ---       #173
      00FFB0A1H   LINE      ECODE    ---       #175
      00FFB0B4H   LINE      ECODE    ---       #176
      00FFB0B8H   LINE      ECODE    ---       #177
      00FFB0B8H   LINE      ECODE    ---       #178
L251 LINKER/LOCATER V4.66.93.0                                                        07/17/2023  21:05:08  PAGE 40


      00FFB0BEH   LINE      ECODE    ---       #180
      00FFB0D1H   LINE      ECODE    ---       #181
      00FFB0D5H   LINE      ECODE    ---       #182
      00FFB0D5H   LINE      ECODE    ---       #183
      00FFB0DEH   LINE      ECODE    ---       #185
      00FFB0F1H   LINE      ECODE    ---       #186
      00FFB0F5H   LINE      ECODE    ---       #187
      00FFB0F6H   LINE      ECODE    ---       #189
      00FFB0FFH   LINE      ECODE    ---       #191
      00FFB107H   LINE      ECODE    ---       #193
      00FFB11AH   LINE      ECODE    ---       #194
      00FFB11CH   LINE      ECODE    ---       #195
      00FFB11CH   LINE      ECODE    ---       #196
      00FFB122H   LINE      ECODE    ---       #198
      00FFB135H   LINE      ECODE    ---       #199
      00FFB137H   LINE      ECODE    ---       #200
      00FFB137H   LINE      ECODE    ---       #201
      00FFB13DH   LINE      ECODE    ---       #203
      00FFB150H   LINE      ECODE    ---       #204
      00FFB152H   LINE      ECODE    ---       #205
      00FFB152H   LINE      ECODE    ---       #207
      00FFB158H   LINE      ECODE    ---       #209
      00FFB16BH   LINE      ECODE    ---       #210
      00FFB16DH   LINE      ECODE    ---       #211
      00FFB16DH   LINE      ECODE    ---       #212
      00FFB173H   LINE      ECODE    ---       #214
      00FFB186H   LINE      ECODE    ---       #215
      00FFB188H   LINE      ECODE    ---       #216
      00FFB188H   LINE      ECODE    ---       #217
      00FFB18EH   LINE      ECODE    ---       #219
      00FFB1A1H   LINE      ECODE    ---       #220
      00FFB1A3H   LINE      ECODE    ---       #221
      00FFB1A3H   LINE      ECODE    ---       #222
      00FFB1A9H   LINE      ECODE    ---       #224
      00FFB1BCH   LINE      ECODE    ---       #225
      00FFB1BEH   LINE      ECODE    ---       #226
      00FFB1BEH   LINE      ECODE    ---       #227
      00FFB1C4H   LINE      ECODE    ---       #229
      00FFB1D9H   LINE      ECODE    ---       #230
      00FFB1DDH   LINE      ECODE    ---       #231
      00FFB1DDH   LINE      ECODE    ---       #233
      ---         BLOCKEND  ---      ---       LVL=0

      ---         MODULE    ---      ---       zf_iic
      00FFB642H   PUBLIC    ECODE    ---       send_data?
      00FFB8B9H   PUBLIC    ECODE    ---       iic_change_pin?
      00FFB66BH   PUBLIC    ECODE    ---       recv_data?
      00FFB631H   PUBLIC    ECODE    ---       start?
      00FFB5EBH   PUBLIC    ECODE    ---       wait?
      00FFB688H   PUBLIC    ECODE    ---       send_ack?
      00FFB65AH   PUBLIC    ECODE    ---       recv_ack?
      00FFB6BBH   PUBLIC    ECODE    ---       stop?
      00FFB6A1H   PUBLIC    ECODE    ---       send_nak?
      00FFB6CCH   PUBLIC    ECODE    ---       iic_init?
      00FFB792H   PUBLIC    ECODE    ---       iic_read_reg?
      00FFB811H   PUBLIC    ECODE    ---       iic_read_reg_bytes?
      00FFB72AH   PUBLIC    ECODE    ---       iic_write_reg?
      00FFB5D6H   PUBLIC    ECODE    ---       iic_delay_us?
      000000D0H   SFRSYM    DATA     BYTE      PSW
      0000009DH   SFRSYM    DATA     BYTE      IRCBAND
      00000097H   SFRSYM    DATA     BYTE      AUXR2
      000000EFH   SFRSYM    DATA     BYTE      AUXINTIF
      000000FDH   SFRSYM    DATA     BYTE      S4CON
      000000ACH   SFRSYM    DATA     BYTE      S3CON
      0000009AH   SFRSYM    DATA     BYTE      S2CON
L251 LINKER/LOCATER V4.66.93.0                                                        07/17/2023  21:05:08  PAGE 41


      000000B7H   SFRSYM    DATA     BYTE      IPH
      000000CDH   SFRSYM    DATA     BYTE      SPSTAT
      000000DDH   SFRSYM    DATA     BYTE      T4T3M
      000000C1H   SFRSYM    DATA     BYTE      WDT_CONTR
      000000DFH   SFRSYM    DATA     BYTE      IP3
      000000F4H   SFRSYM    DATA     BYTE      USBCON
      000000B5H   SFRSYM    DATA     BYTE      IP2
      000000FFH   SFRSYM    DATA     BYTE      RSTCFG
      000000F9H   SFRSYM    DATA     BYTE      LINICR
      0000008EH   SFRSYM    DATA     BYTE      AUXR
      000000AFH   SFRSYM    DATA     BYTE      IE2
      00000088H   SFRSYM    DATA     BYTE      TCON
      00000098H   SFRSYM    DATA     BYTE      SCON
      000000F1H   SFRSYM    DATA     BYTE      CANICR
      00000087H   SFRSYM    DATA     BYTE      PCON
      000000BCH   SFRSYM    DATA     BYTE      ADC_CONTR
      000000E7H   SFRSYM    DATA     BYTE      CMPCR2
      000000E6H   SFRSYM    DATA     BYTE      CMPCR1
      000000B8H   SFRSYM    DATA     BYTE      IP
      0000008FH   SFRSYM    DATA     BYTE      INTCLKO
      000000EEH   SFRSYM    DATA     BYTE      IP3H
      000000B6H   SFRSYM    DATA     BYTE      IP2H
      000000A8H   SFRSYM    DATA     BYTE      IE
      000000BBH   SFRSYM    DATA     BYTE      P_SW3
      000000BAH   SFRSYM    DATA     BYTE      P_SW2
      000000A2H   SFRSYM    DATA     BYTE      P_SW1
      000000CEH   SFRSYM    DATA     BYTE      SPCTL
      000000F8H   SFRSYM    DATA     BYTE      P7
      000000E8H   SFRSYM    DATA     BYTE      P6
      000000C8H   SFRSYM    DATA     BYTE      P5
      000000C0H   SFRSYM    DATA     BYTE      P4
      000000B0H   SFRSYM    DATA     BYTE      P3
      000000A0H   SFRSYM    DATA     BYTE      P2
      00000090H   SFRSYM    DATA     BYTE      P1
      00000080H   SFRSYM    DATA     BYTE      P0

      00FFB5D6H   BLOCK     ECODE    ---       LVL=0
      WR6         REGSYM    ---      WORD      x
      R10         REGSYM    ---      BYTE      i
      00FFB5D6H   LINE      ECODE    ---       #30
      00FFB5D6H   LINE      ECODE    ---       #31
      00FFB5D6H   LINE      ECODE    ---       #33
      00FFB5D8H   LINE      ECODE    ---       #35
      00FFB5DBH   LINE      ECODE    ---       #36
      00FFB5E2H   LINE      ECODE    ---       #37
      00FFB5EAH   LINE      ECODE    ---       #38
      ---         BLOCKEND  ---      ---       LVL=0

      00FFB5EBH   BLOCK     ECODE    ---       LVL=0
      00FFB5EFH   BLOCK     ECODE    NEAR LAB  LVL=1
      WR12        REGSYM    ---      WORD      count
      R15         REGSYM    ---      BYTE      ret
      ---         BLOCKEND  ---      ---       LVL=1
      00FFB5EBH   LINE      ECODE    ---       #47
      00FFB5EFH   LINE      ECODE    ---       #48
      00FFB5EFH   LINE      ECODE    ---       #49
      00FFB5F1H   LINE      ECODE    ---       #50
      00FFB5F3H   LINE      ECODE    ---       #51
      00FFB5F5H   LINE      ECODE    ---       #53
      00FFB5FDH   LINE      ECODE    ---       #54
      00FFB607H   LINE      ECODE    ---       #56
      00FFB60AH   LINE      ECODE    ---       #57
      00FFB60CH   LINE      ECODE    ---       #58
      00FFB61AH   LINE      ECODE    ---       #60
      00FFB62AH   LINE      ECODE    ---       #61
L251 LINKER/LOCATER V4.66.93.0                                                        07/17/2023  21:05:08  PAGE 42


      00FFB62CH   LINE      ECODE    ---       #62
      ---         BLOCKEND  ---      ---       LVL=0

      00FFB631H   BLOCK     ECODE    ---       LVL=0
      R11         REGSYM    ---      BYTE      ret
      00FFB631H   LINE      ECODE    ---       #70
      00FFB631H   LINE      ECODE    ---       #71
      00FFB631H   LINE      ECODE    ---       #73
      00FFB63EH   LINE      ECODE    ---       #74
      00FFB642H   LINE      ECODE    ---       #75
      00FFB642H   LINE      ECODE    ---       #76
      ---         BLOCKEND  ---      ---       LVL=0

      00FFB642H   BLOCK     ECODE    ---       LVL=0
      R11         REGSYM    ---      CHAR      dat
      R11         REGSYM    ---      BYTE      ret
      00FFB642H   LINE      ECODE    ---       #84
      00FFB642H   LINE      ECODE    ---       #85
      00FFB642H   LINE      ECODE    ---       #87
      00FFB64DH   LINE      ECODE    ---       #88
      00FFB656H   LINE      ECODE    ---       #89
      00FFB65AH   LINE      ECODE    ---       #90
      00FFB65AH   LINE      ECODE    ---       #91
      ---         BLOCKEND  ---      ---       LVL=0

      00FFB65AH   BLOCK     ECODE    ---       LVL=0
      R11         REGSYM    ---      BYTE      ret
      00FFB65AH   LINE      ECODE    ---       #99
      00FFB65AH   LINE      ECODE    ---       #100
      00FFB65AH   LINE      ECODE    ---       #102
      00FFB667H   LINE      ECODE    ---       #103
      00FFB66BH   LINE      ECODE    ---       #104
      00FFB66BH   LINE      ECODE    ---       #105
      ---         BLOCKEND  ---      ---       LVL=0

      00FFB66BH   BLOCK     ECODE    ---       LVL=0
      00FFB66BH   LINE      ECODE    ---       #113
      00FFB66BH   LINE      ECODE    ---       #115
      00FFB678H   LINE      ECODE    ---       #116
      00FFB67CH   LINE      ECODE    ---       #117
      00FFB687H   LINE      ECODE    ---       #118
      ---         BLOCKEND  ---      ---       LVL=0

      00FFB688H   BLOCK     ECODE    ---       LVL=0
      R11         REGSYM    ---      BYTE      ret
      00FFB688H   LINE      ECODE    ---       #126
      00FFB688H   LINE      ECODE    ---       #127
      00FFB688H   LINE      ECODE    ---       #129
      00FFB694H   LINE      ECODE    ---       #130
      00FFB69DH   LINE      ECODE    ---       #131
      00FFB6A1H   LINE      ECODE    ---       #132
      00FFB6A1H   LINE      ECODE    ---       #133
      ---         BLOCKEND  ---      ---       LVL=0

      00FFB6A1H   BLOCK     ECODE    ---       LVL=0
      00FFB6A1H   LINE      ECODE    ---       #141
      00FFB6A1H   LINE      ECODE    ---       #143
      00FFB6AEH   LINE      ECODE    ---       #144
      00FFB6B7H   LINE      ECODE    ---       #145
      ---         BLOCKEND  ---      ---       LVL=0

      00FFB6BBH   BLOCK     ECODE    ---       LVL=0
      R11         REGSYM    ---      BYTE      ret
      00FFB6BBH   LINE      ECODE    ---       #154
      00FFB6BBH   LINE      ECODE    ---       #155
L251 LINKER/LOCATER V4.66.93.0                                                        07/17/2023  21:05:08  PAGE 43


      00FFB6BBH   LINE      ECODE    ---       #157
      00FFB6C8H   LINE      ECODE    ---       #158
      00FFB6CCH   LINE      ECODE    ---       #159
      00FFB6CCH   LINE      ECODE    ---       #160
      ---         BLOCKEND  ---      ---       LVL=0

      00FFB6CCH   BLOCK     ECODE    ---       LVL=0
      WR6         REGSYM    ---      INT       iic_n
      00FFB6CCH   LINE      ECODE    ---       #173
      00FFB6CCH   LINE      ECODE    ---       #179
      00FFB6CFH   LINE      ECODE    ---       #180
      00FFB6D2H   LINE      ECODE    ---       #181
      00FFB6E4H   LINE      ECODE    ---       #183
      00FFB6E4H   LINE      ECODE    ---       #184
      00FFB6E8H   LINE      ECODE    ---       #185
      00FFB6EAH   LINE      ECODE    ---       #186
      00FFB6EAH   LINE      ECODE    ---       #187
      00FFB6EDH   LINE      ECODE    ---       #188
      00FFB6EFH   LINE      ECODE    ---       #189
      00FFB6EFH   LINE      ECODE    ---       #190
      00FFB6F2H   LINE      ECODE    ---       #191
      00FFB6F4H   LINE      ECODE    ---       #192
      00FFB6F4H   LINE      ECODE    ---       #193
      00FFB6F7H   LINE      ECODE    ---       #194
      00FFB6F7H   LINE      ECODE    ---       #195
      00FFB6F7H   LINE      ECODE    ---       #197
      00FFB707H   LINE      ECODE    ---       #198
      00FFB70FH   LINE      ECODE    ---       #199
      00FFB71DH   LINE      ECODE    ---       #200
      00FFB729H   LINE      ECODE    ---       #202
      ---         BLOCKEND  ---      ---       LVL=0

      00FFB72AH   BLOCK     ECODE    ---       LVL=0
      R13         REGSYM    ---      BYTE      dev_add
      R14         REGSYM    ---      BYTE      reg
      R15         REGSYM    ---      BYTE      dat
      00FFB72AH   LINE      ECODE    ---       #214
      00FFB734H   LINE      ECODE    ---       #216
      00FFB73AH   LINE      ECODE    ---       #217
      00FFB73EH   LINE      ECODE    ---       #218
      00FFB748H   LINE      ECODE    ---       #219
      00FFB74CH   LINE      ECODE    ---       #220
      00FFB752H   LINE      ECODE    ---       #221
      00FFB756H   LINE      ECODE    ---       #222
      00FFB75EH   LINE      ECODE    ---       #223
      00FFB762H   LINE      ECODE    ---       #224
      00FFB768H   LINE      ECODE    ---       #225
      00FFB76CH   LINE      ECODE    ---       #226
      00FFB774H   LINE      ECODE    ---       #227
      00FFB778H   LINE      ECODE    ---       #228
      00FFB77EH   LINE      ECODE    ---       #229
      00FFB782H   LINE      ECODE    ---       #230
      00FFB788H   LINE      ECODE    ---       #231
      00FFB78CH   LINE      ECODE    ---       #234
      00FFB78DH   LINE      ECODE    ---       #235
      ---         BLOCKEND  ---      ---       LVL=0

      00FFB792H   BLOCK     ECODE    ---       LVL=0
      R15         REGSYM    ---      BYTE      dev_add
      R14         REGSYM    ---      BYTE      reg
      00FFB792H   LINE      ECODE    ---       #247
      00FFB79CH   LINE      ECODE    ---       #249
      00FFB7A2H   LINE      ECODE    ---       #250
      00FFB7A6H   LINE      ECODE    ---       #252
      00FFB7B0H   LINE      ECODE    ---       #253
L251 LINKER/LOCATER V4.66.93.0                                                        07/17/2023  21:05:08  PAGE 44


      00FFB7B4H   LINE      ECODE    ---       #254
      00FFB7BAH   LINE      ECODE    ---       #255
      00FFB7BEH   LINE      ECODE    ---       #257
      00FFB7C6H   LINE      ECODE    ---       #258
      00FFB7CAH   LINE      ECODE    ---       #259
      00FFB7D0H   LINE      ECODE    ---       #260
      00FFB7D4H   LINE      ECODE    ---       #266
      00FFB7E0H   LINE      ECODE    ---       #267
      00FFB7E4H   LINE      ECODE    ---       #269
      00FFB7EAH   LINE      ECODE    ---       #270
      00FFB7EEH   LINE      ECODE    ---       #273
      00FFB7F9H   LINE      ECODE    ---       #276
      00FFB7FFH   LINE      ECODE    ---       #277
      00FFB803H   LINE      ECODE    ---       #279
      00FFB809H   LINE      ECODE    ---       #280
      00FFB80DH   LINE      ECODE    ---       #282
      00FFB80EH   LINE      ECODE    ---       #283
      ---         BLOCKEND  ---      ---       LVL=0

      00FFB811H   BLOCK     ECODE    ---       LVL=0
      REG=3       REGSYM    ---      ---       dat
      00FFB811H   LINE      ECODE    ---       #296
      00FFB821H   LINE      ECODE    ---       #300
      00FFB827H   LINE      ECODE    ---       #301
      00FFB82CH   LINE      ECODE    ---       #303
      00FFB838H   LINE      ECODE    ---       #304
      00FFB83CH   LINE      ECODE    ---       #305
      00FFB842H   LINE      ECODE    ---       #306
      00FFB846H   LINE      ECODE    ---       #308
      00FFB850H   LINE      ECODE    ---       #309
      00FFB854H   LINE      ECODE    ---       #310
      00FFB85AH   LINE      ECODE    ---       #311
      00FFB85EH   LINE      ECODE    ---       #313
      00FFB86CH   LINE      ECODE    ---       #314
      00FFB870H   LINE      ECODE    ---       #315
      00FFB876H   LINE      ECODE    ---       #316
      00FFB87AH   LINE      ECODE    ---       #318
      00FFB87CH   LINE      ECODE    ---       #320
      00FFB883H   LINE      ECODE    ---       #321
      00FFB889H   LINE      ECODE    ---       #323
      00FFB88DH   LINE      ECODE    ---       #324
      00FFB88DH   LINE      ECODE    ---       #325
      00FFB88FH   LINE      ECODE    ---       #326
      00FFB89AH   LINE      ECODE    ---       #328
      00FFB8A1H   LINE      ECODE    ---       #330
      00FFB8A7H   LINE      ECODE    ---       #331
      00FFB8ABH   LINE      ECODE    ---       #333
      00FFB8B1H   LINE      ECODE    ---       #334
      00FFB8B5H   LINE      ECODE    ---       #336
      00FFB8B6H   LINE      ECODE    ---       #337
      ---         BLOCKEND  ---      ---       LVL=0

      00FFB8B9H   BLOCK     ECODE    ---       LVL=0
      WR6         REGSYM    ---      INT       iic_n
      00FFB8B9H   LINE      ECODE    ---       #347
      00FFB8B9H   LINE      ECODE    ---       #349
      00FFB8BCH   LINE      ECODE    ---       #351
      00FFB8BFH   LINE      ECODE    ---       #352
      00FFB8D1H   LINE      ECODE    ---       #354
      00FFB8D1H   LINE      ECODE    ---       #355
      00FFB8D5H   LINE      ECODE    ---       #356
      00FFB8D7H   LINE      ECODE    ---       #357
      00FFB8D7H   LINE      ECODE    ---       #358
      00FFB8DAH   LINE      ECODE    ---       #359
      00FFB8DCH   LINE      ECODE    ---       #360
L251 LINKER/LOCATER V4.66.93.0                                                        07/17/2023  21:05:08  PAGE 45


      00FFB8DCH   LINE      ECODE    ---       #361
      00FFB8DFH   LINE      ECODE    ---       #362
      00FFB8E1H   LINE      ECODE    ---       #363
      00FFB8E1H   LINE      ECODE    ---       #364
      00FFB8E4H   LINE      ECODE    ---       #365
      00FFB8E4H   LINE      ECODE    ---       #366
      00FFB8E4H   LINE      ECODE    ---       #368
      00FFB8E7H   LINE      ECODE    ---       #370
      ---         BLOCKEND  ---      ---       LVL=0

      ---         MODULE    ---      ---       zf_nvic
      000000D0H   SFRSYM    DATA     BYTE      PSW
      0000009DH   SFRSYM    DATA     BYTE      IRCBAND
      00000097H   SFRSYM    DATA     BYTE      AUXR2
      000000EFH   SFRSYM    DATA     BYTE      AUXINTIF
      000000FDH   SFRSYM    DATA     BYTE      S4CON
      000000ACH   SFRSYM    DATA     BYTE      S3CON
      0000009AH   SFRSYM    DATA     BYTE      S2CON
      000000B7H   SFRSYM    DATA     BYTE      IPH
      000000CDH   SFRSYM    DATA     BYTE      SPSTAT
      000000DDH   SFRSYM    DATA     BYTE      T4T3M
      000000C1H   SFRSYM    DATA     BYTE      WDT_CONTR
      000000DFH   SFRSYM    DATA     BYTE      IP3
      000000F4H   SFRSYM    DATA     BYTE      USBCON
      000000B5H   SFRSYM    DATA     BYTE      IP2
      000000FFH   SFRSYM    DATA     BYTE      RSTCFG
      000000F9H   SFRSYM    DATA     BYTE      LINICR
      0000008EH   SFRSYM    DATA     BYTE      AUXR
      000000AFH   SFRSYM    DATA     BYTE      IE2
      00000088H   SFRSYM    DATA     BYTE      TCON
      00000098H   SFRSYM    DATA     BYTE      SCON
      000000F1H   SFRSYM    DATA     BYTE      CANICR
      00000087H   SFRSYM    DATA     BYTE      PCON
      000000BCH   SFRSYM    DATA     BYTE      ADC_CONTR
      000000E7H   SFRSYM    DATA     BYTE      CMPCR2
      000000E6H   SFRSYM    DATA     BYTE      CMPCR1
      000000B8H   SFRSYM    DATA     BYTE      IP
      0000008FH   SFRSYM    DATA     BYTE      INTCLKO
      000000EEH   SFRSYM    DATA     BYTE      IP3H
      000000B6H   SFRSYM    DATA     BYTE      IP2H
      000000A8H   SFRSYM    DATA     BYTE      IE
      000000BBH   SFRSYM    DATA     BYTE      P_SW3
      000000BAH   SFRSYM    DATA     BYTE      P_SW2
      000000A2H   SFRSYM    DATA     BYTE      P_SW1
      000000CEH   SFRSYM    DATA     BYTE      SPCTL
      000000F8H   SFRSYM    DATA     BYTE      P7
      000000E8H   SFRSYM    DATA     BYTE      P6
      000000C8H   SFRSYM    DATA     BYTE      P5
      000000C0H   SFRSYM    DATA     BYTE      P4
      000000B0H   SFRSYM    DATA     BYTE      P3
      000000A0H   SFRSYM    DATA     BYTE      P2
      00000090H   SFRSYM    DATA     BYTE      P1
      00000080H   SFRSYM    DATA     BYTE      P0
      WR4         REGSYM    ---      INT       irqn
      R3          REGSYM    ---      BYTE      priority

      ---         MODULE    ---      ---       zf_pwm
      00FF9B53H   PUBLIC    ECODE    ---       pwm_duty?
      00FF95ADH   PUBLIC    ECODE    ---       pwm_set_gpio?
      00FF9C20H   PUBLIC    ECODE    ---       pwm_freq?
      00FF984FH   PUBLIC    ECODE    ---       pwm_init?
      00FFDF87H   PUBLIC    HCONST   ---       PWM_CCR_ADDR
      00FFDFA7H   PUBLIC    HCONST   ---       PWM_ARR_ADDR
      00FFDFAFH   PUBLIC    HCONST   ---       PWM_CCER_ADDR
      00FFDFBFH   PUBLIC    HCONST   ---       PWM_CCMR_ADDR
L251 LINKER/LOCATER V4.66.93.0                                                        07/17/2023  21:05:08  PAGE 46


      000000C6H   PUBLIC    EDATA    BYTE      ?pwm_init??BYTE
      000000D0H   SFRSYM    DATA     BYTE      PSW
      0000009DH   SFRSYM    DATA     BYTE      IRCBAND
      00000097H   SFRSYM    DATA     BYTE      AUXR2
      000000EFH   SFRSYM    DATA     BYTE      AUXINTIF
      000000FDH   SFRSYM    DATA     BYTE      S4CON
      000000ACH   SFRSYM    DATA     BYTE      S3CON
      0000009AH   SFRSYM    DATA     BYTE      S2CON
      000000B7H   SFRSYM    DATA     BYTE      IPH
      000000CDH   SFRSYM    DATA     BYTE      SPSTAT
      000000DDH   SFRSYM    DATA     BYTE      T4T3M
      000000C1H   SFRSYM    DATA     BYTE      WDT_CONTR
      000000DFH   SFRSYM    DATA     BYTE      IP3
      000000F4H   SFRSYM    DATA     BYTE      USBCON
      000000B5H   SFRSYM    DATA     BYTE      IP2
      000000FFH   SFRSYM    DATA     BYTE      RSTCFG
      000000F9H   SFRSYM    DATA     BYTE      LINICR
      0000008EH   SFRSYM    DATA     BYTE      AUXR
      000000AFH   SFRSYM    DATA     BYTE      IE2
      00000088H   SFRSYM    DATA     BYTE      TCON
      00000098H   SFRSYM    DATA     BYTE      SCON
      000000F1H   SFRSYM    DATA     BYTE      CANICR
      00000087H   SFRSYM    DATA     BYTE      PCON
      000000BCH   SFRSYM    DATA     BYTE      ADC_CONTR
      000000E7H   SFRSYM    DATA     BYTE      CMPCR2
      000000E6H   SFRSYM    DATA     BYTE      CMPCR1
      000000B8H   SFRSYM    DATA     BYTE      IP
      0000008FH   SFRSYM    DATA     BYTE      INTCLKO
      000000EEH   SFRSYM    DATA     BYTE      IP3H
      000000B6H   SFRSYM    DATA     BYTE      IP2H
      000000A8H   SFRSYM    DATA     BYTE      IE
      000000BBH   SFRSYM    DATA     BYTE      P_SW3
      000000BAH   SFRSYM    DATA     BYTE      P_SW2
      000000A2H   SFRSYM    DATA     BYTE      P_SW1
      000000CEH   SFRSYM    DATA     BYTE      SPCTL
      000000F8H   SFRSYM    DATA     BYTE      P7
      000000E8H   SFRSYM    DATA     BYTE      P6
      000000C8H   SFRSYM    DATA     BYTE      P5
      000000C0H   SFRSYM    DATA     BYTE      P4
      000000B0H   SFRSYM    DATA     BYTE      P3
      000000A0H   SFRSYM    DATA     BYTE      P2
      00000090H   SFRSYM    DATA     BYTE      P1
      00000080H   SFRSYM    DATA     BYTE      P0

      00FF95ADH   BLOCK     ECODE    ---       LVL=0
      WR6         REGSYM    ---      INT       pwmch
      00FF95ADH   LINE      ECODE    ---       #49
      00FF95ADH   LINE      ECODE    ---       #51
      00FF9720H   LINE      ECODE    ---       #53
      00FF9720H   LINE      ECODE    ---       #55
      00FF9724H   LINE      ECODE    ---       #56
      00FF9727H   LINE      ECODE    ---       #58
      00FF9727H   LINE      ECODE    ---       #60
      00FF972BH   LINE      ECODE    ---       #61
      00FF972EH   LINE      ECODE    ---       #63
      00FF972EH   LINE      ECODE    ---       #65
      00FF9732H   LINE      ECODE    ---       #66
      00FF9735H   LINE      ECODE    ---       #68
      00FF9735H   LINE      ECODE    ---       #70
      00FF9739H   LINE      ECODE    ---       #71
      00FF973CH   LINE      ECODE    ---       #73
      00FF973CH   LINE      ECODE    ---       #75
      00FF9740H   LINE      ECODE    ---       #76
      00FF9743H   LINE      ECODE    ---       #78
      00FF9743H   LINE      ECODE    ---       #80
L251 LINKER/LOCATER V4.66.93.0                                                        07/17/2023  21:05:08  PAGE 47


      00FF9747H   LINE      ECODE    ---       #81
      00FF974AH   LINE      ECODE    ---       #84
      00FF974AH   LINE      ECODE    ---       #86
      00FF974EH   LINE      ECODE    ---       #87
      00FF9751H   LINE      ECODE    ---       #89
      00FF9751H   LINE      ECODE    ---       #91
      00FF9755H   LINE      ECODE    ---       #92
      00FF9758H   LINE      ECODE    ---       #94
      00FF9758H   LINE      ECODE    ---       #96
      00FF975CH   LINE      ECODE    ---       #97
      00FF975FH   LINE      ECODE    ---       #99
      00FF975FH   LINE      ECODE    ---       #101
      00FF9763H   LINE      ECODE    ---       #102
      00FF9766H   LINE      ECODE    ---       #104
      00FF9766H   LINE      ECODE    ---       #106
      00FF976AH   LINE      ECODE    ---       #107
      00FF976DH   LINE      ECODE    ---       #109
      00FF976DH   LINE      ECODE    ---       #111
      00FF9771H   LINE      ECODE    ---       #112
      00FF9774H   LINE      ECODE    ---       #115
      00FF9774H   LINE      ECODE    ---       #117
      00FF9778H   LINE      ECODE    ---       #118
      00FF977AH   LINE      ECODE    ---       #120
      00FF977AH   LINE      ECODE    ---       #122
      00FF977EH   LINE      ECODE    ---       #123
      00FF9780H   LINE      ECODE    ---       #125
      00FF9780H   LINE      ECODE    ---       #127
      00FF9784H   LINE      ECODE    ---       #128
      00FF9786H   LINE      ECODE    ---       #130
      00FF9786H   LINE      ECODE    ---       #132
      00FF978AH   LINE      ECODE    ---       #133
      00FF978CH   LINE      ECODE    ---       #135
      00FF978CH   LINE      ECODE    ---       #137
      00FF9790H   LINE      ECODE    ---       #138
      00FF9792H   LINE      ECODE    ---       #140
      00FF9792H   LINE      ECODE    ---       #142
      00FF9796H   LINE      ECODE    ---       #143
      00FF9798H   LINE      ECODE    ---       #147
      00FF9798H   LINE      ECODE    ---       #149
      00FF979CH   LINE      ECODE    ---       #150
      00FF979EH   LINE      ECODE    ---       #152
      00FF979EH   LINE      ECODE    ---       #154
      00FF97A2H   LINE      ECODE    ---       #155
      00FF97A4H   LINE      ECODE    ---       #157
      00FF97A4H   LINE      ECODE    ---       #159
      00FF97A8H   LINE      ECODE    ---       #160
      00FF97AAH   LINE      ECODE    ---       #162
      00FF97AAH   LINE      ECODE    ---       #164
      00FF97AEH   LINE      ECODE    ---       #165
      00FF97B0H   LINE      ECODE    ---       #167
      00FF97B0H   LINE      ECODE    ---       #169
      00FF97B4H   LINE      ECODE    ---       #170
      00FF97B6H   LINE      ECODE    ---       #172
      00FF97B6H   LINE      ECODE    ---       #174
      00FF97BAH   LINE      ECODE    ---       #175
      00FF97BCH   LINE      ECODE    ---       #177
      00FF97BCH   LINE      ECODE    ---       #179
      00FF97C0H   LINE      ECODE    ---       #180
      00FF97C2H   LINE      ECODE    ---       #182
      00FF97C2H   LINE      ECODE    ---       #184
      00FF97C6H   LINE      ECODE    ---       #185
      00FF97C8H   LINE      ECODE    ---       #189
      00FF97C8H   LINE      ECODE    ---       #191
      00FF97CCH   LINE      ECODE    ---       #192
      00FF97CEH   LINE      ECODE    ---       #194
L251 LINKER/LOCATER V4.66.93.0                                                        07/17/2023  21:05:08  PAGE 48


      00FF97CEH   LINE      ECODE    ---       #196
      00FF97D2H   LINE      ECODE    ---       #197
      00FF97D4H   LINE      ECODE    ---       #199
      00FF97D4H   LINE      ECODE    ---       #201
      00FF97D6H   LINE      ECODE    ---       #202
      00FF97D8H   LINE      ECODE    ---       #204
      00FF97D8H   LINE      ECODE    ---       #206
      00FF97DCH   LINE      ECODE    ---       #207
      00FF97DEH   LINE      ECODE    ---       #210
      00FF97DEH   LINE      ECODE    ---       #212
      00FF97E2H   LINE      ECODE    ---       #213
      00FF97E4H   LINE      ECODE    ---       #215
      00FF97E4H   LINE      ECODE    ---       #217
      00FF97E8H   LINE      ECODE    ---       #218
      00FF97EAH   LINE      ECODE    ---       #220
      00FF97EAH   LINE      ECODE    ---       #222
      00FF97F0H   LINE      ECODE    ---       #223
      00FF97F2H   LINE      ECODE    ---       #225
      00FF97F2H   LINE      ECODE    ---       #227
      00FF97FAH   LINE      ECODE    ---       #228
      00FF97FCH   LINE      ECODE    ---       #232
      00FF97FCH   LINE      ECODE    ---       #234
      00FF9804H   LINE      ECODE    ---       #235
      00FF9806H   LINE      ECODE    ---       #237
      00FF9806H   LINE      ECODE    ---       #239
      00FF980EH   LINE      ECODE    ---       #240
      00FF9810H   LINE      ECODE    ---       #242
      00FF9810H   LINE      ECODE    ---       #244
      00FF9818H   LINE      ECODE    ---       #245
      00FF981AH   LINE      ECODE    ---       #247
      00FF981AH   LINE      ECODE    ---       #249
      00FF9822H   LINE      ECODE    ---       #250
      00FF9824H   LINE      ECODE    ---       #254
      00FF9824H   LINE      ECODE    ---       #256
      00FF982CH   LINE      ECODE    ---       #257
      00FF982EH   LINE      ECODE    ---       #259
      00FF982EH   LINE      ECODE    ---       #261
      00FF9836H   LINE      ECODE    ---       #262
      00FF9838H   LINE      ECODE    ---       #264
      00FF9838H   LINE      ECODE    ---       #266
      00FF9840H   LINE      ECODE    ---       #267
      00FF9842H   LINE      ECODE    ---       #269
      00FF9842H   LINE      ECODE    ---       #271
      00FF984EH   LINE      ECODE    ---       #272
      00FF984EH   LINE      ECODE    ---       #275
      00FF984EH   LINE      ECODE    ---       #277
      ---         BLOCKEND  ---      ---       LVL=0

      00FF984FH   BLOCK     ECODE    ---       LVL=0
      WR14        REGSYM    ---      INT       pwmch
      000000C8H   SYMBOL    EDATA    DWORD     freq
      000000CCH   SYMBOL    EDATA    DWORD     duty
      00FF9857H   BLOCK     ECODE    NEAR LAB  LVL=1
      000000D0H   SYMBOL    EDATA    DWORD     match_temp
      DR28        REGSYM    ---      DWORD     period_temp
      WR26        REGSYM    ---      WORD      freq_div
      ---         BLOCKEND  ---      ---       LVL=1
      00FF984FH   LINE      ECODE    ---       #290
      00FF9857H   LINE      ECODE    ---       #291
      00FF9857H   LINE      ECODE    ---       #295
      00FF9857H   LINE      ECODE    ---       #298
      00FF985AH   LINE      ECODE    ---       #301
      00FF985EH   LINE      ECODE    ---       #305
      00FF9870H   LINE      ECODE    ---       #306
      00FF9870H   LINE      ECODE    ---       #307
L251 LINKER/LOCATER V4.66.93.0                                                        07/17/2023  21:05:08  PAGE 49


      00FF987AH   LINE      ECODE    ---       #309
      00FF9884H   LINE      ECODE    ---       #311
      00FF98A6H   LINE      ECODE    ---       #312
      00FF98A8H   LINE      ECODE    ---       #315
      00FF98B0H   LINE      ECODE    ---       #316
      00FF98B0H   LINE      ECODE    ---       #319
      00FF98B9H   LINE      ECODE    ---       #322
      00FF98E4H   LINE      ECODE    ---       #323
      00FF9905H   LINE      ECODE    ---       #326
      00FF9951H   LINE      ECODE    ---       #329
      00FF9960H   LINE      ECODE    ---       #330
      00FF996BH   LINE      ECODE    ---       #332
      00FF9974H   LINE      ECODE    ---       #333
      00FF997AH   LINE      ECODE    ---       #334
      00FF997DH   LINE      ECODE    ---       #337
      00FF99B5H   LINE      ECODE    ---       #338
      00FF99D8H   LINE      ECODE    ---       #341
      00FF9A2AH   LINE      ECODE    ---       #345
      00FF9A39H   LINE      ECODE    ---       #346
      00FF9A44H   LINE      ECODE    ---       #348
      00FF9A4DH   LINE      ECODE    ---       #349
      00FF9A5AH   LINE      ECODE    ---       #350
      00FF9A5AH   LINE      ECODE    ---       #353
      00FF9A86H   LINE      ECODE    ---       #354
      00FF9AB4H   LINE      ECODE    ---       #357
      00FF9AE0H   LINE      ECODE    ---       #358
      00FF9B0EH   LINE      ECODE    ---       #361
      00FF9B25H   LINE      ECODE    ---       #362
      00FF9B50H   LINE      ECODE    ---       #367
      ---         BLOCKEND  ---      ---       LVL=0

      00FF9B53H   BLOCK     ECODE    ---       LVL=0
      WR30        REGSYM    ---      INT       pwmch
      DR24        REGSYM    ---      DWORD     duty
      00FF9B57H   BLOCK     ECODE    NEAR LAB  LVL=1
      DR20        REGSYM    ---      DWORD     match_temp
      DR16        REGSYM    ---      DWORD     arr
      ---         BLOCKEND  ---      ---       LVL=1
      00FF9B53H   LINE      ECODE    ---       #377
      00FF9B57H   LINE      ECODE    ---       #378
      00FF9B57H   LINE      ECODE    ---       #380
      00FF9B9BH   LINE      ECODE    ---       #384
      00FF9BA1H   LINE      ECODE    ---       #386
      00FF9BC7H   LINE      ECODE    ---       #387
      00FF9BC9H   LINE      ECODE    ---       #390
      00FF9BCDH   LINE      ECODE    ---       #391
      00FF9BCDH   LINE      ECODE    ---       #396
      00FF9BF5H   LINE      ECODE    ---       #397
      00FF9C1FH   LINE      ECODE    ---       #401
      ---         BLOCKEND  ---      ---       LVL=0

      00FF9C20H   BLOCK     ECODE    ---       LVL=0
      WR30        REGSYM    ---      INT       pwmch
      DR24        REGSYM    ---      DWORD     freq
      00FF9C22H   BLOCK     ECODE    NEAR LAB  LVL=1
      DR20        REGSYM    ---      DWORD     match_temp
      DR24        REGSYM    ---      DWORD     period_temp
      WR28        REGSYM    ---      WORD      freq_div
      ---         BLOCKEND  ---      ---       LVL=1
      00FF9C20H   LINE      ECODE    ---       #412
      00FF9C22H   LINE      ECODE    ---       #413
      00FF9C22H   LINE      ECODE    ---       #416
      00FF9C22H   LINE      ECODE    ---       #421
      00FF9C30H   LINE      ECODE    ---       #422
      00FF9C30H   LINE      ECODE    ---       #423
L251 LINKER/LOCATER V4.66.93.0                                                        07/17/2023  21:05:08  PAGE 50


      00FF9C3AH   LINE      ECODE    ---       #425
      00FF9C44H   LINE      ECODE    ---       #427
      00FF9C68H   LINE      ECODE    ---       #428
      00FF9C6AH   LINE      ECODE    ---       #431
      00FF9C6EH   LINE      ECODE    ---       #432
      00FF9C6EH   LINE      ECODE    ---       #439
      00FF9C74H   LINE      ECODE    ---       #442
      00FF9C83H   LINE      ECODE    ---       #443
      00FF9C8BH   LINE      ECODE    ---       #444
      00FF9C8DH   LINE      ECODE    ---       #448
      00FF9C9CH   LINE      ECODE    ---       #449
      00FF9CABH   LINE      ECODE    ---       #450
      00FF9CABH   LINE      ECODE    ---       #453
      00FF9CD7H   LINE      ECODE    ---       #454
      00FF9D05H   LINE      ECODE    ---       #457
      00FF9D2DH   LINE      ECODE    ---       #458
      00FF9D57H   LINE      ECODE    ---       #461
      ---         BLOCKEND  ---      ---       LVL=0

      ---         MODULE    ---      ---       zf_spi
      00FFD133H   PUBLIC    ECODE    ---       spi_change_mode?
      00FFD07CH   PUBLIC    ECODE    ---       spi_change_pin?
      00FFCF86H   PUBLIC    ECODE    ---       spi_init?
      00FFD06EH   PUBLIC    ECODE    ---       spi_mosi?
      000000BFH   PUBLIC    EDATA    BYTE      ?spi_init??BYTE
      000000CFH   SFRSYM    DATA     BYTE      SPDAT
      000000D0H   SFRSYM    DATA     BYTE      PSW
      0000009DH   SFRSYM    DATA     BYTE      IRCBAND
      00000097H   SFRSYM    DATA     BYTE      AUXR2
      000000EFH   SFRSYM    DATA     BYTE      AUXINTIF
      000000FDH   SFRSYM    DATA     BYTE      S4CON
      000000ACH   SFRSYM    DATA     BYTE      S3CON
      0000009AH   SFRSYM    DATA     BYTE      S2CON
      000000B7H   SFRSYM    DATA     BYTE      IPH
      000000CDH   SFRSYM    DATA     BYTE      SPSTAT
      000000DDH   SFRSYM    DATA     BYTE      T4T3M
      000000C1H   SFRSYM    DATA     BYTE      WDT_CONTR
      000000DFH   SFRSYM    DATA     BYTE      IP3
      000000F4H   SFRSYM    DATA     BYTE      USBCON
      000000B5H   SFRSYM    DATA     BYTE      IP2
      000000FFH   SFRSYM    DATA     BYTE      RSTCFG
      000000F9H   SFRSYM    DATA     BYTE      LINICR
      0000008EH   SFRSYM    DATA     BYTE      AUXR
      000000AFH   SFRSYM    DATA     BYTE      IE2
      00000088H   SFRSYM    DATA     BYTE      TCON
      00000098H   SFRSYM    DATA     BYTE      SCON
      000000F1H   SFRSYM    DATA     BYTE      CANICR
      00000087H   SFRSYM    DATA     BYTE      PCON
      000000BCH   SFRSYM    DATA     BYTE      ADC_CONTR
      000000E7H   SFRSYM    DATA     BYTE      CMPCR2
      000000E6H   SFRSYM    DATA     BYTE      CMPCR1
      000000B8H   SFRSYM    DATA     BYTE      IP
      0000008FH   SFRSYM    DATA     BYTE      INTCLKO
      000000EEH   SFRSYM    DATA     BYTE      IP3H
      000000B6H   SFRSYM    DATA     BYTE      IP2H
      000000A8H   SFRSYM    DATA     BYTE      IE
      000000BBH   SFRSYM    DATA     BYTE      P_SW3
      000000BAH   SFRSYM    DATA     BYTE      P_SW2
      000000A2H   SFRSYM    DATA     BYTE      P_SW1
      000000CEH   SFRSYM    DATA     BYTE      SPCTL
      000000F8H   SFRSYM    DATA     BYTE      P7
      000000E8H   SFRSYM    DATA     BYTE      P6
      000000C8H   SFRSYM    DATA     BYTE      P5
      000000C0H   SFRSYM    DATA     BYTE      P4
      000000B0H   SFRSYM    DATA     BYTE      P3
L251 LINKER/LOCATER V4.66.93.0                                                        07/17/2023  21:05:08  PAGE 51


      000000A0H   SFRSYM    DATA     BYTE      P2
      00000090H   SFRSYM    DATA     BYTE      P1
      00000080H   SFRSYM    DATA     BYTE      P0

      00FFCF86H   BLOCK     ECODE    ---       LVL=0
      WR14        REGSYM    ---      INT       spi_n
      R13         REGSYM    ---      BYTE      mode
      000000C8H   SYMBOL    EDATA    INT       mstr
      000000CAH   SYMBOL    EDATA    INT       baud
      00FFCF86H   LINE      ECODE    ---       #39
      00FFCF8EH   LINE      ECODE    ---       #47
      00FFCFA0H   LINE      ECODE    ---       #50
      00FFCFA0H   LINE      ECODE    ---       #51
      00FFCFAAH   LINE      ECODE    ---       #52
      00FFCFB4H   LINE      ECODE    ---       #53
      00FFCFB8H   LINE      ECODE    ---       #54
      00FFCFBAH   LINE      ECODE    ---       #55
      00FFCFBAH   LINE      ECODE    ---       #56
      00FFCFC4H   LINE      ECODE    ---       #57
      00FFCFCEH   LINE      ECODE    ---       #58
      00FFCFD2H   LINE      ECODE    ---       #59
      00FFCFD4H   LINE      ECODE    ---       #60
      00FFCFD4H   LINE      ECODE    ---       #61
      00FFCFDEH   LINE      ECODE    ---       #62
      00FFCFE8H   LINE      ECODE    ---       #63
      00FFCFECH   LINE      ECODE    ---       #64
      00FFCFEEH   LINE      ECODE    ---       #65
      00FFCFEEH   LINE      ECODE    ---       #66
      00FFCFF8H   LINE      ECODE    ---       #67
      00FFD002H   LINE      ECODE    ---       #68
      00FFD00CH   LINE      ECODE    ---       #69
      00FFD00CH   LINE      ECODE    ---       #70
      00FFD00CH   LINE      ECODE    ---       #72
      00FFD00FH   LINE      ECODE    ---       #73
      00FFD021H   LINE      ECODE    ---       #75
      00FFD021H   LINE      ECODE    ---       #76
      00FFD025H   LINE      ECODE    ---       #77
      00FFD027H   LINE      ECODE    ---       #78
      00FFD027H   LINE      ECODE    ---       #79
      00FFD02AH   LINE      ECODE    ---       #80
      00FFD02CH   LINE      ECODE    ---       #81
      00FFD02CH   LINE      ECODE    ---       #82
      00FFD02FH   LINE      ECODE    ---       #83
      00FFD031H   LINE      ECODE    ---       #84
      00FFD031H   LINE      ECODE    ---       #85
      00FFD034H   LINE      ECODE    ---       #86
      00FFD034H   LINE      ECODE    ---       #87
      00FFD034H   LINE      ECODE    ---       #89
      00FFD037H   LINE      ECODE    ---       #90
      00FFD043H   LINE      ECODE    ---       #92
      00FFD043H   LINE      ECODE    ---       #94
      00FFD043H   LINE      ECODE    ---       #95
      00FFD043H   LINE      ECODE    ---       #96
      00FFD046H   LINE      ECODE    ---       #97
      00FFD048H   LINE      ECODE    ---       #98
      00FFD048H   LINE      ECODE    ---       #99
      00FFD04BH   LINE      ECODE    ---       #100
      00FFD04DH   LINE      ECODE    ---       #101
      00FFD04DH   LINE      ECODE    ---       #102
      00FFD050H   LINE      ECODE    ---       #103
      00FFD050H   LINE      ECODE    ---       #104
      00FFD050H   LINE      ECODE    ---       #107
      00FFD058H   LINE      ECODE    ---       #109
      00FFD060H   LINE      ECODE    ---       #111
      00FFD063H   LINE      ECODE    ---       #112
L251 LINKER/LOCATER V4.66.93.0                                                        07/17/2023  21:05:08  PAGE 52


      00FFD066H   LINE      ECODE    ---       #113
      00FFD066H   LINE      ECODE    ---       #117
      00FFD066H   LINE      ECODE    ---       #118
      00FFD069H   LINE      ECODE    ---       #119
      ---         BLOCKEND  ---      ---       LVL=0

      00FFD06EH   BLOCK     ECODE    ---       LVL=0
      R11         REGSYM    ---      BYTE      dat
      00FFD06EH   LINE      ECODE    ---       #129
      00FFD06EH   LINE      ECODE    ---       #131
      00FFD071H   LINE      ECODE    ---       #132
      00FFD076H   LINE      ECODE    ---       #133
      00FFD079H   LINE      ECODE    ---       #134
      00FFD07BH   LINE      ECODE    ---       #135
      ---         BLOCKEND  ---      ---       LVL=0

      00FFD07CH   BLOCK     ECODE    ---       LVL=0
      WR14        REGSYM    ---      INT       spi_n
      00FFD07CH   LINE      ECODE    ---       #147
      00FFD080H   LINE      ECODE    ---       #149
      00FFD083H   LINE      ECODE    ---       #150
      00FFD095H   LINE      ECODE    ---       #153
      00FFD095H   LINE      ECODE    ---       #154
      00FFD0A1H   LINE      ECODE    ---       #155
      00FFD0ABH   LINE      ECODE    ---       #156
      00FFD0AFH   LINE      ECODE    ---       #157
      00FFD0B1H   LINE      ECODE    ---       #158
      00FFD0B1H   LINE      ECODE    ---       #159
      00FFD0BDH   LINE      ECODE    ---       #160
      00FFD0C7H   LINE      ECODE    ---       #161
      00FFD0CBH   LINE      ECODE    ---       #162
      00FFD0CDH   LINE      ECODE    ---       #163
      00FFD0CDH   LINE      ECODE    ---       #164
      00FFD0D9H   LINE      ECODE    ---       #165
      00FFD0E3H   LINE      ECODE    ---       #166
      00FFD0E7H   LINE      ECODE    ---       #167
      00FFD0E9H   LINE      ECODE    ---       #168
      00FFD0E9H   LINE      ECODE    ---       #169
      00FFD0F5H   LINE      ECODE    ---       #170
      00FFD0FFH   LINE      ECODE    ---       #171
      00FFD10BH   LINE      ECODE    ---       #172
      00FFD10BH   LINE      ECODE    ---       #173
      00FFD10BH   LINE      ECODE    ---       #176
      00FFD11DH   LINE      ECODE    ---       #178
      00FFD11DH   LINE      ECODE    ---       #179
      00FFD121H   LINE      ECODE    ---       #180
      00FFD123H   LINE      ECODE    ---       #181
      00FFD123H   LINE      ECODE    ---       #182
      00FFD126H   LINE      ECODE    ---       #183
      00FFD128H   LINE      ECODE    ---       #184
      00FFD128H   LINE      ECODE    ---       #185
      00FFD12BH   LINE      ECODE    ---       #186
      00FFD12DH   LINE      ECODE    ---       #187
      00FFD12DH   LINE      ECODE    ---       #188
      00FFD130H   LINE      ECODE    ---       #189
      00FFD130H   LINE      ECODE    ---       #190
      00FFD130H   LINE      ECODE    ---       #191
      ---         BLOCKEND  ---      ---       LVL=0

      00FFD133H   BLOCK     ECODE    ---       LVL=0
      R7          REGSYM    ---      BYTE      mode
      00FFD133H   LINE      ECODE    ---       #200
      00FFD135H   LINE      ECODE    ---       #202
      00FFD138H   LINE      ECODE    ---       #203
      00FFD144H   LINE      ECODE    ---       #205
L251 LINKER/LOCATER V4.66.93.0                                                        07/17/2023  21:05:08  PAGE 53


      00FFD144H   LINE      ECODE    ---       #207
      00FFD144H   LINE      ECODE    ---       #208
      00FFD144H   LINE      ECODE    ---       #209
      00FFD147H   LINE      ECODE    ---       #210
      00FFD148H   LINE      ECODE    ---       #211
      00FFD148H   LINE      ECODE    ---       #212
      00FFD14BH   LINE      ECODE    ---       #213
      00FFD14CH   LINE      ECODE    ---       #214
      00FFD14CH   LINE      ECODE    ---       #215
      00FFD14FH   LINE      ECODE    ---       #216
      00FFD14FH   LINE      ECODE    ---       #217
      00FFD14FH   LINE      ECODE    ---       #218
      ---         BLOCKEND  ---      ---       LVL=0

      ---         MODULE    ---      ---       zf_tim
      00FFD19AH   PUBLIC    ECODE    ---       ctimer_count_read?
      00FFD238H   PUBLIC    ECODE    ---       pit_timer_ms?
      00FFD150H   PUBLIC    ECODE    ---       ctimer_count_init?
      00FFD1E7H   PUBLIC    ECODE    ---       ctimer_count_clean?
      000000D0H   SFRSYM    DATA     BYTE      PSW
      0000009DH   SFRSYM    DATA     BYTE      IRCBAND
      00000097H   SFRSYM    DATA     BYTE      AUXR2
      000000EFH   SFRSYM    DATA     BYTE      AUXINTIF
      000000FDH   SFRSYM    DATA     BYTE      S4CON
      000000ACH   SFRSYM    DATA     BYTE      S3CON
      0000009AH   SFRSYM    DATA     BYTE      S2CON
      000000B7H   SFRSYM    DATA     BYTE      IPH
      000000CDH   SFRSYM    DATA     BYTE      SPSTAT
      000000DDH   SFRSYM    DATA     BYTE      T4T3M
      000000C1H   SFRSYM    DATA     BYTE      WDT_CONTR
      00000088H.6 SFRSYM    DATA     BIT       TR1
      00000088H.4 SFRSYM    DATA     BIT       TR0
      000000D3H   SFRSYM    DATA     BYTE      T4L
      000000D5H   SFRSYM    DATA     BYTE      T3L
      000000D7H   SFRSYM    DATA     BYTE      T2L
      0000008BH   SFRSYM    DATA     BYTE      TL1
      0000008AH   SFRSYM    DATA     BYTE      TL0
      000000D2H   SFRSYM    DATA     BYTE      T4H
      000000D4H   SFRSYM    DATA     BYTE      T3H
      000000D6H   SFRSYM    DATA     BYTE      T2H
      0000008DH   SFRSYM    DATA     BYTE      TH1
      0000008CH   SFRSYM    DATA     BYTE      TH0
      000000DFH   SFRSYM    DATA     BYTE      IP3
      000000F4H   SFRSYM    DATA     BYTE      USBCON
      000000B5H   SFRSYM    DATA     BYTE      IP2
      000000FFH   SFRSYM    DATA     BYTE      RSTCFG
      000000A8H.3 SFRSYM    DATA     BIT       ET1
      000000A8H.1 SFRSYM    DATA     BIT       ET0
      000000F9H   SFRSYM    DATA     BYTE      LINICR
      0000008EH   SFRSYM    DATA     BYTE      AUXR
      000000AFH   SFRSYM    DATA     BYTE      IE2
      00000088H   SFRSYM    DATA     BYTE      TCON
      00000089H   SFRSYM    DATA     BYTE      TMOD
      00000098H   SFRSYM    DATA     BYTE      SCON
      000000F1H   SFRSYM    DATA     BYTE      CANICR
      00000087H   SFRSYM    DATA     BYTE      PCON
      000000BCH   SFRSYM    DATA     BYTE      ADC_CONTR
      000000E7H   SFRSYM    DATA     BYTE      CMPCR2
      000000E6H   SFRSYM    DATA     BYTE      CMPCR1
      000000B8H   SFRSYM    DATA     BYTE      IP
      0000008FH   SFRSYM    DATA     BYTE      INTCLKO
      000000EEH   SFRSYM    DATA     BYTE      IP3H
      000000B6H   SFRSYM    DATA     BYTE      IP2H
      000000A8H   SFRSYM    DATA     BYTE      IE
      000000BBH   SFRSYM    DATA     BYTE      P_SW3
L251 LINKER/LOCATER V4.66.93.0                                                        07/17/2023  21:05:08  PAGE 54


      000000BAH   SFRSYM    DATA     BYTE      P_SW2
      000000A2H   SFRSYM    DATA     BYTE      P_SW1
      000000CEH   SFRSYM    DATA     BYTE      SPCTL
      000000F8H   SFRSYM    DATA     BYTE      P7
      000000E8H   SFRSYM    DATA     BYTE      P6
      000000C8H   SFRSYM    DATA     BYTE      P5
      000000C0H   SFRSYM    DATA     BYTE      P4
      000000B0H   SFRSYM    DATA     BYTE      P3
      000000A0H   SFRSYM    DATA     BYTE      P2
      00000090H   SFRSYM    DATA     BYTE      P1
      00000080H   SFRSYM    DATA     BYTE      P0

      00FFD150H   BLOCK     ECODE    ---       LVL=0
      WR6         REGSYM    ---      INT       tim_n
      00FFD150H   LINE      ECODE    ---       #39
      00FFD150H   LINE      ECODE    ---       #42
      00FFD164H   LINE      ECODE    ---       #44
      00FFD164H   LINE      ECODE    ---       #46
      00FFD167H   LINE      ECODE    ---       #47
      00FFD16AH   LINE      ECODE    ---       #48
      00FFD16DH   LINE      ECODE    ---       #49
      00FFD16FH   LINE      ECODE    ---       #50
      00FFD170H   LINE      ECODE    ---       #53
      00FFD170H   LINE      ECODE    ---       #55
      00FFD173H   LINE      ECODE    ---       #56
      00FFD176H   LINE      ECODE    ---       #57
      00FFD179H   LINE      ECODE    ---       #58
      00FFD17BH   LINE      ECODE    ---       #59
      00FFD17CH   LINE      ECODE    ---       #62
      00FFD17CH   LINE      ECODE    ---       #64
      00FFD17FH   LINE      ECODE    ---       #65
      00FFD182H   LINE      ECODE    ---       #66
      00FFD185H   LINE      ECODE    ---       #67
      00FFD186H   LINE      ECODE    ---       #70
      00FFD186H   LINE      ECODE    ---       #72
      00FFD189H   LINE      ECODE    ---       #73
      00FFD18CH   LINE      ECODE    ---       #74
      00FFD18FH   LINE      ECODE    ---       #75
      00FFD190H   LINE      ECODE    ---       #78
      00FFD190H   LINE      ECODE    ---       #80
      00FFD193H   LINE      ECODE    ---       #81
      00FFD196H   LINE      ECODE    ---       #82
      00FFD199H   LINE      ECODE    ---       #83
      00FFD199H   LINE      ECODE    ---       #86
      00FFD199H   LINE      ECODE    ---       #87
      ---         BLOCKEND  ---      ---       LVL=0

      00FFD19AH   BLOCK     ECODE    ---       LVL=0
      WR4         REGSYM    ---      INT       tim_n
      00FFD19CH   BLOCK     ECODE    NEAR LAB  LVL=1
      WR6         REGSYM    ---      WORD      dat
      ---         BLOCKEND  ---      ---       LVL=1
      00FFD19AH   LINE      ECODE    ---       #95
      00FFD19CH   LINE      ECODE    ---       #96
      00FFD19CH   LINE      ECODE    ---       #97
      00FFD19EH   LINE      ECODE    ---       #99
      00FFD1B2H   LINE      ECODE    ---       #101
      00FFD1B2H   LINE      ECODE    ---       #103
      00FFD1B8H   LINE      ECODE    ---       #104
      00FFD1BAH   LINE      ECODE    ---       #105
      00FFD1BCH   LINE      ECODE    ---       #107
      00FFD1BCH   LINE      ECODE    ---       #109
      00FFD1C2H   LINE      ECODE    ---       #110
      00FFD1C4H   LINE      ECODE    ---       #111
      00FFD1C6H   LINE      ECODE    ---       #113
L251 LINKER/LOCATER V4.66.93.0                                                        07/17/2023  21:05:08  PAGE 55


      00FFD1C6H   LINE      ECODE    ---       #115
      00FFD1CCH   LINE      ECODE    ---       #116
      00FFD1CEH   LINE      ECODE    ---       #117
      00FFD1D0H   LINE      ECODE    ---       #119
      00FFD1D0H   LINE      ECODE    ---       #121
      00FFD1D6H   LINE      ECODE    ---       #122
      00FFD1D8H   LINE      ECODE    ---       #123
      00FFD1DAH   LINE      ECODE    ---       #125
      00FFD1DAH   LINE      ECODE    ---       #127
      00FFD1E0H   LINE      ECODE    ---       #128
      00FFD1E6H   LINE      ECODE    ---       #129
      00FFD1E6H   LINE      ECODE    ---       #132
      00FFD1E6H   LINE      ECODE    ---       #133
      00FFD1E6H   LINE      ECODE    ---       #134
      ---         BLOCKEND  ---      ---       LVL=0

      00FFD1E7H   BLOCK     ECODE    ---       LVL=0
      WR6         REGSYM    ---      INT       tim_n
      00FFD1E7H   LINE      ECODE    ---       #143
      00FFD1E7H   LINE      ECODE    ---       #145
      00FFD1FBH   LINE      ECODE    ---       #147
      00FFD1FBH   LINE      ECODE    ---       #149
      00FFD1FDH   LINE      ECODE    ---       #150
      00FFD200H   LINE      ECODE    ---       #151
      00FFD203H   LINE      ECODE    ---       #152
      00FFD205H   LINE      ECODE    ---       #153
      00FFD206H   LINE      ECODE    ---       #155
      00FFD206H   LINE      ECODE    ---       #157
      00FFD208H   LINE      ECODE    ---       #158
      00FFD20BH   LINE      ECODE    ---       #159
      00FFD20EH   LINE      ECODE    ---       #160
      00FFD210H   LINE      ECODE    ---       #161
      00FFD211H   LINE      ECODE    ---       #163
      00FFD211H   LINE      ECODE    ---       #165
      00FFD214H   LINE      ECODE    ---       #166
      00FFD217H   LINE      ECODE    ---       #167
      00FFD21AH   LINE      ECODE    ---       #168
      00FFD21DH   LINE      ECODE    ---       #169
      00FFD21EH   LINE      ECODE    ---       #171
      00FFD21EH   LINE      ECODE    ---       #173
      00FFD221H   LINE      ECODE    ---       #174
      00FFD224H   LINE      ECODE    ---       #175
      00FFD227H   LINE      ECODE    ---       #176
      00FFD22AH   LINE      ECODE    ---       #177
      00FFD22BH   LINE      ECODE    ---       #179
      00FFD22BH   LINE      ECODE    ---       #181
      00FFD22EH   LINE      ECODE    ---       #182
      00FFD231H   LINE      ECODE    ---       #183
      00FFD234H   LINE      ECODE    ---       #184
      00FFD237H   LINE      ECODE    ---       #185
      00FFD237H   LINE      ECODE    ---       #187
      00FFD237H   LINE      ECODE    ---       #188
      ---         BLOCKEND  ---      ---       LVL=0

      00FFD238H   BLOCK     ECODE    ---       LVL=0
      WR30        REGSYM    ---      INT       tim_n
      WR28        REGSYM    ---      WORD      time_ms
      00FFD23AH   BLOCK     ECODE    NEAR LAB  LVL=1
      WR28        REGSYM    ---      WORD      temp
      ---         BLOCKEND  ---      ---       LVL=1
      00FFD238H   LINE      ECODE    ---       #198
      00FFD23AH   LINE      ECODE    ---       #199
      00FFD23AH   LINE      ECODE    ---       #201
      00FFD258H   LINE      ECODE    ---       #203
      00FFD25CH   LINE      ECODE    ---       #205
L251 LINKER/LOCATER V4.66.93.0                                                        07/17/2023  21:05:08  PAGE 56


      00FFD260H   LINE      ECODE    ---       #206
      00FFD266H   LINE      ECODE    ---       #207
      00FFD26AH   LINE      ECODE    ---       #208
      00FFD26CH   LINE      ECODE    ---       #209
      00FFD26EH   LINE      ECODE    ---       #210
      00FFD26FH   LINE      ECODE    ---       #211
      00FFD275H   LINE      ECODE    ---       #213
      00FFD279H   LINE      ECODE    ---       #214
      00FFD27FH   LINE      ECODE    ---       #215
      00FFD283H   LINE      ECODE    ---       #216
      00FFD285H   LINE      ECODE    ---       #217
      00FFD287H   LINE      ECODE    ---       #218
      00FFD288H   LINE      ECODE    ---       #219
      00FFD28EH   LINE      ECODE    ---       #221
      00FFD294H   LINE      ECODE    ---       #222
      00FFD298H   LINE      ECODE    ---       #223
      00FFD29BH   LINE      ECODE    ---       #224
      00FFD29EH   LINE      ECODE    ---       #225
      00FFD29FH   LINE      ECODE    ---       #226
      00FFD2A5H   LINE      ECODE    ---       #228
      00FFD2ABH   LINE      ECODE    ---       #229
      00FFD2AFH   LINE      ECODE    ---       #230
      00FFD2B2H   LINE      ECODE    ---       #231
      00FFD2B5H   LINE      ECODE    ---       #232
      00FFD2B6H   LINE      ECODE    ---       #233
      00FFD2BCH   LINE      ECODE    ---       #235
      00FFD2C2H   LINE      ECODE    ---       #236
      00FFD2C6H   LINE      ECODE    ---       #237
      00FFD2C9H   LINE      ECODE    ---       #238
      00FFD2CCH   LINE      ECODE    ---       #239
      ---         BLOCKEND  ---      ---       LVL=0

      ---         MODULE    ---      ---       zf_uart
      00FFC50BH   PUBLIC    ECODE    ---       uart_putchar?
      00FFC55FH   PUBLIC    ECODE    ---       uart_putbuff?
      00FFC58DH   PUBLIC    ECODE    ---       uart_putstr?
      00FFC34BH   PUBLIC    ECODE    ---       uart_init?
      000003D6H   PUBLIC    EDATA    ---       uart1_rx_buff
      0000043AH   PUBLIC    EDATA    ---       uart1_tx_buff
      0000049EH   PUBLIC    EDATA    ---       busy
      000000C2H   PUBLIC    EDATA    BYTE      ?uart_init??BYTE
      000000D0H   SFRSYM    DATA     BYTE      PSW
      0000009DH   SFRSYM    DATA     BYTE      IRCBAND
      00000097H   SFRSYM    DATA     BYTE      AUXR2
      000000EFH   SFRSYM    DATA     BYTE      AUXINTIF
      000000FDH   SFRSYM    DATA     BYTE      S4CON
      000000ACH   SFRSYM    DATA     BYTE      S3CON
      0000009AH   SFRSYM    DATA     BYTE      S2CON
      000000FEH   SFRSYM    DATA     BYTE      S4BUF
      000000ADH   SFRSYM    DATA     BYTE      S3BUF
      0000009BH   SFRSYM    DATA     BYTE      S2BUF
      000000B7H   SFRSYM    DATA     BYTE      IPH
      000000CDH   SFRSYM    DATA     BYTE      SPSTAT
      000000DDH   SFRSYM    DATA     BYTE      T4T3M
      000000C1H   SFRSYM    DATA     BYTE      WDT_CONTR
      00000088H.6 SFRSYM    DATA     BIT       TR1
      000000D3H   SFRSYM    DATA     BYTE      T4L
      000000D5H   SFRSYM    DATA     BYTE      T3L
      000000D7H   SFRSYM    DATA     BYTE      T2L
      0000008BH   SFRSYM    DATA     BYTE      TL1
      000000D2H   SFRSYM    DATA     BYTE      T4H
      000000D4H   SFRSYM    DATA     BYTE      T3H
      000000D6H   SFRSYM    DATA     BYTE      T2H
      0000008DH   SFRSYM    DATA     BYTE      TH1
      000000DFH   SFRSYM    DATA     BYTE      IP3
L251 LINKER/LOCATER V4.66.93.0                                                        07/17/2023  21:05:08  PAGE 57


      000000F4H   SFRSYM    DATA     BYTE      USBCON
      000000B5H   SFRSYM    DATA     BYTE      IP2
      000000FFH   SFRSYM    DATA     BYTE      RSTCFG
      000000F9H   SFRSYM    DATA     BYTE      LINICR
      0000008EH   SFRSYM    DATA     BYTE      AUXR
      000000AFH   SFRSYM    DATA     BYTE      IE2
      00000088H   SFRSYM    DATA     BYTE      TCON
      00000089H   SFRSYM    DATA     BYTE      TMOD
      00000098H   SFRSYM    DATA     BYTE      SCON
      000000F1H   SFRSYM    DATA     BYTE      CANICR
      00000087H   SFRSYM    DATA     BYTE      PCON
      00000099H   SFRSYM    DATA     BYTE      SBUF
      000000BCH   SFRSYM    DATA     BYTE      ADC_CONTR
      000000E7H   SFRSYM    DATA     BYTE      CMPCR2
      000000E6H   SFRSYM    DATA     BYTE      CMPCR1
      000000B8H   SFRSYM    DATA     BYTE      IP
      000000A8H.4 SFRSYM    DATA     BIT       ES
      0000008FH   SFRSYM    DATA     BYTE      INTCLKO
      000000EEH   SFRSYM    DATA     BYTE      IP3H
      000000B6H   SFRSYM    DATA     BYTE      IP2H
      000000A8H   SFRSYM    DATA     BYTE      IE
      000000BBH   SFRSYM    DATA     BYTE      P_SW3
      000000BAH   SFRSYM    DATA     BYTE      P_SW2
      000000A2H   SFRSYM    DATA     BYTE      P_SW1
      000000CEH   SFRSYM    DATA     BYTE      SPCTL
      000000F8H   SFRSYM    DATA     BYTE      P7
      000000E8H   SFRSYM    DATA     BYTE      P6
      000000C8H   SFRSYM    DATA     BYTE      P5
      000000C0H   SFRSYM    DATA     BYTE      P4
      000000C9H   SFRSYM    DATA     BYTE      P5M1
      000000B0H   SFRSYM    DATA     BYTE      P3
      000000CAH   SFRSYM    DATA     BYTE      P5M0
      000000A0H   SFRSYM    DATA     BYTE      P2
      00000090H   SFRSYM    DATA     BYTE      P1
      00000080H   SFRSYM    DATA     BYTE      P0

      00FFC34BH   BLOCK     ECODE    ---       LVL=0
      WR24        REGSYM    ---      INT       uart_n
      WR28        REGSYM    ---      INT       uart_rx_pin
      WR30        REGSYM    ---      INT       uart_tx_pin
      000000C8H   SYMBOL    EDATA    DWORD     baud
      WR26        REGSYM    ---      INT       tim_n
      00FFC353H   BLOCK     ECODE    NEAR LAB  LVL=1
      WR6         REGSYM    ---      WORD      brt
      ---         BLOCKEND  ---      ---       LVL=1
      00FFC34BH   LINE      ECODE    ---       #48
      00FFC353H   LINE      ECODE    ---       #49
      00FFC353H   LINE      ECODE    ---       #52
      00FFC377H   LINE      ECODE    ---       #55
      00FFC395H   LINE      ECODE    ---       #57
      00FFC395H   LINE      ECODE    ---       #59
      00FFC39BH   LINE      ECODE    ---       #61
      00FFC39EH   LINE      ECODE    ---       #62
      00FFC3A2H   LINE      ECODE    ---       #63
      00FFC3A6H   LINE      ECODE    ---       #64
      00FFC3AAH   LINE      ECODE    ---       #65
      00FFC3ADH   LINE      ECODE    ---       #66
      00FFC3AFH   LINE      ECODE    ---       #67
      00FFC3B4H   LINE      ECODE    ---       #68
      00FFC3B6H   LINE      ECODE    ---       #69
      00FFC3BCH   LINE      ECODE    ---       #71
      00FFC3BFH   LINE      ECODE    ---       #72
      00FFC3C3H   LINE      ECODE    ---       #73
      00FFC3C7H   LINE      ECODE    ---       #74
      00FFC3CAH   LINE      ECODE    ---       #75
L251 LINKER/LOCATER V4.66.93.0                                                        07/17/2023  21:05:08  PAGE 58


      00FFC3CAH   LINE      ECODE    ---       #76
      00FFC3CDH   LINE      ECODE    ---       #77
      00FFC3D7H   LINE      ECODE    ---       #79
      00FFC3DBH   LINE      ECODE    ---       #80
      00FFC3DDH   LINE      ECODE    ---       #81
      00FFC3E9H   LINE      ECODE    ---       #83
      00FFC3ECH   LINE      ECODE    ---       #84
      00FFC3EEH   LINE      ECODE    ---       #85
      00FFC3FAH   LINE      ECODE    ---       #87
      00FFC3FDH   LINE      ECODE    ---       #88
      00FFC3FFH   LINE      ECODE    ---       #89
      00FFC40BH   LINE      ECODE    ---       #91
      00FFC40EH   LINE      ECODE    ---       #92
      00FFC40EH   LINE      ECODE    ---       #93
      00FFC413H   LINE      ECODE    ---       #94
      00FFC415H   LINE      ECODE    ---       #95
      00FFC416H   LINE      ECODE    ---       #98
      00FFC416H   LINE      ECODE    ---       #100
      00FFC41CH   LINE      ECODE    ---       #102
      00FFC41FH   LINE      ECODE    ---       #103
      00FFC423H   LINE      ECODE    ---       #104
      00FFC427H   LINE      ECODE    ---       #105
      00FFC42AH   LINE      ECODE    ---       #106
      00FFC42AH   LINE      ECODE    ---       #108
      00FFC42DH   LINE      ECODE    ---       #109
      00FFC439H   LINE      ECODE    ---       #111
      00FFC43DH   LINE      ECODE    ---       #112
      00FFC43FH   LINE      ECODE    ---       #113
      00FFC44BH   LINE      ECODE    ---       #115
      00FFC44EH   LINE      ECODE    ---       #116
      00FFC44EH   LINE      ECODE    ---       #118
      00FFC451H   LINE      ECODE    ---       #119
      00FFC456H   LINE      ECODE    ---       #120
      00FFC457H   LINE      ECODE    ---       #123
      00FFC457H   LINE      ECODE    ---       #125
      00FFC45DH   LINE      ECODE    ---       #127
      00FFC460H   LINE      ECODE    ---       #128
      00FFC464H   LINE      ECODE    ---       #129
      00FFC468H   LINE      ECODE    ---       #130
      00FFC46BH   LINE      ECODE    ---       #131
      00FFC46DH   LINE      ECODE    ---       #132
      00FFC473H   LINE      ECODE    ---       #134
      00FFC476H   LINE      ECODE    ---       #135
      00FFC47AH   LINE      ECODE    ---       #136
      00FFC47EH   LINE      ECODE    ---       #137
      00FFC481H   LINE      ECODE    ---       #138
      00FFC481H   LINE      ECODE    ---       #140
      00FFC484H   LINE      ECODE    ---       #141
      00FFC490H   LINE      ECODE    ---       #143
      00FFC494H   LINE      ECODE    ---       #144
      00FFC496H   LINE      ECODE    ---       #145
      00FFC4A2H   LINE      ECODE    ---       #147
      00FFC4A5H   LINE      ECODE    ---       #148
      00FFC4A5H   LINE      ECODE    ---       #150
      00FFC4A8H   LINE      ECODE    ---       #151
      00FFC4ADH   LINE      ECODE    ---       #152
      00FFC4AEH   LINE      ECODE    ---       #155
      00FFC4AEH   LINE      ECODE    ---       #157
      00FFC4B4H   LINE      ECODE    ---       #159
      00FFC4B7H   LINE      ECODE    ---       #160
      00FFC4BBH   LINE      ECODE    ---       #161
      00FFC4BFH   LINE      ECODE    ---       #162
      00FFC4C2H   LINE      ECODE    ---       #163
      00FFC4C4H   LINE      ECODE    ---       #164
      00FFC4CAH   LINE      ECODE    ---       #166
L251 LINKER/LOCATER V4.66.93.0                                                        07/17/2023  21:05:08  PAGE 59


      00FFC4CDH   LINE      ECODE    ---       #167
      00FFC4D1H   LINE      ECODE    ---       #168
      00FFC4D5H   LINE      ECODE    ---       #169
      00FFC4D8H   LINE      ECODE    ---       #170
      00FFC4D8H   LINE      ECODE    ---       #172
      00FFC4DBH   LINE      ECODE    ---       #173
      00FFC4E7H   LINE      ECODE    ---       #175
      00FFC4EBH   LINE      ECODE    ---       #176
      00FFC4EDH   LINE      ECODE    ---       #177
      00FFC4F9H   LINE      ECODE    ---       #179
      00FFC4FCH   LINE      ECODE    ---       #180
      00FFC4FFH   LINE      ECODE    ---       #181
      00FFC502H   LINE      ECODE    ---       #182
      00FFC502H   LINE      ECODE    ---       #183
      00FFC505H   LINE      ECODE    ---       #184
      00FFC50AH   LINE      ECODE    ---       #185
      00FFC50AH   LINE      ECODE    ---       #188
      00FFC50AH   LINE      ECODE    ---       #190
      ---         BLOCKEND  ---      ---       LVL=0

      00FFC50BH   BLOCK     ECODE    ---       LVL=0
      WR6         REGSYM    ---      INT       uart_n
      R10         REGSYM    ---      BYTE      dat
      00FFC50BH   LINE      ECODE    ---       #199
      00FFC50DH   LINE      ECODE    ---       #201
      00FFC51FH   LINE      ECODE    ---       #203
      00FFC51FH   LINE      ECODE    ---       #204
      00FFC525H   LINE      ECODE    ---       #205
      00FFC52BH   LINE      ECODE    ---       #206
      00FFC52EH   LINE      ECODE    ---       #207
      00FFC52FH   LINE      ECODE    ---       #208
      00FFC52FH   LINE      ECODE    ---       #209
      00FFC535H   LINE      ECODE    ---       #210
      00FFC53BH   LINE      ECODE    ---       #211
      00FFC53EH   LINE      ECODE    ---       #212
      00FFC53FH   LINE      ECODE    ---       #213
      00FFC53FH   LINE      ECODE    ---       #214
      00FFC545H   LINE      ECODE    ---       #215
      00FFC54BH   LINE      ECODE    ---       #216
      00FFC54EH   LINE      ECODE    ---       #217
      00FFC54FH   LINE      ECODE    ---       #218
      00FFC54FH   LINE      ECODE    ---       #219
      00FFC555H   LINE      ECODE    ---       #220
      00FFC55BH   LINE      ECODE    ---       #221
      00FFC55EH   LINE      ECODE    ---       #222
      00FFC55EH   LINE      ECODE    ---       #223
      00FFC55EH   LINE      ECODE    ---       #224
      ---         BLOCKEND  ---      ---       LVL=0

      00FFC55FH   BLOCK     ECODE    ---       LVL=0
      000007B5H   SYMBOL    EDATA    INT       uart_n
      REG=3       REGSYM    ---      ---       p
      000007B7H   SYMBOL    EDATA    WORD      len
      00FFC55FH   LINE      ECODE    ---       #235
      00FFC56BH   LINE      ECODE    ---       #237
      00FFC58AH   LINE      ECODE    ---       #239
      ---         BLOCKEND  ---      ---       LVL=0

      00FFC58DH   BLOCK     ECODE    ---       LVL=0
      REG=3       REGSYM    ---      ---       str
      00FFC58DH   LINE      ECODE    ---       #249
      00FFC595H   LINE      ECODE    ---       #251
      00FFC597H   LINE      ECODE    ---       #253
      00FFC5A4H   LINE      ECODE    ---       #254
      00FFC5A9H   LINE      ECODE    ---       #255
L251 LINKER/LOCATER V4.66.93.0                                                        07/17/2023  21:05:08  PAGE 60


      ---         BLOCKEND  ---      ---       LVL=0

      ---         MODULE    ---      ---       zf_fifo
      00FFBAD2H   PUBLIC    ECODE    ---       fifo_read_buffer?
      00FFB92BH   PUBLIC    ECODE    ---       fifo_head_offset?
      00FFB9B3H   PUBLIC    ECODE    ---       fifo_clear?
      00FFB9EDH   PUBLIC    ECODE    ---       fifo_write_buffer?
      00FFB96DH   PUBLIC    ECODE    ---       fifo_end_offset?
      00FFB9D8H   PUBLIC    ECODE    ---       fifo_used?
      00FFB8E8H   PUBLIC    ECODE    ---       fifo_init?
      000007B1H   PUBLIC    EDATA    BYTE      ?fifo_init??BYTE
      00000016H   PUBLIC    EDATA    BYTE      ?fifo_write_buffer??BYTE
      00000748H   PUBLIC    EDATA    BYTE      ?fifo_read_buffer??BYTE
      000000D0H   SFRSYM    DATA     BYTE      PSW
      0000009DH   SFRSYM    DATA     BYTE      IRCBAND
      00000097H   SFRSYM    DATA     BYTE      AUXR2
      000000EFH   SFRSYM    DATA     BYTE      AUXINTIF
      000000FDH   SFRSYM    DATA     BYTE      S4CON
      000000ACH   SFRSYM    DATA     BYTE      S3CON
      0000009AH   SFRSYM    DATA     BYTE      S2CON
      000000B7H   SFRSYM    DATA     BYTE      IPH
      000000CDH   SFRSYM    DATA     BYTE      SPSTAT
      000000DDH   SFRSYM    DATA     BYTE      T4T3M
      000000C1H   SFRSYM    DATA     BYTE      WDT_CONTR
      000000DFH   SFRSYM    DATA     BYTE      IP3
      000000F4H   SFRSYM    DATA     BYTE      USBCON
      000000B5H   SFRSYM    DATA     BYTE      IP2
      000000FFH   SFRSYM    DATA     BYTE      RSTCFG
      000000F9H   SFRSYM    DATA     BYTE      LINICR
      0000008EH   SFRSYM    DATA     BYTE      AUXR
      000000AFH   SFRSYM    DATA     BYTE      IE2
      00000088H   SFRSYM    DATA     BYTE      TCON
      00000098H   SFRSYM    DATA     BYTE      SCON
      000000F1H   SFRSYM    DATA     BYTE      CANICR
      00000087H   SFRSYM    DATA     BYTE      PCON
      000000BCH   SFRSYM    DATA     BYTE      ADC_CONTR
      000000E7H   SFRSYM    DATA     BYTE      CMPCR2
      000000E6H   SFRSYM    DATA     BYTE      CMPCR1
      000000B8H   SFRSYM    DATA     BYTE      IP
      0000008FH   SFRSYM    DATA     BYTE      INTCLKO
      000000EEH   SFRSYM    DATA     BYTE      IP3H
      000000B6H   SFRSYM    DATA     BYTE      IP2H
      000000A8H   SFRSYM    DATA     BYTE      IE
      000000BBH   SFRSYM    DATA     BYTE      P_SW3
      000000BAH   SFRSYM    DATA     BYTE      P_SW2
      000000A2H   SFRSYM    DATA     BYTE      P_SW1
      000000CEH   SFRSYM    DATA     BYTE      SPCTL
      000000F8H   SFRSYM    DATA     BYTE      P7
      000000E8H   SFRSYM    DATA     BYTE      P6
      000000C8H   SFRSYM    DATA     BYTE      P5
      000000C0H   SFRSYM    DATA     BYTE      P4
      000000B0H   SFRSYM    DATA     BYTE      P3
      000000A0H   SFRSYM    DATA     BYTE      P2
      00000090H   SFRSYM    DATA     BYTE      P1
      00000080H   SFRSYM    DATA     BYTE      P0

      00FFB8E8H   BLOCK     ECODE    ---       LVL=0
      REG=2       REGSYM    ---      ---       fifo
      REG=7       REGSYM    ---      ---       buffer_addr
      000007B9H   SYMBOL    EDATA    DWORD     size
      00FFB8E8H   LINE      ECODE    ---       #42
      00FFB8ECH   LINE      ECODE    ---       #44
      00FFB8F2H   LINE      ECODE    ---       #45
      00FFB8F7H   LINE      ECODE    ---       #46
      00FFB8FEH   LINE      ECODE    ---       #47
L251 LINKER/LOCATER V4.66.93.0                                                        07/17/2023  21:05:08  PAGE 61


      00FFB908H   LINE      ECODE    ---       #48
      00FFB910H   LINE      ECODE    ---       #49
      00FFB91CH   LINE      ECODE    ---       #50
      00FFB928H   LINE      ECODE    ---       #51
      00FFB92AH   LINE      ECODE    ---       #52
      ---         BLOCKEND  ---      ---       LVL=0

      00FFB92BH   BLOCK     ECODE    ---       LVL=0
      REG=7       REGSYM    ---      ---       fifo
      DR24        REGSYM    ---      DWORD     offset
      00FFB92BH   LINE      ECODE    ---       #61
      00FFB92FH   LINE      ECODE    ---       #63
      00FFB93AH   LINE      ECODE    ---       #65
      00FFB93CH   LINE      ECODE    ---       #67
      00FFB958H   LINE      ECODE    ---       #68
      00FFB96CH   LINE      ECODE    ---       #69
      ---         BLOCKEND  ---      ---       LVL=0

      00FFB96DH   BLOCK     ECODE    ---       LVL=0
      REG=7       REGSYM    ---      ---       fifo
      DR24        REGSYM    ---      DWORD     offset
      00FFB96DH   LINE      ECODE    ---       #78
      00FFB971H   LINE      ECODE    ---       #80
      00FFB97EH   LINE      ECODE    ---       #82
      00FFB980H   LINE      ECODE    ---       #84
      00FFB99EH   LINE      ECODE    ---       #85
      00FFB9B2H   LINE      ECODE    ---       #86
      ---         BLOCKEND  ---      ---       LVL=0

      00FFB9B3H   BLOCK     ECODE    ---       LVL=0
      REG=2       REGSYM    ---      ---       fifo
      00FFB9B3H   LINE      ECODE    ---       #94
      00FFB9B5H   LINE      ECODE    ---       #96
      00FFB9BFH   LINE      ECODE    ---       #97
      00FFB9C7H   LINE      ECODE    ---       #98
      00FFB9D7H   LINE      ECODE    ---       #99
      ---         BLOCKEND  ---      ---       LVL=0

      00FFB9D8H   BLOCK     ECODE    ---       LVL=0
      REG=7       REGSYM    ---      ---       fifo
      00FFB9D8H   LINE      ECODE    ---       #107
      00FFB9DAH   LINE      ECODE    ---       #109
      00FFB9ECH   LINE      ECODE    ---       #110
      ---         BLOCKEND  ---      ---       LVL=0

      00FFB9EDH   BLOCK     ECODE    ---       LVL=0
      REG=3       REGSYM    ---      ---       fifo
      0000001AH   SYMBOL    EDATA    ---       dat
      0000001EH   SYMBOL    EDATA    DWORD     length
      00FFB9F5H   BLOCK     ECODE    NEAR LAB  LVL=1
      00000022H   SYMBOL    EDATA    DWORD     temp_length
      ---         BLOCKEND  ---      ---       LVL=1
      00FFB9EDH   LINE      ECODE    ---       #120
      00FFB9F5H   LINE      ECODE    ---       #121
      00FFB9F5H   LINE      ECODE    ---       #124
      00FFBA08H   LINE      ECODE    ---       #126
      00FFBA1EH   LINE      ECODE    ---       #128
      00FFBA22H   LINE      ECODE    ---       #130
      00FFBA3BH   LINE      ECODE    ---       #131
      00FFBA45H   LINE      ECODE    ---       #132
      00FFBA55H   LINE      ECODE    ---       #133
      00FFBA76H   LINE      ECODE    ---       #134
      00FFBA82H   LINE      ECODE    ---       #135
      00FFBA84H   LINE      ECODE    ---       #138
      00FFBAA1H   LINE      ECODE    ---       #139
L251 LINKER/LOCATER V4.66.93.0                                                        07/17/2023  21:05:08  PAGE 62


      00FFBAABH   LINE      ECODE    ---       #140
      00FFBAABH   LINE      ECODE    ---       #142
      00FFBAC5H   LINE      ECODE    ---       #143
      00FFBAC7H   LINE      ECODE    ---       #146
      00FFBACDH   LINE      ECODE    ---       #147
      00FFBACDH   LINE      ECODE    ---       #149
      00FFBACFH   LINE      ECODE    ---       #150
      ---         BLOCKEND  ---      ---       LVL=0

      00FFBAD2H   BLOCK     ECODE    ---       LVL=0
      REG=3       REGSYM    ---      ---       fifo
      0000074CH   SYMBOL    EDATA    ---       dat
      00000750H   SYMBOL    EDATA    ---       length
      00000754H   SYMBOL    EDATA    INT       flag
      00FFBADAH   BLOCK     ECODE    NEAR LAB  LVL=1
      00000756H   SYMBOL    EDATA    BYTE      data_check
      00000757H   SYMBOL    EDATA    DWORD     temp_length
      ---         BLOCKEND  ---      ---       LVL=1
      00FFBAD2H   LINE      ECODE    ---       #161
      00FFBADAH   LINE      ECODE    ---       #162
      00FFBADAH   LINE      ECODE    ---       #163
      00FFBADFH   LINE      ECODE    ---       #166
      00FFBAF4H   LINE      ECODE    ---       #168
      00FFBB0DH   LINE      ECODE    ---       #169
      00FFBB13H   LINE      ECODE    ---       #170
      00FFBB13H   LINE      ECODE    ---       #172
      00FFBB29H   LINE      ECODE    ---       #173
      00FFBB38H   LINE      ECODE    ---       #175
      00FFBB4FH   LINE      ECODE    ---       #176
      00FFBB51H   LINE      ECODE    ---       #179
      00FFBB5BH   LINE      ECODE    ---       #181
      00FFBB76H   LINE      ECODE    ---       #182
      00FFBB9EH   LINE      ECODE    ---       #183
      00FFBB9EH   LINE      ECODE    ---       #186
      00FFBBA6H   LINE      ECODE    ---       #188
      00FFBBB7H   LINE      ECODE    ---       #189
      00FFBBD8H   LINE      ECODE    ---       #190
      00FFBBD8H   LINE      ECODE    ---       #192
      00FFBBE6H   LINE      ECODE    ---       #193
      ---         BLOCKEND  ---      ---       LVL=0

      ---         MODULE    ---      ---       SEEKFREE_18TFT
      00FF5008H   PUBLIC    ECODE    ---       lcd_showuint16?
      00FF4864H   PUBLIC    ECODE    ---       lcd_showint32_simspi?
      00FF46F0H   PUBLIC    ECODE    ---       lcd_showint16_simspi?
      00FF5094H   PUBLIC    ECODE    ---       lcd_showint32?
      00FF4F20H   PUBLIC    ECODE    ---       lcd_showint16?
      00FF4245H   PUBLIC    ECODE    ---       lcd_clear_simspi?
      00FF4A78H   PUBLIC    ECODE    ---       lcd_clear?
      00FF4563H   PUBLIC    ECODE    ---       lcd_showstr_simspi?
      00FF4D93H   PUBLIC    ECODE    ---       lcd_showstr?
      00FF4170H   PUBLIC    ECODE    ---       lcd_writeIndex_simspi?
      00FF4199H   PUBLIC    ECODE    ---       lcd_writeData_simspi?
      00FF49E6H   PUBLIC    ECODE    ---       lcd_writeIndex?
      00FF49F1H   PUBLIC    ECODE    ---       lcd_writeData?
      00FF41C2H   PUBLIC    ECODE    ---       lcd_writeData_16bit_simspi?
      00FF41EEH   PUBLIC    ECODE    ---       lcd_set_region_simspi?
      00FF4272H   PUBLIC    ECODE    ---       lcd_init_simspi?
      00FF5216H   PUBLIC    ECODE    ---       showimage?
      00FF4A1DH   PUBLIC    ECODE    ---       lcd_set_region?
      00FF4AA5H   PUBLIC    ECODE    ---       lcd_init?
      00FF4672H   PUBLIC    ECODE    ---       lcd_showuint8_simspi?
      00FF4EA2H   PUBLIC    ECODE    ---       lcd_showuint8?
      00FF45B2H   PUBLIC    ECODE    ---       lcd_showint8_simspi?
      00FF4DE2H   PUBLIC    ECODE    ---       lcd_showint8?
L251 LINKER/LOCATER V4.66.93.0                                                        07/17/2023  21:05:08  PAGE 63


      00FF49FCH   PUBLIC    ECODE    ---       lcd_writedata_16bit?
      00FF48E9H   PUBLIC    ECODE    ---       lcd_showfloat_simspi?
      00FF44BFH   PUBLIC    ECODE    ---       lcd_drawpoint_simspi?
      00FF5119H   PUBLIC    ECODE    ---       lcd_showfloat?
      00FF4CEFH   PUBLIC    ECODE    ---       lcd_drawpoint?
      00FF44D4H   PUBLIC    ECODE    ---       lcd_showchar_simspi?
      00FF4D04H   PUBLIC    ECODE    ---       lcd_showchar?
      00FF47D8H   PUBLIC    ECODE    ---       lcd_showuint16_simspi?
      000000C5H   PUBLIC    EDATA    BYTE      ?lcd_showfloat??BYTE
      000000D0H   SFRSYM    DATA     BYTE      PSW
      0000009DH   SFRSYM    DATA     BYTE      IRCBAND
      00000097H   SFRSYM    DATA     BYTE      AUXR2
      000000EFH   SFRSYM    DATA     BYTE      AUXINTIF
      000000FDH   SFRSYM    DATA     BYTE      S4CON
      000000ACH   SFRSYM    DATA     BYTE      S3CON
      0000009AH   SFRSYM    DATA     BYTE      S2CON
      000000B7H   SFRSYM    DATA     BYTE      IPH
      000000CDH   SFRSYM    DATA     BYTE      SPSTAT
      000000DDH   SFRSYM    DATA     BYTE      T4T3M
      000000C1H   SFRSYM    DATA     BYTE      WDT_CONTR
      000000DFH   SFRSYM    DATA     BYTE      IP3
      000000F4H   SFRSYM    DATA     BYTE      USBCON
      000000B5H   SFRSYM    DATA     BYTE      IP2
      000000FFH   SFRSYM    DATA     BYTE      RSTCFG
      000000F9H   SFRSYM    DATA     BYTE      LINICR
      0000008EH   SFRSYM    DATA     BYTE      AUXR
      000000AFH   SFRSYM    DATA     BYTE      IE2
      000000E8H.7 SFRSYM    DATA     BIT       P67
      000000E8H.5 SFRSYM    DATA     BIT       P65
      000000A0H.5 SFRSYM    DATA     BIT       P25
      00000088H   SFRSYM    DATA     BYTE      TCON
      000000A0H.3 SFRSYM    DATA     BIT       P23
      00000098H   SFRSYM    DATA     BYTE      SCON
      000000A0H.2 SFRSYM    DATA     BIT       P22
      000000A0H.1 SFRSYM    DATA     BIT       P21
      000000A0H.0 SFRSYM    DATA     BIT       P20
      000000F1H   SFRSYM    DATA     BYTE      CANICR
      00000087H   SFRSYM    DATA     BYTE      PCON
      000000BCH   SFRSYM    DATA     BYTE      ADC_CONTR
      000000E7H   SFRSYM    DATA     BYTE      CMPCR2
      000000E6H   SFRSYM    DATA     BYTE      CMPCR1
      000000B8H   SFRSYM    DATA     BYTE      IP
      0000008FH   SFRSYM    DATA     BYTE      INTCLKO
      000000EEH   SFRSYM    DATA     BYTE      IP3H
      000000B6H   SFRSYM    DATA     BYTE      IP2H
      000000A8H   SFRSYM    DATA     BYTE      IE
      000000BBH   SFRSYM    DATA     BYTE      P_SW3
      000000BAH   SFRSYM    DATA     BYTE      P_SW2
      000000A2H   SFRSYM    DATA     BYTE      P_SW1
      000000CEH   SFRSYM    DATA     BYTE      SPCTL
      000000F8H   SFRSYM    DATA     BYTE      P7
      000000E8H   SFRSYM    DATA     BYTE      P6
      000000C8H   SFRSYM    DATA     BYTE      P5
      000000C0H   SFRSYM    DATA     BYTE      P4
      000000B0H   SFRSYM    DATA     BYTE      P3
      000000A0H   SFRSYM    DATA     BYTE      P2
      00000090H   SFRSYM    DATA     BYTE      P1
      00000080H   SFRSYM    DATA     BYTE      P0

      00FF4170H   BLOCK     ECODE    ---       LVL=0
      R7          REGSYM    ---      BYTE      dat
      00FF4172H   BLOCK     ECODE    NEAR LAB  LVL=1
      R6          REGSYM    ---      BYTE      i
      ---         BLOCKEND  ---      ---       LVL=1
      00FF4170H   LINE      ECODE    ---       #60
L251 LINKER/LOCATER V4.66.93.0                                                        07/17/2023  21:05:08  PAGE 64


      00FF4172H   LINE      ECODE    ---       #61
      00FF4172H   LINE      ECODE    ---       #62
      00FF4175H   LINE      ECODE    ---       #64
      00FF4177H   LINE      ECODE    ---       #65
      00FF4179H   LINE      ECODE    ---       #66
      00FF417BH   LINE      ECODE    ---       #68
      00FF417DH   LINE      ECODE    ---       #70
      00FF4186H   LINE      ECODE    ---       #71
      00FF4188H   LINE      ECODE    ---       #72
      00FF418AH   LINE      ECODE    ---       #74
      00FF418CH   LINE      ECODE    ---       #75
      00FF418EH   LINE      ECODE    ---       #76
      00FF4196H   LINE      ECODE    ---       #77
      00FF4198H   LINE      ECODE    ---       #78
      ---         BLOCKEND  ---      ---       LVL=0

      00FF4199H   BLOCK     ECODE    ---       LVL=0
      R7          REGSYM    ---      BYTE      dat
      00FF419BH   BLOCK     ECODE    NEAR LAB  LVL=1
      R6          REGSYM    ---      BYTE      i
      ---         BLOCKEND  ---      ---       LVL=1
      00FF4199H   LINE      ECODE    ---       #87
      00FF419BH   LINE      ECODE    ---       #88
      00FF419BH   LINE      ECODE    ---       #89
      00FF419EH   LINE      ECODE    ---       #91
      00FF41A0H   LINE      ECODE    ---       #92
      00FF41A2H   LINE      ECODE    ---       #93
      00FF41A4H   LINE      ECODE    ---       #94
      00FF41A6H   LINE      ECODE    ---       #96
      00FF41AFH   LINE      ECODE    ---       #97
      00FF41B1H   LINE      ECODE    ---       #98
      00FF41B3H   LINE      ECODE    ---       #100
      00FF41B5H   LINE      ECODE    ---       #101
      00FF41B7H   LINE      ECODE    ---       #102
      00FF41BFH   LINE      ECODE    ---       #103
      00FF41C1H   LINE      ECODE    ---       #104
      ---         BLOCKEND  ---      ---       LVL=0

      00FF41C2H   BLOCK     ECODE    ---       LVL=0
      WR4         REGSYM    ---      WORD      dat
      00FF41C4H   BLOCK     ECODE    NEAR LAB  LVL=1
      R10         REGSYM    ---      BYTE      i
      ---         BLOCKEND  ---      ---       LVL=1
      00FF41C2H   LINE      ECODE    ---       #113
      00FF41C4H   LINE      ECODE    ---       #114
      00FF41C4H   LINE      ECODE    ---       #115
      00FF41C7H   LINE      ECODE    ---       #117
      00FF41C9H   LINE      ECODE    ---       #118
      00FF41CBH   LINE      ECODE    ---       #119
      00FF41CDH   LINE      ECODE    ---       #121
      00FF41CFH   LINE      ECODE    ---       #123
      00FF41DBH   LINE      ECODE    ---       #124
      00FF41DDH   LINE      ECODE    ---       #125
      00FF41DFH   LINE      ECODE    ---       #127
      00FF41E1H   LINE      ECODE    ---       #128
      00FF41E3H   LINE      ECODE    ---       #129
      00FF41EBH   LINE      ECODE    ---       #131
      00FF41EDH   LINE      ECODE    ---       #133
      ---         BLOCKEND  ---      ---       LVL=0

      00FF41EEH   BLOCK     ECODE    ---       LVL=0
      000007BDH   SYMBOL    EDATA    WORD      x_start
      000007BFH   SYMBOL    EDATA    WORD      y_start
      WR12        REGSYM    ---      WORD      x_end
      WR14        REGSYM    ---      WORD      y_end
L251 LINKER/LOCATER V4.66.93.0                                                        07/17/2023  21:05:08  PAGE 65


      00FF41EEH   LINE      ECODE    ---       #145
      00FF41F8H   LINE      ECODE    ---       #150
      00FF41FEH   LINE      ECODE    ---       #151
      00FF4203H   LINE      ECODE    ---       #152
      00FF420DH   LINE      ECODE    ---       #153
      00FF4212H   LINE      ECODE    ---       #154
      00FF421AH   LINE      ECODE    ---       #156
      00FF4220H   LINE      ECODE    ---       #157
      00FF4225H   LINE      ECODE    ---       #158
      00FF422FH   LINE      ECODE    ---       #159
      00FF4234H   LINE      ECODE    ---       #160
      00FF423CH   LINE      ECODE    ---       #177
      00FF4242H   LINE      ECODE    ---       #178
      ---         BLOCKEND  ---      ---       LVL=0

      00FF4245H   BLOCK     ECODE    ---       LVL=0
      WR14        REGSYM    ---      INT       color
      00FF4249H   BLOCK     ECODE    NEAR LAB  LVL=1
      R13         REGSYM    ---      BYTE      i
      R12         REGSYM    ---      BYTE      j
      ---         BLOCKEND  ---      ---       LVL=1
      00FF4245H   LINE      ECODE    ---       #187
      00FF4249H   LINE      ECODE    ---       #188
      00FF4249H   LINE      ECODE    ---       #190
      00FF4259H   LINE      ECODE    ---       #191
      00FF425CH   LINE      ECODE    ---       #192
      00FF425EH   LINE      ECODE    ---       #193
      00FF426FH   LINE      ECODE    ---       #194
      ---         BLOCKEND  ---      ---       LVL=0

      00FF4272H   BLOCK     ECODE    ---       LVL=0
      00FF4272H   LINE      ECODE    ---       #203
      00FF4272H   LINE      ECODE    ---       #207
      00FF4274H   LINE      ECODE    ---       #208
      00FF427CH   LINE      ECODE    ---       #209
      00FF427EH   LINE      ECODE    ---       #210
      00FF4286H   LINE      ECODE    ---       #211
      00FF428CH   LINE      ECODE    ---       #212
      00FF4294H   LINE      ECODE    ---       #214
      00FF429AH   LINE      ECODE    ---       #215
      00FF42A0H   LINE      ECODE    ---       #216
      00FF42A6H   LINE      ECODE    ---       #217
      00FF42ACH   LINE      ECODE    ---       #219
      00FF42B2H   LINE      ECODE    ---       #220
      00FF42B8H   LINE      ECODE    ---       #221
      00FF42BEH   LINE      ECODE    ---       #222
      00FF42C4H   LINE      ECODE    ---       #224
      00FF42CAH   LINE      ECODE    ---       #225
      00FF42D0H   LINE      ECODE    ---       #226
      00FF42D6H   LINE      ECODE    ---       #227
      00FF42DCH   LINE      ECODE    ---       #228
      00FF42E2H   LINE      ECODE    ---       #229
      00FF42E8H   LINE      ECODE    ---       #230
      00FF42EEH   LINE      ECODE    ---       #232
      00FF42F4H   LINE      ECODE    ---       #233
      00FF42FAH   LINE      ECODE    ---       #235
      00FF4300H   LINE      ECODE    ---       #236
      00FF4306H   LINE      ECODE    ---       #237
      00FF430CH   LINE      ECODE    ---       #238
      00FF4312H   LINE      ECODE    ---       #239
      00FF4318H   LINE      ECODE    ---       #240
      00FF431EH   LINE      ECODE    ---       #242
      00FF4324H   LINE      ECODE    ---       #243
      00FF432AH   LINE      ECODE    ---       #244
      00FF432FH   LINE      ECODE    ---       #246
L251 LINKER/LOCATER V4.66.93.0                                                        07/17/2023  21:05:08  PAGE 66


      00FF4335H   LINE      ECODE    ---       #247
      00FF433BH   LINE      ECODE    ---       #248
      00FF4341H   LINE      ECODE    ---       #249
      00FF4347H   LINE      ECODE    ---       #250
      00FF434DH   LINE      ECODE    ---       #251
      00FF4353H   LINE      ECODE    ---       #253
      00FF4359H   LINE      ECODE    ---       #254
      00FF435FH   LINE      ECODE    ---       #256
      00FF4365H   LINE      ECODE    ---       #257
      00FF437BH   LINE      ECODE    ---       #259
      00FF437FH   LINE      ECODE    ---       #260
      00FF4382H   LINE      ECODE    ---       #261
      00FF4386H   LINE      ECODE    ---       #262
      00FF438CH   LINE      ECODE    ---       #263
      00FF438CH   LINE      ECODE    ---       #265
      00FF4392H   LINE      ECODE    ---       #266
      00FF4398H   LINE      ECODE    ---       #267
      00FF439EH   LINE      ECODE    ---       #268
      00FF43A4H   LINE      ECODE    ---       #269
      00FF43AAH   LINE      ECODE    ---       #270
      00FF43B0H   LINE      ECODE    ---       #271
      00FF43B6H   LINE      ECODE    ---       #272
      00FF43BCH   LINE      ECODE    ---       #273
      00FF43C2H   LINE      ECODE    ---       #274
      00FF43C8H   LINE      ECODE    ---       #275
      00FF43CEH   LINE      ECODE    ---       #276
      00FF43D4H   LINE      ECODE    ---       #277
      00FF43DAH   LINE      ECODE    ---       #278
      00FF43DFH   LINE      ECODE    ---       #279
      00FF43E5H   LINE      ECODE    ---       #280
      00FF43EBH   LINE      ECODE    ---       #281
      00FF43F1H   LINE      ECODE    ---       #283
      00FF43F7H   LINE      ECODE    ---       #284
      00FF43FDH   LINE      ECODE    ---       #285
      00FF4403H   LINE      ECODE    ---       #286
      00FF4409H   LINE      ECODE    ---       #287
      00FF440FH   LINE      ECODE    ---       #288
      00FF4415H   LINE      ECODE    ---       #289
      00FF441BH   LINE      ECODE    ---       #290
      00FF4421H   LINE      ECODE    ---       #291
      00FF4427H   LINE      ECODE    ---       #292
      00FF442DH   LINE      ECODE    ---       #293
      00FF4433H   LINE      ECODE    ---       #294
      00FF4439H   LINE      ECODE    ---       #295
      00FF443FH   LINE      ECODE    ---       #296
      00FF4444H   LINE      ECODE    ---       #297
      00FF444AH   LINE      ECODE    ---       #298
      00FF4450H   LINE      ECODE    ---       #299
      00FF4456H   LINE      ECODE    ---       #301
      00FF445CH   LINE      ECODE    ---       #302
      00FF4461H   LINE      ECODE    ---       #303
      00FF4467H   LINE      ECODE    ---       #304
      00FF446CH   LINE      ECODE    ---       #305
      00FF4472H   LINE      ECODE    ---       #307
      00FF4478H   LINE      ECODE    ---       #308
      00FF447DH   LINE      ECODE    ---       #309
      00FF4483H   LINE      ECODE    ---       #310
      00FF4488H   LINE      ECODE    ---       #311
      00FF448EH   LINE      ECODE    ---       #313
      00FF4494H   LINE      ECODE    ---       #314
      00FF449AH   LINE      ECODE    ---       #315
      00FF44A0H   LINE      ECODE    ---       #316
      00FF44A5H   LINE      ECODE    ---       #318
      00FF44ABH   LINE      ECODE    ---       #319
      00FF44B1H   LINE      ECODE    ---       #320
L251 LINKER/LOCATER V4.66.93.0                                                        07/17/2023  21:05:08  PAGE 67


      00FF44B7H   LINE      ECODE    ---       #322
      ---         BLOCKEND  ---      ---       LVL=0

      00FF44BFH   BLOCK     ECODE    ---       LVL=0
      WR2         REGSYM    ---      WORD      x
      WR0         REGSYM    ---      WORD      y
      WR14        REGSYM    ---      WORD      color
      00FF44BFH   LINE      ECODE    ---       #334
      00FF44C7H   LINE      ECODE    ---       #336
      00FF44CBH   LINE      ECODE    ---       #337
      00FF44D1H   LINE      ECODE    ---       #338
      ---         BLOCKEND  ---      ---       LVL=0

      00FF44D4H   BLOCK     ECODE    ---       LVL=0
      WR12        REGSYM    ---      WORD      x
      WR14        REGSYM    ---      WORD      y
      000007C1H   SYMBOL    EDATA    CHAR      dat
      00FF44DEH   BLOCK     ECODE    NEAR LAB  LVL=1
      000007C2H   SYMBOL    EDATA    BYTE      i
      000007C3H   SYMBOL    EDATA    BYTE      j
      000007C4H   SYMBOL    EDATA    BYTE      temp
      ---         BLOCKEND  ---      ---       LVL=1
      00FF44D4H   LINE      ECODE    ---       #351
      00FF44DEH   LINE      ECODE    ---       #352
      00FF44DEH   LINE      ECODE    ---       #356
      00FF44E3H   LINE      ECODE    ---       #358
      00FF44F9H   LINE      ECODE    ---       #359
      00FF451EH   LINE      ECODE    ---       #360
      00FF4523H   LINE      ECODE    ---       #362
      00FF4530H   LINE      ECODE    ---       #363
      00FF4538H   LINE      ECODE    ---       #364
      00FF4542H   LINE      ECODE    ---       #365
      00FF454EH   LINE      ECODE    ---       #366
      00FF4560H   LINE      ECODE    ---       #367
      ---         BLOCKEND  ---      ---       LVL=0

      00FF4563H   BLOCK     ECODE    ---       LVL=0
      00000791H   SYMBOL    EDATA    WORD      x
      00000793H   SYMBOL    EDATA    WORD      y
      REG=3       REGSYM    ---      ---       dat
      00FF456FH   BLOCK     ECODE    NEAR LAB  LVL=1
      00000795H   SYMBOL    EDATA    WORD      j
      ---         BLOCKEND  ---      ---       LVL=1
      00FF4563H   LINE      ECODE    ---       #378
      00FF456FH   LINE      ECODE    ---       #379
      00FF456FH   LINE      ECODE    ---       #382
      00FF4571H   LINE      ECODE    ---       #383
      00FF4573H   LINE      ECODE    ---       #385
      00FF459AH   LINE      ECODE    ---       #386
      00FF45A4H   LINE      ECODE    ---       #387
      00FF45AFH   LINE      ECODE    ---       #388
      ---         BLOCKEND  ---      ---       LVL=0

      00FF45B2H   BLOCK     ECODE    ---       LVL=0
      WR12        REGSYM    ---      WORD      x
      WR14        REGSYM    ---      WORD      y
      00FF45BCH   BLOCK     ECODE    NEAR LAB  LVL=1
      ---         BLOCKEND  ---      ---       LVL=1
      00FF45B2H   LINE      ECODE    ---       #399
      00FF45BCH   LINE      ECODE    ---       #400
      00FF45BCH   LINE      ECODE    ---       #403
      00FF45C5H   LINE      ECODE    ---       #405
      00FF45D7H   LINE      ECODE    ---       #406
      00FF45E0H   LINE      ECODE    ---       #407
      00FF45E2H   LINE      ECODE    ---       #408
L251 LINKER/LOCATER V4.66.93.0                                                        07/17/2023  21:05:08  PAGE 68


      00FF45F4H   LINE      ECODE    ---       #410
      00FF4608H   LINE      ECODE    ---       #411
      00FF461EH   LINE      ECODE    ---       #412
      00FF462AH   LINE      ECODE    ---       #413
      00FF462FH   LINE      ECODE    ---       #414
      00FF462FH   LINE      ECODE    ---       #416
      00FF465DH   LINE      ECODE    ---       #417
      00FF4666H   LINE      ECODE    ---       #418
      00FF466FH   LINE      ECODE    ---       #419
      ---         BLOCKEND  ---      ---       LVL=0

      00FF4672H   BLOCK     ECODE    ---       LVL=0
      WR12        REGSYM    ---      WORD      x
      WR14        REGSYM    ---      WORD      y
      R10         REGSYM    ---      BYTE      dat
      00FF467AH   BLOCK     ECODE    NEAR LAB  LVL=1
      ---         BLOCKEND  ---      ---       LVL=1
      00FF4672H   LINE      ECODE    ---       #430
      00FF467AH   LINE      ECODE    ---       #431
      00FF467AH   LINE      ECODE    ---       #435
      00FF4688H   LINE      ECODE    ---       #436
      00FF469CH   LINE      ECODE    ---       #437
      00FF46A8H   LINE      ECODE    ---       #438
      00FF46ADH   LINE      ECODE    ---       #439
      00FF46ADH   LINE      ECODE    ---       #441
      00FF46DBH   LINE      ECODE    ---       #442
      00FF46E4H   LINE      ECODE    ---       #443
      00FF46EDH   LINE      ECODE    ---       #445
      ---         BLOCKEND  ---      ---       LVL=0

      00FF46F0H   BLOCK     ECODE    ---       LVL=0
      WR12        REGSYM    ---      WORD      x
      WR14        REGSYM    ---      WORD      y
      00FF46FAH   BLOCK     ECODE    NEAR LAB  LVL=1
      ---         BLOCKEND  ---      ---       LVL=1
      00FF46F0H   LINE      ECODE    ---       #456
      00FF46FAH   LINE      ECODE    ---       #457
      00FF46FAH   LINE      ECODE    ---       #460
      00FF4704H   LINE      ECODE    ---       #462
      00FF4716H   LINE      ECODE    ---       #463
      00FF4720H   LINE      ECODE    ---       #464
      00FF4722H   LINE      ECODE    ---       #465
      00FF4734H   LINE      ECODE    ---       #467
      00FF4746H   LINE      ECODE    ---       #468
      00FF475EH   LINE      ECODE    ---       #469
      00FF4772H   LINE      ECODE    ---       #470
      00FF4784H   LINE      ECODE    ---       #471
      00FF4790H   LINE      ECODE    ---       #473
      00FF4795H   LINE      ECODE    ---       #474
      00FF4795H   LINE      ECODE    ---       #476
      00FF47C3H   LINE      ECODE    ---       #477
      00FF47CCH   LINE      ECODE    ---       #478
      00FF47D5H   LINE      ECODE    ---       #479
      ---         BLOCKEND  ---      ---       LVL=0

      00FF47D8H   BLOCK     ECODE    ---       LVL=0
      WR12        REGSYM    ---      WORD      x
      WR14        REGSYM    ---      WORD      y
      WR2         REGSYM    ---      WORD      dat
      00FF47DEH   BLOCK     ECODE    NEAR LAB  LVL=1
      ---         BLOCKEND  ---      ---       LVL=1
      00FF47D8H   LINE      ECODE    ---       #490
      00FF47DEH   LINE      ECODE    ---       #491
      00FF47DEH   LINE      ECODE    ---       #495
      00FF47EAH   LINE      ECODE    ---       #496
L251 LINKER/LOCATER V4.66.93.0                                                        07/17/2023  21:05:08  PAGE 69


      00FF47FCH   LINE      ECODE    ---       #497
      00FF480AH   LINE      ECODE    ---       #498
      00FF4814H   LINE      ECODE    ---       #499
      00FF481CH   LINE      ECODE    ---       #501
      00FF4821H   LINE      ECODE    ---       #502
      00FF4821H   LINE      ECODE    ---       #504
      00FF484FH   LINE      ECODE    ---       #505
      00FF4858H   LINE      ECODE    ---       #506
      00FF4861H   LINE      ECODE    ---       #507
      ---         BLOCKEND  ---      ---       LVL=0

      00FF4864H   BLOCK     ECODE    ---       LVL=0
      WR12        REGSYM    ---      WORD      y
      R15         REGSYM    ---      BYTE      num
      00FF4872H   BLOCK     ECODE    NEAR LAB  LVL=1
      R14         REGSYM    ---      BYTE      length
      ---         BLOCKEND  ---      ---       LVL=1
      00FF4864H   LINE      ECODE    ---       #520
      00FF4872H   LINE      ECODE    ---       #521
      00FF4872H   LINE      ECODE    ---       #525
      00FF487AH   LINE      ECODE    ---       #527
      00FF487CH   LINE      ECODE    ---       #528
      00FF489EH   LINE      ECODE    ---       #531
      00FF48A4H   LINE      ECODE    ---       #532
      00FF48BEH   LINE      ECODE    ---       #533
      00FF48C0H   LINE      ECODE    ---       #534
      00FF48C0H   LINE      ECODE    ---       #535
      00FF48C5H   LINE      ECODE    ---       #537
      00FF48CBH   LINE      ECODE    ---       #538
      00FF48CDH   LINE      ECODE    ---       #539
      00FF48D1H   LINE      ECODE    ---       #540
      00FF48D8H   LINE      ECODE    ---       #542
      00FF48E6H   LINE      ECODE    ---       #543
      ---         BLOCKEND  ---      ---       LVL=0

      00FF48E9H   BLOCK     ECODE    ---       LVL=0
      DR12        REGSYM    ---      FLOAT     dat
      00FF48F9H   BLOCK     ECODE    NEAR LAB  LVL=1
      R7          REGSYM    ---      CHAR      point
      ---         BLOCKEND  ---      ---       LVL=1
      00FF48E9H   LINE      ECODE    ---       #561
      00FF48F9H   LINE      ECODE    ---       #562
      00FF48F9H   LINE      ECODE    ---       #567
      00FF4908H   LINE      ECODE    ---       #568
      00FF4917H   LINE      ECODE    ---       #570
      00FF493BH   LINE      ECODE    ---       #573
      00FF4955H   LINE      ECODE    ---       #574
      00FF495AH   LINE      ECODE    ---       #575
      00FF495AH   LINE      ECODE    ---       #576
      00FF4964H   LINE      ECODE    ---       #577
      00FF4974H   LINE      ECODE    ---       #578
      00FF4984H   LINE      ECODE    ---       #579
      00FF4989H   LINE      ECODE    ---       #581
      00FF4993H   LINE      ECODE    ---       #582
      00FF499CH   LINE      ECODE    ---       #583
      00FF49A5H   LINE      ECODE    ---       #584
      00FF49AEH   LINE      ECODE    ---       #586
      00FF49BCH   LINE      ECODE    ---       #587
      00FF49C8H   LINE      ECODE    ---       #589
      00FF49D3H   LINE      ECODE    ---       #591
      00FF49E3H   LINE      ECODE    ---       #592
      ---         BLOCKEND  ---      ---       LVL=0

      00FF49E6H   BLOCK     ECODE    ---       LVL=0
      R7          REGSYM    ---      BYTE      dat
L251 LINKER/LOCATER V4.66.93.0                                                        07/17/2023  21:05:08  PAGE 70


      00FF49E6H   LINE      ECODE    ---       #607
      00FF49E6H   LINE      ECODE    ---       #610
      00FF49E8H   LINE      ECODE    ---       #611
      00FF49EAH   LINE      ECODE    ---       #612
      00FF49EEH   LINE      ECODE    ---       #613
      00FF49F0H   LINE      ECODE    ---       #614
      ---         BLOCKEND  ---      ---       LVL=0

      00FF49F1H   BLOCK     ECODE    ---       LVL=0
      R7          REGSYM    ---      BYTE      dat
      00FF49F1H   LINE      ECODE    ---       #623
      00FF49F1H   LINE      ECODE    ---       #625
      00FF49F3H   LINE      ECODE    ---       #626
      00FF49F5H   LINE      ECODE    ---       #627
      00FF49F9H   LINE      ECODE    ---       #628
      00FF49FBH   LINE      ECODE    ---       #629
      ---         BLOCKEND  ---      ---       LVL=0

      00FF49FCH   BLOCK     ECODE    ---       LVL=0
      WR4         REGSYM    ---      WORD      dat
      00FF49FEH   BLOCK     ECODE    NEAR LAB  LVL=1
      000000FEH   SYMBOL    EDATA    ---       dat1
      ---         BLOCKEND  ---      ---       LVL=1
      00FF49FCH   LINE      ECODE    ---       #638
      00FF49FEH   LINE      ECODE    ---       #639
      00FF49FEH   LINE      ECODE    ---       #642
      00FF4A02H   LINE      ECODE    ---       #643
      00FF4A06H   LINE      ECODE    ---       #645
      00FF4A08H   LINE      ECODE    ---       #646
      00FF4A0AH   LINE      ECODE    ---       #647
      00FF4A12H   LINE      ECODE    ---       #648
      00FF4A1AH   LINE      ECODE    ---       #649
      00FF4A1CH   LINE      ECODE    ---       #651
      ---         BLOCKEND  ---      ---       LVL=0

      00FF4A1DH   BLOCK     ECODE    ---       LVL=0
      000000FEH   SYMBOL    EDATA    WORD      x_start
      00000100H   SYMBOL    EDATA    WORD      y_start
      WR12        REGSYM    ---      WORD      x_end
      WR14        REGSYM    ---      WORD      y_end
      00FF4A1DH   LINE      ECODE    ---       #663
      00FF4A2BH   LINE      ECODE    ---       #668
      00FF4A31H   LINE      ECODE    ---       #669
      00FF4A36H   LINE      ECODE    ---       #670
      00FF4A40H   LINE      ECODE    ---       #671
      00FF4A45H   LINE      ECODE    ---       #672
      00FF4A4DH   LINE      ECODE    ---       #674
      00FF4A53H   LINE      ECODE    ---       #675
      00FF4A58H   LINE      ECODE    ---       #676
      00FF4A62H   LINE      ECODE    ---       #677
      00FF4A67H   LINE      ECODE    ---       #678
      00FF4A6FH   LINE      ECODE    ---       #695
      00FF4A75H   LINE      ECODE    ---       #696
      ---         BLOCKEND  ---      ---       LVL=0

      00FF4A78H   BLOCK     ECODE    ---       LVL=0
      WR14        REGSYM    ---      INT       color
      00FF4A7CH   BLOCK     ECODE    NEAR LAB  LVL=1
      R13         REGSYM    ---      BYTE      i
      R12         REGSYM    ---      BYTE      j
      ---         BLOCKEND  ---      ---       LVL=1
      00FF4A78H   LINE      ECODE    ---       #705
      00FF4A7CH   LINE      ECODE    ---       #706
      00FF4A7CH   LINE      ECODE    ---       #708
      00FF4A8CH   LINE      ECODE    ---       #709
L251 LINKER/LOCATER V4.66.93.0                                                        07/17/2023  21:05:08  PAGE 71


      00FF4A8FH   LINE      ECODE    ---       #710
      00FF4A91H   LINE      ECODE    ---       #711
      00FF4AA2H   LINE      ECODE    ---       #712
      ---         BLOCKEND  ---      ---       LVL=0

      00FF4AA5H   BLOCK     ECODE    ---       LVL=0
      00FF4AA5H   LINE      ECODE    ---       #721
      00FF4AA5H   LINE      ECODE    ---       #723
      00FF4AC4H   LINE      ECODE    ---       #725
      00FF4AC6H   LINE      ECODE    ---       #726
      00FF4ACEH   LINE      ECODE    ---       #727
      00FF4AD0H   LINE      ECODE    ---       #728
      00FF4AD8H   LINE      ECODE    ---       #729
      00FF4ADEH   LINE      ECODE    ---       #730
      00FF4AE6H   LINE      ECODE    ---       #732
      00FF4AECH   LINE      ECODE    ---       #733
      00FF4AF2H   LINE      ECODE    ---       #734
      00FF4AF8H   LINE      ECODE    ---       #735
      00FF4AFEH   LINE      ECODE    ---       #737
      00FF4B04H   LINE      ECODE    ---       #738
      00FF4B0AH   LINE      ECODE    ---       #739
      00FF4B10H   LINE      ECODE    ---       #740
      00FF4B16H   LINE      ECODE    ---       #742
      00FF4B1CH   LINE      ECODE    ---       #743
      00FF4B22H   LINE      ECODE    ---       #744
      00FF4B28H   LINE      ECODE    ---       #745
      00FF4B2EH   LINE      ECODE    ---       #746
      00FF4B34H   LINE      ECODE    ---       #747
      00FF4B3AH   LINE      ECODE    ---       #748
      00FF4B40H   LINE      ECODE    ---       #750
      00FF4B46H   LINE      ECODE    ---       #751
      00FF4B4CH   LINE      ECODE    ---       #753
      00FF4B52H   LINE      ECODE    ---       #754
      00FF4B58H   LINE      ECODE    ---       #755
      00FF4B5EH   LINE      ECODE    ---       #756
      00FF4B64H   LINE      ECODE    ---       #757
      00FF4B6AH   LINE      ECODE    ---       #758
      00FF4B70H   LINE      ECODE    ---       #760
      00FF4B76H   LINE      ECODE    ---       #761
      00FF4B7CH   LINE      ECODE    ---       #762
      00FF4B81H   LINE      ECODE    ---       #764
      00FF4B87H   LINE      ECODE    ---       #765
      00FF4B8DH   LINE      ECODE    ---       #766
      00FF4B93H   LINE      ECODE    ---       #767
      00FF4B99H   LINE      ECODE    ---       #768
      00FF4B9FH   LINE      ECODE    ---       #769
      00FF4BA5H   LINE      ECODE    ---       #771
      00FF4BABH   LINE      ECODE    ---       #772
      00FF4BB1H   LINE      ECODE    ---       #774
      00FF4BB7H   LINE      ECODE    ---       #779
      00FF4BBCH   LINE      ECODE    ---       #786
      00FF4BC2H   LINE      ECODE    ---       #787
      00FF4BC8H   LINE      ECODE    ---       #788
      00FF4BCEH   LINE      ECODE    ---       #789
      00FF4BD4H   LINE      ECODE    ---       #790
      00FF4BDAH   LINE      ECODE    ---       #791
      00FF4BE0H   LINE      ECODE    ---       #792
      00FF4BE6H   LINE      ECODE    ---       #793
      00FF4BECH   LINE      ECODE    ---       #794
      00FF4BF2H   LINE      ECODE    ---       #795
      00FF4BF8H   LINE      ECODE    ---       #796
      00FF4BFEH   LINE      ECODE    ---       #797
      00FF4C04H   LINE      ECODE    ---       #798
      00FF4C0AH   LINE      ECODE    ---       #799
      00FF4C0FH   LINE      ECODE    ---       #800
L251 LINKER/LOCATER V4.66.93.0                                                        07/17/2023  21:05:08  PAGE 72


      00FF4C15H   LINE      ECODE    ---       #801
      00FF4C1BH   LINE      ECODE    ---       #802
      00FF4C21H   LINE      ECODE    ---       #804
      00FF4C27H   LINE      ECODE    ---       #805
      00FF4C2DH   LINE      ECODE    ---       #806
      00FF4C33H   LINE      ECODE    ---       #807
      00FF4C39H   LINE      ECODE    ---       #808
      00FF4C3FH   LINE      ECODE    ---       #809
      00FF4C45H   LINE      ECODE    ---       #810
      00FF4C4BH   LINE      ECODE    ---       #811
      00FF4C51H   LINE      ECODE    ---       #812
      00FF4C57H   LINE      ECODE    ---       #813
      00FF4C5DH   LINE      ECODE    ---       #814
      00FF4C63H   LINE      ECODE    ---       #815
      00FF4C69H   LINE      ECODE    ---       #816
      00FF4C6FH   LINE      ECODE    ---       #817
      00FF4C74H   LINE      ECODE    ---       #818
      00FF4C7AH   LINE      ECODE    ---       #819
      00FF4C80H   LINE      ECODE    ---       #820
      00FF4C86H   LINE      ECODE    ---       #822
      00FF4C8CH   LINE      ECODE    ---       #823
      00FF4C91H   LINE      ECODE    ---       #824
      00FF4C97H   LINE      ECODE    ---       #825
      00FF4C9CH   LINE      ECODE    ---       #826
      00FF4CA2H   LINE      ECODE    ---       #828
      00FF4CA8H   LINE      ECODE    ---       #829
      00FF4CADH   LINE      ECODE    ---       #830
      00FF4CB3H   LINE      ECODE    ---       #831
      00FF4CB8H   LINE      ECODE    ---       #832
      00FF4CBEH   LINE      ECODE    ---       #834
      00FF4CC4H   LINE      ECODE    ---       #835
      00FF4CCAH   LINE      ECODE    ---       #836
      00FF4CD0H   LINE      ECODE    ---       #837
      00FF4CD5H   LINE      ECODE    ---       #839
      00FF4CDBH   LINE      ECODE    ---       #840
      00FF4CE1H   LINE      ECODE    ---       #841
      00FF4CE7H   LINE      ECODE    ---       #843
      ---         BLOCKEND  ---      ---       LVL=0

      00FF4CEFH   BLOCK     ECODE    ---       LVL=0
      WR2         REGSYM    ---      WORD      x
      WR0         REGSYM    ---      WORD      y
      WR14        REGSYM    ---      WORD      color
      00FF4CEFH   LINE      ECODE    ---       #855
      00FF4CF7H   LINE      ECODE    ---       #857
      00FF4CFBH   LINE      ECODE    ---       #858
      00FF4D01H   LINE      ECODE    ---       #859
      ---         BLOCKEND  ---      ---       LVL=0

      00FF4D04H   BLOCK     ECODE    ---       LVL=0
      WR12        REGSYM    ---      WORD      x
      WR14        REGSYM    ---      WORD      y
      000000FAH   SYMBOL    EDATA    CHAR      dat
      00FF4D0EH   BLOCK     ECODE    NEAR LAB  LVL=1
      000000FBH   SYMBOL    EDATA    BYTE      i
      000000FCH   SYMBOL    EDATA    BYTE      j
      000000FDH   SYMBOL    EDATA    BYTE      temp
      ---         BLOCKEND  ---      ---       LVL=1
      00FF4D04H   LINE      ECODE    ---       #872
      00FF4D0EH   LINE      ECODE    ---       #873
      00FF4D0EH   LINE      ECODE    ---       #877
      00FF4D13H   LINE      ECODE    ---       #879
      00FF4D29H   LINE      ECODE    ---       #880
      00FF4D4EH   LINE      ECODE    ---       #881
      00FF4D53H   LINE      ECODE    ---       #883
L251 LINKER/LOCATER V4.66.93.0                                                        07/17/2023  21:05:08  PAGE 73


      00FF4D60H   LINE      ECODE    ---       #884
      00FF4D68H   LINE      ECODE    ---       #885
      00FF4D72H   LINE      ECODE    ---       #886
      00FF4D7EH   LINE      ECODE    ---       #887
      00FF4D90H   LINE      ECODE    ---       #888
      ---         BLOCKEND  ---      ---       LVL=0

      00FF4D93H   BLOCK     ECODE    ---       LVL=0
      000000F4H   SYMBOL    EDATA    WORD      x
      000000F6H   SYMBOL    EDATA    WORD      y
      REG=3       REGSYM    ---      ---       dat
      00FF4D9FH   BLOCK     ECODE    NEAR LAB  LVL=1
      000000F8H   SYMBOL    EDATA    WORD      j
      ---         BLOCKEND  ---      ---       LVL=1
      00FF4D93H   LINE      ECODE    ---       #899
      00FF4D9FH   LINE      ECODE    ---       #900
      00FF4D9FH   LINE      ECODE    ---       #903
      00FF4DA1H   LINE      ECODE    ---       #904
      00FF4DA3H   LINE      ECODE    ---       #906
      00FF4DCAH   LINE      ECODE    ---       #907
      00FF4DD4H   LINE      ECODE    ---       #908
      00FF4DDFH   LINE      ECODE    ---       #909
      ---         BLOCKEND  ---      ---       LVL=0

      00FF4DE2H   BLOCK     ECODE    ---       LVL=0
      WR12        REGSYM    ---      WORD      x
      WR14        REGSYM    ---      WORD      y
      00FF4DECH   BLOCK     ECODE    NEAR LAB  LVL=1
      ---         BLOCKEND  ---      ---       LVL=1
      00FF4DE2H   LINE      ECODE    ---       #920
      00FF4DECH   LINE      ECODE    ---       #921
      00FF4DECH   LINE      ECODE    ---       #924
      00FF4DF5H   LINE      ECODE    ---       #926
      00FF4E07H   LINE      ECODE    ---       #927
      00FF4E10H   LINE      ECODE    ---       #928
      00FF4E12H   LINE      ECODE    ---       #929
      00FF4E24H   LINE      ECODE    ---       #931
      00FF4E38H   LINE      ECODE    ---       #932
      00FF4E4EH   LINE      ECODE    ---       #933
      00FF4E5AH   LINE      ECODE    ---       #934
      00FF4E5FH   LINE      ECODE    ---       #935
      00FF4E5FH   LINE      ECODE    ---       #937
      00FF4E8DH   LINE      ECODE    ---       #938
      00FF4E96H   LINE      ECODE    ---       #939
      00FF4E9FH   LINE      ECODE    ---       #940
      ---         BLOCKEND  ---      ---       LVL=0

      00FF4EA2H   BLOCK     ECODE    ---       LVL=0
      WR12        REGSYM    ---      WORD      x
      WR14        REGSYM    ---      WORD      y
      R10         REGSYM    ---      BYTE      dat
      00FF4EAAH   BLOCK     ECODE    NEAR LAB  LVL=1
      ---         BLOCKEND  ---      ---       LVL=1
      00FF4EA2H   LINE      ECODE    ---       #951
      00FF4EAAH   LINE      ECODE    ---       #952
      00FF4EAAH   LINE      ECODE    ---       #956
      00FF4EB8H   LINE      ECODE    ---       #957
      00FF4ECCH   LINE      ECODE    ---       #958
      00FF4ED8H   LINE      ECODE    ---       #959
      00FF4EDDH   LINE      ECODE    ---       #960
      00FF4EDDH   LINE      ECODE    ---       #962
      00FF4F0BH   LINE      ECODE    ---       #963
      00FF4F14H   LINE      ECODE    ---       #964
      00FF4F1DH   LINE      ECODE    ---       #966
      ---         BLOCKEND  ---      ---       LVL=0
L251 LINKER/LOCATER V4.66.93.0                                                        07/17/2023  21:05:08  PAGE 74



      00FF4F20H   BLOCK     ECODE    ---       LVL=0
      WR12        REGSYM    ---      WORD      x
      WR14        REGSYM    ---      WORD      y
      00FF4F2AH   BLOCK     ECODE    NEAR LAB  LVL=1
      ---         BLOCKEND  ---      ---       LVL=1
      00FF4F20H   LINE      ECODE    ---       #977
      00FF4F2AH   LINE      ECODE    ---       #978
      00FF4F2AH   LINE      ECODE    ---       #981
      00FF4F34H   LINE      ECODE    ---       #983
      00FF4F46H   LINE      ECODE    ---       #984
      00FF4F50H   LINE      ECODE    ---       #985
      00FF4F52H   LINE      ECODE    ---       #986
      00FF4F64H   LINE      ECODE    ---       #988
      00FF4F76H   LINE      ECODE    ---       #989
      00FF4F8EH   LINE      ECODE    ---       #990
      00FF4FA2H   LINE      ECODE    ---       #991
      00FF4FB4H   LINE      ECODE    ---       #992
      00FF4FC0H   LINE      ECODE    ---       #994
      00FF4FC5H   LINE      ECODE    ---       #995
      00FF4FC5H   LINE      ECODE    ---       #997
      00FF4FF3H   LINE      ECODE    ---       #998
      00FF4FFCH   LINE      ECODE    ---       #999
      00FF5005H   LINE      ECODE    ---       #1000
      ---         BLOCKEND  ---      ---       LVL=0

      00FF5008H   BLOCK     ECODE    ---       LVL=0
      WR12        REGSYM    ---      WORD      x
      WR14        REGSYM    ---      WORD      y
      WR2         REGSYM    ---      WORD      dat
      00FF500EH   BLOCK     ECODE    NEAR LAB  LVL=1
      ---         BLOCKEND  ---      ---       LVL=1
      00FF5008H   LINE      ECODE    ---       #1011
      00FF500EH   LINE      ECODE    ---       #1012
      00FF500EH   LINE      ECODE    ---       #1016
      00FF501AH   LINE      ECODE    ---       #1017
      00FF502CH   LINE      ECODE    ---       #1018
      00FF503AH   LINE      ECODE    ---       #1019
      00FF5044H   LINE      ECODE    ---       #1020
      00FF504CH   LINE      ECODE    ---       #1022
      00FF5051H   LINE      ECODE    ---       #1023
      00FF5051H   LINE      ECODE    ---       #1025
      00FF507FH   LINE      ECODE    ---       #1026
      00FF5088H   LINE      ECODE    ---       #1027
      00FF5091H   LINE      ECODE    ---       #1028
      ---         BLOCKEND  ---      ---       LVL=0

      00FF5094H   BLOCK     ECODE    ---       LVL=0
      000000C8H   SYMBOL    EDATA    WORD      x
      WR12        REGSYM    ---      WORD      y
      000000CAH   SYMBOL    EDATA    LONG      dat
      R15         REGSYM    ---      BYTE      num
      00FF50A2H   BLOCK     ECODE    NEAR LAB  LVL=1
      000000CEH   SYMBOL    EDATA    ---       buff
      R14         REGSYM    ---      BYTE      length
      ---         BLOCKEND  ---      ---       LVL=1
      00FF5094H   LINE      ECODE    ---       #1041
      00FF50A2H   LINE      ECODE    ---       #1042
      00FF50A2H   LINE      ECODE    ---       #1046
      00FF50AAH   LINE      ECODE    ---       #1048
      00FF50ACH   LINE      ECODE    ---       #1049
      00FF50CEH   LINE      ECODE    ---       #1052
      00FF50D4H   LINE      ECODE    ---       #1053
      00FF50EEH   LINE      ECODE    ---       #1054
      00FF50F0H   LINE      ECODE    ---       #1055
L251 LINKER/LOCATER V4.66.93.0                                                        07/17/2023  21:05:08  PAGE 75


      00FF50F0H   LINE      ECODE    ---       #1056
      00FF50F5H   LINE      ECODE    ---       #1058
      00FF50FBH   LINE      ECODE    ---       #1059
      00FF50FDH   LINE      ECODE    ---       #1060
      00FF5101H   LINE      ECODE    ---       #1061
      00FF5108H   LINE      ECODE    ---       #1063
      00FF5116H   LINE      ECODE    ---       #1064
      ---         BLOCKEND  ---      ---       LVL=0

      00FF5119H   BLOCK     ECODE    ---       LVL=0
      000000C9H   SYMBOL    EDATA    WORD      x
      000000CBH   SYMBOL    EDATA    WORD      y
      DR12        REGSYM    ---      FLOAT     dat
      000000CDH   SYMBOL    EDATA    BYTE      num
      000000CEH   SYMBOL    EDATA    BYTE      pointnum
      00FF5129H   BLOCK     ECODE    NEAR LAB  LVL=1
      000000CFH   SYMBOL    EDATA    BYTE      length
      000000D0H   SYMBOL    EDATA    ---       buff
      000000F2H   SYMBOL    EDATA    CHAR      start
      000000F3H   SYMBOL    EDATA    CHAR      end
      R7          REGSYM    ---      CHAR      point
      ---         BLOCKEND  ---      ---       LVL=1
      00FF5119H   LINE      ECODE    ---       #1082
      00FF5129H   LINE      ECODE    ---       #1083
      00FF5129H   LINE      ECODE    ---       #1088
      00FF5138H   LINE      ECODE    ---       #1089
      00FF5147H   LINE      ECODE    ---       #1091
      00FF516BH   LINE      ECODE    ---       #1094
      00FF5185H   LINE      ECODE    ---       #1095
      00FF518AH   LINE      ECODE    ---       #1096
      00FF518AH   LINE      ECODE    ---       #1097
      00FF5194H   LINE      ECODE    ---       #1098
      00FF51A4H   LINE      ECODE    ---       #1099
      00FF51B4H   LINE      ECODE    ---       #1100
      00FF51B9H   LINE      ECODE    ---       #1102
      00FF51C3H   LINE      ECODE    ---       #1103
      00FF51CCH   LINE      ECODE    ---       #1104
      00FF51D5H   LINE      ECODE    ---       #1105
      00FF51DEH   LINE      ECODE    ---       #1107
      00FF51ECH   LINE      ECODE    ---       #1108
      00FF51F8H   LINE      ECODE    ---       #1110
      00FF5203H   LINE      ECODE    ---       #1112
      00FF5213H   LINE      ECODE    ---       #1113
      ---         BLOCKEND  ---      ---       LVL=0

      00FF5216H   BLOCK     ECODE    ---       LVL=0
      REG=3       REGSYM    ---      ---       p
      00FF521AH   BLOCK     ECODE    NEAR LAB  LVL=1
      ---         BLOCKEND  ---      ---       LVL=1
      00FF5216H   LINE      ECODE    ---       #1124
      00FF521AH   LINE      ECODE    ---       #1125
      00FF521AH   LINE      ECODE    ---       #1128
      00FF5222H   LINE      ECODE    ---       #1130
      00FF5228H   LINE      ECODE    ---       #1132
      00FF522EH   LINE      ECODE    ---       #1134
      00FF525AH   LINE      ECODE    ---       #1135
      00FF5260H   LINE      ECODE    ---       #1137
      00FF5271H   LINE      ECODE    ---       #1138
      00FF5279H   LINE      ECODE    ---       #1139
      00FF527DH   LINE      ECODE    ---       #1140
      00FF528DH   LINE      ECODE    ---       #1141
      00FF529DH   LINE      ECODE    ---       #1142
      00FF52B0H   LINE      ECODE    ---       #1143
      ---         BLOCKEND  ---      ---       LVL=0

L251 LINKER/LOCATER V4.66.93.0                                                        07/17/2023  21:05:08  PAGE 76


      ---         MODULE    ---      ---       SEEKFREE_ABSOLUTE_ENCODER
      00FFBF87H   PUBLIC    ECODE    ---       encoder_self4_check?
      00FFC0A6H   PUBLIC    ECODE    ---       encoder_self5_check?
      00FFC027H   PUBLIC    ECODE    ---       encoder_spi_r_reg_byte?
      00FFBE6CH   PUBLIC    ECODE    ---       encoder_delay_us?
      00FFBFEAH   PUBLIC    ECODE    ---       encoder_spi_w_reg_byte?
      00FFBEADH   PUBLIC    ECODE    ---       simspi_r_reg_byte?
      00FFBE91H   PUBLIC    ECODE    ---       simspi_w_reg_byte?
      00FFC0B8H   PUBLIC    ECODE    ---       encoder_init_spi?
      00FFBFABH   PUBLIC    ECODE    ---       spi_wr_byte?
      00FFBF3CH   PUBLIC    ECODE    ---       set_zero_position_simspi?
      00FFBF62H   PUBLIC    ECODE    ---       encoder_angle_simspi?
      00FFBFCCH   PUBLIC    ECODE    ---       spi_r_reg_byte?
      00FFBFB0H   PUBLIC    ECODE    ---       spi_w_reg_byte?
      00FFBF08H   PUBLIC    ECODE    ---       encoder_simspi_r_reg_byte?
      00FFBECBH   PUBLIC    ECODE    ---       encoder_simspi_w_reg_byte?
      00FFBF99H   PUBLIC    ECODE    ---       encoder_init_simspi?
      00FFC05BH   PUBLIC    ECODE    ---       set_zero_position_spi?
      00FFBE72H   PUBLIC    ECODE    ---       simspi_wr_byte?
      00FFC081H   PUBLIC    ECODE    ---       encoder_angle_spi?
      000000D0H   SFRSYM    DATA     BYTE      PSW
      0000009DH   SFRSYM    DATA     BYTE      IRCBAND
      00000097H   SFRSYM    DATA     BYTE      AUXR2
      000000EFH   SFRSYM    DATA     BYTE      AUXINTIF
      000000FDH   SFRSYM    DATA     BYTE      S4CON
      000000ACH   SFRSYM    DATA     BYTE      S3CON
      0000009AH   SFRSYM    DATA     BYTE      S2CON
      000000B7H   SFRSYM    DATA     BYTE      IPH
      000000CDH   SFRSYM    DATA     BYTE      SPSTAT
      000000DDH   SFRSYM    DATA     BYTE      T4T3M
      000000C1H   SFRSYM    DATA     BYTE      WDT_CONTR
      000000DFH   SFRSYM    DATA     BYTE      IP3
      000000F4H   SFRSYM    DATA     BYTE      USBCON
      000000B5H   SFRSYM    DATA     BYTE      IP2
      000000FFH   SFRSYM    DATA     BYTE      RSTCFG
      000000F9H   SFRSYM    DATA     BYTE      LINICR
      0000008EH   SFRSYM    DATA     BYTE      AUXR
      000000AFH   SFRSYM    DATA     BYTE      IE2
      000000A0H.7 SFRSYM    DATA     BIT       P27
      000000A0H.6 SFRSYM    DATA     BIT       P26
      000000A0H.5 SFRSYM    DATA     BIT       P25
      000000A0H.4 SFRSYM    DATA     BIT       P24
      00000088H   SFRSYM    DATA     BYTE      TCON
      00000098H   SFRSYM    DATA     BYTE      SCON
      000000A0H.2 SFRSYM    DATA     BIT       P22
      000000F1H   SFRSYM    DATA     BYTE      CANICR
      00000087H   SFRSYM    DATA     BYTE      PCON
      000000BCH   SFRSYM    DATA     BYTE      ADC_CONTR
      000000E7H   SFRSYM    DATA     BYTE      CMPCR2
      000000E6H   SFRSYM    DATA     BYTE      CMPCR1
      000000B8H   SFRSYM    DATA     BYTE      IP
      0000008FH   SFRSYM    DATA     BYTE      INTCLKO
      000000EEH   SFRSYM    DATA     BYTE      IP3H
      000000B6H   SFRSYM    DATA     BYTE      IP2H
      000000A8H   SFRSYM    DATA     BYTE      IE
      000000BBH   SFRSYM    DATA     BYTE      P_SW3
      000000BAH   SFRSYM    DATA     BYTE      P_SW2
      000000A2H   SFRSYM    DATA     BYTE      P_SW1
      000000CEH   SFRSYM    DATA     BYTE      SPCTL
      000000F8H   SFRSYM    DATA     BYTE      P7
      000000E8H   SFRSYM    DATA     BYTE      P6
      000000C8H   SFRSYM    DATA     BYTE      P5
      000000C0H   SFRSYM    DATA     BYTE      P4
      000000B0H   SFRSYM    DATA     BYTE      P3
      000000A0H   SFRSYM    DATA     BYTE      P2
L251 LINKER/LOCATER V4.66.93.0                                                        07/17/2023  21:05:08  PAGE 77


      00000090H   SFRSYM    DATA     BYTE      P1
      00000080H   SFRSYM    DATA     BYTE      P0

      00FFBE6CH   BLOCK     ECODE    ---       LVL=0
      WR6         REGSYM    ---      WORD      x
      00FFBE6CH   LINE      ECODE    ---       #43
      00FFBE6CH   LINE      ECODE    ---       #45
      ---         BLOCKEND  ---      ---       LVL=0

      00FFBE72H   BLOCK     ECODE    ---       LVL=0
      R6          REGSYM    ---      BYTE      byte
      00FFBE74H   BLOCK     ECODE    NEAR LAB  LVL=1
      R7          REGSYM    ---      BYTE      i
      ---         BLOCKEND  ---      ---       LVL=1
      00FFBE72H   LINE      ECODE    ---       #56
      00FFBE74H   LINE      ECODE    ---       #57
      00FFBE74H   LINE      ECODE    ---       #59
      00FFBE76H   LINE      ECODE    ---       #61
      00FFBE7BH   LINE      ECODE    ---       #62
      00FFBE7DH   LINE      ECODE    ---       #63
      00FFBE7FH   LINE      ECODE    ---       #65
      00FFBE81H   LINE      ECODE    ---       #66
      00FFBE87H   LINE      ECODE    ---       #67
      00FFBE8EH   LINE      ECODE    ---       #68
      00FFBE90H   LINE      ECODE    ---       #69
      ---         BLOCKEND  ---      ---       LVL=0

      00FFBE91H   BLOCK     ECODE    ---       LVL=0
      R7          REGSYM    ---      BYTE      cmd
      R15         REGSYM    ---      BYTE      val
      00FFBE91H   LINE      ECODE    ---       #78
      00FFBE97H   LINE      ECODE    ---       #80
      00FFBE99H   LINE      ECODE    ---       #81
      00FFBE9CH   LINE      ECODE    ---       #82
      00FFBEA2H   LINE      ECODE    ---       #83
      00FFBEA8H   LINE      ECODE    ---       #84
      00FFBEAAH   LINE      ECODE    ---       #85
      ---         BLOCKEND  ---      ---       LVL=0

      00FFBEADH   BLOCK     ECODE    ---       LVL=0
      R7          REGSYM    ---      BYTE      cmd
      REG=3       REGSYM    ---      ---       val
      00FFBEADH   LINE      ECODE    ---       #94
      00FFBEB3H   LINE      ECODE    ---       #96
      00FFBEB5H   LINE      ECODE    ---       #97
      00FFBEB8H   LINE      ECODE    ---       #98
      00FFBEBEH   LINE      ECODE    ---       #99
      00FFBEC6H   LINE      ECODE    ---       #100
      00FFBEC8H   LINE      ECODE    ---       #101
      ---         BLOCKEND  ---      ---       LVL=0

      00FFBECBH   BLOCK     ECODE    ---       LVL=0
      R7          REGSYM    ---      BYTE      cmd
      R15         REGSYM    ---      BYTE      val
      00FFBED1H   BLOCK     ECODE    NEAR LAB  LVL=1
      R14         REGSYM    ---      BYTE      dat
      ---         BLOCKEND  ---      ---       LVL=1
      00FFBECBH   LINE      ECODE    ---       #112
      00FFBED1H   LINE      ECODE    ---       #113
      00FFBED1H   LINE      ECODE    ---       #116
      00FFBED3H   LINE      ECODE    ---       #117
      00FFBED6H   LINE      ECODE    ---       #118
      00FFBEDCH   LINE      ECODE    ---       #119
      00FFBEE2H   LINE      ECODE    ---       #120
      00FFBEE4H   LINE      ECODE    ---       #121
L251 LINKER/LOCATER V4.66.93.0                                                        07/17/2023  21:05:08  PAGE 78


      00FFBEECH   LINE      ECODE    ---       #122
      00FFBEEEH   LINE      ECODE    ---       #123
      00FFBEF5H   LINE      ECODE    ---       #124
      00FFBEFAH   LINE      ECODE    ---       #125
      00FFBEFCH   LINE      ECODE    ---       #127
      00FFBF04H   LINE      ECODE    ---       #128
      00FFBF05H   LINE      ECODE    ---       #129
      ---         BLOCKEND  ---      ---       LVL=0

      00FFBF08H   BLOCK     ECODE    ---       LVL=0
      R7          REGSYM    ---      BYTE      cmd
      REG=3       REGSYM    ---      ---       val
      00FFBF08H   LINE      ECODE    ---       #139
      00FFBF0EH   LINE      ECODE    ---       #141
      00FFBF10H   LINE      ECODE    ---       #142
      00FFBF13H   LINE      ECODE    ---       #143
      00FFBF19H   LINE      ECODE    ---       #144
      00FFBF1EH   LINE      ECODE    ---       #145
      00FFBF20H   LINE      ECODE    ---       #146
      00FFBF28H   LINE      ECODE    ---       #147
      00FFBF2AH   LINE      ECODE    ---       #148
      00FFBF32H   LINE      ECODE    ---       #149
      00FFBF37H   LINE      ECODE    ---       #150
      00FFBF39H   LINE      ECODE    ---       #151
      ---         BLOCKEND  ---      ---       LVL=0

      00FFBF3CH   BLOCK     ECODE    ---       LVL=0
      WR14        REGSYM    ---      WORD      zero_position
      00FFBF3CH   LINE      ECODE    ---       #160
      00FFBF40H   LINE      ECODE    ---       #162
      00FFBF48H   LINE      ECODE    ---       #163
      00FFBF50H   LINE      ECODE    ---       #164
      00FFBF57H   LINE      ECODE    ---       #165
      00FFBF5FH   LINE      ECODE    ---       #166
      ---         BLOCKEND  ---      ---       LVL=0

      00FFBF62H   BLOCK     ECODE    ---       LVL=0
      00FFBF64H   BLOCK     ECODE    NEAR LAB  LVL=1
      WR14        REGSYM    ---      WORD      angle
      ---         BLOCKEND  ---      ---       LVL=1
      00FFBF62H   LINE      ECODE    ---       #175
      00FFBF64H   LINE      ECODE    ---       #176
      00FFBF64H   LINE      ECODE    ---       #179
      00FFBF66H   LINE      ECODE    ---       #180
      00FFBF6BH   LINE      ECODE    ---       #181
      00FFBF6FH   LINE      ECODE    ---       #182
      00FFBF78H   LINE      ECODE    ---       #183
      00FFBF7AH   LINE      ECODE    ---       #185
      00FFBF84H   LINE      ECODE    ---       #186
      ---         BLOCKEND  ---      ---       LVL=0

      00FFBF87H   BLOCK     ECODE    ---       LVL=0
      000007EDH   SYMBOL    EDATA    BYTE      val
      00FFBF87H   LINE      ECODE    ---       #197
      00FFBF87H   LINE      ECODE    ---       #198
      00FFBF87H   LINE      ECODE    ---       #200
      00FFBF87H   LINE      ECODE    ---       #202
      00FFBF91H   LINE      ECODE    ---       #207
      00FFBF98H   LINE      ECODE    ---       #208
      ---         BLOCKEND  ---      ---       LVL=0

      00FFBF99H   BLOCK     ECODE    ---       LVL=0
      00FFBF99H   LINE      ECODE    ---       #217
      00FFBF99H   LINE      ECODE    ---       #219
      00FFBF9DH   LINE      ECODE    ---       #221
L251 LINKER/LOCATER V4.66.93.0                                                        07/17/2023  21:05:08  PAGE 79


      00FFBFA5H   LINE      ECODE    ---       #223
      ---         BLOCKEND  ---      ---       LVL=0

      00FFBFABH   BLOCK     ECODE    ---       LVL=0
      R10         REGSYM    ---      BYTE      byte
      00FFBFABH   LINE      ECODE    ---       #243
      00FFBFABH   LINE      ECODE    ---       #245
      00FFBFAFH   LINE      ECODE    ---       #246
      00FFBFAFH   LINE      ECODE    ---       #247
      ---         BLOCKEND  ---      ---       LVL=0

      00FFBFB0H   BLOCK     ECODE    ---       LVL=0
      R7          REGSYM    ---      BYTE      cmd
      R15         REGSYM    ---      BYTE      val
      00FFBFB0H   LINE      ECODE    ---       #256
      00FFBFB6H   LINE      ECODE    ---       #258
      00FFBFB8H   LINE      ECODE    ---       #259
      00FFBFBBH   LINE      ECODE    ---       #260
      00FFBFC1H   LINE      ECODE    ---       #261
      00FFBFC7H   LINE      ECODE    ---       #262
      00FFBFC9H   LINE      ECODE    ---       #263
      ---         BLOCKEND  ---      ---       LVL=0

      00FFBFCCH   BLOCK     ECODE    ---       LVL=0
      R7          REGSYM    ---      BYTE      cmd
      REG=3       REGSYM    ---      ---       val
      00FFBFCCH   LINE      ECODE    ---       #272
      00FFBFD2H   LINE      ECODE    ---       #274
      00FFBFD4H   LINE      ECODE    ---       #275
      00FFBFD7H   LINE      ECODE    ---       #276
      00FFBFDDH   LINE      ECODE    ---       #277
      00FFBFE5H   LINE      ECODE    ---       #278
      00FFBFE7H   LINE      ECODE    ---       #279
      ---         BLOCKEND  ---      ---       LVL=0

      00FFBFEAH   BLOCK     ECODE    ---       LVL=0
      R7          REGSYM    ---      BYTE      cmd
      R15         REGSYM    ---      BYTE      val
      00FFBFF0H   BLOCK     ECODE    NEAR LAB  LVL=1
      R14         REGSYM    ---      BYTE      dat
      ---         BLOCKEND  ---      ---       LVL=1
      00FFBFEAH   LINE      ECODE    ---       #290
      00FFBFF0H   LINE      ECODE    ---       #291
      00FFBFF0H   LINE      ECODE    ---       #293
      00FFBFF2H   LINE      ECODE    ---       #294
      00FFBFF5H   LINE      ECODE    ---       #295
      00FFBFFBH   LINE      ECODE    ---       #296
      00FFC001H   LINE      ECODE    ---       #297
      00FFC003H   LINE      ECODE    ---       #298
      00FFC00BH   LINE      ECODE    ---       #299
      00FFC00DH   LINE      ECODE    ---       #300
      00FFC014H   LINE      ECODE    ---       #301
      00FFC019H   LINE      ECODE    ---       #302
      00FFC01BH   LINE      ECODE    ---       #304
      00FFC023H   LINE      ECODE    ---       #305
      00FFC024H   LINE      ECODE    ---       #306
      ---         BLOCKEND  ---      ---       LVL=0

      00FFC027H   BLOCK     ECODE    ---       LVL=0
      R7          REGSYM    ---      BYTE      cmd
      REG=3       REGSYM    ---      ---       val
      00FFC027H   LINE      ECODE    ---       #316
      00FFC02DH   LINE      ECODE    ---       #318
      00FFC02FH   LINE      ECODE    ---       #319
      00FFC032H   LINE      ECODE    ---       #320
L251 LINKER/LOCATER V4.66.93.0                                                        07/17/2023  21:05:08  PAGE 80


      00FFC038H   LINE      ECODE    ---       #321
      00FFC03DH   LINE      ECODE    ---       #323
      00FFC03FH   LINE      ECODE    ---       #324
      00FFC047H   LINE      ECODE    ---       #325
      00FFC049H   LINE      ECODE    ---       #326
      00FFC051H   LINE      ECODE    ---       #327
      00FFC056H   LINE      ECODE    ---       #328
      00FFC058H   LINE      ECODE    ---       #329
      ---         BLOCKEND  ---      ---       LVL=0

      00FFC05BH   BLOCK     ECODE    ---       LVL=0
      WR14        REGSYM    ---      WORD      zero_position
      00FFC05BH   LINE      ECODE    ---       #338
      00FFC05FH   LINE      ECODE    ---       #340
      00FFC067H   LINE      ECODE    ---       #341
      00FFC06FH   LINE      ECODE    ---       #342
      00FFC076H   LINE      ECODE    ---       #343
      00FFC07EH   LINE      ECODE    ---       #344
      ---         BLOCKEND  ---      ---       LVL=0

      00FFC081H   BLOCK     ECODE    ---       LVL=0
      00FFC083H   BLOCK     ECODE    NEAR LAB  LVL=1
      WR14        REGSYM    ---      WORD      angle
      ---         BLOCKEND  ---      ---       LVL=1
      00FFC081H   LINE      ECODE    ---       #353
      00FFC083H   LINE      ECODE    ---       #354
      00FFC083H   LINE      ECODE    ---       #356
      00FFC085H   LINE      ECODE    ---       #357
      00FFC08AH   LINE      ECODE    ---       #358
      00FFC08EH   LINE      ECODE    ---       #359
      00FFC097H   LINE      ECODE    ---       #360
      00FFC099H   LINE      ECODE    ---       #362
      00FFC0A3H   LINE      ECODE    ---       #363
      ---         BLOCKEND  ---      ---       LVL=0

      00FFC0A6H   BLOCK     ECODE    ---       LVL=0
      000007EEH   SYMBOL    EDATA    BYTE      val
      00FFC0A6H   LINE      ECODE    ---       #373
      00FFC0A6H   LINE      ECODE    ---       #374
      00FFC0A6H   LINE      ECODE    ---       #376
      00FFC0A6H   LINE      ECODE    ---       #378
      00FFC0B0H   LINE      ECODE    ---       #382
      00FFC0B7H   LINE      ECODE    ---       #383
      ---         BLOCKEND  ---      ---       LVL=0

      00FFC0B8H   BLOCK     ECODE    ---       LVL=0
      00FFC0B8H   LINE      ECODE    ---       #392
      00FFC0B8H   LINE      ECODE    ---       #394
      00FFC0D3H   LINE      ECODE    ---       #396
      00FFC0D7H   LINE      ECODE    ---       #397
      00FFC0DFH   LINE      ECODE    ---       #398
      ---         BLOCKEND  ---      ---       LVL=0

      ---         MODULE    ---      ---       SEEKFREE_AT24C02
      00FFCB81H   PUBLIC    ECODE    ---       at24c02_read_bytes?
      00FFCB0FH   PUBLIC    ECODE    ---       at24c02_read_byte?
      00FFCB25H   PUBLIC    ECODE    ---       at24c02_write_bytes?
      00FFCAF5H   PUBLIC    ECODE    ---       at24c02_write_byte?
      000000D0H   SFRSYM    DATA     BYTE      PSW
      0000009DH   SFRSYM    DATA     BYTE      IRCBAND
      00000097H   SFRSYM    DATA     BYTE      AUXR2
      000000EFH   SFRSYM    DATA     BYTE      AUXINTIF
      000000FDH   SFRSYM    DATA     BYTE      S4CON
      000000ACH   SFRSYM    DATA     BYTE      S3CON
      0000009AH   SFRSYM    DATA     BYTE      S2CON
L251 LINKER/LOCATER V4.66.93.0                                                        07/17/2023  21:05:08  PAGE 81


      000000B7H   SFRSYM    DATA     BYTE      IPH
      000000CDH   SFRSYM    DATA     BYTE      SPSTAT
      000000DDH   SFRSYM    DATA     BYTE      T4T3M
      000000C1H   SFRSYM    DATA     BYTE      WDT_CONTR
      000000DFH   SFRSYM    DATA     BYTE      IP3
      000000F4H   SFRSYM    DATA     BYTE      USBCON
      000000B5H   SFRSYM    DATA     BYTE      IP2
      000000FFH   SFRSYM    DATA     BYTE      RSTCFG
      000000F9H   SFRSYM    DATA     BYTE      LINICR
      0000008EH   SFRSYM    DATA     BYTE      AUXR
      000000AFH   SFRSYM    DATA     BYTE      IE2
      00000088H   SFRSYM    DATA     BYTE      TCON
      000000A0H.3 SFRSYM    DATA     BIT       P23
      00000098H   SFRSYM    DATA     BYTE      SCON
      000000A0H.2 SFRSYM    DATA     BIT       P22
      000000F1H   SFRSYM    DATA     BYTE      CANICR
      00000087H   SFRSYM    DATA     BYTE      PCON
      000000BCH   SFRSYM    DATA     BYTE      ADC_CONTR
      000000E7H   SFRSYM    DATA     BYTE      CMPCR2
      000000E6H   SFRSYM    DATA     BYTE      CMPCR1
      000000B8H   SFRSYM    DATA     BYTE      IP
      0000008FH   SFRSYM    DATA     BYTE      INTCLKO
      000000EEH   SFRSYM    DATA     BYTE      IP3H
      000000B6H   SFRSYM    DATA     BYTE      IP2H
      000000A8H   SFRSYM    DATA     BYTE      IE
      000000BBH   SFRSYM    DATA     BYTE      P_SW3
      000000BAH   SFRSYM    DATA     BYTE      P_SW2
      000000A2H   SFRSYM    DATA     BYTE      P_SW1
      000000CEH   SFRSYM    DATA     BYTE      SPCTL
      000000F8H   SFRSYM    DATA     BYTE      P7
      000000E8H   SFRSYM    DATA     BYTE      P6
      000000C8H   SFRSYM    DATA     BYTE      P5
      000000C0H   SFRSYM    DATA     BYTE      P4
      000000B0H   SFRSYM    DATA     BYTE      P3
      000000A0H   SFRSYM    DATA     BYTE      P2
      00000090H   SFRSYM    DATA     BYTE      P1
      00000080H   SFRSYM    DATA     BYTE      P0
      00FFCACCH   SYMBOL    ECODE    ---       at24c02_simiic_read_reg
      00FFC9F4H   SYMBOL    ECODE    ---       at24c02_simiic_stop
      00FFCAAAH   SYMBOL    ECODE    ---       at24c02_simiic_write_reg
      00FFCA05H   SYMBOL    ECODE    ---       at24c02_simiic_sendack
      00FFCA6FH   SYMBOL    ECODE    ---       at24c02_read_ch
      00FFCA41H   SYMBOL    ECODE    ---       at24c02_send_ch
      00FFCA25H   SYMBOL    ECODE    ---       at24c02_sccb_waitack
      00FFC9D8H   SYMBOL    ECODE    ---       at24c02_simiic_delay
      00FFC9E5H   SYMBOL    ECODE    ---       at24c02_simiic_start

      00FFC9D8H   BLOCK     ECODE    ---       LVL=0
      WR6         REGSYM    ---      WORD      j
      00FFC9D8H   LINE      ECODE    ---       #45
      00FFC9D8H   LINE      ECODE    ---       #46
      00FFC9D8H   LINE      ECODE    ---       #47
      00FFC9DCH   LINE      ECODE    ---       #48
      00FFC9E4H   LINE      ECODE    ---       #49
      ---         BLOCKEND  ---      ---       LVL=0

      00FFC9E5H   BLOCK     ECODE    ---       LVL=0
      00FFC9E5H   LINE      ECODE    ---       #52
      00FFC9E5H   LINE      ECODE    ---       #54
      00FFC9E7H   LINE      ECODE    ---       #55
      00FFC9E9H   LINE      ECODE    ---       #56
      00FFC9ECH   LINE      ECODE    ---       #57
      00FFC9EEH   LINE      ECODE    ---       #58
      00FFC9F1H   LINE      ECODE    ---       #59
      00FFC9F3H   LINE      ECODE    ---       #60
L251 LINKER/LOCATER V4.66.93.0                                                        07/17/2023  21:05:08  PAGE 82


      ---         BLOCKEND  ---      ---       LVL=0

      00FFC9F4H   BLOCK     ECODE    ---       LVL=0
      00FFC9F4H   LINE      ECODE    ---       #63
      00FFC9F4H   LINE      ECODE    ---       #65
      00FFC9F6H   LINE      ECODE    ---       #66
      00FFC9F8H   LINE      ECODE    ---       #67
      00FFC9FBH   LINE      ECODE    ---       #68
      00FFC9FDH   LINE      ECODE    ---       #69
      00FFCA00H   LINE      ECODE    ---       #70
      00FFCA02H   LINE      ECODE    ---       #71
      ---         BLOCKEND  ---      ---       LVL=0

      00FFCA05H   BLOCK     ECODE    ---       LVL=0
      R15         REGSYM    ---      BYTE      ack_dat
      00FFCA05H   LINE      ECODE    ---       #76
      00FFCA09H   LINE      ECODE    ---       #78
      00FFCA0BH   LINE      ECODE    ---       #79
      00FFCA0EH   LINE      ECODE    ---       #80
      00FFCA16H   LINE      ECODE    ---       #81
      00FFCA18H   LINE      ECODE    ---       #83
      00FFCA1AH   LINE      ECODE    ---       #84
      00FFCA1DH   LINE      ECODE    ---       #85
      00FFCA1FH   LINE      ECODE    ---       #86
      00FFCA22H   LINE      ECODE    ---       #87
      ---         BLOCKEND  ---      ---       LVL=0

      00FFCA25H   BLOCK     ECODE    ---       LVL=0
      00FFCA25H   LINE      ECODE    ---       #90
      00FFCA25H   LINE      ECODE    ---       #92
      00FFCA27H   LINE      ECODE    ---       #94
      00FFCA2AH   LINE      ECODE    ---       #96
      00FFCA2CH   LINE      ECODE    ---       #97
      00FFCA2FH   LINE      ECODE    ---       #99
      00FFCA32H   LINE      ECODE    ---       #102
      00FFCA34H   LINE      ECODE    ---       #103
      00FFCA37H   LINE      ECODE    ---       #104
      00FFCA37H   LINE      ECODE    ---       #106
      00FFCA39H   LINE      ECODE    ---       #107
      00FFCA3CH   LINE      ECODE    ---       #108
      00FFCA40H   LINE      ECODE    ---       #109
      ---         BLOCKEND  ---      ---       LVL=0

      00FFCA41H   BLOCK     ECODE    ---       LVL=0
      R15         REGSYM    ---      BYTE      c
      00FFCA45H   BLOCK     ECODE    NEAR LAB  LVL=1
      R14         REGSYM    ---      BYTE      i
      ---         BLOCKEND  ---      ---       LVL=1
      00FFCA41H   LINE      ECODE    ---       #115
      00FFCA45H   LINE      ECODE    ---       #116
      00FFCA45H   LINE      ECODE    ---       #117
      00FFCA48H   LINE      ECODE    ---       #118
      00FFCA4AH   LINE      ECODE    ---       #120
      00FFCA53H   LINE      ECODE    ---       #121
      00FFCA55H   LINE      ECODE    ---       #122
      00FFCA57H   LINE      ECODE    ---       #123
      00FFCA5AH   LINE      ECODE    ---       #124
      00FFCA5CH   LINE      ECODE    ---       #125
      00FFCA5FH   LINE      ECODE    ---       #126
      00FFCA61H   LINE      ECODE    ---       #127
      00FFCA69H   LINE      ECODE    ---       #128
      00FFCA6CH   LINE      ECODE    ---       #129
      ---         BLOCKEND  ---      ---       LVL=0

      00FFCA6FH   BLOCK     ECODE    ---       LVL=0
L251 LINKER/LOCATER V4.66.93.0                                                        07/17/2023  21:05:08  PAGE 83


      R15         REGSYM    ---      BYTE      ack_x
      00FFCA75H   BLOCK     ECODE    NEAR LAB  LVL=1
      R13         REGSYM    ---      BYTE      i
      R14         REGSYM    ---      BYTE      c
      ---         BLOCKEND  ---      ---       LVL=1
      00FFCA6FH   LINE      ECODE    ---       #135
      00FFCA75H   LINE      ECODE    ---       #136
      00FFCA75H   LINE      ECODE    ---       #139
      00FFCA77H   LINE      ECODE    ---       #140
      00FFCA79H   LINE      ECODE    ---       #141
      00FFCA7CH   LINE      ECODE    ---       #142
      00FFCA7EH   LINE      ECODE    ---       #144
      00FFCA81H   LINE      ECODE    ---       #146
      00FFCA84H   LINE      ECODE    ---       #147
      00FFCA86H   LINE      ECODE    ---       #148
      00FFCA89H   LINE      ECODE    ---       #149
      00FFCA8BH   LINE      ECODE    ---       #150
      00FFCA8EH   LINE      ECODE    ---       #151
      00FFCA90H   LINE      ECODE    ---       #152
      00FFCA93H   LINE      ECODE    ---       #154
      00FFCA95H   LINE      ECODE    ---       #155
      00FFCA99H   LINE      ECODE    ---       #158
      00FFCA9BH   LINE      ECODE    ---       #159
      00FFCA9EH   LINE      ECODE    ---       #160
      00FFCAA3H   LINE      ECODE    ---       #162
      00FFCAA5H   LINE      ECODE    ---       #163
      ---         BLOCKEND  ---      ---       LVL=0

      00FFCAAAH   BLOCK     ECODE    ---       LVL=0
      R13         REGSYM    ---      BYTE      dev_add
      R14         REGSYM    ---      BYTE      reg
      R15         REGSYM    ---      BYTE      dat
      00FFCAAAH   LINE      ECODE    ---       #175
      00FFCAB2H   LINE      ECODE    ---       #177
      00FFCAB5H   LINE      ECODE    ---       #178
      00FFCABAH   LINE      ECODE    ---       #179
      00FFCABFH   LINE      ECODE    ---       #180
      00FFCAC4H   LINE      ECODE    ---       #181
      00FFCAC7H   LINE      ECODE    ---       #182
      ---         BLOCKEND  ---      ---       LVL=0

      00FFCACCH   BLOCK     ECODE    ---       LVL=0
      R15         REGSYM    ---      BYTE      dev_add
      R14         REGSYM    ---      BYTE      reg
      00FFCAD2H   BLOCK     ECODE    NEAR LAB  LVL=1
      R15         REGSYM    ---      BYTE      dat
      ---         BLOCKEND  ---      ---       LVL=1
      00FFCACCH   LINE      ECODE    ---       #217
      00FFCAD2H   LINE      ECODE    ---       #218
      00FFCAD2H   LINE      ECODE    ---       #220
      00FFCAD5H   LINE      ECODE    ---       #221
      00FFCADAH   LINE      ECODE    ---       #222
      00FFCADFH   LINE      ECODE    ---       #224
      00FFCAE2H   LINE      ECODE    ---       #225
      00FFCAEBH   LINE      ECODE    ---       #226
      00FFCAEFH   LINE      ECODE    ---       #227
      00FFCAF2H   LINE      ECODE    ---       #229
      00FFCAF2H   LINE      ECODE    ---       #230
      ---         BLOCKEND  ---      ---       LVL=0

      00FFCAF5H   BLOCK     ECODE    ---       LVL=0
      R14         REGSYM    ---      BYTE      byte_reg
      R15         REGSYM    ---      BYTE      dat
      00FFCAF5H   LINE      ECODE    ---       #271
      00FFCAFBH   LINE      ECODE    ---       #273
L251 LINKER/LOCATER V4.66.93.0                                                        07/17/2023  21:05:08  PAGE 84


      00FFCB03H   LINE      ECODE    ---       #274
      00FFCB0CH   LINE      ECODE    ---       #275
      ---         BLOCKEND  ---      ---       LVL=0

      00FFCB0FH   BLOCK     ECODE    ---       LVL=0
      R15         REGSYM    ---      BYTE      byte_reg
      00FFCB0FH   LINE      ECODE    ---       #285
      00FFCB13H   LINE      ECODE    ---       #287
      00FFCB1BH   LINE      ECODE    ---       #288
      00FFCB22H   LINE      ECODE    ---       #289
      ---         BLOCKEND  ---      ---       LVL=0

      00FFCB25H   BLOCK     ECODE    ---       LVL=0
      REG=3       REGSYM    ---      ---       dat_add
      00FFCB25H   LINE      ECODE    ---       #301
      00FFCB31H   LINE      ECODE    ---       #303
      00FFCB31H   LINE      ECODE    ---       #304
      00FFCB31H   LINE      ECODE    ---       #305
      00FFCB31H   LINE      ECODE    ---       #306
      00FFCB31H   LINE      ECODE    ---       #308
      00FFCB33H   LINE      ECODE    ---       #310
      00FFCB3BH   LINE      ECODE    ---       #311
      00FFCB44H   LINE      ECODE    ---       #312
      00FFCB50H   LINE      ECODE    ---       #314
      00FFCB53H   LINE      ECODE    ---       #315
      00FFCB5BH   LINE      ECODE    ---       #316
      00FFCB5EH   LINE      ECODE    ---       #317
      00FFCB63H   LINE      ECODE    ---       #318
      00FFCB6AH   LINE      ECODE    ---       #319
      00FFCB75H   LINE      ECODE    ---       #321
      00FFCB7BH   LINE      ECODE    ---       #322
      00FFCB7EH   LINE      ECODE    ---       #323
      ---         BLOCKEND  ---      ---       LVL=0

      00FFCB81H   BLOCK     ECODE    ---       LVL=0
      REG=3       REGSYM    ---      ---       dat_add
      00FFCB81H   LINE      ECODE    ---       #335
      00FFCB8DH   LINE      ECODE    ---       #337
      00FFCB95H   LINE      ECODE    ---       #338
      00FFCB98H   LINE      ECODE    ---       #339
      00FFCB9DH   LINE      ECODE    ---       #340
      00FFCBA4H   LINE      ECODE    ---       #341
      00FFCBACH   LINE      ECODE    ---       #342
      00FFCBAFH   LINE      ECODE    ---       #343
      00FFCBB4H   LINE      ECODE    ---       #344
      00FFCBB6H   LINE      ECODE    ---       #346
      00FFCBC0H   LINE      ECODE    ---       #347
      00FFCBC9H   LINE      ECODE    ---       #348
      00FFCBD4H   LINE      ECODE    ---       #349
      00FFCBDBH   LINE      ECODE    ---       #350
      00FFCBDEH   LINE      ECODE    ---       #351
      ---         BLOCKEND  ---      ---       LVL=0

      ---         MODULE    ---      ---       SEEKFREE_BLUETOOTH_CH9141
      00FFD41FH   PUBLIC    ECODE    ---       bluetooth_ch9141_uart_callback?
      00FFD526H   PUBLIC    ECODE    ---       bluetooth_ch9141_read_buff?
      00FFD477H   PUBLIC    ECODE    ---       bluetooth_ch9141_send_buff?
      00FFD439H   PUBLIC    ECODE    ---       bluetooth_ch9141_init?
      000000D0H   SFRSYM    DATA     BYTE      PSW
      0000009DH   SFRSYM    DATA     BYTE      IRCBAND
      00000097H   SFRSYM    DATA     BYTE      AUXR2
      000000EFH   SFRSYM    DATA     BYTE      AUXINTIF
      000000FDH   SFRSYM    DATA     BYTE      S4CON
      000000ACH   SFRSYM    DATA     BYTE      S3CON
      0000009AH   SFRSYM    DATA     BYTE      S2CON
L251 LINKER/LOCATER V4.66.93.0                                                        07/17/2023  21:05:08  PAGE 85


      000000FEH   SFRSYM    DATA     BYTE      S4BUF
      000000B7H   SFRSYM    DATA     BYTE      IPH
      000000CDH   SFRSYM    DATA     BYTE      SPSTAT
      000000DDH   SFRSYM    DATA     BYTE      T4T3M
      000000C1H   SFRSYM    DATA     BYTE      WDT_CONTR
      000000DFH   SFRSYM    DATA     BYTE      IP3
      000000F4H   SFRSYM    DATA     BYTE      USBCON
      000000B5H   SFRSYM    DATA     BYTE      IP2
      000000FFH   SFRSYM    DATA     BYTE      RSTCFG
      000000F9H   SFRSYM    DATA     BYTE      LINICR
      0000008EH   SFRSYM    DATA     BYTE      AUXR
      000000AFH   SFRSYM    DATA     BYTE      IE2
      00000080H.7 SFRSYM    DATA     BIT       P07
      00000088H   SFRSYM    DATA     BYTE      TCON
      00000098H   SFRSYM    DATA     BYTE      SCON
      000000F1H   SFRSYM    DATA     BYTE      CANICR
      00000087H   SFRSYM    DATA     BYTE      PCON
      000000BCH   SFRSYM    DATA     BYTE      ADC_CONTR
      000000E7H   SFRSYM    DATA     BYTE      CMPCR2
      000000E6H   SFRSYM    DATA     BYTE      CMPCR1
      000000B8H   SFRSYM    DATA     BYTE      IP
      0000008FH   SFRSYM    DATA     BYTE      INTCLKO
      000000EEH   SFRSYM    DATA     BYTE      IP3H
      000000B6H   SFRSYM    DATA     BYTE      IP2H
      000000A8H   SFRSYM    DATA     BYTE      IE
      000000BBH   SFRSYM    DATA     BYTE      P_SW3
      000000BAH   SFRSYM    DATA     BYTE      P_SW2
      000000A2H   SFRSYM    DATA     BYTE      P_SW1
      000000CEH   SFRSYM    DATA     BYTE      SPCTL
      000000F8H   SFRSYM    DATA     BYTE      P7
      000000E8H   SFRSYM    DATA     BYTE      P6
      000000C8H   SFRSYM    DATA     BYTE      P5
      000000C0H   SFRSYM    DATA     BYTE      P4
      000000B0H   SFRSYM    DATA     BYTE      P3
      000000A0H   SFRSYM    DATA     BYTE      P2
      00000090H   SFRSYM    DATA     BYTE      P1
      00000080H   SFRSYM    DATA     BYTE      P0
      000005DFH   SYMBOL    EDATA    ---       bluetooth_ch9141_buffer
      0000061FH   SYMBOL    EDATA    BYTE      bluetooth_ch9141_data
      00000620H   SYMBOL    EDATA    ---       bluetooth_ch9141_fifo

      00FFD41FH   BLOCK     ECODE    ---       LVL=0
      00FFD41FH   LINE      ECODE    ---       #67
      00FFD41FH   LINE      ECODE    ---       #70
      00FFD425H   LINE      ECODE    ---       #71
      ---         BLOCKEND  ---      ---       LVL=0

      00FFD439H   BLOCK     ECODE    ---       LVL=0
      00FFD439H   LINE      ECODE    ---       #80
      00FFD439H   LINE      ECODE    ---       #82
      00FFD441H   LINE      ECODE    ---       #84
      00FFD455H   LINE      ECODE    ---       #85
      00FFD475H   LINE      ECODE    ---       #86
      00FFD476H   LINE      ECODE    ---       #87
      ---         BLOCKEND  ---      ---       LVL=0

      00FFD477H   BLOCK     ECODE    ---       LVL=0
      DR12        REGSYM    ---      DWORD     len
      00FFD47FH   BLOCK     ECODE    NEAR LAB  LVL=1
      ---         BLOCKEND  ---      ---       LVL=1
      00FFD477H   LINE      ECODE    ---       #98
      00FFD47FH   LINE      ECODE    ---       #99
      00FFD47FH   LINE      ECODE    ---       #100
      00FFD485H   LINE      ECODE    ---       #101
      00FFD487H   LINE      ECODE    ---       #103
L251 LINKER/LOCATER V4.66.93.0                                                        07/17/2023  21:05:08  PAGE 86


      00FFD48DH   LINE      ECODE    ---       #104
      00FFD4ACH   LINE      ECODE    ---       #106
      00FFD4B6H   LINE      ECODE    ---       #107
      00FFD4BAH   LINE      ECODE    ---       #108
      00FFD4CAH   LINE      ECODE    ---       #110
      00FFD4D6H   LINE      ECODE    ---       #111
      00FFD4DAH   LINE      ECODE    ---       #112
      00FFD4E0H   LINE      ECODE    ---       #114
      00FFD4E6H   LINE      ECODE    ---       #115
      00FFD505H   LINE      ECODE    ---       #117
      00FFD50FH   LINE      ECODE    ---       #118
      00FFD513H   LINE      ECODE    ---       #119
      00FFD521H   LINE      ECODE    ---       #121
      00FFD523H   LINE      ECODE    ---       #122
      ---         BLOCKEND  ---      ---       LVL=0

      00FFD526H   BLOCK     ECODE    ---       LVL=0
      REG=7       REGSYM    ---      ---       buff
      DR8         REGSYM    ---      DWORD     len
      00FFD528H   BLOCK     ECODE    NEAR LAB  LVL=1
      ---         BLOCKEND  ---      ---       LVL=1
      00FFD526H   LINE      ECODE    ---       #131
      00FFD528H   LINE      ECODE    ---       #132
      00FFD528H   LINE      ECODE    ---       #133
      00FFD52CH   LINE      ECODE    ---       #134
      00FFD544H   LINE      ECODE    ---       #135
      00FFD548H   LINE      ECODE    ---       #136
      ---         BLOCKEND  ---      ---       LVL=0

      ---         MODULE    ---      ---       SEEKFREE_DL1A
      00FF7911H   PUBLIC    ECODE    ---       dl1a_get_distance?
      00FF796EH   PUBLIC    ECODE    ---       dl1a_init?
      000007E1H   PUBLIC    EDATA    WORD      dl1a_distance_mm
      000007E3H   PUBLIC    EDATA    BYTE      dl1a_finsh_flag
      000000D0H   SFRSYM    DATA     BYTE      PSW
      0000009DH   SFRSYM    DATA     BYTE      IRCBAND
      00000097H   SFRSYM    DATA     BYTE      AUXR2
      000000EFH   SFRSYM    DATA     BYTE      AUXINTIF
      000000FDH   SFRSYM    DATA     BYTE      S4CON
      000000ACH   SFRSYM    DATA     BYTE      S3CON
      0000009AH   SFRSYM    DATA     BYTE      S2CON
      000000B7H   SFRSYM    DATA     BYTE      IPH
      000000CDH   SFRSYM    DATA     BYTE      SPSTAT
      000000DDH   SFRSYM    DATA     BYTE      T4T3M
      000000C1H   SFRSYM    DATA     BYTE      WDT_CONTR
      000000DFH   SFRSYM    DATA     BYTE      IP3
      000000F4H   SFRSYM    DATA     BYTE      USBCON
      000000B5H   SFRSYM    DATA     BYTE      IP2
      000000FFH   SFRSYM    DATA     BYTE      RSTCFG
      000000F9H   SFRSYM    DATA     BYTE      LINICR
      0000008EH   SFRSYM    DATA     BYTE      AUXR
      000000AFH   SFRSYM    DATA     BYTE      IE2
      000000C0H.7 SFRSYM    DATA     BIT       P47
      000000E8H.5 SFRSYM    DATA     BIT       P65
      000000E8H.3 SFRSYM    DATA     BIT       P63
      00000088H   SFRSYM    DATA     BYTE      TCON
      00000098H   SFRSYM    DATA     BYTE      SCON
      000000F1H   SFRSYM    DATA     BYTE      CANICR
      00000087H   SFRSYM    DATA     BYTE      PCON
      000000BCH   SFRSYM    DATA     BYTE      ADC_CONTR
      000000E7H   SFRSYM    DATA     BYTE      CMPCR2
      000000E6H   SFRSYM    DATA     BYTE      CMPCR1
      000000B8H   SFRSYM    DATA     BYTE      IP
      0000008FH   SFRSYM    DATA     BYTE      INTCLKO
      000000EEH   SFRSYM    DATA     BYTE      IP3H
L251 LINKER/LOCATER V4.66.93.0                                                        07/17/2023  21:05:08  PAGE 87


      000000B6H   SFRSYM    DATA     BYTE      IP2H
      000000A8H   SFRSYM    DATA     BYTE      IE
      000000BBH   SFRSYM    DATA     BYTE      P_SW3
      000000BAH   SFRSYM    DATA     BYTE      P_SW2
      000000A2H   SFRSYM    DATA     BYTE      P_SW1
      000000CEH   SFRSYM    DATA     BYTE      SPCTL
      000000F8H   SFRSYM    DATA     BYTE      P7
      000000E8H   SFRSYM    DATA     BYTE      P6
      000000C8H   SFRSYM    DATA     BYTE      P5
      000000C0H   SFRSYM    DATA     BYTE      P4
      000000B0H   SFRSYM    DATA     BYTE      P3
      000000A0H   SFRSYM    DATA     BYTE      P2
      00000090H   SFRSYM    DATA     BYTE      P1
      00000080H   SFRSYM    DATA     BYTE      P0
      00FF7187H   SYMBOL    ECODE    ---       dl1a_simiic_sendack
      00FF7514H   SYMBOL    ECODE    ---       dl1a_timeout_microseconds_to_mclks
      00FF74D0H   SYMBOL    ECODE    ---       dl1a_timeout_mclks_to_microseconds
      00FF78E8H   SYMBOL    ECODE    ---       dl1a_set_signal_rate_limit
      00FF71F1H   SYMBOL    ECODE    ---       dl1a_read_ch
      00FF7556H   SYMBOL    ECODE    ---       dl1a_decode_timeout
      00FF71C3H   SYMBOL    ECODE    ---       dl1a_send_ch
      00FF7354H   SYMBOL    ECODE    ---       dl1a_get_spad_info
      00FF7566H   SYMBOL    ECODE    ---       dl1a_encode_timeout
      00FF759AH   SYMBOL    ECODE    ---       dl1a_get_sequence_step_enables
      00FF71A7H   SYMBOL    ECODE    ---       dl1a_sccb_waitack
      00FF715AH   SYMBOL    ECODE    ---       dl1a_simiic_delay
      00FF771AH   SYMBOL    ECODE    ---       dl1a_perform_single_ref_calibration
      00FF763FH   SYMBOL    ECODE    ---       dl1a_get_sequence_step_timeouts
      00FF7167H   SYMBOL    ECODE    ---       dl1a_simiic_start
      00FF72ACH   SYMBOL    ECODE    ---       dl1a_simiic_read_regs
      00FF7875H   SYMBOL    ECODE    ---       dl1a_get_measurement_timing_budget
      00FF722CH   SYMBOL    ECODE    ---       dl1a_simiic_write_dats
      00FF7283H   SYMBOL    ECODE    ---       dl1a_simiic_read_reg
      00FF7300H   SYMBOL    ECODE    ---       dl1a_simiic_read_regs_1
      00FF7791H   SYMBOL    ECODE    ---       dl1a_set_measurement_timing_budget
      00FF7176H   SYMBOL    ECODE    ---       dl1a_simiic_stop
      00FF7261H   SYMBOL    ECODE    ---       dl1a_simiic_write_reg
      00FF75F2H   SYMBOL    ECODE    ---       dl1a_get_vcsel_pulse_period

      00FF715AH   BLOCK     ECODE    ---       LVL=0
      WR6         REGSYM    ---      WORD      j
      00FF715AH   LINE      ECODE    ---       #75
      00FF715AH   LINE      ECODE    ---       #76
      00FF715AH   LINE      ECODE    ---       #77
      00FF715EH   LINE      ECODE    ---       #78
      00FF7166H   LINE      ECODE    ---       #79
      ---         BLOCKEND  ---      ---       LVL=0

      00FF7167H   BLOCK     ECODE    ---       LVL=0
      00FF7167H   LINE      ECODE    ---       #82
      00FF7167H   LINE      ECODE    ---       #84
      00FF7169H   LINE      ECODE    ---       #85
      00FF716BH   LINE      ECODE    ---       #86
      00FF716EH   LINE      ECODE    ---       #87
      00FF7170H   LINE      ECODE    ---       #88
      00FF7173H   LINE      ECODE    ---       #89
      00FF7175H   LINE      ECODE    ---       #90
      ---         BLOCKEND  ---      ---       LVL=0

      00FF7176H   BLOCK     ECODE    ---       LVL=0
      00FF7176H   LINE      ECODE    ---       #93
      00FF7176H   LINE      ECODE    ---       #95
      00FF7178H   LINE      ECODE    ---       #96
      00FF717AH   LINE      ECODE    ---       #97
      00FF717DH   LINE      ECODE    ---       #98
L251 LINKER/LOCATER V4.66.93.0                                                        07/17/2023  21:05:08  PAGE 88


      00FF717FH   LINE      ECODE    ---       #99
      00FF7182H   LINE      ECODE    ---       #100
      00FF7184H   LINE      ECODE    ---       #101
      ---         BLOCKEND  ---      ---       LVL=0

      00FF7187H   BLOCK     ECODE    ---       LVL=0
      R15         REGSYM    ---      BYTE      ack_dat
      00FF7187H   LINE      ECODE    ---       #106
      00FF718BH   LINE      ECODE    ---       #108
      00FF718DH   LINE      ECODE    ---       #109
      00FF7190H   LINE      ECODE    ---       #110
      00FF7198H   LINE      ECODE    ---       #111
      00FF719AH   LINE      ECODE    ---       #113
      00FF719CH   LINE      ECODE    ---       #114
      00FF719FH   LINE      ECODE    ---       #115
      00FF71A1H   LINE      ECODE    ---       #116
      00FF71A4H   LINE      ECODE    ---       #117
      ---         BLOCKEND  ---      ---       LVL=0

      00FF71A7H   BLOCK     ECODE    ---       LVL=0
      00FF71A7H   LINE      ECODE    ---       #120
      00FF71A7H   LINE      ECODE    ---       #122
      00FF71A9H   LINE      ECODE    ---       #124
      00FF71ACH   LINE      ECODE    ---       #126
      00FF71AEH   LINE      ECODE    ---       #127
      00FF71B1H   LINE      ECODE    ---       #129
      00FF71B4H   LINE      ECODE    ---       #132
      00FF71B6H   LINE      ECODE    ---       #133
      00FF71B9H   LINE      ECODE    ---       #134
      00FF71B9H   LINE      ECODE    ---       #136
      00FF71BBH   LINE      ECODE    ---       #137
      00FF71BEH   LINE      ECODE    ---       #138
      00FF71C2H   LINE      ECODE    ---       #139
      ---         BLOCKEND  ---      ---       LVL=0

      00FF71C3H   BLOCK     ECODE    ---       LVL=0
      R15         REGSYM    ---      BYTE      c
      00FF71C7H   BLOCK     ECODE    NEAR LAB  LVL=1
      R14         REGSYM    ---      BYTE      i
      ---         BLOCKEND  ---      ---       LVL=1
      00FF71C3H   LINE      ECODE    ---       #145
      00FF71C7H   LINE      ECODE    ---       #146
      00FF71C7H   LINE      ECODE    ---       #147
      00FF71CAH   LINE      ECODE    ---       #148
      00FF71CCH   LINE      ECODE    ---       #150
      00FF71D5H   LINE      ECODE    ---       #151
      00FF71D7H   LINE      ECODE    ---       #152
      00FF71D9H   LINE      ECODE    ---       #153
      00FF71DCH   LINE      ECODE    ---       #154
      00FF71DEH   LINE      ECODE    ---       #155
      00FF71E1H   LINE      ECODE    ---       #156
      00FF71E3H   LINE      ECODE    ---       #157
      00FF71EBH   LINE      ECODE    ---       #158
      00FF71EEH   LINE      ECODE    ---       #159
      ---         BLOCKEND  ---      ---       LVL=0

      00FF71F1H   BLOCK     ECODE    ---       LVL=0
      R15         REGSYM    ---      BYTE      ack_x
      00FF71F7H   BLOCK     ECODE    NEAR LAB  LVL=1
      R13         REGSYM    ---      BYTE      i
      R14         REGSYM    ---      BYTE      c
      ---         BLOCKEND  ---      ---       LVL=1
      00FF71F1H   LINE      ECODE    ---       #165
      00FF71F7H   LINE      ECODE    ---       #166
      00FF71F7H   LINE      ECODE    ---       #169
L251 LINKER/LOCATER V4.66.93.0                                                        07/17/2023  21:05:08  PAGE 89


      00FF71F9H   LINE      ECODE    ---       #170
      00FF71FBH   LINE      ECODE    ---       #171
      00FF71FEH   LINE      ECODE    ---       #172
      00FF7200H   LINE      ECODE    ---       #174
      00FF7203H   LINE      ECODE    ---       #176
      00FF7206H   LINE      ECODE    ---       #177
      00FF7208H   LINE      ECODE    ---       #178
      00FF720BH   LINE      ECODE    ---       #179
      00FF720DH   LINE      ECODE    ---       #180
      00FF7210H   LINE      ECODE    ---       #181
      00FF7212H   LINE      ECODE    ---       #182
      00FF7215H   LINE      ECODE    ---       #184
      00FF7217H   LINE      ECODE    ---       #185
      00FF721BH   LINE      ECODE    ---       #188
      00FF721DH   LINE      ECODE    ---       #189
      00FF7220H   LINE      ECODE    ---       #190
      00FF7225H   LINE      ECODE    ---       #192
      00FF7227H   LINE      ECODE    ---       #193
      ---         BLOCKEND  ---      ---       LVL=0

      00FF722CH   BLOCK     ECODE    ---       LVL=0
      000000FDH   SYMBOL    EDATA    BYTE      dev_add
      000000FEH   SYMBOL    EDATA    ---       dat
      DR12        REGSYM    ---      DWORD     len
      00FF722CH   LINE      ECODE    ---       #205
      00FF7238H   LINE      ECODE    ---       #207
      00FF723BH   LINE      ECODE    ---       #208
      00FF7241H   LINE      ECODE    ---       #209
      00FF7243H   LINE      ECODE    ---       #211
      00FF7253H   LINE      ECODE    ---       #212
      00FF725BH   LINE      ECODE    ---       #215
      00FF725EH   LINE      ECODE    ---       #216
      ---         BLOCKEND  ---      ---       LVL=0

      00FF7261H   BLOCK     ECODE    ---       LVL=0
      R13         REGSYM    ---      BYTE      dev_add
      R14         REGSYM    ---      BYTE      reg
      R15         REGSYM    ---      BYTE      dat
      00FF7261H   LINE      ECODE    ---       #228
      00FF7269H   LINE      ECODE    ---       #230
      00FF726CH   LINE      ECODE    ---       #231
      00FF7271H   LINE      ECODE    ---       #232
      00FF7276H   LINE      ECODE    ---       #233
      00FF727BH   LINE      ECODE    ---       #234
      00FF727EH   LINE      ECODE    ---       #235
      ---         BLOCKEND  ---      ---       LVL=0

      00FF7283H   BLOCK     ECODE    ---       LVL=0
      R15         REGSYM    ---      BYTE      dev_add
      R14         REGSYM    ---      BYTE      reg
      00FF7289H   BLOCK     ECODE    NEAR LAB  LVL=1
      R15         REGSYM    ---      BYTE      dat
      ---         BLOCKEND  ---      ---       LVL=1
      00FF7283H   LINE      ECODE    ---       #246
      00FF7289H   LINE      ECODE    ---       #247
      00FF7289H   LINE      ECODE    ---       #249
      00FF728CH   LINE      ECODE    ---       #250
      00FF7291H   LINE      ECODE    ---       #251
      00FF7296H   LINE      ECODE    ---       #254
      00FF7299H   LINE      ECODE    ---       #255
      00FF72A2H   LINE      ECODE    ---       #256
      00FF72A6H   LINE      ECODE    ---       #257
      00FF72A9H   LINE      ECODE    ---       #259
      00FF72A9H   LINE      ECODE    ---       #260
      ---         BLOCKEND  ---      ---       LVL=0
L251 LINKER/LOCATER V4.66.93.0                                                        07/17/2023  21:05:08  PAGE 90



      00FF72ACH   BLOCK     ECODE    ---       LVL=0
      00000104H   SYMBOL    EDATA    BYTE      dev_add
      00000105H   SYMBOL    EDATA    BYTE      reg
      REG=3       REGSYM    ---      ---       dat_add
      00000106H   SYMBOL    EDATA    DWORD     num
      00FF72ACH   LINE      ECODE    ---       #273
      00FF72B8H   LINE      ECODE    ---       #275
      00FF72BBH   LINE      ECODE    ---       #276
      00FF72C4H   LINE      ECODE    ---       #277
      00FF72CBH   LINE      ECODE    ---       #280
      00FF72CEH   LINE      ECODE    ---       #281
      00FF72D9H   LINE      ECODE    ---       #282
      00FF72DBH   LINE      ECODE    ---       #284
      00FF72E3H   LINE      ECODE    ---       #285
      00FF72E5H   LINE      ECODE    ---       #286
      00FF72F3H   LINE      ECODE    ---       #287
      00FF72FAH   LINE      ECODE    ---       #288
      00FF72FDH   LINE      ECODE    ---       #289
      ---         BLOCKEND  ---      ---       LVL=0

      00FF7300H   BLOCK     ECODE    ---       LVL=0
      00000029H   SYMBOL    EDATA    BYTE      dev_add
      0000002AH   SYMBOL    EDATA    BYTE      reg
      REG=3       REGSYM    ---      ---       dat_add
      0000002BH   SYMBOL    EDATA    DWORD     num
      00FF7300H   LINE      ECODE    ---       #302
      00FF730CH   LINE      ECODE    ---       #304
      00FF730FH   LINE      ECODE    ---       #305
      00FF7318H   LINE      ECODE    ---       #306
      00FF731FH   LINE      ECODE    ---       #309
      00FF7322H   LINE      ECODE    ---       #310
      00FF732DH   LINE      ECODE    ---       #311
      00FF732FH   LINE      ECODE    ---       #313
      00FF7337H   LINE      ECODE    ---       #314
      00FF7339H   LINE      ECODE    ---       #315
      00FF7347H   LINE      ECODE    ---       #316
      00FF734EH   LINE      ECODE    ---       #317
      00FF7351H   LINE      ECODE    ---       #318
      ---         BLOCKEND  ---      ---       LVL=0

      00FF7354H   BLOCK     ECODE    ---       LVL=0
      000000DAH   SYMBOL    EDATA    ---       index
      REG=3       REGSYM    ---      ---       type_is_aperture
      00FF735CH   BLOCK     ECODE    NEAR LAB  LVL=1
      000000DEH   SYMBOL    EDATA    BYTE      tmp
      000000DFH   SYMBOL    EDATA    BYTE      return_state
      000000E0H   SYMBOL    EDATA    WORD      loop_count
      ---         BLOCKEND  ---      ---       LVL=1
      00FF7354H   LINE      ECODE    ---       #350
      00FF735CH   LINE      ECODE    ---       #351
      00FF735CH   LINE      ECODE    ---       #352
      00FF7361H   LINE      ECODE    ---       #353
      00FF7365H   LINE      ECODE    ---       #354
      00FF736BH   LINE      ECODE    ---       #356
      00FF736BH   LINE      ECODE    ---       #358
      00FF7376H   LINE      ECODE    ---       #359
      00FF7381H   LINE      ECODE    ---       #360
      00FF738AH   LINE      ECODE    ---       #362
      00FF7395H   LINE      ECODE    ---       #363
      00FF73A9H   LINE      ECODE    ---       #364
      00FF73B8H   LINE      ECODE    ---       #365
      00FF73C3H   LINE      ECODE    ---       #366
      00FF73CEH   LINE      ECODE    ---       #368
      00FF73D9H   LINE      ECODE    ---       #370
L251 LINKER/LOCATER V4.66.93.0                                                        07/17/2023  21:05:08  PAGE 91


      00FF73E4H   LINE      ECODE    ---       #371
      00FF73EEH   LINE      ECODE    ---       #373
      00FF73F3H   LINE      ECODE    ---       #374
      00FF73F5H   LINE      ECODE    ---       #376
      00FF7409H   LINE      ECODE    ---       #377
      00FF7413H   LINE      ECODE    ---       #378
      00FF741DH   LINE      ECODE    ---       #380
      00FF7423H   LINE      ECODE    ---       #381
      00FF7425H   LINE      ECODE    ---       #382
      00FF742CH   LINE      ECODE    ---       #385
      00FF7435H   LINE      ECODE    ---       #387
      00FF7435H   LINE      ECODE    ---       #388
      00FF7435H   LINE      ECODE    ---       #389
      00FF7440H   LINE      ECODE    ---       #390
      00FF7454H   LINE      ECODE    ---       #392
      00FF7461H   LINE      ECODE    ---       #393
      00FF746BH   LINE      ECODE    ---       #395
      00FF7475H   LINE      ECODE    ---       #396
      00FF7480H   LINE      ECODE    ---       #397
      00FF7494H   LINE      ECODE    ---       #398
      00FF74A0H   LINE      ECODE    ---       #399
      00FF74ABH   LINE      ECODE    ---       #400
      00FF74B5H   LINE      ECODE    ---       #402
      00FF74BFH   LINE      ECODE    ---       #403
      00FF74C9H   LINE      ECODE    ---       #404
      00FF74C9H   LINE      ECODE    ---       #406
      00FF74CDH   LINE      ECODE    ---       #407
      ---         BLOCKEND  ---      ---       LVL=0

      00FF74D0H   BLOCK     ECODE    ---       LVL=0
      WR30        REGSYM    ---      WORD      timeout_period_mclks
      R5          REGSYM    ---      BYTE      vcsel_period_pclks
      00FF74D2H   BLOCK     ECODE    NEAR LAB  LVL=1
      DR24        REGSYM    ---      DWORD     macro_period_ns
      ---         BLOCKEND  ---      ---       LVL=1
      00FF74D0H   LINE      ECODE    ---       #417
      00FF74D2H   LINE      ECODE    ---       #418
      00FF74D2H   LINE      ECODE    ---       #419
      00FF74F6H   LINE      ECODE    ---       #421
      00FF7513H   LINE      ECODE    ---       #422
      ---         BLOCKEND  ---      ---       LVL=0

      00FF7514H   BLOCK     ECODE    ---       LVL=0
      DR28        REGSYM    ---      DWORD     timeout_period_us
      R3          REGSYM    ---      BYTE      vcsel_period_pclks
      00FF7516H   BLOCK     ECODE    NEAR LAB  LVL=1
      DR8         REGSYM    ---      DWORD     macro_period_ns
      ---         BLOCKEND  ---      ---       LVL=1
      00FF7514H   LINE      ECODE    ---       #432
      00FF7516H   LINE      ECODE    ---       #433
      00FF7516H   LINE      ECODE    ---       #434
      00FF753AH   LINE      ECODE    ---       #436
      00FF7555H   LINE      ECODE    ---       #437
      ---         BLOCKEND  ---      ---       LVL=0

      00FF7556H   BLOCK     ECODE    ---       LVL=0
      WR4         REGSYM    ---      WORD      reg_val
      00FF7556H   LINE      ECODE    ---       #446
      00FF7558H   LINE      ECODE    ---       #449
      00FF7565H   LINE      ECODE    ---       #451
      ---         BLOCKEND  ---      ---       LVL=0

      00FF7566H   BLOCK     ECODE    ---       LVL=0
      WR2         REGSYM    ---      WORD      timeout_mclks
      00FF7568H   BLOCK     ECODE    NEAR LAB  LVL=1
L251 LINKER/LOCATER V4.66.93.0                                                        07/17/2023  21:05:08  PAGE 92


      DR8         REGSYM    ---      DWORD     ls_byte
      WR4         REGSYM    ---      WORD      ms_byte
      WR6         REGSYM    ---      WORD      return_data
      ---         BLOCKEND  ---      ---       LVL=1
      00FF7566H   LINE      ECODE    ---       #460
      00FF7568H   LINE      ECODE    ---       #461
      00FF7568H   LINE      ECODE    ---       #462
      00FF7568H   LINE      ECODE    ---       #463
      00FF756CH   LINE      ECODE    ---       #464
      00FF756CH   LINE      ECODE    ---       #466
      00FF7572H   LINE      ECODE    ---       #469
      00FF7578H   LINE      ECODE    ---       #470
      00FF757AH   LINE      ECODE    ---       #472
      00FF7583H   LINE      ECODE    ---       #473
      00FF7585H   LINE      ECODE    ---       #474
      00FF758FH   LINE      ECODE    ---       #475
      00FF7599H   LINE      ECODE    ---       #476
      00FF7599H   LINE      ECODE    ---       #477
      00FF7599H   LINE      ECODE    ---       #478
      ---         BLOCKEND  ---      ---       LVL=0

      00FF759AH   BLOCK     ECODE    ---       LVL=0
      REG=3       REGSYM    ---      ---       enables
      00FF759EH   BLOCK     ECODE    NEAR LAB  LVL=1
      000000FDH   SYMBOL    EDATA    BYTE      sequence_config
      ---         BLOCKEND  ---      ---       LVL=1
      00FF759AH   LINE      ECODE    ---       #487
      00FF759EH   LINE      ECODE    ---       #488
      00FF759EH   LINE      ECODE    ---       #489
      00FF75A3H   LINE      ECODE    ---       #490
      00FF75B4H   LINE      ECODE    ---       #492
      00FF75BEH   LINE      ECODE    ---       #493
      00FF75CAH   LINE      ECODE    ---       #494
      00FF75D8H   LINE      ECODE    ---       #495
      00FF75E4H   LINE      ECODE    ---       #496
      00FF75EFH   LINE      ECODE    ---       #497
      ---         BLOCKEND  ---      ---       LVL=0

      00FF75F2H   BLOCK     ECODE    ---       LVL=0
      WR6         REGSYM    ---      INT       type
      00000103H   SYMBOL    EDATA    BYTE      data_buffer
      00FF75F2H   LINE      ECODE    ---       #506
      00FF75F2H   LINE      ECODE    ---       #507
      00FF75F2H   LINE      ECODE    ---       #508
      00FF75F7H   LINE      ECODE    ---       #509
      00FF75FBH   LINE      ECODE    ---       #511
      00FF7608H   LINE      ECODE    ---       #512
      00FF7608H   LINE      ECODE    ---       #513
      00FF760AH   LINE      ECODE    ---       #514
      00FF7610H   LINE      ECODE    ---       #516
      00FF7624H   LINE      ECODE    ---       #517
      00FF7632H   LINE      ECODE    ---       #518
      00FF7634H   LINE      ECODE    ---       #521
      00FF763AH   LINE      ECODE    ---       #522
      00FF763AH   LINE      ECODE    ---       #523
      00FF763EH   LINE      ECODE    ---       #524
      ---         BLOCKEND  ---      ---       LVL=0

      00FF763FH   BLOCK     ECODE    ---       LVL=0
      000000FDH   SYMBOL    EDATA    ---       enables
      REG=3       REGSYM    ---      ---       timeouts
      00FF7647H   BLOCK     ECODE    NEAR LAB  LVL=1
      00000101H   SYMBOL    EDATA    ---       reg_buffer
      WR6         REGSYM    ---      WORD      reg16_buffer
      ---         BLOCKEND  ---      ---       LVL=1
L251 LINKER/LOCATER V4.66.93.0                                                        07/17/2023  21:05:08  PAGE 93


      00FF763FH   LINE      ECODE    ---       #534
      00FF7647H   LINE      ECODE    ---       #535
      00FF7647H   LINE      ECODE    ---       #537
      00FF7647H   LINE      ECODE    ---       #539
      00FF7651H   LINE      ECODE    ---       #541
      00FF7665H   LINE      ECODE    ---       #542
      00FF7671H   LINE      ECODE    ---       #543
      00FF767FH   LINE      ECODE    ---       #545
      00FF7693H   LINE      ECODE    ---       #546
      00FF769FH   LINE      ECODE    ---       #547
      00FF76A6H   LINE      ECODE    ---       #548
      00FF76B4H   LINE      ECODE    ---       #550
      00FF76C1H   LINE      ECODE    ---       #552
      00FF76D5H   LINE      ECODE    ---       #553
      00FF76E1H   LINE      ECODE    ---       #554
      00FF76E8H   LINE      ECODE    ---       #556
      00FF76F2H   LINE      ECODE    ---       #558
      00FF7704H   LINE      ECODE    ---       #559
      00FF7704H   LINE      ECODE    ---       #561
      00FF7717H   LINE      ECODE    ---       #562
      ---         BLOCKEND  ---      ---       LVL=0

      00FF771AH   BLOCK     ECODE    ---       LVL=0
      R10         REGSYM    ---      BYTE      vhv_init_byte
      00FF771EH   BLOCK     ECODE    NEAR LAB  LVL=1
      R15         REGSYM    ---      BYTE      return_state
      000000DAH   SYMBOL    EDATA    BYTE      data_buffer
      000000DBH   SYMBOL    EDATA    WORD      loop_count
      ---         BLOCKEND  ---      ---       LVL=1
      00FF771AH   LINE      ECODE    ---       #571
      00FF771EH   LINE      ECODE    ---       #572
      00FF771EH   LINE      ECODE    ---       #573
      00FF7720H   LINE      ECODE    ---       #574
      00FF7725H   LINE      ECODE    ---       #575
      00FF772BH   LINE      ECODE    ---       #576
      00FF772BH   LINE      ECODE    ---       #578
      00FF7735H   LINE      ECODE    ---       #579
      00FF7735H   LINE      ECODE    ---       #580
      00FF7737H   LINE      ECODE    ---       #582
      00FF7741H   LINE      ECODE    ---       #584
      00FF7744H   LINE      ECODE    ---       #585
      00FF7746H   LINE      ECODE    ---       #586
      00FF7746H   LINE      ECODE    ---       #587
      00FF7758H   LINE      ECODE    ---       #589
      00FF776CH   LINE      ECODE    ---       #590
      00FF7774H   LINE      ECODE    ---       #592
      00FF7778H   LINE      ECODE    ---       #594
      00FF7778H   LINE      ECODE    ---       #595
      00FF7778H   LINE      ECODE    ---       #596
      00FF7783H   LINE      ECODE    ---       #597
      00FF778CH   LINE      ECODE    ---       #598
      00FF778CH   LINE      ECODE    ---       #600
      00FF778EH   LINE      ECODE    ---       #601
      ---         BLOCKEND  ---      ---       LVL=0

      00FF7791H   BLOCK     ECODE    ---       LVL=0
      DR12        REGSYM    ---      DWORD     budget_us
      00FF7795H   BLOCK     ECODE    NEAR LAB  LVL=1
      000000DAH   SYMBOL    EDATA    BYTE      return_state
      000000DBH   SYMBOL    EDATA    ---       data_buffer
      WR6         REGSYM    ---      WORD      dat
      000000DEH   SYMBOL    EDATA    DWORD     used_budget_us
      DR4         REGSYM    ---      DWORD     final_range_timeout_us
      WR6         REGSYM    ---      WORD      final_range_timeout_mclks
      000000E2H   SYMBOL    EDATA    ---       enables
L251 LINKER/LOCATER V4.66.93.0                                                        07/17/2023  21:05:08  PAGE 94


      000000E7H   SYMBOL    EDATA    ---       timeouts
      ---         BLOCKEND  ---      ---       LVL=1
      00FF7791H   LINE      ECODE    ---       #614
      00FF7795H   LINE      ECODE    ---       #615
      00FF7795H   LINE      ECODE    ---       #616
      00FF779AH   LINE      ECODE    ---       #618
      00FF779AH   LINE      ECODE    ---       #626
      00FF779AH   LINE      ECODE    ---       #628
      00FF77A0H   LINE      ECODE    ---       #630
      00FF77A0H   LINE      ECODE    ---       #631
      00FF77A3H   LINE      ECODE    ---       #632
      00FF77A3H   LINE      ECODE    ---       #634
      00FF77ABH   LINE      ECODE    ---       #635
      00FF77B2H   LINE      ECODE    ---       #636
      00FF77BDH   LINE      ECODE    ---       #638
      00FF77C3H   LINE      ECODE    ---       #640
      00FF77D3H   LINE      ECODE    ---       #641
      00FF77D3H   LINE      ECODE    ---       #643
      00FF77D9H   LINE      ECODE    ---       #645
      00FF77E5H   LINE      ECODE    ---       #646
      00FF77E7H   LINE      ECODE    ---       #647
      00FF77EDH   LINE      ECODE    ---       #649
      00FF77FFH   LINE      ECODE    ---       #650
      00FF77FFH   LINE      ECODE    ---       #652
      00FF7805H   LINE      ECODE    ---       #654
      00FF7817H   LINE      ECODE    ---       #655
      00FF7817H   LINE      ECODE    ---       #657
      00FF781DH   LINE      ECODE    ---       #662
      00FF7829H   LINE      ECODE    ---       #663
      00FF7831H   LINE      ECODE    ---       #666
      00FF7837H   LINE      ECODE    ---       #667
      00FF7839H   LINE      ECODE    ---       #668
      00FF7839H   LINE      ECODE    ---       #673
      00FF783DH   LINE      ECODE    ---       #674
      00FF7844H   LINE      ECODE    ---       #678
      00FF784AH   LINE      ECODE    ---       #680
      00FF7850H   LINE      ECODE    ---       #681
      00FF7850H   LINE      ECODE    ---       #683
      00FF7853H   LINE      ECODE    ---       #684
      00FF7859H   LINE      ECODE    ---       #685
      00FF785DH   LINE      ECODE    ---       #686
      00FF7861H   LINE      ECODE    ---       #687
      00FF786EH   LINE      ECODE    ---       #688
      00FF786EH   LINE      ECODE    ---       #690
      00FF7872H   LINE      ECODE    ---       #691
      ---         BLOCKEND  ---      ---       LVL=0

      00FF7875H   BLOCK     ECODE    ---       LVL=0
      00FF7877H   BLOCK     ECODE    NEAR LAB  LVL=1
      000000DAH   SYMBOL    EDATA    ---       enables
      000000DFH   SYMBOL    EDATA    ---       timeouts
      DR12        REGSYM    ---      DWORD     budget_us
      ---         BLOCKEND  ---      ---       LVL=1
      00FF7875H   LINE      ECODE    ---       #700
      00FF7877H   LINE      ECODE    ---       #701
      00FF7877H   LINE      ECODE    ---       #706
      00FF787BH   LINE      ECODE    ---       #708
      00FF7882H   LINE      ECODE    ---       #709
      00FF788DH   LINE      ECODE    ---       #711
      00FF7893H   LINE      ECODE    ---       #713
      00FF789FH   LINE      ECODE    ---       #714
      00FF789FH   LINE      ECODE    ---       #716
      00FF78A5H   LINE      ECODE    ---       #718
      00FF78B1H   LINE      ECODE    ---       #719
      00FF78B3H   LINE      ECODE    ---       #720
L251 LINKER/LOCATER V4.66.93.0                                                        07/17/2023  21:05:08  PAGE 95


      00FF78B9H   LINE      ECODE    ---       #722
      00FF78C3H   LINE      ECODE    ---       #723
      00FF78C3H   LINE      ECODE    ---       #725
      00FF78C9H   LINE      ECODE    ---       #727
      00FF78D3H   LINE      ECODE    ---       #728
      00FF78D3H   LINE      ECODE    ---       #730
      00FF78D9H   LINE      ECODE    ---       #732
      00FF78E3H   LINE      ECODE    ---       #733
      00FF78E3H   LINE      ECODE    ---       #735
      00FF78E5H   LINE      ECODE    ---       #736
      ---         BLOCKEND  ---      ---       LVL=0

      00FF78E8H   BLOCK     ECODE    ---       LVL=0
      DR4         REGSYM    ---      FLOAT     limit_mcps
      000000DAH   SYMBOL    EDATA    ---       data_buffer
      WR6         REGSYM    ---      WORD      limit_mcps_16bit
      00FF78E8H   LINE      ECODE    ---       #749
      00FF78E8H   LINE      ECODE    ---       #750
      00FF78E8H   LINE      ECODE    ---       #752
      00FF78F6H   LINE      ECODE    ---       #756
      00FF78FCH   LINE      ECODE    ---       #757
      00FF7900H   LINE      ECODE    ---       #758
      00FF7904H   LINE      ECODE    ---       #760
      ---         BLOCKEND  ---      ---       LVL=0

      00FF7911H   BLOCK     ECODE    ---       LVL=0
      00000026H   SYMBOL    EDATA    ---       reg_databuffer
      00FF7911H   LINE      ECODE    ---       #770
      00FF7911H   LINE      ECODE    ---       #771
      00FF7911H   LINE      ECODE    ---       #774
      00FF7925H   LINE      ECODE    ---       #775
      00FF792DH   LINE      ECODE    ---       #777
      00FF792EH   LINE      ECODE    ---       #778
      00FF7930H   LINE      ECODE    ---       #782
      00FF7944H   LINE      ECODE    ---       #783
      00FF794EH   LINE      ECODE    ---       #784
      00FF795CH   LINE      ECODE    ---       #786
      00FF7967H   LINE      ECODE    ---       #787
      00FF796DH   LINE      ECODE    ---       #788
      00FF796DH   LINE      ECODE    ---       #789
      ---         BLOCKEND  ---      ---       LVL=0

      00FF796EH   BLOCK     ECODE    ---       LVL=0
      00FF7972H   BLOCK     ECODE    NEAR LAB  LVL=1
      000000C8H   SYMBOL    EDATA    DWORD     measurement_timing_budget_us
      000000CCH   SYMBOL    EDATA    BYTE      stop_variable
      R15         REGSYM    ---      BYTE      return_state
      R14         REGSYM    ---      BYTE      reg_data_buffer
      000000CDH   SYMBOL    EDATA    ---       ref_spad_map
      000000D3H   SYMBOL    EDATA    ---       data_buffer
      R13         REGSYM    ---      BYTE      i
      ---         BLOCKEND  ---      ---       LVL=1
      00FF796EH   LINE      ECODE    ---       #798
      00FF7972H   LINE      ECODE    ---       #799
      00FF7972H   LINE      ECODE    ---       #800
      00FF7972H   LINE      ECODE    ---       #801
      00FF7977H   LINE      ECODE    ---       #802
      00FF7979H   LINE      ECODE    ---       #803
      00FF7979H   LINE      ECODE    ---       #806
      00FF7979H   LINE      ECODE    ---       #808
      00FF7985H   LINE      ECODE    ---       #809
      00FF7992H   LINE      ECODE    ---       #813
      00FF7992H   LINE      ECODE    ---       #815
      00FF799AH   LINE      ECODE    ---       #816
      00FF799CH   LINE      ECODE    ---       #817
L251 LINKER/LOCATER V4.66.93.0                                                        07/17/2023  21:05:08  PAGE 96


      00FF79A4H   LINE      ECODE    ---       #818
      00FF79A6H   LINE      ECODE    ---       #819
      00FF79AEH   LINE      ECODE    ---       #822
      00FF79B8H   LINE      ECODE    ---       #823
      00FF79C5H   LINE      ECODE    ---       #825
      00FF79CFH   LINE      ECODE    ---       #827
      00FF79DAH   LINE      ECODE    ---       #828
      00FF79E5H   LINE      ECODE    ---       #829
      00FF79EEH   LINE      ECODE    ---       #831
      00FF7A02H   LINE      ECODE    ---       #833
      00FF7A0CH   LINE      ECODE    ---       #834
      00FF7A16H   LINE      ECODE    ---       #835
      00FF7A20H   LINE      ECODE    ---       #838
      00FF7A2AH   LINE      ECODE    ---       #839
      00FF7A37H   LINE      ECODE    ---       #841
      00FF7A40H   LINE      ECODE    ---       #842
      00FF7A4BH   LINE      ECODE    ---       #846
      00FF7A58H   LINE      ECODE    ---       #848
      00FF7A5BH   LINE      ECODE    ---       #853
      00FF7A67H   LINE      ECODE    ---       #854
      00FF7A6AH   LINE      ECODE    ---       #855
      00FF7A6AH   LINE      ECODE    ---       #858
      00FF7A7EH   LINE      ECODE    ---       #860
      00FF7A89H   LINE      ECODE    ---       #861
      00FF7A93H   LINE      ECODE    ---       #862
      00FF7A9EH   LINE      ECODE    ---       #863
      00FF7AA8H   LINE      ECODE    ---       #864
      00FF7AB3H   LINE      ECODE    ---       #866
      00FF7AC4H   LINE      ECODE    ---       #867
      00FF7AC6H   LINE      ECODE    ---       #869
      00FF7AD8H   LINE      ECODE    ---       #874
      00FF7B07H   LINE      ECODE    ---       #875
      00FF7B09H   LINE      ECODE    ---       #876
      00FF7B2DH   LINE      ECODE    ---       #878
      00FF7B36H   LINE      ECODE    ---       #879
      00FF7B3DH   LINE      ECODE    ---       #882
      00FF7B43H   LINE      ECODE    ---       #883
      00FF7B46H   LINE      ECODE    ---       #885
      00FF7B50H   LINE      ECODE    ---       #886
      00FF7B57H   LINE      ECODE    ---       #887
      00FF7B64H   LINE      ECODE    ---       #890
      00FF7B6FH   LINE      ECODE    ---       #891
      00FF7B78H   LINE      ECODE    ---       #892
      00FF7B82H   LINE      ECODE    ---       #893
      00FF7B8CH   LINE      ECODE    ---       #894
      00FF7B96H   LINE      ECODE    ---       #895
      00FF7BA0H   LINE      ECODE    ---       #896
      00FF7BABH   LINE      ECODE    ---       #897
      00FF7BB6H   LINE      ECODE    ---       #898
      00FF7BC0H   LINE      ECODE    ---       #899
      00FF7BCBH   LINE      ECODE    ---       #900
      00FF7BD6H   LINE      ECODE    ---       #901
      00FF7BE0H   LINE      ECODE    ---       #902
      00FF7BEBH   LINE      ECODE    ---       #903
      00FF7BF5H   LINE      ECODE    ---       #904
      00FF7C00H   LINE      ECODE    ---       #905
      00FF7C0AH   LINE      ECODE    ---       #906
      00FF7C15H   LINE      ECODE    ---       #907
      00FF7C20H   LINE      ECODE    ---       #908
      00FF7C2BH   LINE      ECODE    ---       #909
      00FF7C36H   LINE      ECODE    ---       #910
      00FF7C40H   LINE      ECODE    ---       #911
      00FF7C4AH   LINE      ECODE    ---       #912
      00FF7C55H   LINE      ECODE    ---       #913
      00FF7C5FH   LINE      ECODE    ---       #914
L251 LINKER/LOCATER V4.66.93.0                                                        07/17/2023  21:05:08  PAGE 97


      00FF7C6AH   LINE      ECODE    ---       #915
      00FF7C75H   LINE      ECODE    ---       #916
      00FF7C80H   LINE      ECODE    ---       #917
      00FF7C8AH   LINE      ECODE    ---       #918
      00FF7C94H   LINE      ECODE    ---       #919
      00FF7C9EH   LINE      ECODE    ---       #920
      00FF7CA8H   LINE      ECODE    ---       #921
      00FF7CB3H   LINE      ECODE    ---       #922
      00FF7CBEH   LINE      ECODE    ---       #923
      00FF7CC9H   LINE      ECODE    ---       #924
      00FF7CD4H   LINE      ECODE    ---       #925
      00FF7CDFH   LINE      ECODE    ---       #926
      00FF7CE9H   LINE      ECODE    ---       #927
      00FF7CF3H   LINE      ECODE    ---       #928
      00FF7CFEH   LINE      ECODE    ---       #929
      00FF7D08H   LINE      ECODE    ---       #930
      00FF7D13H   LINE      ECODE    ---       #931
      00FF7D1EH   LINE      ECODE    ---       #932
      00FF7D29H   LINE      ECODE    ---       #933
      00FF7D33H   LINE      ECODE    ---       #934
      00FF7D3EH   LINE      ECODE    ---       #935
      00FF7D49H   LINE      ECODE    ---       #936
      00FF7D54H   LINE      ECODE    ---       #937
      00FF7D5FH   LINE      ECODE    ---       #938
      00FF7D6AH   LINE      ECODE    ---       #939
      00FF7D75H   LINE      ECODE    ---       #940
      00FF7D80H   LINE      ECODE    ---       #941
      00FF7D8AH   LINE      ECODE    ---       #942
      00FF7D95H   LINE      ECODE    ---       #943
      00FF7DA0H   LINE      ECODE    ---       #944
      00FF7DABH   LINE      ECODE    ---       #945
      00FF7DB6H   LINE      ECODE    ---       #946
      00FF7DC1H   LINE      ECODE    ---       #947
      00FF7DCCH   LINE      ECODE    ---       #948
      00FF7DD7H   LINE      ECODE    ---       #949
      00FF7DE1H   LINE      ECODE    ---       #950
      00FF7DEBH   LINE      ECODE    ---       #951
      00FF7DF6H   LINE      ECODE    ---       #952
      00FF7E01H   LINE      ECODE    ---       #953
      00FF7E0CH   LINE      ECODE    ---       #954
      00FF7E16H   LINE      ECODE    ---       #955
      00FF7E21H   LINE      ECODE    ---       #956
      00FF7E2CH   LINE      ECODE    ---       #957
      00FF7E37H   LINE      ECODE    ---       #958
      00FF7E41H   LINE      ECODE    ---       #959
      00FF7E4BH   LINE      ECODE    ---       #960
      00FF7E56H   LINE      ECODE    ---       #961
      00FF7E61H   LINE      ECODE    ---       #962
      00FF7E6BH   LINE      ECODE    ---       #963
      00FF7E76H   LINE      ECODE    ---       #964
      00FF7E81H   LINE      ECODE    ---       #965
      00FF7E8CH   LINE      ECODE    ---       #966
      00FF7E97H   LINE      ECODE    ---       #967
      00FF7EA1H   LINE      ECODE    ---       #968
      00FF7EABH   LINE      ECODE    ---       #969
      00FF7EB5H   LINE      ECODE    ---       #972
      00FF7EC0H   LINE      ECODE    ---       #973
      00FF7ECAH   LINE      ECODE    ---       #974
      00FF7ED7H   LINE      ECODE    ---       #975
      00FF7EE2H   LINE      ECODE    ---       #977
      00FF7EE9H   LINE      ECODE    ---       #982
      00FF7EF4H   LINE      ECODE    ---       #983
      00FF7EFBH   LINE      ECODE    ---       #986
      00FF7F06H   LINE      ECODE    ---       #987
      00FF7F0DH   LINE      ECODE    ---       #989
L251 LINKER/LOCATER V4.66.93.0                                                        07/17/2023  21:05:08  PAGE 98


      00FF7F0DH   LINE      ECODE    ---       #990
      00FF7F0FH   LINE      ECODE    ---       #991
      00FF7F0FH   LINE      ECODE    ---       #992
      00FF7F1AH   LINE      ECODE    ---       #993
      00FF7F20H   LINE      ECODE    ---       #995
      00FF7F23H   LINE      ECODE    ---       #996
      00FF7F25H   LINE      ECODE    ---       #997
      00FF7F25H   LINE      ECODE    ---       #998
      00FF7F30H   LINE      ECODE    ---       #1000
      00FF7F38H   LINE      ECODE    ---       #1002
      00FF7F43H   LINE      ECODE    ---       #1003
      00FF7F4EH   LINE      ECODE    ---       #1004
      00FF7F57H   LINE      ECODE    ---       #1005
      00FF7F63H   LINE      ECODE    ---       #1006
      00FF7F6DH   LINE      ECODE    ---       #1007
      00FF7F77H   LINE      ECODE    ---       #1008
      00FF7F81H   LINE      ECODE    ---       #1010
      00FF7F8BH   LINE      ECODE    ---       #1011
      00FF7F8BH   LINE      ECODE    ---       #1013
      00FF7F8DH   LINE      ECODE    ---       #1014
      ---         BLOCKEND  ---      ---       LVL=0

      ---         MODULE    ---      ---       SEEKFREE_FONT
      00FF20A7H   PUBLIC    CODE     ---       oled_8x16
      00FF2697H   PUBLIC    CODE     ---       tft_ascii
      00FF2C87H   PUBLIC    CODE     ---       oled_6x8
      000000D0H   SFRSYM    DATA     BYTE      PSW
      0000009DH   SFRSYM    DATA     BYTE      IRCBAND
      00000097H   SFRSYM    DATA     BYTE      AUXR2
      000000EFH   SFRSYM    DATA     BYTE      AUXINTIF
      000000FDH   SFRSYM    DATA     BYTE      S4CON
      000000ACH   SFRSYM    DATA     BYTE      S3CON
      0000009AH   SFRSYM    DATA     BYTE      S2CON
      000000B7H   SFRSYM    DATA     BYTE      IPH
      000000CDH   SFRSYM    DATA     BYTE      SPSTAT
      000000DDH   SFRSYM    DATA     BYTE      T4T3M
      000000C1H   SFRSYM    DATA     BYTE      WDT_CONTR
      000000DFH   SFRSYM    DATA     BYTE      IP3
      000000F4H   SFRSYM    DATA     BYTE      USBCON
      000000B5H   SFRSYM    DATA     BYTE      IP2
      000000FFH   SFRSYM    DATA     BYTE      RSTCFG
      000000F9H   SFRSYM    DATA     BYTE      LINICR
      0000008EH   SFRSYM    DATA     BYTE      AUXR
      000000AFH   SFRSYM    DATA     BYTE      IE2
      00000088H   SFRSYM    DATA     BYTE      TCON
      00000098H   SFRSYM    DATA     BYTE      SCON
      000000F1H   SFRSYM    DATA     BYTE      CANICR
      00000087H   SFRSYM    DATA     BYTE      PCON
      000000BCH   SFRSYM    DATA     BYTE      ADC_CONTR
      000000E7H   SFRSYM    DATA     BYTE      CMPCR2
      000000E6H   SFRSYM    DATA     BYTE      CMPCR1
      000000B8H   SFRSYM    DATA     BYTE      IP
      0000008FH   SFRSYM    DATA     BYTE      INTCLKO
      000000EEH   SFRSYM    DATA     BYTE      IP3H
      000000B6H   SFRSYM    DATA     BYTE      IP2H
      000000A8H   SFRSYM    DATA     BYTE      IE
      000000BBH   SFRSYM    DATA     BYTE      P_SW3
      000000BAH   SFRSYM    DATA     BYTE      P_SW2
      000000A2H   SFRSYM    DATA     BYTE      P_SW1
      000000CEH   SFRSYM    DATA     BYTE      SPCTL
      000000F8H   SFRSYM    DATA     BYTE      P7
      000000E8H   SFRSYM    DATA     BYTE      P6
      000000C8H   SFRSYM    DATA     BYTE      P5
      000000C0H   SFRSYM    DATA     BYTE      P4
      000000B0H   SFRSYM    DATA     BYTE      P3
L251 LINKER/LOCATER V4.66.93.0                                                        07/17/2023  21:05:08  PAGE 99


      000000A0H   SFRSYM    DATA     BYTE      P2
      00000090H   SFRSYM    DATA     BYTE      P1
      00000080H   SFRSYM    DATA     BYTE      P0

      ---         MODULE    ---      ---       SEEKFREE_ICM20602
      00FFC928H   PUBLIC    ECODE    ---       icm20602_gyro_transition?
      00FFC93CH   PUBLIC    ECODE    ---       icm20602_init?
      00FFC896H   PUBLIC    ECODE    ---       icm20602_get_acc?
      00FFC916H   PUBLIC    ECODE    ---       icm20602_acc_transition?
      00FFC8D6H   PUBLIC    ECODE    ---       icm20602_get_gyro?
      0000075BH   PUBLIC    EDATA    INT       icm20602_acc_x
      0000075DH   PUBLIC    EDATA    INT       icm20602_acc_y
      0000075FH   PUBLIC    EDATA    INT       icm20602_acc_z
      00000761H   PUBLIC    EDATA    INT       icm20602_gyro_x
      00000763H   PUBLIC    EDATA    INT       icm20602_gyro_y
      00000765H   PUBLIC    EDATA    INT       icm20602_gyro_z
      000000D0H   SFRSYM    DATA     BYTE      PSW
      0000009DH   SFRSYM    DATA     BYTE      IRCBAND
      00000097H   SFRSYM    DATA     BYTE      AUXR2
      000000EFH   SFRSYM    DATA     BYTE      AUXINTIF
      000000FDH   SFRSYM    DATA     BYTE      S4CON
      000000ACH   SFRSYM    DATA     BYTE      S3CON
      0000009AH   SFRSYM    DATA     BYTE      S2CON
      000000B7H   SFRSYM    DATA     BYTE      IPH
      000000CDH   SFRSYM    DATA     BYTE      SPSTAT
      000000DDH   SFRSYM    DATA     BYTE      T4T3M
      000000C1H   SFRSYM    DATA     BYTE      WDT_CONTR
      000000DFH   SFRSYM    DATA     BYTE      IP3
      000000F4H   SFRSYM    DATA     BYTE      USBCON
      000000B5H   SFRSYM    DATA     BYTE      IP2
      000000FFH   SFRSYM    DATA     BYTE      RSTCFG
      000000F9H   SFRSYM    DATA     BYTE      LINICR
      0000008EH   SFRSYM    DATA     BYTE      AUXR
      000000AFH   SFRSYM    DATA     BYTE      IE2
      000000C0H.3 SFRSYM    DATA     BIT       P43
      000000C0H.2 SFRSYM    DATA     BIT       P42
      00000088H   SFRSYM    DATA     BYTE      TCON
      000000C0H.1 SFRSYM    DATA     BIT       P41
      00000098H   SFRSYM    DATA     BYTE      SCON
      000000C0H.0 SFRSYM    DATA     BIT       P40
      000000F1H   SFRSYM    DATA     BYTE      CANICR
      00000087H   SFRSYM    DATA     BYTE      PCON
      000000BCH   SFRSYM    DATA     BYTE      ADC_CONTR
      000000E7H   SFRSYM    DATA     BYTE      CMPCR2
      000000E6H   SFRSYM    DATA     BYTE      CMPCR1
      000000B8H   SFRSYM    DATA     BYTE      IP
      0000008FH   SFRSYM    DATA     BYTE      INTCLKO
      000000EEH   SFRSYM    DATA     BYTE      IP3H
      000000B6H   SFRSYM    DATA     BYTE      IP2H
      000000A8H   SFRSYM    DATA     BYTE      IE
      000000BBH   SFRSYM    DATA     BYTE      P_SW3
      000000BAH   SFRSYM    DATA     BYTE      P_SW2
      000000A2H   SFRSYM    DATA     BYTE      P_SW1
      000000CEH   SFRSYM    DATA     BYTE      SPCTL
      000000F8H   SFRSYM    DATA     BYTE      P7
      000000E8H   SFRSYM    DATA     BYTE      P6
      000000C8H   SFRSYM    DATA     BYTE      P5
      000000C0H   SFRSYM    DATA     BYTE      P4
      000000B0H   SFRSYM    DATA     BYTE      P3
      000000A0H   SFRSYM    DATA     BYTE      P2
      00000090H   SFRSYM    DATA     BYTE      P1
      00000080H   SFRSYM    DATA     BYTE      P0
      00FFC846H   SYMBOL    ECODE    ---       icm20602_read_register
      00FFC83EH   SYMBOL    ECODE    ---       icm20602_write_register
      00FFC7C4H   SYMBOL    ECODE    ---       icm20602_simspi_wr_byte
L251 LINKER/LOCATER V4.66.93.0                                                        07/17/2023  21:05:08  PAGE 100


      00FFC868H   SYMBOL    ECODE    ---       icm20602_self_check
      00FFC80EH   SYMBOL    ECODE    ---       icm20602_simspi_r_reg_bytes
      00FFC7F6H   SYMBOL    ECODE    ---       icm20602_simspi_r_reg_byte
      00FFC7E7H   SYMBOL    ECODE    ---       icm20602_simspi_w_reg_byte
      00FFC858H   SYMBOL    ECODE    ---       icm20602_read_registers

      00FFC7C4H   BLOCK     ECODE    ---       LVL=0
      R6          REGSYM    ---      BYTE      byte
      00FFC7C6H   BLOCK     ECODE    NEAR LAB  LVL=1
      R7          REGSYM    ---      BYTE      i
      ---         BLOCKEND  ---      ---       LVL=1
      00FFC7C4H   LINE      ECODE    ---       #270
      00FFC7C6H   LINE      ECODE    ---       #271
      00FFC7C6H   LINE      ECODE    ---       #274
      00FFC7C8H   LINE      ECODE    ---       #276
      00FFC7CDH   LINE      ECODE    ---       #277
      00FFC7CFH   LINE      ECODE    ---       #278
      00FFC7D1H   LINE      ECODE    ---       #279
      00FFC7D3H   LINE      ECODE    ---       #281
      00FFC7D5H   LINE      ECODE    ---       #282
      00FFC7D7H   LINE      ECODE    ---       #283
      00FFC7DDH   LINE      ECODE    ---       #284
      00FFC7E4H   LINE      ECODE    ---       #285
      00FFC7E6H   LINE      ECODE    ---       #286
      ---         BLOCKEND  ---      ---       LVL=0

      00FFC7E7H   BLOCK     ECODE    ---       LVL=0
      R7          REGSYM    ---      BYTE      cmd
      R15         REGSYM    ---      BYTE      val
      00FFC7E7H   LINE      ECODE    ---       #294
      00FFC7EBH   LINE      ECODE    ---       #297
      00FFC7EBH   LINE      ECODE    ---       #298
      00FFC7EEH   LINE      ECODE    ---       #299
      00FFC7F3H   LINE      ECODE    ---       #301
      ---         BLOCKEND  ---      ---       LVL=0

      00FFC7F6H   BLOCK     ECODE    ---       LVL=0
      R7          REGSYM    ---      BYTE      cmd
      REG=3       REGSYM    ---      ---       val
      00FFC7F6H   LINE      ECODE    ---       #332
      00FFC7FCH   LINE      ECODE    ---       #335
      00FFC7FFH   LINE      ECODE    ---       #336
      00FFC804H   LINE      ECODE    ---       #337
      00FFC80BH   LINE      ECODE    ---       #339
      ---         BLOCKEND  ---      ---       LVL=0

      00FFC80EH   BLOCK     ECODE    ---       LVL=0
      R7          REGSYM    ---      BYTE      cmd
      REG=3       REGSYM    ---      ---       val
      000007C5H   SYMBOL    EDATA    DWORD     num
      00FFC818H   BLOCK     ECODE    NEAR LAB  LVL=1
      ---         BLOCKEND  ---      ---       LVL=1
      00FFC80EH   LINE      ECODE    ---       #349
      00FFC818H   LINE      ECODE    ---       #350
      00FFC818H   LINE      ECODE    ---       #351
      00FFC818H   LINE      ECODE    ---       #352
      00FFC81BH   LINE      ECODE    ---       #353
      00FFC820H   LINE      ECODE    ---       #355
      00FFC822H   LINE      ECODE    ---       #357
      00FFC82BH   LINE      ECODE    ---       #358
      00FFC83BH   LINE      ECODE    ---       #359
      ---         BLOCKEND  ---      ---       LVL=0

      00FFC83EH   BLOCK     ECODE    ---       LVL=0
      R11         REGSYM    ---      BYTE      reg
L251 LINKER/LOCATER V4.66.93.0                                                        07/17/2023  21:05:08  PAGE 101


      R7          REGSYM    ---      BYTE      dat
      00FFC83EH   LINE      ECODE    ---       #370
      00FFC83EH   LINE      ECODE    ---       #372
      00FFC840H   LINE      ECODE    ---       #373
      00FFC843H   LINE      ECODE    ---       #374
      00FFC845H   LINE      ECODE    ---       #375
      ---         BLOCKEND  ---      ---       LVL=0

      00FFC846H   BLOCK     ECODE    ---       LVL=0
      R7          REGSYM    ---      BYTE      reg
      000007EFH   SYMBOL    EDATA    BYTE      dat
      00FFC846H   LINE      ECODE    ---       #399
      00FFC846H   LINE      ECODE    ---       #400
      00FFC846H   LINE      ECODE    ---       #402
      00FFC848H   LINE      ECODE    ---       #403
      00FFC851H   LINE      ECODE    ---       #404
      00FFC853H   LINE      ECODE    ---       #405
      00FFC857H   LINE      ECODE    ---       #406
      ---         BLOCKEND  ---      ---       LVL=0

      00FFC858H   BLOCK     ECODE    ---       LVL=0
      R3          REGSYM    ---      BYTE      reg
      REG=1       REGSYM    ---      ---       dat
      DR28        REGSYM    ---      DWORD     len
      00FFC858H   LINE      ECODE    ---       #417
      00FFC85CH   LINE      ECODE    ---       #419
      00FFC85EH   LINE      ECODE    ---       #420
      00FFC865H   LINE      ECODE    ---       #421
      00FFC867H   LINE      ECODE    ---       #422
      ---         BLOCKEND  ---      ---       LVL=0

      00FFC868H   BLOCK     ECODE    ---       LVL=0
      00FFC86AH   BLOCK     ECODE    NEAR LAB  LVL=1
      R14         REGSYM    ---      BYTE      dat
      R15         REGSYM    ---      BYTE      return_state
      WR12        REGSYM    ---      WORD      timeout_count
      ---         BLOCKEND  ---      ---       LVL=1
      00FFC868H   LINE      ECODE    ---       #434
      00FFC86AH   LINE      ECODE    ---       #435
      00FFC86AH   LINE      ECODE    ---       #436
      00FFC86CH   LINE      ECODE    ---       #437
      00FFC86EH   LINE      ECODE    ---       #439
      00FFC86EH   LINE      ECODE    ---       #441
      00FFC878H   LINE      ECODE    ---       #443
      00FFC87BH   LINE      ECODE    ---       #444
      00FFC87DH   LINE      ECODE    ---       #445
      00FFC87DH   LINE      ECODE    ---       #446
      00FFC884H   LINE      ECODE    ---       #448
      00FFC88CH   LINE      ECODE    ---       #449
      00FFC891H   LINE      ECODE    ---       #450
      00FFC893H   LINE      ECODE    ---       #451
      ---         BLOCKEND  ---      ---       LVL=0

      00FFC896H   BLOCK     ECODE    ---       LVL=0
      00FFC896H   LINE      ECODE    ---       #460
      00FFC896H   LINE      ECODE    ---       #461
      00FFC896H   LINE      ECODE    ---       #464
      00FFC8A3H   LINE      ECODE    ---       #465
      00FFC8B5H   LINE      ECODE    ---       #466
      00FFC8C5H   LINE      ECODE    ---       #467
      00FFC8D5H   LINE      ECODE    ---       #468
      ---         BLOCKEND  ---      ---       LVL=0

      00FFC8D6H   BLOCK     ECODE    ---       LVL=0
      00FFC8D6H   LINE      ECODE    ---       #477
L251 LINKER/LOCATER V4.66.93.0                                                        07/17/2023  21:05:08  PAGE 102


      00FFC8D6H   LINE      ECODE    ---       #478
      00FFC8D6H   LINE      ECODE    ---       #481
      00FFC8E3H   LINE      ECODE    ---       #482
      00FFC8F5H   LINE      ECODE    ---       #483
      00FFC905H   LINE      ECODE    ---       #484
      00FFC915H   LINE      ECODE    ---       #485
      ---         BLOCKEND  ---      ---       LVL=0

      00FFC916H   BLOCK     ECODE    ---       LVL=0
      WR8         REGSYM    ---      INT       acc_value
      DR4         REGSYM    ---      FLOAT     acc_data
      00FFC916H   LINE      ECODE    ---       #494
      00FFC916H   LINE      ECODE    ---       #495
      00FFC916H   LINE      ECODE    ---       #496
      00FFC916H   LINE      ECODE    ---       #497
      00FFC916H   LINE      ECODE    ---       #499
      00FFC916H   LINE      ECODE    ---       #500
      00FFC916H   LINE      ECODE    ---       #501
      00FFC928H   LINE      ECODE    ---       #502
      00FFC928H   LINE      ECODE    ---       #503
      00FFC928H   LINE      ECODE    ---       #504
      00FFC928H   LINE      ECODE    ---       #505
      00FFC928H   LINE      ECODE    ---       #506
      ---         BLOCKEND  ---      ---       LVL=0

      00FFC928H   BLOCK     ECODE    ---       LVL=0
      WR8         REGSYM    ---      INT       gyro_value
      DR4         REGSYM    ---      FLOAT     gyro_data
      00FFC928H   LINE      ECODE    ---       #515
      00FFC928H   LINE      ECODE    ---       #516
      00FFC928H   LINE      ECODE    ---       #517
      00FFC928H   LINE      ECODE    ---       #518
      00FFC928H   LINE      ECODE    ---       #520
      00FFC928H   LINE      ECODE    ---       #521
      00FFC928H   LINE      ECODE    ---       #522
      00FFC928H   LINE      ECODE    ---       #523
      00FFC93CH   LINE      ECODE    ---       #524
      00FFC93CH   LINE      ECODE    ---       #525
      00FFC93CH   LINE      ECODE    ---       #526
      00FFC93CH   LINE      ECODE    ---       #527
      ---         BLOCKEND  ---      ---       LVL=0

      00FFC93CH   BLOCK     ECODE    ---       LVL=0
      00FFC93EH   BLOCK     ECODE    NEAR LAB  LVL=1
      R14         REGSYM    ---      BYTE      val
      R15         REGSYM    ---      BYTE      return_state
      WR12        REGSYM    ---      WORD      timeout_count
      ---         BLOCKEND  ---      ---       LVL=1
      00FFC93CH   LINE      ECODE    ---       #536
      00FFC93EH   LINE      ECODE    ---       #537
      00FFC93EH   LINE      ECODE    ---       #538
      00FFC940H   LINE      ECODE    ---       #539
      00FFC942H   LINE      ECODE    ---       #541
      00FFC94AH   LINE      ECODE    ---       #550
      00FFC94AH   LINE      ECODE    ---       #552
      00FFC94FH   LINE      ECODE    ---       #560
      00FFC95BH   LINE      ECODE    ---       #563
      00FFC95EH   LINE      ECODE    ---       #564
      00FFC960H   LINE      ECODE    ---       #565
      00FFC960H   LINE      ECODE    ---       #567
      00FFC968H   LINE      ECODE    ---       #568
      00FFC970H   LINE      ECODE    ---       #570
      00FFC970H   LINE      ECODE    ---       #572
      00FFC977H   LINE      ECODE    ---       #573
      00FFC981H   LINE      ECODE    ---       #580
L251 LINKER/LOCATER V4.66.93.0                                                        07/17/2023  21:05:08  PAGE 103


      00FFC98DH   LINE      ECODE    ---       #583
      00FFC990H   LINE      ECODE    ---       #584
      00FFC992H   LINE      ECODE    ---       #585
      00FFC997H   LINE      ECODE    ---       #587
      00FFC99CH   LINE      ECODE    ---       #589
      00FFC99CH   LINE      ECODE    ---       #590
      00FFC99CH   LINE      ECODE    ---       #592
      00FFC9A4H   LINE      ECODE    ---       #593
      00FFC9ABH   LINE      ECODE    ---       #594
      00FFC9B3H   LINE      ECODE    ---       #595
      00FFC9BBH   LINE      ECODE    ---       #597
      00FFC9C3H   LINE      ECODE    ---       #604
      00FFC9CBH   LINE      ECODE    ---       #611
      00FFC9D3H   LINE      ECODE    ---       #614
      00FFC9D3H   LINE      ECODE    ---       #615
      00FFC9D5H   LINE      ECODE    ---       #616
      ---         BLOCKEND  ---      ---       LVL=0

      ---         MODULE    ---      ---       SEEKFREE_IMU660RA
      00FFC215H   PUBLIC    ECODE    ---       imu660ra_get_gyro?
      00FFC267H   PUBLIC    ECODE    ---       imu660ra_gyro_transition?
      00FFC27BH   PUBLIC    ECODE    ---       imu660ra_init?
      00FFC1D5H   PUBLIC    ECODE    ---       imu660ra_get_acc?
      00FFC255H   PUBLIC    ECODE    ---       imu660ra_acc_transition?
      00000767H   PUBLIC    EDATA    INT       imu660ra_acc_x
      00000769H   PUBLIC    EDATA    INT       imu660ra_acc_y
      0000076BH   PUBLIC    EDATA    INT       imu660ra_acc_z
      0000076DH   PUBLIC    EDATA    INT       imu660ra_gyro_x
      0000076FH   PUBLIC    EDATA    INT       imu660ra_gyro_y
      00000771H   PUBLIC    EDATA    INT       imu660ra_gyro_z
      000000D0H   SFRSYM    DATA     BYTE      PSW
      0000009DH   SFRSYM    DATA     BYTE      IRCBAND
      00000097H   SFRSYM    DATA     BYTE      AUXR2
      000000EFH   SFRSYM    DATA     BYTE      AUXINTIF
      000000FDH   SFRSYM    DATA     BYTE      S4CON
      000000ACH   SFRSYM    DATA     BYTE      S3CON
      0000009AH   SFRSYM    DATA     BYTE      S2CON
      000000B7H   SFRSYM    DATA     BYTE      IPH
      000000CDH   SFRSYM    DATA     BYTE      SPSTAT
      000000DDH   SFRSYM    DATA     BYTE      T4T3M
      000000C1H   SFRSYM    DATA     BYTE      WDT_CONTR
      000000DFH   SFRSYM    DATA     BYTE      IP3
      000000F4H   SFRSYM    DATA     BYTE      USBCON
      000000B5H   SFRSYM    DATA     BYTE      IP2
      000000FFH   SFRSYM    DATA     BYTE      RSTCFG
      000000F9H   SFRSYM    DATA     BYTE      LINICR
      0000008EH   SFRSYM    DATA     BYTE      AUXR
      000000AFH   SFRSYM    DATA     BYTE      IE2
      000000C0H.3 SFRSYM    DATA     BIT       P43
      000000C0H.2 SFRSYM    DATA     BIT       P42
      00000088H   SFRSYM    DATA     BYTE      TCON
      000000C0H.1 SFRSYM    DATA     BIT       P41
      00000098H   SFRSYM    DATA     BYTE      SCON
      000000C0H.0 SFRSYM    DATA     BIT       P40
      000000F1H   SFRSYM    DATA     BYTE      CANICR
      00000087H   SFRSYM    DATA     BYTE      PCON
      000000BCH   SFRSYM    DATA     BYTE      ADC_CONTR
      000000E7H   SFRSYM    DATA     BYTE      CMPCR2
      000000E6H   SFRSYM    DATA     BYTE      CMPCR1
      000000B8H   SFRSYM    DATA     BYTE      IP
      0000008FH   SFRSYM    DATA     BYTE      INTCLKO
      000000EEH   SFRSYM    DATA     BYTE      IP3H
      000000B6H   SFRSYM    DATA     BYTE      IP2H
      000000A8H   SFRSYM    DATA     BYTE      IE
      000000BBH   SFRSYM    DATA     BYTE      P_SW3
L251 LINKER/LOCATER V4.66.93.0                                                        07/17/2023  21:05:08  PAGE 104


      000000BAH   SFRSYM    DATA     BYTE      P_SW2
      000000A2H   SFRSYM    DATA     BYTE      P_SW1
      000000CEH   SFRSYM    DATA     BYTE      SPCTL
      000000F8H   SFRSYM    DATA     BYTE      P7
      000000E8H   SFRSYM    DATA     BYTE      P6
      000000C8H   SFRSYM    DATA     BYTE      P5
      000000C0H   SFRSYM    DATA     BYTE      P4
      000000B0H   SFRSYM    DATA     BYTE      P3
      000000A0H   SFRSYM    DATA     BYTE      P2
      00000090H   SFRSYM    DATA     BYTE      P1
      00000080H   SFRSYM    DATA     BYTE      P0
      00FFC182H   SYMBOL    ECODE    ---       imu660ra_read_register
      00FFC174H   SYMBOL    ECODE    ---       imu660ra_write_registers
      00FFC16CH   SYMBOL    ECODE    ---       imu660ra_write_register
      00FFC0E5H   SYMBOL    ECODE    ---       imu660ra_simspi_wr_byte
      00FFC1A8H   SYMBOL    ECODE    ---       imu660ra_self_check
      00FFC13CH   SYMBOL    ECODE    ---       imu660ra_simspi_r_reg_bytes
      00FFC117H   SYMBOL    ECODE    ---       imu660ra_simspi_w_reg_bytes
      00FFC108H   SYMBOL    ECODE    ---       imu660ra_simspi_w_reg_byte
      00FFC198H   SYMBOL    ECODE    ---       imu660ra_read_registers

      00FFC0E5H   BLOCK     ECODE    ---       LVL=0
      R6          REGSYM    ---      BYTE      byte
      00FFC0E7H   BLOCK     ECODE    NEAR LAB  LVL=1
      R7          REGSYM    ---      BYTE      i
      ---         BLOCKEND  ---      ---       LVL=1
      00FFC0E5H   LINE      ECODE    ---       #309
      00FFC0E7H   LINE      ECODE    ---       #310
      00FFC0E7H   LINE      ECODE    ---       #313
      00FFC0E9H   LINE      ECODE    ---       #315
      00FFC0EEH   LINE      ECODE    ---       #316
      00FFC0F0H   LINE      ECODE    ---       #317
      00FFC0F2H   LINE      ECODE    ---       #318
      00FFC0F4H   LINE      ECODE    ---       #319
      00FFC0F6H   LINE      ECODE    ---       #320
      00FFC0F8H   LINE      ECODE    ---       #322
      00FFC0FEH   LINE      ECODE    ---       #323
      00FFC105H   LINE      ECODE    ---       #324
      00FFC107H   LINE      ECODE    ---       #325
      ---         BLOCKEND  ---      ---       LVL=0

      00FFC108H   BLOCK     ECODE    ---       LVL=0
      R7          REGSYM    ---      BYTE      cmd
      R15         REGSYM    ---      BYTE      val
      00FFC108H   LINE      ECODE    ---       #333
      00FFC10CH   LINE      ECODE    ---       #335
      00FFC10CH   LINE      ECODE    ---       #336
      00FFC10FH   LINE      ECODE    ---       #337
      00FFC114H   LINE      ECODE    ---       #338
      ---         BLOCKEND  ---      ---       LVL=0

      00FFC117H   BLOCK     ECODE    ---       LVL=0
      R11         REGSYM    ---      BYTE      cmd
      000000C8H   SYMBOL    EDATA    ---       dat_addr
      DR12        REGSYM    ---      DWORD     len
      00FFC117H   LINE      ECODE    ---       #348
      00FFC11FH   LINE      ECODE    ---       #350
      00FFC11FH   LINE      ECODE    ---       #351
      00FFC11FH   LINE      ECODE    ---       #352
      00FFC121H   LINE      ECODE    ---       #354
      00FFC131H   LINE      ECODE    ---       #355
      00FFC139H   LINE      ECODE    ---       #356
      ---         BLOCKEND  ---      ---       LVL=0

      00FFC13CH   BLOCK     ECODE    ---       LVL=0
L251 LINKER/LOCATER V4.66.93.0                                                        07/17/2023  21:05:08  PAGE 105


      R7          REGSYM    ---      BYTE      cmd
      REG=3       REGSYM    ---      ---       val
      000000CAH   SYMBOL    EDATA    DWORD     num
      00FFC13CH   LINE      ECODE    ---       #382
      00FFC146H   LINE      ECODE    ---       #384
      00FFC149H   LINE      ECODE    ---       #385
      00FFC14EH   LINE      ECODE    ---       #387
      00FFC150H   LINE      ECODE    ---       #389
      00FFC159H   LINE      ECODE    ---       #390
      00FFC169H   LINE      ECODE    ---       #391
      ---         BLOCKEND  ---      ---       LVL=0

      00FFC16CH   BLOCK     ECODE    ---       LVL=0
      R11         REGSYM    ---      BYTE      reg
      R7          REGSYM    ---      BYTE      dat
      00FFC16CH   LINE      ECODE    ---       #402
      00FFC16CH   LINE      ECODE    ---       #404
      00FFC16EH   LINE      ECODE    ---       #405
      00FFC171H   LINE      ECODE    ---       #406
      00FFC173H   LINE      ECODE    ---       #407
      ---         BLOCKEND  ---      ---       LVL=0

      00FFC174H   BLOCK     ECODE    ---       LVL=0
      R3          REGSYM    ---      BYTE      reg
      REG=1       REGSYM    ---      ---       dat
      DR28        REGSYM    ---      DWORD     len
      00FFC174H   LINE      ECODE    ---       #417
      00FFC178H   LINE      ECODE    ---       #419
      00FFC17AH   LINE      ECODE    ---       #421
      00FFC17FH   LINE      ECODE    ---       #422
      00FFC181H   LINE      ECODE    ---       #423
      ---         BLOCKEND  ---      ---       LVL=0

      00FFC182H   BLOCK     ECODE    ---       LVL=0
      R7          REGSYM    ---      BYTE      reg
      000000C8H   SYMBOL    EDATA    ---       dat
      00FFC182H   LINE      ECODE    ---       #432
      00FFC182H   LINE      ECODE    ---       #433
      00FFC182H   LINE      ECODE    ---       #435
      00FFC184H   LINE      ECODE    ---       #436
      00FFC191H   LINE      ECODE    ---       #437
      00FFC193H   LINE      ECODE    ---       #438
      00FFC197H   LINE      ECODE    ---       #439
      ---         BLOCKEND  ---      ---       LVL=0

      00FFC198H   BLOCK     ECODE    ---       LVL=0
      R3          REGSYM    ---      BYTE      reg
      REG=1       REGSYM    ---      ---       dat
      DR28        REGSYM    ---      DWORD     len
      00FFC198H   LINE      ECODE    ---       #450
      00FFC19CH   LINE      ECODE    ---       #452
      00FFC19EH   LINE      ECODE    ---       #453
      00FFC1A5H   LINE      ECODE    ---       #454
      00FFC1A7H   LINE      ECODE    ---       #455
      ---         BLOCKEND  ---      ---       LVL=0

      00FFC1A8H   BLOCK     ECODE    ---       LVL=0
      00FFC1AAH   BLOCK     ECODE    NEAR LAB  LVL=1
      R14         REGSYM    ---      BYTE      dat
      R15         REGSYM    ---      BYTE      return_state
      WR12        REGSYM    ---      WORD      timeout_count
      ---         BLOCKEND  ---      ---       LVL=1
      00FFC1A8H   LINE      ECODE    ---       #465
      00FFC1AAH   LINE      ECODE    ---       #466
      00FFC1AAH   LINE      ECODE    ---       #467
L251 LINKER/LOCATER V4.66.93.0                                                        07/17/2023  21:05:08  PAGE 106


      00FFC1ACH   LINE      ECODE    ---       #468
      00FFC1AEH   LINE      ECODE    ---       #469
      00FFC1AEH   LINE      ECODE    ---       #471
      00FFC1B8H   LINE      ECODE    ---       #473
      00FFC1BBH   LINE      ECODE    ---       #474
      00FFC1BDH   LINE      ECODE    ---       #475
      00FFC1BDH   LINE      ECODE    ---       #476
      00FFC1C3H   LINE      ECODE    ---       #477
      00FFC1CBH   LINE      ECODE    ---       #478
      00FFC1D0H   LINE      ECODE    ---       #479
      00FFC1D2H   LINE      ECODE    ---       #480
      ---         BLOCKEND  ---      ---       LVL=0

      00FFC1D5H   BLOCK     ECODE    ---       LVL=0
      00FFC1D5H   LINE      ECODE    ---       #490
      00FFC1D5H   LINE      ECODE    ---       #491
      00FFC1D5H   LINE      ECODE    ---       #501
      00FFC1E2H   LINE      ECODE    ---       #502
      00FFC1F4H   LINE      ECODE    ---       #503
      00FFC204H   LINE      ECODE    ---       #504
      00FFC214H   LINE      ECODE    ---       #506
      ---         BLOCKEND  ---      ---       LVL=0

      00FFC215H   BLOCK     ECODE    ---       LVL=0
      0000003AH   SYMBOL    EDATA    ---       dat
      00FFC215H   LINE      ECODE    ---       #515
      00FFC215H   LINE      ECODE    ---       #516
      00FFC215H   LINE      ECODE    ---       #526
      00FFC222H   LINE      ECODE    ---       #527
      00FFC234H   LINE      ECODE    ---       #528
      00FFC244H   LINE      ECODE    ---       #529
      00FFC254H   LINE      ECODE    ---       #531
      ---         BLOCKEND  ---      ---       LVL=0

      00FFC255H   BLOCK     ECODE    ---       LVL=0
      WR8         REGSYM    ---      INT       acc_value
      DR4         REGSYM    ---      FLOAT     acc_dat
      00FFC255H   LINE      ECODE    ---       #540
      00FFC255H   LINE      ECODE    ---       #541
      00FFC255H   LINE      ECODE    ---       #542
      00FFC255H   LINE      ECODE    ---       #543
      00FFC255H   LINE      ECODE    ---       #545
      00FFC255H   LINE      ECODE    ---       #546
      00FFC255H   LINE      ECODE    ---       #547
      00FFC267H   LINE      ECODE    ---       #548
      00FFC267H   LINE      ECODE    ---       #549
      00FFC267H   LINE      ECODE    ---       #550
      00FFC267H   LINE      ECODE    ---       #551
      00FFC267H   LINE      ECODE    ---       #552
      ---         BLOCKEND  ---      ---       LVL=0

      00FFC267H   BLOCK     ECODE    ---       LVL=0
      WR8         REGSYM    ---      INT       gyro_value
      DR4         REGSYM    ---      FLOAT     gyro_dat
      00FFC267H   LINE      ECODE    ---       #561
      00FFC267H   LINE      ECODE    ---       #562
      00FFC267H   LINE      ECODE    ---       #563
      00FFC267H   LINE      ECODE    ---       #564
      00FFC267H   LINE      ECODE    ---       #566
      00FFC27BH   LINE      ECODE    ---       #567
      00FFC27BH   LINE      ECODE    ---       #568
      00FFC27BH   LINE      ECODE    ---       #569
      00FFC27BH   LINE      ECODE    ---       #570
      00FFC27BH   LINE      ECODE    ---       #571
      00FFC27BH   LINE      ECODE    ---       #572
L251 LINKER/LOCATER V4.66.93.0                                                        07/17/2023  21:05:08  PAGE 107


      00FFC27BH   LINE      ECODE    ---       #573
      00FFC27BH   LINE      ECODE    ---       #574
      ---         BLOCKEND  ---      ---       LVL=0

      00FFC27BH   BLOCK     ECODE    ---       LVL=0
      00FFC27DH   BLOCK     ECODE    NEAR LAB  LVL=1
      R15         REGSYM    ---      BYTE      return_state
      ---         BLOCKEND  ---      ---       LVL=1
      00FFC27BH   LINE      ECODE    ---       #583
      00FFC27DH   LINE      ECODE    ---       #584
      00FFC27DH   LINE      ECODE    ---       #585
      00FFC27FH   LINE      ECODE    ---       #587
      00FFC287H   LINE      ECODE    ---       #598
      00FFC287H   LINE      ECODE    ---       #599
      00FFC28CH   LINE      ECODE    ---       #604
      00FFC28CH   LINE      ECODE    ---       #606
      00FFC2A2H   LINE      ECODE    ---       #607
      00FFC2AEH   LINE      ECODE    ---       #608
      00FFC2B6H   LINE      ECODE    ---       #609
      00FFC2B8H   LINE      ECODE    ---       #612
      00FFC2B8H   LINE      ECODE    ---       #614
      00FFC2BFH   LINE      ECODE    ---       #615
      00FFC2C7H   LINE      ECODE    ---       #616
      00FFC2CEH   LINE      ECODE    ---       #617
      00FFC2DFH   LINE      ECODE    ---       #618
      00FFC2E7H   LINE      ECODE    ---       #619
      00FFC2EFH   LINE      ECODE    ---       #620
      00FFC2F6H   LINE      ECODE    ---       #627
      00FFC310H   LINE      ECODE    ---       #628
      00FFC31CH   LINE      ECODE    ---       #631
      00FFC31FH   LINE      ECODE    ---       #633
      00FFC31FH   LINE      ECODE    ---       #634
      00FFC327H   LINE      ECODE    ---       #635
      00FFC32FH   LINE      ECODE    ---       #636
      00FFC337H   LINE      ECODE    ---       #638
      00FFC33FH   LINE      ECODE    ---       #646
      00FFC346H   LINE      ECODE    ---       #653
      00FFC346H   LINE      ECODE    ---       #654
      00FFC348H   LINE      ECODE    ---       #655
      ---         BLOCKEND  ---      ---       LVL=0

      ---         MODULE    ---      ---       SEEKFREE_IMU963RA
      00FFB4AAH   PUBLIC    ECODE    ---       imu963ra_acc_transition?
      00FFB413H   PUBLIC    ECODE    ---       imu963ra_get_gyro?
      00FFB4B0H   PUBLIC    ECODE    ---       imu963ra_mag_transition?
      00FFB4ADH   PUBLIC    ECODE    ---       imu963ra_gyro_transition?
      00FFB4C4H   PUBLIC    ECODE    ---       imu963ra_init?
      00FFB3D3H   PUBLIC    ECODE    ---       imu963ra_get_acc?
      00FFB453H   PUBLIC    ECODE    ---       imu963ra_get_mag?
      00000728H   PUBLIC    EDATA    INT       imu963ra_acc_x
      0000072AH   PUBLIC    EDATA    INT       imu963ra_acc_y
      0000072CH   PUBLIC    EDATA    INT       imu963ra_acc_z
      0000072EH   PUBLIC    EDATA    INT       imu963ra_mag_x
      00000730H   PUBLIC    EDATA    INT       imu963ra_mag_y
      00000732H   PUBLIC    EDATA    INT       imu963ra_mag_z
      00000734H   PUBLIC    EDATA    INT       imu963ra_gyro_x
      00000736H   PUBLIC    EDATA    INT       imu963ra_gyro_y
      00000738H   PUBLIC    EDATA    INT       imu963ra_gyro_z
      000000D0H   SFRSYM    DATA     BYTE      PSW
      0000009DH   SFRSYM    DATA     BYTE      IRCBAND
      00000097H   SFRSYM    DATA     BYTE      AUXR2
      000000EFH   SFRSYM    DATA     BYTE      AUXINTIF
      000000FDH   SFRSYM    DATA     BYTE      S4CON
      000000ACH   SFRSYM    DATA     BYTE      S3CON
      0000009AH   SFRSYM    DATA     BYTE      S2CON
L251 LINKER/LOCATER V4.66.93.0                                                        07/17/2023  21:05:08  PAGE 108


      000000B7H   SFRSYM    DATA     BYTE      IPH
      000000CDH   SFRSYM    DATA     BYTE      SPSTAT
      000000DDH   SFRSYM    DATA     BYTE      T4T3M
      000000C1H   SFRSYM    DATA     BYTE      WDT_CONTR
      000000DFH   SFRSYM    DATA     BYTE      IP3
      000000F4H   SFRSYM    DATA     BYTE      USBCON
      000000B5H   SFRSYM    DATA     BYTE      IP2
      000000FFH   SFRSYM    DATA     BYTE      RSTCFG
      000000F9H   SFRSYM    DATA     BYTE      LINICR
      0000008EH   SFRSYM    DATA     BYTE      AUXR
      000000AFH   SFRSYM    DATA     BYTE      IE2
      000000C0H.3 SFRSYM    DATA     BIT       P43
      000000C0H.2 SFRSYM    DATA     BIT       P42
      00000088H   SFRSYM    DATA     BYTE      TCON
      000000C0H.1 SFRSYM    DATA     BIT       P41
      00000098H   SFRSYM    DATA     BYTE      SCON
      000000C0H.0 SFRSYM    DATA     BIT       P40
      000000F1H   SFRSYM    DATA     BYTE      CANICR
      00000087H   SFRSYM    DATA     BYTE      PCON
      000000BCH   SFRSYM    DATA     BYTE      ADC_CONTR
      000000E7H   SFRSYM    DATA     BYTE      CMPCR2
      000000E6H   SFRSYM    DATA     BYTE      CMPCR1
      000000B8H   SFRSYM    DATA     BYTE      IP
      0000008FH   SFRSYM    DATA     BYTE      INTCLKO
      000000EEH   SFRSYM    DATA     BYTE      IP3H
      000000B6H   SFRSYM    DATA     BYTE      IP2H
      000000A8H   SFRSYM    DATA     BYTE      IE
      000000BBH   SFRSYM    DATA     BYTE      P_SW3
      000000BAH   SFRSYM    DATA     BYTE      P_SW2
      000000A2H   SFRSYM    DATA     BYTE      P_SW1
      000000CEH   SFRSYM    DATA     BYTE      SPCTL
      000000F8H   SFRSYM    DATA     BYTE      P7
      000000E8H   SFRSYM    DATA     BYTE      P6
      000000C8H   SFRSYM    DATA     BYTE      P5
      000000C0H   SFRSYM    DATA     BYTE      P4
      000000B0H   SFRSYM    DATA     BYTE      P3
      000000A0H   SFRSYM    DATA     BYTE      P2
      00000090H   SFRSYM    DATA     BYTE      P1
      00000080H   SFRSYM    DATA     BYTE      P0
      00FFB1DEH   SYMBOL    ECODE    ---       imu963ra_simspi_wr_byte
      00FFB2F5H   SYMBOL    ECODE    ---       imu963ra_read_mag_register
      00FFB348H   SYMBOL    ECODE    ---       imu963ra_connect_mag
      00FFB283H   SYMBOL    ECODE    ---       imu963ra_read_acc_gyro_registers
      00FFB293H   SYMBOL    ECODE    ---       imu963ra_write_mag_register
      00FFB268H   SYMBOL    ECODE    ---       imu963ra_read_acc_gyro_register
      00FFB230H   SYMBOL    ECODE    ---       imu963ra_simspi_r_reg_bytes
      00FFB214H   SYMBOL    ECODE    ---       imu963ra_simspi_r_reg_byte
      00FFB3A2H   SYMBOL    ECODE    ---       imu963ra_mag_self_check
      00FFB260H   SYMBOL    ECODE    ---       imu963ra_write_acc_gyro_register
      00FFB201H   SYMBOL    ECODE    ---       imu963ra_simspi_w_reg_byte
      00FFB374H   SYMBOL    ECODE    ---       imu963ra_acc_gyro_self_check

      00FFB1DEH   BLOCK     ECODE    ---       LVL=0
      R6          REGSYM    ---      BYTE      byte
      00FFB1E0H   BLOCK     ECODE    NEAR LAB  LVL=1
      R7          REGSYM    ---      BYTE      i
      ---         BLOCKEND  ---      ---       LVL=1
      00FFB1DEH   LINE      ECODE    ---       #361
      00FFB1E0H   LINE      ECODE    ---       #362
      00FFB1E0H   LINE      ECODE    ---       #365
      00FFB1E2H   LINE      ECODE    ---       #367
      00FFB1E7H   LINE      ECODE    ---       #368
      00FFB1E9H   LINE      ECODE    ---       #369
      00FFB1EBH   LINE      ECODE    ---       #370
      00FFB1EDH   LINE      ECODE    ---       #372
L251 LINKER/LOCATER V4.66.93.0                                                        07/17/2023  21:05:08  PAGE 109


      00FFB1EFH   LINE      ECODE    ---       #373
      00FFB1F1H   LINE      ECODE    ---       #374
      00FFB1F7H   LINE      ECODE    ---       #375
      00FFB1FEH   LINE      ECODE    ---       #376
      00FFB200H   LINE      ECODE    ---       #377
      ---         BLOCKEND  ---      ---       LVL=0

      00FFB201H   BLOCK     ECODE    ---       LVL=0
      R7          REGSYM    ---      BYTE      cmd
      R15         REGSYM    ---      BYTE      val
      00FFB201H   LINE      ECODE    ---       #385
      00FFB205H   LINE      ECODE    ---       #387
      00FFB207H   LINE      ECODE    ---       #388
      00FFB207H   LINE      ECODE    ---       #389
      00FFB20AH   LINE      ECODE    ---       #390
      00FFB20FH   LINE      ECODE    ---       #391
      00FFB211H   LINE      ECODE    ---       #392
      ---         BLOCKEND  ---      ---       LVL=0

      00FFB214H   BLOCK     ECODE    ---       LVL=0
      R7          REGSYM    ---      BYTE      cmd
      REG=3       REGSYM    ---      ---       val
      00FFB214H   LINE      ECODE    ---       #423
      00FFB21AH   LINE      ECODE    ---       #425
      00FFB21CH   LINE      ECODE    ---       #426
      00FFB21FH   LINE      ECODE    ---       #427
      00FFB224H   LINE      ECODE    ---       #428
      00FFB22BH   LINE      ECODE    ---       #429
      00FFB22DH   LINE      ECODE    ---       #430
      ---         BLOCKEND  ---      ---       LVL=0

      00FFB230H   BLOCK     ECODE    ---       LVL=0
      R7          REGSYM    ---      BYTE      cmd
      REG=3       REGSYM    ---      ---       val
      000007C9H   SYMBOL    EDATA    DWORD     num
      00FFB230H   LINE      ECODE    ---       #440
      00FFB23AH   LINE      ECODE    ---       #443
      00FFB23DH   LINE      ECODE    ---       #444
      00FFB242H   LINE      ECODE    ---       #446
      00FFB244H   LINE      ECODE    ---       #448
      00FFB24DH   LINE      ECODE    ---       #449
      00FFB25DH   LINE      ECODE    ---       #450
      ---         BLOCKEND  ---      ---       LVL=0

      00FFB260H   BLOCK     ECODE    ---       LVL=0
      R11         REGSYM    ---      BYTE      reg
      R7          REGSYM    ---      BYTE      dat
      00FFB260H   LINE      ECODE    ---       #462
      00FFB260H   LINE      ECODE    ---       #464
      00FFB262H   LINE      ECODE    ---       #465
      00FFB265H   LINE      ECODE    ---       #467
      00FFB267H   LINE      ECODE    ---       #468
      ---         BLOCKEND  ---      ---       LVL=0

      00FFB268H   BLOCK     ECODE    ---       LVL=0
      R10         REGSYM    ---      BYTE      reg
      00FFB26AH   BLOCK     ECODE    NEAR LAB  LVL=1
      000007F0H   SYMBOL    EDATA    BYTE      dat
      ---         BLOCKEND  ---      ---       LVL=1
      00FFB268H   LINE      ECODE    ---       #477
      00FFB26AH   LINE      ECODE    ---       #478
      00FFB26AH   LINE      ECODE    ---       #479
      00FFB26FH   LINE      ECODE    ---       #480
      00FFB271H   LINE      ECODE    ---       #481
      00FFB27CH   LINE      ECODE    ---       #482
L251 LINKER/LOCATER V4.66.93.0                                                        07/17/2023  21:05:08  PAGE 110


      00FFB27EH   LINE      ECODE    ---       #483
      00FFB282H   LINE      ECODE    ---       #484
      ---         BLOCKEND  ---      ---       LVL=0

      00FFB283H   BLOCK     ECODE    ---       LVL=0
      R3          REGSYM    ---      BYTE      reg
      REG=1       REGSYM    ---      ---       dat
      DR28        REGSYM    ---      DWORD     len
      00FFB283H   LINE      ECODE    ---       #495
      00FFB287H   LINE      ECODE    ---       #497
      00FFB289H   LINE      ECODE    ---       #498
      00FFB290H   LINE      ECODE    ---       #500
      00FFB292H   LINE      ECODE    ---       #501
      ---         BLOCKEND  ---      ---       LVL=0

      00FFB293H   BLOCK     ECODE    ---       LVL=0
      R15         REGSYM    ---      BYTE      addr
      R13         REGSYM    ---      BYTE      reg
      R14         REGSYM    ---      BYTE      dat
      00FFB29BH   BLOCK     ECODE    NEAR LAB  LVL=1
      R12         REGSYM    ---      BYTE      return_state
      000007E9H   SYMBOL    EDATA    WORD      timeout_count
      ---         BLOCKEND  ---      ---       LVL=1
      00FFB293H   LINE      ECODE    ---       #513
      00FFB29BH   LINE      ECODE    ---       #514
      00FFB29BH   LINE      ECODE    ---       #515
      00FFB29DH   LINE      ECODE    ---       #516
      00FFB2A3H   LINE      ECODE    ---       #518
      00FFB2A5H   LINE      ECODE    ---       #519
      00FFB2AAH   LINE      ECODE    ---       #520
      00FFB2B1H   LINE      ECODE    ---       #521
      00FFB2B8H   LINE      ECODE    ---       #522
      00FFB2BFH   LINE      ECODE    ---       #523
      00FFB2C7H   LINE      ECODE    ---       #526
      00FFB2C9H   LINE      ECODE    ---       #528
      00FFB2DBH   LINE      ECODE    ---       #530
      00FFB2DEH   LINE      ECODE    ---       #531
      00FFB2E0H   LINE      ECODE    ---       #532
      00FFB2E0H   LINE      ECODE    ---       #533
      00FFB2E8H   LINE      ECODE    ---       #534
      00FFB2F0H   LINE      ECODE    ---       #535
      00FFB2F2H   LINE      ECODE    ---       #536
      ---         BLOCKEND  ---      ---       LVL=0

      00FFB2F5H   BLOCK     ECODE    ---       LVL=0
      R10         REGSYM    ---      BYTE      addr
      R15         REGSYM    ---      BYTE      reg
      00FFB2FDH   BLOCK     ECODE    NEAR LAB  LVL=1
      WR12        REGSYM    ---      WORD      timeout_count
      ---         BLOCKEND  ---      ---       LVL=1
      00FFB2F5H   LINE      ECODE    ---       #546
      00FFB2FDH   LINE      ECODE    ---       #547
      00FFB2FDH   LINE      ECODE    ---       #548
      00FFB2FFH   LINE      ECODE    ---       #550
      00FFB301H   LINE      ECODE    ---       #551
      00FFB30BH   LINE      ECODE    ---       #552
      00FFB312H   LINE      ECODE    ---       #553
      00FFB31AH   LINE      ECODE    ---       #554
      00FFB322H   LINE      ECODE    ---       #557
      00FFB324H   LINE      ECODE    ---       #559
      00FFB32EH   LINE      ECODE    ---       #561
      00FFB32EH   LINE      ECODE    ---       #562
      00FFB32EH   LINE      ECODE    ---       #563
      00FFB336H   LINE      ECODE    ---       #564
      00FFB33EH   LINE      ECODE    ---       #566
L251 LINKER/LOCATER V4.66.93.0                                                        07/17/2023  21:05:08  PAGE 111


      00FFB343H   LINE      ECODE    ---       #567
      ---         BLOCKEND  ---      ---       LVL=0

      00FFB348H   BLOCK     ECODE    ---       LVL=0
      R10         REGSYM    ---      BYTE      addr
      R15         REGSYM    ---      BYTE      reg
      00FFB348H   LINE      ECODE    ---       #577
      00FFB34EH   LINE      ECODE    ---       #579
      00FFB350H   LINE      ECODE    ---       #581
      00FFB35AH   LINE      ECODE    ---       #582
      00FFB361H   LINE      ECODE    ---       #583
      00FFB369H   LINE      ECODE    ---       #584
      00FFB371H   LINE      ECODE    ---       #585
      ---         BLOCKEND  ---      ---       LVL=0

      00FFB374H   BLOCK     ECODE    ---       LVL=0
      00FFB376H   BLOCK     ECODE    NEAR LAB  LVL=1
      R15         REGSYM    ---      BYTE      return_state
      R14         REGSYM    ---      BYTE      dat
      WR12        REGSYM    ---      WORD      timeout_count
      ---         BLOCKEND  ---      ---       LVL=1
      00FFB374H   LINE      ECODE    ---       #595
      00FFB376H   LINE      ECODE    ---       #596
      00FFB376H   LINE      ECODE    ---       #597
      00FFB378H   LINE      ECODE    ---       #598
      00FFB378H   LINE      ECODE    ---       #599
      00FFB37AH   LINE      ECODE    ---       #601
      00FFB37AH   LINE      ECODE    ---       #603
      00FFB384H   LINE      ECODE    ---       #605
      00FFB387H   LINE      ECODE    ---       #606
      00FFB389H   LINE      ECODE    ---       #607
      00FFB389H   LINE      ECODE    ---       #608
      00FFB390H   LINE      ECODE    ---       #609
      00FFB398H   LINE      ECODE    ---       #610
      00FFB39DH   LINE      ECODE    ---       #611
      00FFB39FH   LINE      ECODE    ---       #612
      ---         BLOCKEND  ---      ---       LVL=0

      00FFB3A2H   BLOCK     ECODE    ---       LVL=0
      00FFB3A4H   BLOCK     ECODE    NEAR LAB  LVL=1
      R15         REGSYM    ---      BYTE      return_state
      R14         REGSYM    ---      BYTE      dat
      WR12        REGSYM    ---      WORD      timeout_count
      ---         BLOCKEND  ---      ---       LVL=1
      00FFB3A2H   LINE      ECODE    ---       #621
      00FFB3A4H   LINE      ECODE    ---       #622
      00FFB3A4H   LINE      ECODE    ---       #623
      00FFB3A6H   LINE      ECODE    ---       #624
      00FFB3A6H   LINE      ECODE    ---       #625
      00FFB3A8H   LINE      ECODE    ---       #627
      00FFB3A8H   LINE      ECODE    ---       #629
      00FFB3B2H   LINE      ECODE    ---       #631
      00FFB3B5H   LINE      ECODE    ---       #632
      00FFB3B7H   LINE      ECODE    ---       #633
      00FFB3B7H   LINE      ECODE    ---       #634
      00FFB3C1H   LINE      ECODE    ---       #635
      00FFB3C9H   LINE      ECODE    ---       #636
      00FFB3CEH   LINE      ECODE    ---       #637
      00FFB3D0H   LINE      ECODE    ---       #638
      ---         BLOCKEND  ---      ---       LVL=0

      00FFB3D3H   BLOCK     ECODE    ---       LVL=0
      00FFB3D3H   LINE      ECODE    ---       #647
      00FFB3D3H   LINE      ECODE    ---       #648
      00FFB3D3H   LINE      ECODE    ---       #651
L251 LINKER/LOCATER V4.66.93.0                                                        07/17/2023  21:05:08  PAGE 112


      00FFB3E0H   LINE      ECODE    ---       #652
      00FFB3F2H   LINE      ECODE    ---       #653
      00FFB402H   LINE      ECODE    ---       #654
      00FFB412H   LINE      ECODE    ---       #655
      ---         BLOCKEND  ---      ---       LVL=0

      00FFB413H   BLOCK     ECODE    ---       LVL=0
      00FFB413H   LINE      ECODE    ---       #665
      00FFB413H   LINE      ECODE    ---       #666
      00FFB413H   LINE      ECODE    ---       #669
      00FFB420H   LINE      ECODE    ---       #670
      00FFB432H   LINE      ECODE    ---       #671
      00FFB442H   LINE      ECODE    ---       #672
      00FFB452H   LINE      ECODE    ---       #673
      ---         BLOCKEND  ---      ---       LVL=0

      00FFB453H   BLOCK     ECODE    ---       LVL=0
      R11         REGSYM    ---      BYTE      temp_status
      00FFB453H   LINE      ECODE    ---       #683
      00FFB453H   LINE      ECODE    ---       #684
      00FFB453H   LINE      ECODE    ---       #688
      00FFB45BH   LINE      ECODE    ---       #689
      00FFB460H   LINE      ECODE    ---       #690
      00FFB463H   LINE      ECODE    ---       #692
      00FFB470H   LINE      ECODE    ---       #693
      00FFB482H   LINE      ECODE    ---       #694
      00FFB492H   LINE      ECODE    ---       #695
      00FFB4A2H   LINE      ECODE    ---       #696
      00FFB4A2H   LINE      ECODE    ---       #697
      00FFB4A9H   LINE      ECODE    ---       #698
      ---         BLOCKEND  ---      ---       LVL=0

      00FFB4AAH   BLOCK     ECODE    ---       LVL=0
      00FFB4AAH   LINE      ECODE    ---       #707
      00FFB4AAH   LINE      ECODE    ---       #708
      00FFB4AAH   LINE      ECODE    ---       #709
      00FFB4AAH   LINE      ECODE    ---       #710
      00FFB4AAH   LINE      ECODE    ---       #712
      00FFB4AAH   LINE      ECODE    ---       #713
      00FFB4AAH   LINE      ECODE    ---       #714
      00FFB4AAH   LINE      ECODE    ---       #715
      00FFB4AAH   LINE      ECODE    ---       #716
      00FFB4AAH   LINE      ECODE    ---       #717
      00FFB4AAH   LINE      ECODE    ---       #718
      00FFB4ACH   LINE      ECODE    ---       #719
      ---         BLOCKEND  ---      ---       LVL=0

      00FFB4ADH   BLOCK     ECODE    ---       LVL=0
      00FFB4ADH   LINE      ECODE    ---       #728
      00FFB4ADH   LINE      ECODE    ---       #729
      00FFB4ADH   LINE      ECODE    ---       #730
      00FFB4ADH   LINE      ECODE    ---       #731
      00FFB4ADH   LINE      ECODE    ---       #733
      00FFB4ADH   LINE      ECODE    ---       #734
      00FFB4ADH   LINE      ECODE    ---       #735
      00FFB4ADH   LINE      ECODE    ---       #736
      00FFB4ADH   LINE      ECODE    ---       #737
      00FFB4ADH   LINE      ECODE    ---       #738
      00FFB4ADH   LINE      ECODE    ---       #739
      00FFB4ADH   LINE      ECODE    ---       #740
      00FFB4ADH   LINE      ECODE    ---       #741
      00FFB4AFH   LINE      ECODE    ---       #742
      ---         BLOCKEND  ---      ---       LVL=0

      00FFB4B0H   BLOCK     ECODE    ---       LVL=0
L251 LINKER/LOCATER V4.66.93.0                                                        07/17/2023  21:05:08  PAGE 113


      WR8         REGSYM    ---      INT       mag_value
      DR4         REGSYM    ---      FLOAT     mag_dat
      00FFB4B0H   LINE      ECODE    ---       #751
      00FFB4B0H   LINE      ECODE    ---       #752
      00FFB4B0H   LINE      ECODE    ---       #753
      00FFB4B0H   LINE      ECODE    ---       #754
      00FFB4B0H   LINE      ECODE    ---       #756
      00FFB4C4H   LINE      ECODE    ---       #757
      00FFB4C4H   LINE      ECODE    ---       #758
      00FFB4C4H   LINE      ECODE    ---       #759
      00FFB4C4H   LINE      ECODE    ---       #760
      00FFB4C4H   LINE      ECODE    ---       #761
      ---         BLOCKEND  ---      ---       LVL=0

      00FFB4C4H   BLOCK     ECODE    ---       LVL=0
      00FFB4C6H   BLOCK     ECODE    NEAR LAB  LVL=1
      R15         REGSYM    ---      BYTE      return_state
      ---         BLOCKEND  ---      ---       LVL=1
      00FFB4C4H   LINE      ECODE    ---       #770
      00FFB4C6H   LINE      ECODE    ---       #771
      00FFB4C6H   LINE      ECODE    ---       #772
      00FFB4C8H   LINE      ECODE    ---       #773
      00FFB4D0H   LINE      ECODE    ---       #782
      00FFB4D0H   LINE      ECODE    ---       #784
      00FFB4D7H   LINE      ECODE    ---       #785
      00FFB4DFH   LINE      ECODE    ---       #786
      00FFB4E7H   LINE      ECODE    ---       #787
      00FFB4EEH   LINE      ECODE    ---       #788
      00FFB4F3H   LINE      ECODE    ---       #792
      00FFB4FBH   LINE      ECODE    ---       #797
      00FFB4FBH   LINE      ECODE    ---       #798
      00FFB4FEH   LINE      ECODE    ---       #799
      00FFB4FEH   LINE      ECODE    ---       #801
      00FFB506H   LINE      ECODE    ---       #802
      00FFB50EH   LINE      ECODE    ---       #809
      00FFB516H   LINE      ECODE    ---       #818
      00FFB51EH   LINE      ECODE    ---       #819
      00FFB526H   LINE      ECODE    ---       #820
      00FFB52DH   LINE      ECODE    ---       #821
      00FFB534H   LINE      ECODE    ---       #822
      00FFB53BH   LINE      ECODE    ---       #823
      00FFB543H   LINE      ECODE    ---       #825
      00FFB54BH   LINE      ECODE    ---       #826
      00FFB553H   LINE      ECODE    ---       #827
      00FFB55BH   LINE      ECODE    ---       #828
      00FFB562H   LINE      ECODE    ---       #829
      00FFB56AH   LINE      ECODE    ---       #831
      00FFB575H   LINE      ECODE    ---       #832
      00FFB57DH   LINE      ECODE    ---       #833
      00FFB587H   LINE      ECODE    ---       #834
      00FFB58FH   LINE      ECODE    ---       #837
      00FFB594H   LINE      ECODE    ---       #841
      00FFB5A0H   LINE      ECODE    ---       #846
      00FFB5A3H   LINE      ECODE    ---       #847
      00FFB5A5H   LINE      ECODE    ---       #848
      00FFB5A5H   LINE      ECODE    ---       #850
      00FFB5B0H   LINE      ECODE    ---       #855
      00FFB5BBH   LINE      ECODE    ---       #856
      00FFB5C2H   LINE      ECODE    ---       #858
      00FFB5C9H   LINE      ECODE    ---       #860
      00FFB5D1H   LINE      ECODE    ---       #861
      00FFB5D1H   LINE      ECODE    ---       #862
      00FFB5D3H   LINE      ECODE    ---       #863
      ---         BLOCKEND  ---      ---       LVL=0

L251 LINKER/LOCATER V4.66.93.0                                                        07/17/2023  21:05:08  PAGE 114


      ---         MODULE    ---      ---       SEEKFREE_IPS114_SPI
      00FF665DH   PUBLIC    ECODE    ---       ips114_showuint8_simspi?
      00FF6DEEH   PUBLIC    ECODE    ---       ips114_showuint8?
      00FF659DH   PUBLIC    ECODE    ---       ips114_showint8_simspi?
      00FF6D32H   PUBLIC    ECODE    ---       ips114_showint8?
      00FF69E7H   PUBLIC    ECODE    ---       ips114_writedata_16bit?
      00FF68D4H   PUBLIC    ECODE    ---       ips114_showfloat_simspi?
      00FF64ACH   PUBLIC    ECODE    ---       ips114_drawpoint_simspi?
      00FF705DH   PUBLIC    ECODE    ---       ips114_showfloat?
      00FF6C41H   PUBLIC    ECODE    ---       ips114_drawpoint?
      00FF64C1H   PUBLIC    ECODE    ---       ips114_showchar_simspi?
      00FF6C56H   PUBLIC    ECODE    ---       ips114_showchar?
      00FF67C3H   PUBLIC    ECODE    ---       ips114_showuint16_simspi?
      00FF6F4CH   PUBLIC    ECODE    ---       ips114_showuint16?
      00FF684FH   PUBLIC    ECODE    ---       ips114_showint32_simspi?
      00FF66DBH   PUBLIC    ECODE    ---       ips114_showint16_simspi?
      00FF6FD8H   PUBLIC    ECODE    ---       ips114_showint32?
      00FF6E68H   PUBLIC    ECODE    ---       ips114_showint16?
      00FF646EH   PUBLIC    ECODE    ---       ips114_clear_simspi?
      00FF6C03H   PUBLIC    ECODE    ---       ips114_clear?
      00FF626AH   PUBLIC    ECODE    ---       ips114_writeDatai_16bit_simspi?
      00FF654EH   PUBLIC    ECODE    ---       ips114_showstr_simspi?
      00FF6CE3H   PUBLIC    ECODE    ---       ips114_showstr?
      00FF6218H   PUBLIC    ECODE    ---       ips114_writeIndex_simspi?
      00FF6241H   PUBLIC    ECODE    ---       ips114_writeData_simspi?
      00FF69D1H   PUBLIC    ECODE    ---       ips114_writeIndex?
      00FF69DCH   PUBLIC    ECODE    ---       ips114_writeData?
      00FF6423H   PUBLIC    ECODE    ---       ips114_set_region_simspi?
      00FF6296H   PUBLIC    ECODE    ---       ips114_init_simspi?
      00FF6BB4H   PUBLIC    ECODE    ---       ips114_set_region?
      00FF6A08H   PUBLIC    ECODE    ---       ips114_init?
      000000D0H   SFRSYM    DATA     BYTE      PSW
      0000009DH   SFRSYM    DATA     BYTE      IRCBAND
      00000097H   SFRSYM    DATA     BYTE      AUXR2
      000000EFH   SFRSYM    DATA     BYTE      AUXINTIF
      000000FDH   SFRSYM    DATA     BYTE      S4CON
      000000ACH   SFRSYM    DATA     BYTE      S3CON
      0000009AH   SFRSYM    DATA     BYTE      S2CON
      000000B7H   SFRSYM    DATA     BYTE      IPH
      000000CDH   SFRSYM    DATA     BYTE      SPSTAT
      000000DDH   SFRSYM    DATA     BYTE      T4T3M
      000000C1H   SFRSYM    DATA     BYTE      WDT_CONTR
      000000DFH   SFRSYM    DATA     BYTE      IP3
      000000F4H   SFRSYM    DATA     BYTE      USBCON
      000000B5H   SFRSYM    DATA     BYTE      IP2
      000000FFH   SFRSYM    DATA     BYTE      RSTCFG
      000000F9H   SFRSYM    DATA     BYTE      LINICR
      0000008EH   SFRSYM    DATA     BYTE      AUXR
      000000AFH   SFRSYM    DATA     BYTE      IE2
      000000E8H.7 SFRSYM    DATA     BIT       P67
      000000C0H.7 SFRSYM    DATA     BIT       P47
      000000E8H.5 SFRSYM    DATA     BIT       P65
      000000A0H.7 SFRSYM    DATA     BIT       P27
      000000E8H.3 SFRSYM    DATA     BIT       P63
      000000F8H.1 SFRSYM    DATA     BIT       P71
      000000E8H.1 SFRSYM    DATA     BIT       P61
      00000088H   SFRSYM    DATA     BYTE      TCON
      00000098H   SFRSYM    DATA     BYTE      SCON
      000000A0H.2 SFRSYM    DATA     BIT       P22
      000000A0H.1 SFRSYM    DATA     BIT       P21
      000000A0H.0 SFRSYM    DATA     BIT       P20
      000000F1H   SFRSYM    DATA     BYTE      CANICR
      00000087H   SFRSYM    DATA     BYTE      PCON
      000000BCH   SFRSYM    DATA     BYTE      ADC_CONTR
      000000E7H   SFRSYM    DATA     BYTE      CMPCR2
L251 LINKER/LOCATER V4.66.93.0                                                        07/17/2023  21:05:08  PAGE 115


      000000E6H   SFRSYM    DATA     BYTE      CMPCR1
      000000B8H   SFRSYM    DATA     BYTE      IP
      0000008FH   SFRSYM    DATA     BYTE      INTCLKO
      000000EEH   SFRSYM    DATA     BYTE      IP3H
      000000B6H   SFRSYM    DATA     BYTE      IP2H
      000000A8H   SFRSYM    DATA     BYTE      IE
      000000BBH   SFRSYM    DATA     BYTE      P_SW3
      000000BAH   SFRSYM    DATA     BYTE      P_SW2
      000000A2H   SFRSYM    DATA     BYTE      P_SW1
      000000CEH   SFRSYM    DATA     BYTE      SPCTL
      000000F8H   SFRSYM    DATA     BYTE      P7
      000000E8H   SFRSYM    DATA     BYTE      P6
      000000C8H   SFRSYM    DATA     BYTE      P5
      000000C0H   SFRSYM    DATA     BYTE      P4
      000000B0H   SFRSYM    DATA     BYTE      P3
      000000A0H   SFRSYM    DATA     BYTE      P2
      00000090H   SFRSYM    DATA     BYTE      P1
      00000080H   SFRSYM    DATA     BYTE      P0

      00FF6218H   BLOCK     ECODE    ---       LVL=0
      R7          REGSYM    ---      BYTE      dat
      00FF621AH   BLOCK     ECODE    NEAR LAB  LVL=1
      R6          REGSYM    ---      BYTE      i
      ---         BLOCKEND  ---      ---       LVL=1
      00FF6218H   LINE      ECODE    ---       #61
      00FF621AH   LINE      ECODE    ---       #62
      00FF621AH   LINE      ECODE    ---       #63
      00FF621DH   LINE      ECODE    ---       #64
      00FF621FH   LINE      ECODE    ---       #65
      00FF6221H   LINE      ECODE    ---       #67
      00FF6223H   LINE      ECODE    ---       #69
      00FF6225H   LINE      ECODE    ---       #71
      00FF622EH   LINE      ECODE    ---       #72
      00FF6230H   LINE      ECODE    ---       #73
      00FF6232H   LINE      ECODE    ---       #75
      00FF6234H   LINE      ECODE    ---       #76
      00FF6236H   LINE      ECODE    ---       #77
      00FF623EH   LINE      ECODE    ---       #78
      00FF6240H   LINE      ECODE    ---       #79
      ---         BLOCKEND  ---      ---       LVL=0

      00FF6241H   BLOCK     ECODE    ---       LVL=0
      R7          REGSYM    ---      BYTE      dat
      00FF6243H   BLOCK     ECODE    NEAR LAB  LVL=1
      R6          REGSYM    ---      BYTE      i
      ---         BLOCKEND  ---      ---       LVL=1
      00FF6241H   LINE      ECODE    ---       #88
      00FF6243H   LINE      ECODE    ---       #89
      00FF6243H   LINE      ECODE    ---       #90
      00FF6246H   LINE      ECODE    ---       #91
      00FF6248H   LINE      ECODE    ---       #92
      00FF624AH   LINE      ECODE    ---       #94
      00FF624CH   LINE      ECODE    ---       #96
      00FF624EH   LINE      ECODE    ---       #98
      00FF6257H   LINE      ECODE    ---       #99
      00FF6259H   LINE      ECODE    ---       #100
      00FF625BH   LINE      ECODE    ---       #102
      00FF625DH   LINE      ECODE    ---       #103
      00FF625FH   LINE      ECODE    ---       #104
      00FF6267H   LINE      ECODE    ---       #105
      00FF6269H   LINE      ECODE    ---       #106
      ---         BLOCKEND  ---      ---       LVL=0

      00FF626AH   BLOCK     ECODE    ---       LVL=0
      WR4         REGSYM    ---      WORD      dat
L251 LINKER/LOCATER V4.66.93.0                                                        07/17/2023  21:05:08  PAGE 116


      00FF626CH   BLOCK     ECODE    NEAR LAB  LVL=1
      R10         REGSYM    ---      BYTE      i
      ---         BLOCKEND  ---      ---       LVL=1
      00FF626AH   LINE      ECODE    ---       #115
      00FF626CH   LINE      ECODE    ---       #116
      00FF626CH   LINE      ECODE    ---       #117
      00FF626FH   LINE      ECODE    ---       #118
      00FF6271H   LINE      ECODE    ---       #119
      00FF6273H   LINE      ECODE    ---       #120
      00FF6275H   LINE      ECODE    ---       #121
      00FF6277H   LINE      ECODE    ---       #123
      00FF6283H   LINE      ECODE    ---       #124
      00FF6285H   LINE      ECODE    ---       #125
      00FF6287H   LINE      ECODE    ---       #127
      00FF6289H   LINE      ECODE    ---       #128
      00FF628BH   LINE      ECODE    ---       #129
      00FF6293H   LINE      ECODE    ---       #130
      00FF6295H   LINE      ECODE    ---       #131
      ---         BLOCKEND  ---      ---       LVL=0

      00FF6296H   BLOCK     ECODE    ---       LVL=0
      00FF6296H   LINE      ECODE    ---       #139
      00FF6296H   LINE      ECODE    ---       #142
      00FF6298H   LINE      ECODE    ---       #143
      00FF629AH   LINE      ECODE    ---       #144
      00FF629CH   LINE      ECODE    ---       #146
      00FF62A4H   LINE      ECODE    ---       #148
      00FF62A6H   LINE      ECODE    ---       #149
      00FF62AEH   LINE      ECODE    ---       #151
      00FF62B4H   LINE      ECODE    ---       #160
      00FF62BAH   LINE      ECODE    ---       #162
      00FF62C0H   LINE      ECODE    ---       #163
      00FF62C6H   LINE      ECODE    ---       #165
      00FF62CCH   LINE      ECODE    ---       #166
      00FF62D2H   LINE      ECODE    ---       #167
      00FF62D8H   LINE      ECODE    ---       #168
      00FF62DDH   LINE      ECODE    ---       #169
      00FF62E3H   LINE      ECODE    ---       #170
      00FF62E9H   LINE      ECODE    ---       #172
      00FF62EFH   LINE      ECODE    ---       #173
      00FF62F5H   LINE      ECODE    ---       #175
      00FF62FBH   LINE      ECODE    ---       #176
      00FF6301H   LINE      ECODE    ---       #178
      00FF6307H   LINE      ECODE    ---       #179
      00FF630DH   LINE      ECODE    ---       #181
      00FF6313H   LINE      ECODE    ---       #182
      00FF6319H   LINE      ECODE    ---       #184
      00FF631FH   LINE      ECODE    ---       #185
      00FF6325H   LINE      ECODE    ---       #187
      00FF632BH   LINE      ECODE    ---       #188
      00FF6331H   LINE      ECODE    ---       #190
      00FF6337H   LINE      ECODE    ---       #191
      00FF633DH   LINE      ECODE    ---       #193
      00FF6343H   LINE      ECODE    ---       #194
      00FF6349H   LINE      ECODE    ---       #195
      00FF634FH   LINE      ECODE    ---       #197
      00FF6355H   LINE      ECODE    ---       #198
      00FF635BH   LINE      ECODE    ---       #199
      00FF6361H   LINE      ECODE    ---       #200
      00FF6367H   LINE      ECODE    ---       #201
      00FF636DH   LINE      ECODE    ---       #202
      00FF6373H   LINE      ECODE    ---       #203
      00FF6379H   LINE      ECODE    ---       #204
      00FF637FH   LINE      ECODE    ---       #205
      00FF6385H   LINE      ECODE    ---       #206
L251 LINKER/LOCATER V4.66.93.0                                                        07/17/2023  21:05:08  PAGE 117


      00FF638BH   LINE      ECODE    ---       #207
      00FF6391H   LINE      ECODE    ---       #208
      00FF6397H   LINE      ECODE    ---       #209
      00FF639DH   LINE      ECODE    ---       #210
      00FF63A3H   LINE      ECODE    ---       #211
      00FF63A9H   LINE      ECODE    ---       #213
      00FF63AFH   LINE      ECODE    ---       #214
      00FF63B5H   LINE      ECODE    ---       #215
      00FF63BBH   LINE      ECODE    ---       #216
      00FF63C1H   LINE      ECODE    ---       #217
      00FF63C7H   LINE      ECODE    ---       #218
      00FF63CDH   LINE      ECODE    ---       #219
      00FF63D3H   LINE      ECODE    ---       #220
      00FF63D9H   LINE      ECODE    ---       #221
      00FF63DFH   LINE      ECODE    ---       #222
      00FF63E5H   LINE      ECODE    ---       #223
      00FF63EBH   LINE      ECODE    ---       #224
      00FF63F1H   LINE      ECODE    ---       #225
      00FF63F7H   LINE      ECODE    ---       #226
      00FF63FDH   LINE      ECODE    ---       #227
      00FF6403H   LINE      ECODE    ---       #229
      00FF6409H   LINE      ECODE    ---       #231
      00FF640FH   LINE      ECODE    ---       #232
      00FF6417H   LINE      ECODE    ---       #234
      00FF641DH   LINE      ECODE    ---       #235
      ---         BLOCKEND  ---      ---       LVL=0

      00FF6423H   BLOCK     ECODE    ---       LVL=0
      000007CDH   SYMBOL    EDATA    WORD      x1
      000007CFH   SYMBOL    EDATA    WORD      y1
      WR12        REGSYM    ---      WORD      x2
      WR14        REGSYM    ---      WORD      y2
      00FF6423H   LINE      ECODE    ---       #240
      00FF642DH   LINE      ECODE    ---       #274
      00FF6433H   LINE      ECODE    ---       #275
      00FF643FH   LINE      ECODE    ---       #276
      00FF6449H   LINE      ECODE    ---       #277
      00FF644FH   LINE      ECODE    ---       #278
      00FF645BH   LINE      ECODE    ---       #279
      00FF6465H   LINE      ECODE    ---       #280
      00FF646BH   LINE      ECODE    ---       #283
      ---         BLOCKEND  ---      ---       LVL=0

      00FF646EH   BLOCK     ECODE    ---       LVL=0
      WR14        REGSYM    ---      WORD      color
      00FF6474H   BLOCK     ECODE    NEAR LAB  LVL=1
      R13         REGSYM    ---      BYTE      i
      ---         BLOCKEND  ---      ---       LVL=1
      00FF646EH   LINE      ECODE    ---       #292
      00FF6474H   LINE      ECODE    ---       #293
      00FF6474H   LINE      ECODE    ---       #295
      00FF6484H   LINE      ECODE    ---       #296
      00FF6487H   LINE      ECODE    ---       #298
      00FF648DH   LINE      ECODE    ---       #300
      00FF6493H   LINE      ECODE    ---       #301
      00FF64A3H   LINE      ECODE    ---       #302
      00FF64A7H   LINE      ECODE    ---       #303
      ---         BLOCKEND  ---      ---       LVL=0

      00FF64ACH   BLOCK     ECODE    ---       LVL=0
      WR2         REGSYM    ---      WORD      x
      WR0         REGSYM    ---      WORD      y
      WR14        REGSYM    ---      WORD      color
      00FF64ACH   LINE      ECODE    ---       #314
      00FF64B4H   LINE      ECODE    ---       #316
L251 LINKER/LOCATER V4.66.93.0                                                        07/17/2023  21:05:08  PAGE 118


      00FF64B8H   LINE      ECODE    ---       #317
      00FF64BEH   LINE      ECODE    ---       #318
      ---         BLOCKEND  ---      ---       LVL=0

      00FF64C1H   BLOCK     ECODE    ---       LVL=0
      WR12        REGSYM    ---      WORD      x
      WR14        REGSYM    ---      WORD      y
      000007D1H   SYMBOL    EDATA    CHAR      dat
      00FF64CBH   BLOCK     ECODE    NEAR LAB  LVL=1
      000007D2H   SYMBOL    EDATA    BYTE      i
      000007D3H   SYMBOL    EDATA    BYTE      j
      000007D4H   SYMBOL    EDATA    BYTE      temp
      ---         BLOCKEND  ---      ---       LVL=1
      00FF64C1H   LINE      ECODE    ---       #331
      00FF64CBH   LINE      ECODE    ---       #332
      00FF64CBH   LINE      ECODE    ---       #336
      00FF64D0H   LINE      ECODE    ---       #338
      00FF64E6H   LINE      ECODE    ---       #339
      00FF650BH   LINE      ECODE    ---       #340
      00FF6510H   LINE      ECODE    ---       #342
      00FF6517H   LINE      ECODE    ---       #344
      00FF651BH   LINE      ECODE    ---       #345
      00FF651DH   LINE      ECODE    ---       #346
      00FF6523H   LINE      ECODE    ---       #347
      00FF652DH   LINE      ECODE    ---       #348
      00FF6539H   LINE      ECODE    ---       #349
      00FF654BH   LINE      ECODE    ---       #350
      ---         BLOCKEND  ---      ---       LVL=0

      00FF654EH   BLOCK     ECODE    ---       LVL=0
      00000797H   SYMBOL    EDATA    WORD      x
      00000799H   SYMBOL    EDATA    WORD      y
      REG=3       REGSYM    ---      ---       dat
      00FF655AH   BLOCK     ECODE    NEAR LAB  LVL=1
      0000079BH   SYMBOL    EDATA    WORD      j
      ---         BLOCKEND  ---      ---       LVL=1
      00FF654EH   LINE      ECODE    ---       #361
      00FF655AH   LINE      ECODE    ---       #362
      00FF655AH   LINE      ECODE    ---       #365
      00FF655CH   LINE      ECODE    ---       #366
      00FF655EH   LINE      ECODE    ---       #368
      00FF6585H   LINE      ECODE    ---       #369
      00FF658FH   LINE      ECODE    ---       #370
      00FF659AH   LINE      ECODE    ---       #371
      ---         BLOCKEND  ---      ---       LVL=0

      00FF659DH   BLOCK     ECODE    ---       LVL=0
      WR12        REGSYM    ---      WORD      x
      WR14        REGSYM    ---      WORD      y
      00FF65A7H   BLOCK     ECODE    NEAR LAB  LVL=1
      ---         BLOCKEND  ---      ---       LVL=1
      00FF659DH   LINE      ECODE    ---       #382
      00FF65A7H   LINE      ECODE    ---       #383
      00FF65A7H   LINE      ECODE    ---       #386
      00FF65B0H   LINE      ECODE    ---       #388
      00FF65C2H   LINE      ECODE    ---       #389
      00FF65CBH   LINE      ECODE    ---       #390
      00FF65CDH   LINE      ECODE    ---       #391
      00FF65DFH   LINE      ECODE    ---       #393
      00FF65F3H   LINE      ECODE    ---       #394
      00FF6609H   LINE      ECODE    ---       #395
      00FF6615H   LINE      ECODE    ---       #396
      00FF661AH   LINE      ECODE    ---       #397
      00FF661AH   LINE      ECODE    ---       #399
      00FF6648H   LINE      ECODE    ---       #400
L251 LINKER/LOCATER V4.66.93.0                                                        07/17/2023  21:05:08  PAGE 119


      00FF6651H   LINE      ECODE    ---       #401
      00FF665AH   LINE      ECODE    ---       #402
      ---         BLOCKEND  ---      ---       LVL=0

      00FF665DH   BLOCK     ECODE    ---       LVL=0
      WR12        REGSYM    ---      WORD      x
      WR14        REGSYM    ---      WORD      y
      R10         REGSYM    ---      BYTE      dat
      00FF6665H   BLOCK     ECODE    NEAR LAB  LVL=1
      ---         BLOCKEND  ---      ---       LVL=1
      00FF665DH   LINE      ECODE    ---       #413
      00FF6665H   LINE      ECODE    ---       #414
      00FF6665H   LINE      ECODE    ---       #418
      00FF6673H   LINE      ECODE    ---       #419
      00FF6687H   LINE      ECODE    ---       #420
      00FF6693H   LINE      ECODE    ---       #421
      00FF6698H   LINE      ECODE    ---       #422
      00FF6698H   LINE      ECODE    ---       #424
      00FF66C6H   LINE      ECODE    ---       #425
      00FF66CFH   LINE      ECODE    ---       #426
      00FF66D8H   LINE      ECODE    ---       #428
      ---         BLOCKEND  ---      ---       LVL=0

      00FF66DBH   BLOCK     ECODE    ---       LVL=0
      WR12        REGSYM    ---      WORD      x
      WR14        REGSYM    ---      WORD      y
      00FF66E5H   BLOCK     ECODE    NEAR LAB  LVL=1
      ---         BLOCKEND  ---      ---       LVL=1
      00FF66DBH   LINE      ECODE    ---       #439
      00FF66E5H   LINE      ECODE    ---       #440
      00FF66E5H   LINE      ECODE    ---       #443
      00FF66EFH   LINE      ECODE    ---       #445
      00FF6701H   LINE      ECODE    ---       #446
      00FF670BH   LINE      ECODE    ---       #447
      00FF670DH   LINE      ECODE    ---       #448
      00FF671FH   LINE      ECODE    ---       #450
      00FF6731H   LINE      ECODE    ---       #451
      00FF6749H   LINE      ECODE    ---       #452
      00FF675DH   LINE      ECODE    ---       #453
      00FF676FH   LINE      ECODE    ---       #454
      00FF677BH   LINE      ECODE    ---       #456
      00FF6780H   LINE      ECODE    ---       #457
      00FF6780H   LINE      ECODE    ---       #459
      00FF67AEH   LINE      ECODE    ---       #460
      00FF67B7H   LINE      ECODE    ---       #461
      00FF67C0H   LINE      ECODE    ---       #462
      ---         BLOCKEND  ---      ---       LVL=0

      00FF67C3H   BLOCK     ECODE    ---       LVL=0
      WR12        REGSYM    ---      WORD      x
      WR14        REGSYM    ---      WORD      y
      WR2         REGSYM    ---      WORD      dat
      00FF67C9H   BLOCK     ECODE    NEAR LAB  LVL=1
      ---         BLOCKEND  ---      ---       LVL=1
      00FF67C3H   LINE      ECODE    ---       #473
      00FF67C9H   LINE      ECODE    ---       #474
      00FF67C9H   LINE      ECODE    ---       #478
      00FF67D5H   LINE      ECODE    ---       #479
      00FF67E7H   LINE      ECODE    ---       #480
      00FF67F5H   LINE      ECODE    ---       #481
      00FF67FFH   LINE      ECODE    ---       #482
      00FF6807H   LINE      ECODE    ---       #484
      00FF680CH   LINE      ECODE    ---       #485
      00FF680CH   LINE      ECODE    ---       #487
      00FF683AH   LINE      ECODE    ---       #488
L251 LINKER/LOCATER V4.66.93.0                                                        07/17/2023  21:05:08  PAGE 120


      00FF6843H   LINE      ECODE    ---       #489
      00FF684CH   LINE      ECODE    ---       #490
      ---         BLOCKEND  ---      ---       LVL=0

      00FF684FH   BLOCK     ECODE    ---       LVL=0
      WR12        REGSYM    ---      WORD      y
      R15         REGSYM    ---      BYTE      num
      00FF685DH   BLOCK     ECODE    NEAR LAB  LVL=1
      R14         REGSYM    ---      BYTE      length
      ---         BLOCKEND  ---      ---       LVL=1
      00FF684FH   LINE      ECODE    ---       #503
      00FF685DH   LINE      ECODE    ---       #504
      00FF685DH   LINE      ECODE    ---       #508
      00FF6865H   LINE      ECODE    ---       #510
      00FF6867H   LINE      ECODE    ---       #511
      00FF6889H   LINE      ECODE    ---       #514
      00FF688FH   LINE      ECODE    ---       #515
      00FF68A9H   LINE      ECODE    ---       #516
      00FF68ABH   LINE      ECODE    ---       #517
      00FF68ABH   LINE      ECODE    ---       #518
      00FF68B0H   LINE      ECODE    ---       #520
      00FF68B6H   LINE      ECODE    ---       #521
      00FF68B8H   LINE      ECODE    ---       #522
      00FF68BCH   LINE      ECODE    ---       #523
      00FF68C3H   LINE      ECODE    ---       #525
      00FF68D1H   LINE      ECODE    ---       #526
      ---         BLOCKEND  ---      ---       LVL=0

      00FF68D4H   BLOCK     ECODE    ---       LVL=0
      DR12        REGSYM    ---      FLOAT     dat
      00FF68E4H   BLOCK     ECODE    NEAR LAB  LVL=1
      R7          REGSYM    ---      CHAR      point
      ---         BLOCKEND  ---      ---       LVL=1
      00FF68D4H   LINE      ECODE    ---       #544
      00FF68E4H   LINE      ECODE    ---       #545
      00FF68E4H   LINE      ECODE    ---       #550
      00FF68F3H   LINE      ECODE    ---       #551
      00FF6902H   LINE      ECODE    ---       #553
      00FF6926H   LINE      ECODE    ---       #556
      00FF6940H   LINE      ECODE    ---       #557
      00FF6945H   LINE      ECODE    ---       #558
      00FF6945H   LINE      ECODE    ---       #559
      00FF694FH   LINE      ECODE    ---       #560
      00FF695FH   LINE      ECODE    ---       #561
      00FF696FH   LINE      ECODE    ---       #562
      00FF6974H   LINE      ECODE    ---       #564
      00FF697EH   LINE      ECODE    ---       #565
      00FF6987H   LINE      ECODE    ---       #566
      00FF6990H   LINE      ECODE    ---       #567
      00FF6999H   LINE      ECODE    ---       #569
      00FF69A7H   LINE      ECODE    ---       #570
      00FF69B3H   LINE      ECODE    ---       #572
      00FF69BEH   LINE      ECODE    ---       #574
      00FF69CEH   LINE      ECODE    ---       #575
      ---         BLOCKEND  ---      ---       LVL=0

      00FF69D1H   BLOCK     ECODE    ---       LVL=0
      R7          REGSYM    ---      BYTE      dat
      00FF69D1H   LINE      ECODE    ---       #594
      00FF69D1H   LINE      ECODE    ---       #596
      00FF69D3H   LINE      ECODE    ---       #597
      00FF69D5H   LINE      ECODE    ---       #599
      00FF69D9H   LINE      ECODE    ---       #600
      00FF69DBH   LINE      ECODE    ---       #601
      ---         BLOCKEND  ---      ---       LVL=0
L251 LINKER/LOCATER V4.66.93.0                                                        07/17/2023  21:05:08  PAGE 121



      00FF69DCH   BLOCK     ECODE    ---       LVL=0
      R7          REGSYM    ---      BYTE      dat
      00FF69DCH   LINE      ECODE    ---       #610
      00FF69DCH   LINE      ECODE    ---       #612
      00FF69DEH   LINE      ECODE    ---       #613
      00FF69E0H   LINE      ECODE    ---       #615
      00FF69E4H   LINE      ECODE    ---       #616
      00FF69E6H   LINE      ECODE    ---       #617
      ---         BLOCKEND  ---      ---       LVL=0

      00FF69E7H   BLOCK     ECODE    ---       LVL=0
      WR4         REGSYM    ---      WORD      dat
      00FF69E9H   BLOCK     ECODE    NEAR LAB  LVL=1
      000007EBH   SYMBOL    EDATA    ---       dat1
      ---         BLOCKEND  ---      ---       LVL=1
      00FF69E7H   LINE      ECODE    ---       #626
      00FF69E9H   LINE      ECODE    ---       #627
      00FF69E9H   LINE      ECODE    ---       #629
      00FF69EDH   LINE      ECODE    ---       #630
      00FF69F1H   LINE      ECODE    ---       #631
      00FF69F3H   LINE      ECODE    ---       #632
      00FF69F5H   LINE      ECODE    ---       #633
      00FF69FDH   LINE      ECODE    ---       #634
      00FF6A05H   LINE      ECODE    ---       #635
      00FF6A07H   LINE      ECODE    ---       #636
      ---         BLOCKEND  ---      ---       LVL=0

      00FF6A08H   BLOCK     ECODE    ---       LVL=0
      00FF6A08H   LINE      ECODE    ---       #644
      00FF6A08H   LINE      ECODE    ---       #646
      00FF6A27H   LINE      ECODE    ---       #648
      00FF6A29H   LINE      ECODE    ---       #649
      00FF6A2BH   LINE      ECODE    ---       #650
      00FF6A2DH   LINE      ECODE    ---       #652
      00FF6A35H   LINE      ECODE    ---       #654
      00FF6A37H   LINE      ECODE    ---       #655
      00FF6A3FH   LINE      ECODE    ---       #657
      00FF6A45H   LINE      ECODE    ---       #666
      00FF6A4BH   LINE      ECODE    ---       #669
      00FF6A51H   LINE      ECODE    ---       #670
      00FF6A57H   LINE      ECODE    ---       #672
      00FF6A5DH   LINE      ECODE    ---       #673
      00FF6A63H   LINE      ECODE    ---       #674
      00FF6A69H   LINE      ECODE    ---       #675
      00FF6A6EH   LINE      ECODE    ---       #676
      00FF6A74H   LINE      ECODE    ---       #677
      00FF6A7AH   LINE      ECODE    ---       #679
      00FF6A80H   LINE      ECODE    ---       #680
      00FF6A86H   LINE      ECODE    ---       #682
      00FF6A8CH   LINE      ECODE    ---       #683
      00FF6A92H   LINE      ECODE    ---       #685
      00FF6A98H   LINE      ECODE    ---       #686
      00FF6A9EH   LINE      ECODE    ---       #688
      00FF6AA4H   LINE      ECODE    ---       #689
      00FF6AAAH   LINE      ECODE    ---       #691
      00FF6AB0H   LINE      ECODE    ---       #692
      00FF6AB6H   LINE      ECODE    ---       #694
      00FF6ABCH   LINE      ECODE    ---       #695
      00FF6AC2H   LINE      ECODE    ---       #697
      00FF6AC8H   LINE      ECODE    ---       #698
      00FF6ACEH   LINE      ECODE    ---       #700
      00FF6AD4H   LINE      ECODE    ---       #701
      00FF6ADAH   LINE      ECODE    ---       #702
      00FF6AE0H   LINE      ECODE    ---       #704
L251 LINKER/LOCATER V4.66.93.0                                                        07/17/2023  21:05:08  PAGE 122


      00FF6AE6H   LINE      ECODE    ---       #705
      00FF6AECH   LINE      ECODE    ---       #706
      00FF6AF2H   LINE      ECODE    ---       #707
      00FF6AF8H   LINE      ECODE    ---       #708
      00FF6AFEH   LINE      ECODE    ---       #709
      00FF6B04H   LINE      ECODE    ---       #710
      00FF6B0AH   LINE      ECODE    ---       #711
      00FF6B10H   LINE      ECODE    ---       #712
      00FF6B16H   LINE      ECODE    ---       #713
      00FF6B1CH   LINE      ECODE    ---       #714
      00FF6B22H   LINE      ECODE    ---       #715
      00FF6B28H   LINE      ECODE    ---       #716
      00FF6B2EH   LINE      ECODE    ---       #717
      00FF6B34H   LINE      ECODE    ---       #718
      00FF6B3AH   LINE      ECODE    ---       #720
      00FF6B40H   LINE      ECODE    ---       #721
      00FF6B46H   LINE      ECODE    ---       #722
      00FF6B4CH   LINE      ECODE    ---       #723
      00FF6B52H   LINE      ECODE    ---       #724
      00FF6B58H   LINE      ECODE    ---       #725
      00FF6B5EH   LINE      ECODE    ---       #726
      00FF6B64H   LINE      ECODE    ---       #727
      00FF6B6AH   LINE      ECODE    ---       #728
      00FF6B70H   LINE      ECODE    ---       #729
      00FF6B76H   LINE      ECODE    ---       #730
      00FF6B7CH   LINE      ECODE    ---       #731
      00FF6B82H   LINE      ECODE    ---       #732
      00FF6B88H   LINE      ECODE    ---       #733
      00FF6B8EH   LINE      ECODE    ---       #734
      00FF6B94H   LINE      ECODE    ---       #736
      00FF6B9AH   LINE      ECODE    ---       #738
      00FF6BA0H   LINE      ECODE    ---       #739
      00FF6BA8H   LINE      ECODE    ---       #741
      00FF6BAEH   LINE      ECODE    ---       #742
      ---         BLOCKEND  ---      ---       LVL=0

      00FF6BB4H   BLOCK     ECODE    ---       LVL=0
      000007D5H   SYMBOL    EDATA    WORD      x1
      000007D7H   SYMBOL    EDATA    WORD      y1
      WR12        REGSYM    ---      WORD      x2
      WR14        REGSYM    ---      WORD      y2
      00FF6BB4H   LINE      ECODE    ---       #747
      00FF6BC2H   LINE      ECODE    ---       #781
      00FF6BC8H   LINE      ECODE    ---       #782
      00FF6BD4H   LINE      ECODE    ---       #783
      00FF6BDEH   LINE      ECODE    ---       #784
      00FF6BE4H   LINE      ECODE    ---       #785
      00FF6BF0H   LINE      ECODE    ---       #786
      00FF6BFAH   LINE      ECODE    ---       #787
      00FF6C00H   LINE      ECODE    ---       #790
      ---         BLOCKEND  ---      ---       LVL=0

      00FF6C03H   BLOCK     ECODE    ---       LVL=0
      WR14        REGSYM    ---      WORD      color
      00FF6C09H   BLOCK     ECODE    NEAR LAB  LVL=1
      R13         REGSYM    ---      BYTE      i
      ---         BLOCKEND  ---      ---       LVL=1
      00FF6C03H   LINE      ECODE    ---       #799
      00FF6C09H   LINE      ECODE    ---       #800
      00FF6C09H   LINE      ECODE    ---       #802
      00FF6C19H   LINE      ECODE    ---       #803
      00FF6C1CH   LINE      ECODE    ---       #805
      00FF6C22H   LINE      ECODE    ---       #807
      00FF6C28H   LINE      ECODE    ---       #808
      00FF6C38H   LINE      ECODE    ---       #809
L251 LINKER/LOCATER V4.66.93.0                                                        07/17/2023  21:05:08  PAGE 123


      00FF6C3CH   LINE      ECODE    ---       #810
      ---         BLOCKEND  ---      ---       LVL=0

      00FF6C41H   BLOCK     ECODE    ---       LVL=0
      WR2         REGSYM    ---      WORD      x
      WR0         REGSYM    ---      WORD      y
      WR14        REGSYM    ---      WORD      color
      00FF6C41H   LINE      ECODE    ---       #821
      00FF6C49H   LINE      ECODE    ---       #823
      00FF6C4DH   LINE      ECODE    ---       #824
      00FF6C53H   LINE      ECODE    ---       #825
      ---         BLOCKEND  ---      ---       LVL=0

      00FF6C56H   BLOCK     ECODE    ---       LVL=0
      WR12        REGSYM    ---      WORD      x
      WR14        REGSYM    ---      WORD      y
      000007D9H   SYMBOL    EDATA    CHAR      dat
      00FF6C60H   BLOCK     ECODE    NEAR LAB  LVL=1
      000007DAH   SYMBOL    EDATA    BYTE      i
      000007DBH   SYMBOL    EDATA    BYTE      j
      000007DCH   SYMBOL    EDATA    BYTE      temp
      ---         BLOCKEND  ---      ---       LVL=1
      00FF6C56H   LINE      ECODE    ---       #838
      00FF6C60H   LINE      ECODE    ---       #839
      00FF6C60H   LINE      ECODE    ---       #843
      00FF6C65H   LINE      ECODE    ---       #845
      00FF6C7BH   LINE      ECODE    ---       #846
      00FF6CA0H   LINE      ECODE    ---       #847
      00FF6CA5H   LINE      ECODE    ---       #849
      00FF6CACH   LINE      ECODE    ---       #851
      00FF6CB0H   LINE      ECODE    ---       #852
      00FF6CB2H   LINE      ECODE    ---       #853
      00FF6CB8H   LINE      ECODE    ---       #854
      00FF6CC2H   LINE      ECODE    ---       #855
      00FF6CCEH   LINE      ECODE    ---       #856
      00FF6CE0H   LINE      ECODE    ---       #857
      ---         BLOCKEND  ---      ---       LVL=0

      00FF6CE3H   BLOCK     ECODE    ---       LVL=0
      0000079DH   SYMBOL    EDATA    WORD      x
      0000079FH   SYMBOL    EDATA    WORD      y
      REG=3       REGSYM    ---      ---       dat
      00FF6CEFH   BLOCK     ECODE    NEAR LAB  LVL=1
      000007A1H   SYMBOL    EDATA    WORD      j
      ---         BLOCKEND  ---      ---       LVL=1
      00FF6CE3H   LINE      ECODE    ---       #868
      00FF6CEFH   LINE      ECODE    ---       #869
      00FF6CEFH   LINE      ECODE    ---       #872
      00FF6CF1H   LINE      ECODE    ---       #873
      00FF6CF3H   LINE      ECODE    ---       #875
      00FF6D1AH   LINE      ECODE    ---       #876
      00FF6D24H   LINE      ECODE    ---       #877
      00FF6D2FH   LINE      ECODE    ---       #878
      ---         BLOCKEND  ---      ---       LVL=0

      00FF6D32H   BLOCK     ECODE    ---       LVL=0
      WR12        REGSYM    ---      WORD      x
      WR14        REGSYM    ---      WORD      y
      00FF6D3CH   BLOCK     ECODE    NEAR LAB  LVL=1
      ---         BLOCKEND  ---      ---       LVL=1
      00FF6D32H   LINE      ECODE    ---       #889
      00FF6D3CH   LINE      ECODE    ---       #890
      00FF6D3CH   LINE      ECODE    ---       #893
      00FF6D45H   LINE      ECODE    ---       #895
      00FF6D57H   LINE      ECODE    ---       #896
L251 LINKER/LOCATER V4.66.93.0                                                        07/17/2023  21:05:08  PAGE 124


      00FF6D60H   LINE      ECODE    ---       #897
      00FF6D62H   LINE      ECODE    ---       #898
      00FF6D74H   LINE      ECODE    ---       #900
      00FF6D88H   LINE      ECODE    ---       #901
      00FF6D9EH   LINE      ECODE    ---       #902
      00FF6DAAH   LINE      ECODE    ---       #903
      00FF6DAFH   LINE      ECODE    ---       #904
      00FF6DAFH   LINE      ECODE    ---       #906
      00FF6DD9H   LINE      ECODE    ---       #907
      00FF6DE2H   LINE      ECODE    ---       #908
      00FF6DEBH   LINE      ECODE    ---       #909
      ---         BLOCKEND  ---      ---       LVL=0

      00FF6DEEH   BLOCK     ECODE    ---       LVL=0
      WR12        REGSYM    ---      WORD      x
      WR14        REGSYM    ---      WORD      y
      R10         REGSYM    ---      BYTE      dat
      00FF6DF6H   BLOCK     ECODE    NEAR LAB  LVL=1
      ---         BLOCKEND  ---      ---       LVL=1
      00FF6DEEH   LINE      ECODE    ---       #920
      00FF6DF6H   LINE      ECODE    ---       #921
      00FF6DF6H   LINE      ECODE    ---       #925
      00FF6E04H   LINE      ECODE    ---       #926
      00FF6E18H   LINE      ECODE    ---       #927
      00FF6E24H   LINE      ECODE    ---       #928
      00FF6E29H   LINE      ECODE    ---       #929
      00FF6E29H   LINE      ECODE    ---       #931
      00FF6E53H   LINE      ECODE    ---       #932
      00FF6E5CH   LINE      ECODE    ---       #933
      00FF6E65H   LINE      ECODE    ---       #935
      ---         BLOCKEND  ---      ---       LVL=0

      00FF6E68H   BLOCK     ECODE    ---       LVL=0
      WR12        REGSYM    ---      WORD      x
      WR14        REGSYM    ---      WORD      y
      00FF6E72H   BLOCK     ECODE    NEAR LAB  LVL=1
      ---         BLOCKEND  ---      ---       LVL=1
      00FF6E68H   LINE      ECODE    ---       #946
      00FF6E72H   LINE      ECODE    ---       #947
      00FF6E72H   LINE      ECODE    ---       #950
      00FF6E7CH   LINE      ECODE    ---       #952
      00FF6E8EH   LINE      ECODE    ---       #953
      00FF6E98H   LINE      ECODE    ---       #954
      00FF6E9AH   LINE      ECODE    ---       #955
      00FF6EACH   LINE      ECODE    ---       #957
      00FF6EBEH   LINE      ECODE    ---       #958
      00FF6ED6H   LINE      ECODE    ---       #959
      00FF6EEAH   LINE      ECODE    ---       #960
      00FF6EFCH   LINE      ECODE    ---       #961
      00FF6F08H   LINE      ECODE    ---       #963
      00FF6F0DH   LINE      ECODE    ---       #964
      00FF6F0DH   LINE      ECODE    ---       #966
      00FF6F37H   LINE      ECODE    ---       #967
      00FF6F40H   LINE      ECODE    ---       #968
      00FF6F49H   LINE      ECODE    ---       #969
      ---         BLOCKEND  ---      ---       LVL=0

      00FF6F4CH   BLOCK     ECODE    ---       LVL=0
      WR12        REGSYM    ---      WORD      x
      WR14        REGSYM    ---      WORD      y
      WR2         REGSYM    ---      WORD      dat
      00FF6F52H   BLOCK     ECODE    NEAR LAB  LVL=1
      ---         BLOCKEND  ---      ---       LVL=1
      00FF6F4CH   LINE      ECODE    ---       #980
      00FF6F52H   LINE      ECODE    ---       #981
L251 LINKER/LOCATER V4.66.93.0                                                        07/17/2023  21:05:08  PAGE 125


      00FF6F52H   LINE      ECODE    ---       #985
      00FF6F5EH   LINE      ECODE    ---       #986
      00FF6F70H   LINE      ECODE    ---       #987
      00FF6F7EH   LINE      ECODE    ---       #988
      00FF6F88H   LINE      ECODE    ---       #989
      00FF6F90H   LINE      ECODE    ---       #991
      00FF6F95H   LINE      ECODE    ---       #992
      00FF6F95H   LINE      ECODE    ---       #994
      00FF6FC3H   LINE      ECODE    ---       #995
      00FF6FCCH   LINE      ECODE    ---       #996
      00FF6FD5H   LINE      ECODE    ---       #997
      ---         BLOCKEND  ---      ---       LVL=0

      00FF6FD8H   BLOCK     ECODE    ---       LVL=0
      WR12        REGSYM    ---      WORD      y
      R15         REGSYM    ---      BYTE      num
      00FF6FE6H   BLOCK     ECODE    NEAR LAB  LVL=1
      R14         REGSYM    ---      BYTE      length
      ---         BLOCKEND  ---      ---       LVL=1
      00FF6FD8H   LINE      ECODE    ---       #1010
      00FF6FE6H   LINE      ECODE    ---       #1011
      00FF6FE6H   LINE      ECODE    ---       #1015
      00FF6FEEH   LINE      ECODE    ---       #1017
      00FF6FF0H   LINE      ECODE    ---       #1018
      00FF7012H   LINE      ECODE    ---       #1021
      00FF7018H   LINE      ECODE    ---       #1022
      00FF7032H   LINE      ECODE    ---       #1023
      00FF7034H   LINE      ECODE    ---       #1024
      00FF7034H   LINE      ECODE    ---       #1025
      00FF7039H   LINE      ECODE    ---       #1027
      00FF703FH   LINE      ECODE    ---       #1028
      00FF7041H   LINE      ECODE    ---       #1029
      00FF7045H   LINE      ECODE    ---       #1030
      00FF704CH   LINE      ECODE    ---       #1032
      00FF705AH   LINE      ECODE    ---       #1033
      ---         BLOCKEND  ---      ---       LVL=0

      00FF705DH   BLOCK     ECODE    ---       LVL=0
      DR12        REGSYM    ---      FLOAT     dat
      00FF706DH   BLOCK     ECODE    NEAR LAB  LVL=1
      R7          REGSYM    ---      CHAR      point
      ---         BLOCKEND  ---      ---       LVL=1
      00FF705DH   LINE      ECODE    ---       #1051
      00FF706DH   LINE      ECODE    ---       #1052
      00FF706DH   LINE      ECODE    ---       #1057
      00FF707CH   LINE      ECODE    ---       #1058
      00FF708BH   LINE      ECODE    ---       #1060
      00FF70AFH   LINE      ECODE    ---       #1063
      00FF70C9H   LINE      ECODE    ---       #1064
      00FF70CEH   LINE      ECODE    ---       #1065
      00FF70CEH   LINE      ECODE    ---       #1066
      00FF70D8H   LINE      ECODE    ---       #1067
      00FF70E8H   LINE      ECODE    ---       #1068
      00FF70F8H   LINE      ECODE    ---       #1069
      00FF70FDH   LINE      ECODE    ---       #1071
      00FF7107H   LINE      ECODE    ---       #1072
      00FF7110H   LINE      ECODE    ---       #1073
      00FF7119H   LINE      ECODE    ---       #1074
      00FF7122H   LINE      ECODE    ---       #1076
      00FF7130H   LINE      ECODE    ---       #1077
      00FF713CH   LINE      ECODE    ---       #1079
      00FF7147H   LINE      ECODE    ---       #1081
      00FF7157H   LINE      ECODE    ---       #1082
      ---         BLOCKEND  ---      ---       LVL=0

L251 LINKER/LOCATER V4.66.93.0                                                        07/17/2023  21:05:08  PAGE 126


      ---         MODULE    ---      ---       SEEKFREE_MPU6050
      00FFBD04H   PUBLIC    ECODE    ---       mpu6050_simiic_read_regs?
      00FFBCDBH   PUBLIC    ECODE    ---       mpu6050_simiic_read_reg?
      00FFBD8DH   PUBLIC    ECODE    ---       mpu6050_init?
      00FFBE2BH   PUBLIC    ECODE    ---       mpu6050_get_gyro?
      00FFBDEAH   PUBLIC    ECODE    ---       mpu6050_get_accdata?
      00000773H   PUBLIC    EDATA    INT       mpu6050_acc_x
      00000775H   PUBLIC    EDATA    INT       mpu6050_acc_y
      00000777H   PUBLIC    EDATA    INT       mpu6050_acc_z
      00000779H   PUBLIC    EDATA    INT       mpu6050_gyro_x
      0000077BH   PUBLIC    EDATA    INT       mpu6050_gyro_y
      0000077DH   PUBLIC    EDATA    INT       mpu6050_gyro_z
      000000D0H   SFRSYM    DATA     BYTE      PSW
      0000009DH   SFRSYM    DATA     BYTE      IRCBAND
      00000097H   SFRSYM    DATA     BYTE      AUXR2
      000000EFH   SFRSYM    DATA     BYTE      AUXINTIF
      000000FDH   SFRSYM    DATA     BYTE      S4CON
      000000ACH   SFRSYM    DATA     BYTE      S3CON
      0000009AH   SFRSYM    DATA     BYTE      S2CON
      000000B7H   SFRSYM    DATA     BYTE      IPH
      000000CDH   SFRSYM    DATA     BYTE      SPSTAT
      000000DDH   SFRSYM    DATA     BYTE      T4T3M
      000000C1H   SFRSYM    DATA     BYTE      WDT_CONTR
      000000DFH   SFRSYM    DATA     BYTE      IP3
      000000F4H   SFRSYM    DATA     BYTE      USBCON
      000000B5H   SFRSYM    DATA     BYTE      IP2
      000000FFH   SFRSYM    DATA     BYTE      RSTCFG
      000000F9H   SFRSYM    DATA     BYTE      LINICR
      0000008EH   SFRSYM    DATA     BYTE      AUXR
      000000AFH   SFRSYM    DATA     BYTE      IE2
      00000088H   SFRSYM    DATA     BYTE      TCON
      000000C0H.1 SFRSYM    DATA     BIT       P41
      00000098H   SFRSYM    DATA     BYTE      SCON
      000000C0H.0 SFRSYM    DATA     BIT       P40
      000000F1H   SFRSYM    DATA     BYTE      CANICR
      00000087H   SFRSYM    DATA     BYTE      PCON
      000000BCH   SFRSYM    DATA     BYTE      ADC_CONTR
      000000E7H   SFRSYM    DATA     BYTE      CMPCR2
      000000E6H   SFRSYM    DATA     BYTE      CMPCR1
      000000B8H   SFRSYM    DATA     BYTE      IP
      0000008FH   SFRSYM    DATA     BYTE      INTCLKO
      000000EEH   SFRSYM    DATA     BYTE      IP3H
      000000B6H   SFRSYM    DATA     BYTE      IP2H
      000000A8H   SFRSYM    DATA     BYTE      IE
      000000BBH   SFRSYM    DATA     BYTE      P_SW3
      000000BAH   SFRSYM    DATA     BYTE      P_SW2
      000000A2H   SFRSYM    DATA     BYTE      P_SW1
      000000CEH   SFRSYM    DATA     BYTE      SPCTL
      000000F8H   SFRSYM    DATA     BYTE      P7
      000000E8H   SFRSYM    DATA     BYTE      P6
      000000C8H   SFRSYM    DATA     BYTE      P5
      000000C0H   SFRSYM    DATA     BYTE      P4
      000000B0H   SFRSYM    DATA     BYTE      P3
      000000A0H   SFRSYM    DATA     BYTE      P2
      00000090H   SFRSYM    DATA     BYTE      P1
      00000080H   SFRSYM    DATA     BYTE      P0
      00FFBBF4H   SYMBOL    ECODE    ---       mpu6050_simiic_start
      00FFBC03H   SYMBOL    ECODE    ---       mpu6050_simiic_stop
      00FFBCB9H   SYMBOL    ECODE    ---       mpu6050_simiic_write_reg
      00FFBD59H   SYMBOL    ECODE    ---       mpu6050_self1_check
      00FFBC14H   SYMBOL    ECODE    ---       mpu6050_simiic_sendack
      00FFBC7EH   SYMBOL    ECODE    ---       mpu6050_read_ch
      00FFBC50H   SYMBOL    ECODE    ---       mpu6050_send_ch
      00FFBC34H   SYMBOL    ECODE    ---       mpu6050_sccb_waitack
      00FFBBE9H   SYMBOL    ECODE    ---       mpu6050_simiic_delay
L251 LINKER/LOCATER V4.66.93.0                                                        07/17/2023  21:05:08  PAGE 127



      00FFBBE9H   BLOCK     ECODE    ---       LVL=0
      WR6         REGSYM    ---      WORD      j
      00FFBBE9H   LINE      ECODE    ---       #52
      00FFBBE9H   LINE      ECODE    ---       #53
      00FFBBE9H   LINE      ECODE    ---       #54
      00FFBBEBH   LINE      ECODE    ---       #55
      00FFBBF3H   LINE      ECODE    ---       #56
      ---         BLOCKEND  ---      ---       LVL=0

      00FFBBF4H   BLOCK     ECODE    ---       LVL=0
      00FFBBF4H   LINE      ECODE    ---       #59
      00FFBBF4H   LINE      ECODE    ---       #61
      00FFBBF6H   LINE      ECODE    ---       #62
      00FFBBF8H   LINE      ECODE    ---       #63
      00FFBBFBH   LINE      ECODE    ---       #64
      00FFBBFDH   LINE      ECODE    ---       #65
      00FFBC00H   LINE      ECODE    ---       #66
      00FFBC02H   LINE      ECODE    ---       #67
      ---         BLOCKEND  ---      ---       LVL=0

      00FFBC03H   BLOCK     ECODE    ---       LVL=0
      00FFBC03H   LINE      ECODE    ---       #70
      00FFBC03H   LINE      ECODE    ---       #72
      00FFBC05H   LINE      ECODE    ---       #73
      00FFBC07H   LINE      ECODE    ---       #74
      00FFBC0AH   LINE      ECODE    ---       #75
      00FFBC0CH   LINE      ECODE    ---       #76
      00FFBC0FH   LINE      ECODE    ---       #77
      00FFBC11H   LINE      ECODE    ---       #78
      ---         BLOCKEND  ---      ---       LVL=0

      00FFBC14H   BLOCK     ECODE    ---       LVL=0
      R15         REGSYM    ---      BYTE      ack_dat
      00FFBC14H   LINE      ECODE    ---       #83
      00FFBC18H   LINE      ECODE    ---       #85
      00FFBC1AH   LINE      ECODE    ---       #86
      00FFBC1DH   LINE      ECODE    ---       #87
      00FFBC25H   LINE      ECODE    ---       #88
      00FFBC27H   LINE      ECODE    ---       #90
      00FFBC29H   LINE      ECODE    ---       #91
      00FFBC2CH   LINE      ECODE    ---       #92
      00FFBC2EH   LINE      ECODE    ---       #93
      00FFBC31H   LINE      ECODE    ---       #94
      ---         BLOCKEND  ---      ---       LVL=0

      00FFBC34H   BLOCK     ECODE    ---       LVL=0
      00FFBC34H   LINE      ECODE    ---       #97
      00FFBC34H   LINE      ECODE    ---       #99
      00FFBC36H   LINE      ECODE    ---       #101
      00FFBC39H   LINE      ECODE    ---       #103
      00FFBC3BH   LINE      ECODE    ---       #104
      00FFBC3EH   LINE      ECODE    ---       #106
      00FFBC41H   LINE      ECODE    ---       #109
      00FFBC43H   LINE      ECODE    ---       #110
      00FFBC46H   LINE      ECODE    ---       #111
      00FFBC46H   LINE      ECODE    ---       #113
      00FFBC48H   LINE      ECODE    ---       #114
      00FFBC4BH   LINE      ECODE    ---       #115
      00FFBC4FH   LINE      ECODE    ---       #116
      ---         BLOCKEND  ---      ---       LVL=0

      00FFBC50H   BLOCK     ECODE    ---       LVL=0
      R15         REGSYM    ---      BYTE      c
      00FFBC54H   BLOCK     ECODE    NEAR LAB  LVL=1
L251 LINKER/LOCATER V4.66.93.0                                                        07/17/2023  21:05:08  PAGE 128


      R14         REGSYM    ---      BYTE      i
      ---         BLOCKEND  ---      ---       LVL=1
      00FFBC50H   LINE      ECODE    ---       #122
      00FFBC54H   LINE      ECODE    ---       #123
      00FFBC54H   LINE      ECODE    ---       #124
      00FFBC57H   LINE      ECODE    ---       #125
      00FFBC59H   LINE      ECODE    ---       #127
      00FFBC62H   LINE      ECODE    ---       #128
      00FFBC64H   LINE      ECODE    ---       #129
      00FFBC66H   LINE      ECODE    ---       #130
      00FFBC69H   LINE      ECODE    ---       #131
      00FFBC6BH   LINE      ECODE    ---       #132
      00FFBC6EH   LINE      ECODE    ---       #133
      00FFBC70H   LINE      ECODE    ---       #134
      00FFBC78H   LINE      ECODE    ---       #135
      00FFBC7BH   LINE      ECODE    ---       #136
      ---         BLOCKEND  ---      ---       LVL=0

      00FFBC7EH   BLOCK     ECODE    ---       LVL=0
      R15         REGSYM    ---      BYTE      ack_x
      00FFBC84H   BLOCK     ECODE    NEAR LAB  LVL=1
      R13         REGSYM    ---      BYTE      i
      R14         REGSYM    ---      BYTE      c
      ---         BLOCKEND  ---      ---       LVL=1
      00FFBC7EH   LINE      ECODE    ---       #142
      00FFBC84H   LINE      ECODE    ---       #143
      00FFBC84H   LINE      ECODE    ---       #146
      00FFBC86H   LINE      ECODE    ---       #147
      00FFBC88H   LINE      ECODE    ---       #148
      00FFBC8BH   LINE      ECODE    ---       #149
      00FFBC8DH   LINE      ECODE    ---       #151
      00FFBC90H   LINE      ECODE    ---       #153
      00FFBC93H   LINE      ECODE    ---       #154
      00FFBC95H   LINE      ECODE    ---       #155
      00FFBC98H   LINE      ECODE    ---       #156
      00FFBC9AH   LINE      ECODE    ---       #157
      00FFBC9DH   LINE      ECODE    ---       #158
      00FFBC9FH   LINE      ECODE    ---       #159
      00FFBCA2H   LINE      ECODE    ---       #161
      00FFBCA4H   LINE      ECODE    ---       #162
      00FFBCA8H   LINE      ECODE    ---       #165
      00FFBCAAH   LINE      ECODE    ---       #166
      00FFBCADH   LINE      ECODE    ---       #167
      00FFBCB2H   LINE      ECODE    ---       #169
      00FFBCB4H   LINE      ECODE    ---       #170
      ---         BLOCKEND  ---      ---       LVL=0

      00FFBCB9H   BLOCK     ECODE    ---       LVL=0
      R13         REGSYM    ---      BYTE      dev_add
      R14         REGSYM    ---      BYTE      reg
      R15         REGSYM    ---      BYTE      dat
      00FFBCB9H   LINE      ECODE    ---       #182
      00FFBCC1H   LINE      ECODE    ---       #184
      00FFBCC4H   LINE      ECODE    ---       #185
      00FFBCC9H   LINE      ECODE    ---       #186
      00FFBCCEH   LINE      ECODE    ---       #187
      00FFBCD3H   LINE      ECODE    ---       #188
      00FFBCD6H   LINE      ECODE    ---       #189
      ---         BLOCKEND  ---      ---       LVL=0

      00FFBCDBH   BLOCK     ECODE    ---       LVL=0
      R15         REGSYM    ---      BYTE      dev_add
      R14         REGSYM    ---      BYTE      reg
      00FFBCE1H   BLOCK     ECODE    NEAR LAB  LVL=1
      R15         REGSYM    ---      BYTE      dat
L251 LINKER/LOCATER V4.66.93.0                                                        07/17/2023  21:05:08  PAGE 129


      ---         BLOCKEND  ---      ---       LVL=1
      00FFBCDBH   LINE      ECODE    ---       #200
      00FFBCE1H   LINE      ECODE    ---       #201
      00FFBCE1H   LINE      ECODE    ---       #203
      00FFBCE4H   LINE      ECODE    ---       #204
      00FFBCE9H   LINE      ECODE    ---       #205
      00FFBCEEH   LINE      ECODE    ---       #208
      00FFBCF1H   LINE      ECODE    ---       #209
      00FFBCFAH   LINE      ECODE    ---       #210
      00FFBCFEH   LINE      ECODE    ---       #211
      00FFBD01H   LINE      ECODE    ---       #213
      00FFBD01H   LINE      ECODE    ---       #214
      ---         BLOCKEND  ---      ---       LVL=0

      00FFBD04H   BLOCK     ECODE    ---       LVL=0
      000007E4H   SYMBOL    EDATA    BYTE      dev_add
      000007E5H   SYMBOL    EDATA    BYTE      reg
      REG=3       REGSYM    ---      ---       dat_add
      000007E6H   SYMBOL    EDATA    BYTE      num
      00FFBD04H   LINE      ECODE    ---       #227
      00FFBD14H   LINE      ECODE    ---       #229
      00FFBD17H   LINE      ECODE    ---       #230
      00FFBD20H   LINE      ECODE    ---       #231
      00FFBD27H   LINE      ECODE    ---       #234
      00FFBD2AH   LINE      ECODE    ---       #235
      00FFBD35H   LINE      ECODE    ---       #236
      00FFBD37H   LINE      ECODE    ---       #238
      00FFBD3FH   LINE      ECODE    ---       #239
      00FFBD41H   LINE      ECODE    ---       #240
      00FFBD4CH   LINE      ECODE    ---       #241
      00FFBD53H   LINE      ECODE    ---       #242
      00FFBD56H   LINE      ECODE    ---       #243
      ---         BLOCKEND  ---      ---       LVL=0

      00FFBD59H   BLOCK     ECODE    ---       LVL=0
      00FFBD59H   LINE      ECODE    ---       #252
      00FFBD59H   LINE      ECODE    ---       #254
      00FFBD63H   LINE      ECODE    ---       #255
      00FFBD6EH   LINE      ECODE    ---       #256
      00FFBD7CH   LINE      ECODE    ---       #258
      00FFBD88H   LINE      ECODE    ---       #259
      00FFBD8BH   LINE      ECODE    ---       #265
      00FFBD8BH   LINE      ECODE    ---       #267
      00FFBD8CH   LINE      ECODE    ---       #269
      ---         BLOCKEND  ---      ---       LVL=0

      00FFBD8DH   BLOCK     ECODE    ---       LVL=0
      00FFBD8DH   LINE      ECODE    ---       #279
      00FFBD8DH   LINE      ECODE    ---       #281
      00FFBD95H   LINE      ECODE    ---       #283
      00FFBD9AH   LINE      ECODE    ---       #285
      00FFBD9DH   LINE      ECODE    ---       #286
      00FFBD9DH   LINE      ECODE    ---       #287
      00FFBDA7H   LINE      ECODE    ---       #288
      00FFBDB2H   LINE      ECODE    ---       #289
      00FFBDBDH   LINE      ECODE    ---       #290
      00FFBDC8H   LINE      ECODE    ---       #291
      00FFBDD3H   LINE      ECODE    ---       #292
      00FFBDDDH   LINE      ECODE    ---       #293
      00FFBDE8H   LINE      ECODE    ---       #294
      00FFBDE9H   LINE      ECODE    ---       #295
      ---         BLOCKEND  ---      ---       LVL=0

      00FFBDEAH   BLOCK     ECODE    ---       LVL=0
      00FFBDEAH   LINE      ECODE    ---       #306
L251 LINKER/LOCATER V4.66.93.0                                                        07/17/2023  21:05:08  PAGE 130


      00FFBDEAH   LINE      ECODE    ---       #307
      00FFBDEAH   LINE      ECODE    ---       #310
      00FFBDFAH   LINE      ECODE    ---       #311
      00FFBE0AH   LINE      ECODE    ---       #312
      00FFBE1AH   LINE      ECODE    ---       #313
      00FFBE2AH   LINE      ECODE    ---       #314
      ---         BLOCKEND  ---      ---       LVL=0

      00FFBE2BH   BLOCK     ECODE    ---       LVL=0
      00FFBE2BH   LINE      ECODE    ---       #324
      00FFBE2BH   LINE      ECODE    ---       #325
      00FFBE2BH   LINE      ECODE    ---       #328
      00FFBE3BH   LINE      ECODE    ---       #329
      00FFBE4BH   LINE      ECODE    ---       #330
      00FFBE5BH   LINE      ECODE    ---       #331
      00FFBE6BH   LINE      ECODE    ---       #332
      ---         BLOCKEND  ---      ---       LVL=0

      ---         MODULE    ---      ---       SEEKFREE_OLED
      00FF3092H   PUBLIC    ECODE    ---       oled_putpixel?
      00FF3863H   PUBLIC    ECODE    ---       oled_hexascii_spi?
      00FF3035H   PUBLIC    ECODE    ---       oled_set_pos?
      00FF3DB7H   PUBLIC    ECODE    ---       oled_dis_bmp_spi?
      00FF3381H   PUBLIC    ECODE    ---       oled_printf_float?
      00FF3ADEH   PUBLIC    ECODE    ---       oled_p8x16str_spi?
      00FF3A05H   PUBLIC    ECODE    ---       oled_clrpixel_spi?
      00FF2F18H   PUBLIC    ECODE    ---       oled_wrcmd?
      00FF40DEH   PUBLIC    ECODE    ---       oled_print_chinese_spi?
      00FF2EEFH   PUBLIC    ECODE    ---       oled_wrdat?
      00FF305BH   PUBLIC    ECODE    ---       oled_fill?
      00FF32FCH   PUBLIC    ECODE    ---       oled_printf_int32?
      00FF328FH   PUBLIC    ECODE    ---       oled_uint16?
      00FF39CFH   PUBLIC    ECODE    ---       oled_putpixel_spi?
      00FF3974H   PUBLIC    ECODE    ---       oled_set_pos_spi?
      00FF30FBH   PUBLIC    ECODE    ---       oled_p6x8str?
      00FF32AEH   PUBLIC    ECODE    ---       oled_int16?
      00FF2F73H   PUBLIC    ECODE    ---       oled_init?
      00FF3CBAH   PUBLIC    ECODE    ---       oled_printf_float_spi?
      00FF3858H   PUBLIC    ECODE    ---       oled_wrcmd_spi?
      00FF384DH   PUBLIC    ECODE    ---       oled_wrdat_spi?
      00FF2F41H   PUBLIC    ECODE    ---       oled_hexascii?
      00FF3998H   PUBLIC    ECODE    ---       oled_fill_spi?
      00FF3C35H   PUBLIC    ECODE    ---       oled_printf_int32_spi?
      00FF3BC8H   PUBLIC    ECODE    ---       oled_uint16_spi?
      00FF3A34H   PUBLIC    ECODE    ---       oled_p6x8str_spi?
      00FF3BE7H   PUBLIC    ECODE    ---       oled_int16_spi?
      00FF347EH   PUBLIC    ECODE    ---       oled_dis_bmp?
      00FF3895H   PUBLIC    ECODE    ---       oled_init_spi?
      00FF31A5H   PUBLIC    ECODE    ---       oled_p8x16str?
      00FF30CAH   PUBLIC    ECODE    ---       oled_clrpixel?
      00FF37BBH   PUBLIC    ECODE    ---       oled_print_chinese?
      000000D0H   SFRSYM    DATA     BYTE      PSW
      0000009DH   SFRSYM    DATA     BYTE      IRCBAND
      00000097H   SFRSYM    DATA     BYTE      AUXR2
      000000EFH   SFRSYM    DATA     BYTE      AUXINTIF
      000000FDH   SFRSYM    DATA     BYTE      S4CON
      000000ACH   SFRSYM    DATA     BYTE      S3CON
      0000009AH   SFRSYM    DATA     BYTE      S2CON
      000000B7H   SFRSYM    DATA     BYTE      IPH
      000000CDH   SFRSYM    DATA     BYTE      SPSTAT
      000000DDH   SFRSYM    DATA     BYTE      T4T3M
      000000C1H   SFRSYM    DATA     BYTE      WDT_CONTR
      000000DFH   SFRSYM    DATA     BYTE      IP3
      000000F4H   SFRSYM    DATA     BYTE      USBCON
      000000B5H   SFRSYM    DATA     BYTE      IP2
L251 LINKER/LOCATER V4.66.93.0                                                        07/17/2023  21:05:08  PAGE 131


      000000FFH   SFRSYM    DATA     BYTE      RSTCFG
      000000F9H   SFRSYM    DATA     BYTE      LINICR
      0000008EH   SFRSYM    DATA     BYTE      AUXR
      000000AFH   SFRSYM    DATA     BYTE      IE2
      000000A0H.5 SFRSYM    DATA     BIT       P25
      00000088H   SFRSYM    DATA     BYTE      TCON
      000000A0H.3 SFRSYM    DATA     BIT       P23
      00000098H   SFRSYM    DATA     BYTE      SCON
      000000A0H.2 SFRSYM    DATA     BIT       P22
      000000A0H.1 SFRSYM    DATA     BIT       P21
      000000A0H.0 SFRSYM    DATA     BIT       P20
      000000F1H   SFRSYM    DATA     BYTE      CANICR
      00000087H   SFRSYM    DATA     BYTE      PCON
      000000BCH   SFRSYM    DATA     BYTE      ADC_CONTR
      000000E7H   SFRSYM    DATA     BYTE      CMPCR2
      000000E6H   SFRSYM    DATA     BYTE      CMPCR1
      000000B8H   SFRSYM    DATA     BYTE      IP
      0000008FH   SFRSYM    DATA     BYTE      INTCLKO
      000000EEH   SFRSYM    DATA     BYTE      IP3H
      000000B6H   SFRSYM    DATA     BYTE      IP2H
      000000A8H   SFRSYM    DATA     BYTE      IE
      000000BBH   SFRSYM    DATA     BYTE      P_SW3
      000000BAH   SFRSYM    DATA     BYTE      P_SW2
      000000A2H   SFRSYM    DATA     BYTE      P_SW1
      000000CEH   SFRSYM    DATA     BYTE      SPCTL
      000000F8H   SFRSYM    DATA     BYTE      P7
      000000E8H   SFRSYM    DATA     BYTE      P6
      000000C8H   SFRSYM    DATA     BYTE      P5
      000000C0H   SFRSYM    DATA     BYTE      P4
      000000B0H   SFRSYM    DATA     BYTE      P3
      000000A0H   SFRSYM    DATA     BYTE      P2
      00000090H   SFRSYM    DATA     BYTE      P1
      00000080H   SFRSYM    DATA     BYTE      P0

      00FF2EEFH   BLOCK     ECODE    ---       LVL=0
      R7          REGSYM    ---      BYTE      dat
      00FF2EF1H   BLOCK     ECODE    NEAR LAB  LVL=1
      R6          REGSYM    ---      BYTE      i
      ---         BLOCKEND  ---      ---       LVL=1
      00FF2EEFH   LINE      ECODE    ---       #47
      00FF2EF1H   LINE      ECODE    ---       #48
      00FF2EF1H   LINE      ECODE    ---       #49
      00FF2EF4H   LINE      ECODE    ---       #51
      00FF2EF6H   LINE      ECODE    ---       #52
      00FF2EF8H   LINE      ECODE    ---       #53
      00FF2EFAH   LINE      ECODE    ---       #54
      00FF2EFCH   LINE      ECODE    ---       #56
      00FF2F05H   LINE      ECODE    ---       #57
      00FF2F07H   LINE      ECODE    ---       #58
      00FF2F09H   LINE      ECODE    ---       #60
      00FF2F0BH   LINE      ECODE    ---       #61
      00FF2F0DH   LINE      ECODE    ---       #62
      00FF2F15H   LINE      ECODE    ---       #63
      00FF2F17H   LINE      ECODE    ---       #64
      ---         BLOCKEND  ---      ---       LVL=0

      00FF2F18H   BLOCK     ECODE    ---       LVL=0
      R7          REGSYM    ---      BYTE      cmd
      00FF2F1AH   BLOCK     ECODE    NEAR LAB  LVL=1
      R6          REGSYM    ---      BYTE      i
      ---         BLOCKEND  ---      ---       LVL=1
      00FF2F18H   LINE      ECODE    ---       #98
      00FF2F1AH   LINE      ECODE    ---       #99
      00FF2F1AH   LINE      ECODE    ---       #100
      00FF2F1DH   LINE      ECODE    ---       #102
L251 LINKER/LOCATER V4.66.93.0                                                        07/17/2023  21:05:08  PAGE 132


      00FF2F1FH   LINE      ECODE    ---       #103
      00FF2F21H   LINE      ECODE    ---       #104
      00FF2F23H   LINE      ECODE    ---       #106
      00FF2F25H   LINE      ECODE    ---       #108
      00FF2F2EH   LINE      ECODE    ---       #109
      00FF2F30H   LINE      ECODE    ---       #110
      00FF2F32H   LINE      ECODE    ---       #112
      00FF2F34H   LINE      ECODE    ---       #113
      00FF2F36H   LINE      ECODE    ---       #114
      00FF2F3EH   LINE      ECODE    ---       #115
      00FF2F40H   LINE      ECODE    ---       #116
      ---         BLOCKEND  ---      ---       LVL=0

      00FF2F41H   BLOCK     ECODE    ---       LVL=0
      WR8         REGSYM    ---      WORD      hex
      REG=7       REGSYM    ---      ---       Print
      00FF2F45H   BLOCK     ECODE    NEAR LAB  LVL=1
      R5          REGSYM    ---      BYTE      hexcheck
      R10         REGSYM    ---      BYTE      TEMP
      ---         BLOCKEND  ---      ---       LVL=1
      00FF2F41H   LINE      ECODE    ---       #125
      00FF2F45H   LINE      ECODE    ---       #126
      00FF2F45H   LINE      ECODE    ---       #129
      00FF2F48H   LINE      ECODE    ---       #130
      00FF2F4DH   LINE      ECODE    ---       #131
      00FF2F4DH   LINE      ECODE    ---       #133
      00FF2F4FH   LINE      ECODE    ---       #134
      00FF2F57H   LINE      ECODE    ---       #135
      00FF2F5DH   LINE      ECODE    ---       #136
      00FF2F6EH   LINE      ECODE    ---       #137
      00FF2F72H   LINE      ECODE    ---       #139
      ---         BLOCKEND  ---      ---       LVL=0

      00FF2F73H   BLOCK     ECODE    ---       LVL=0
      00FF2F73H   LINE      ECODE    ---       #148
      00FF2F73H   LINE      ECODE    ---       #151
      00FF2F75H   LINE      ECODE    ---       #152
      00FF2F77H   LINE      ECODE    ---       #154
      00FF2F79H   LINE      ECODE    ---       #155
      00FF2F81H   LINE      ECODE    ---       #156
      00FF2F83H   LINE      ECODE    ---       #158
      00FF2F89H   LINE      ECODE    ---       #159
      00FF2F8EH   LINE      ECODE    ---       #160
      00FF2F94H   LINE      ECODE    ---       #161
      00FF2F9AH   LINE      ECODE    ---       #162
      00FF2FA0H   LINE      ECODE    ---       #163
      00FF2FA6H   LINE      ECODE    ---       #166
      00FF2FACH   LINE      ECODE    ---       #167
      00FF2FB2H   LINE      ECODE    ---       #173
      00FF2FB8H   LINE      ECODE    ---       #174
      00FF2FBEH   LINE      ECODE    ---       #175
      00FF2FC4H   LINE      ECODE    ---       #176
      00FF2FCAH   LINE      ECODE    ---       #177
      00FF2FCFH   LINE      ECODE    ---       #178
      00FF2FD5H   LINE      ECODE    ---       #179
      00FF2FDBH   LINE      ECODE    ---       #180
      00FF2FE1H   LINE      ECODE    ---       #181
      00FF2FE7H   LINE      ECODE    ---       #182
      00FF2FEDH   LINE      ECODE    ---       #183
      00FF2FF3H   LINE      ECODE    ---       #184
      00FF2FF9H   LINE      ECODE    ---       #185
      00FF2FFFH   LINE      ECODE    ---       #186
      00FF3005H   LINE      ECODE    ---       #187
      00FF300BH   LINE      ECODE    ---       #188
      00FF3011H   LINE      ECODE    ---       #189
L251 LINKER/LOCATER V4.66.93.0                                                        07/17/2023  21:05:08  PAGE 133


      00FF3017H   LINE      ECODE    ---       #190
      00FF301DH   LINE      ECODE    ---       #191
      00FF3023H   LINE      ECODE    ---       #192
      00FF3029H   LINE      ECODE    ---       #193
      00FF302EH   LINE      ECODE    ---       #194
      ---         BLOCKEND  ---      ---       LVL=0

      00FF3035H   BLOCK     ECODE    ---       LVL=0
      R15         REGSYM    ---      BYTE      x
      R10         REGSYM    ---      BYTE      y
      00FF3035H   LINE      ECODE    ---       #205
      00FF3039H   LINE      ECODE    ---       #207
      00FF3041H   LINE      ECODE    ---       #208
      00FF3050H   LINE      ECODE    ---       #209
      00FF3058H   LINE      ECODE    ---       #210
      ---         BLOCKEND  ---      ---       LVL=0

      00FF305BH   BLOCK     ECODE    ---       LVL=0
      R15         REGSYM    ---      BYTE      bmp_data
      00FF3061H   BLOCK     ECODE    NEAR LAB  LVL=1
      R14         REGSYM    ---      BYTE      y
      R13         REGSYM    ---      BYTE      x
      ---         BLOCKEND  ---      ---       LVL=1
      00FF305BH   LINE      ECODE    ---       #219
      00FF3061H   LINE      ECODE    ---       #220
      00FF3061H   LINE      ECODE    ---       #223
      00FF3063H   LINE      ECODE    ---       #225
      00FF306BH   LINE      ECODE    ---       #226
      00FF3071H   LINE      ECODE    ---       #227
      00FF3077H   LINE      ECODE    ---       #228
      00FF3086H   LINE      ECODE    ---       #229
      00FF308DH   LINE      ECODE    ---       #230
      ---         BLOCKEND  ---      ---       LVL=0

      00FF3092H   BLOCK     ECODE    ---       LVL=0
      R15         REGSYM    ---      BYTE      x
      R14         REGSYM    ---      BYTE      y
      R13         REGSYM    ---      BYTE      data1
      00FF3092H   LINE      ECODE    ---       #243
      00FF309CH   LINE      ECODE    ---       #245
      00FF30A0H   LINE      ECODE    ---       #246
      00FF30A8H   LINE      ECODE    ---       #247
      00FF30B7H   LINE      ECODE    ---       #248
      00FF30BFH   LINE      ECODE    ---       #249
      00FF30C5H   LINE      ECODE    ---       #250
      ---         BLOCKEND  ---      ---       LVL=0

      00FF30CAH   BLOCK     ECODE    ---       LVL=0
      R15         REGSYM    ---      BYTE      x
      R14         REGSYM    ---      BYTE      y
      00FF30CAH   LINE      ECODE    ---       #260
      00FF30D0H   LINE      ECODE    ---       #262
      00FF30D4H   LINE      ECODE    ---       #263
      00FF30DCH   LINE      ECODE    ---       #264
      00FF30EBH   LINE      ECODE    ---       #265
      00FF30F3H   LINE      ECODE    ---       #266
      00FF30F8H   LINE      ECODE    ---       #267
      ---         BLOCKEND  ---      ---       LVL=0

      00FF30FBH   BLOCK     ECODE    ---       LVL=0
      000007A3H   SYMBOL    EDATA    BYTE      x
      000007A4H   SYMBOL    EDATA    BYTE      y
      REG=3       REGSYM    ---      ---       ch
      00FF3107H   BLOCK     ECODE    NEAR LAB  LVL=1
      000007A5H   SYMBOL    EDATA    BYTE      c
L251 LINKER/LOCATER V4.66.93.0                                                        07/17/2023  21:05:08  PAGE 134


      000007A6H   SYMBOL    EDATA    BYTE      i
      000007A7H   SYMBOL    EDATA    BYTE      j
      ---         BLOCKEND  ---      ---       LVL=1
      00FF30FBH   LINE      ECODE    ---       #279
      00FF3107H   LINE      ECODE    ---       #280
      00FF3107H   LINE      ECODE    ---       #281
      00FF3110H   LINE      ECODE    ---       #282
      00FF3112H   LINE      ECODE    ---       #284
      00FF3129H   LINE      ECODE    ---       #285
      00FF3140H   LINE      ECODE    ---       #286
      00FF314CH   LINE      ECODE    ---       #287
      00FF317DH   LINE      ECODE    ---       #288
      00FF3187H   LINE      ECODE    ---       #289
      00FF3190H   LINE      ECODE    ---       #290
      00FF31A2H   LINE      ECODE    ---       #291
      ---         BLOCKEND  ---      ---       LVL=0

      00FF31A5H   BLOCK     ECODE    ---       LVL=0
      REG=3       REGSYM    ---      ---       ch
      00FF31B1H   BLOCK     ECODE    NEAR LAB  LVL=1
      ---         BLOCKEND  ---      ---       LVL=1
      00FF31A5H   LINE      ECODE    ---       #302
      00FF31B1H   LINE      ECODE    ---       #303
      00FF31B1H   LINE      ECODE    ---       #304
      00FF31BAH   LINE      ECODE    ---       #306
      00FF31BDH   LINE      ECODE    ---       #308
      00FF31D4H   LINE      ECODE    ---       #309
      00FF31EBH   LINE      ECODE    ---       #311
      00FF31F7H   LINE      ECODE    ---       #312
      00FF3228H   LINE      ECODE    ---       #314
      00FF3236H   LINE      ECODE    ---       #315
      00FF3267H   LINE      ECODE    ---       #317
      00FF3271H   LINE      ECODE    ---       #318
      00FF327AH   LINE      ECODE    ---       #319
      00FF328CH   LINE      ECODE    ---       #320
      ---         BLOCKEND  ---      ---       LVL=0

      00FF328FH   BLOCK     ECODE    ---       LVL=0
      R14         REGSYM    ---      BYTE      x
      R15         REGSYM    ---      BYTE      y
      WR4         REGSYM    ---      WORD      num
      00FF3295H   BLOCK     ECODE    NEAR LAB  LVL=1
      ---         BLOCKEND  ---      ---       LVL=1
      00FF328FH   LINE      ECODE    ---       #331
      00FF3295H   LINE      ECODE    ---       #332
      00FF3295H   LINE      ECODE    ---       #335
      00FF329FH   LINE      ECODE    ---       #337
      00FF32ABH   LINE      ECODE    ---       #339
      ---         BLOCKEND  ---      ---       LVL=0

      00FF32AEH   BLOCK     ECODE    ---       LVL=0
      R15         REGSYM    ---      BYTE      x
      R14         REGSYM    ---      BYTE      y
      WR12        REGSYM    ---      INT       num
      00FF32B6H   BLOCK     ECODE    NEAR LAB  LVL=1
      ---         BLOCKEND  ---      ---       LVL=1
      00FF32AEH   LINE      ECODE    ---       #350
      00FF32B6H   LINE      ECODE    ---       #351
      00FF32B6H   LINE      ECODE    ---       #353
      00FF32D0H   LINE      ECODE    ---       #354
      00FF32E0H   LINE      ECODE    ---       #355
      00FF32E3H   LINE      ECODE    ---       #357
      00FF32EDH   LINE      ECODE    ---       #358
      00FF32F9H   LINE      ECODE    ---       #359
      ---         BLOCKEND  ---      ---       LVL=0
L251 LINKER/LOCATER V4.66.93.0                                                        07/17/2023  21:05:08  PAGE 135



      00FF32FCH   BLOCK     ECODE    ---       LVL=0
      WR12        REGSYM    ---      WORD      y
      R15         REGSYM    ---      BYTE      num
      00FF330AH   BLOCK     ECODE    NEAR LAB  LVL=1
      R14         REGSYM    ---      BYTE      length
      ---         BLOCKEND  ---      ---       LVL=1
      00FF32FCH   LINE      ECODE    ---       #372
      00FF330AH   LINE      ECODE    ---       #373
      00FF330AH   LINE      ECODE    ---       #377
      00FF3312H   LINE      ECODE    ---       #379
      00FF3314H   LINE      ECODE    ---       #380
      00FF3336H   LINE      ECODE    ---       #383
      00FF333CH   LINE      ECODE    ---       #384
      00FF3356H   LINE      ECODE    ---       #385
      00FF3358H   LINE      ECODE    ---       #386
      00FF3358H   LINE      ECODE    ---       #387
      00FF335DH   LINE      ECODE    ---       #389
      00FF3363H   LINE      ECODE    ---       #390
      00FF3365H   LINE      ECODE    ---       #391
      00FF3369H   LINE      ECODE    ---       #392
      00FF3370H   LINE      ECODE    ---       #394
      00FF337EH   LINE      ECODE    ---       #395
      ---         BLOCKEND  ---      ---       LVL=0

      00FF3381H   BLOCK     ECODE    ---       LVL=0
      DR12        REGSYM    ---      FLOAT     dat
      00FF3391H   BLOCK     ECODE    NEAR LAB  LVL=1
      R7          REGSYM    ---      CHAR      point
      ---         BLOCKEND  ---      ---       LVL=1
      00FF3381H   LINE      ECODE    ---       #412
      00FF3391H   LINE      ECODE    ---       #413
      00FF3391H   LINE      ECODE    ---       #418
      00FF33A0H   LINE      ECODE    ---       #419
      00FF33AFH   LINE      ECODE    ---       #421
      00FF33D3H   LINE      ECODE    ---       #424
      00FF33EDH   LINE      ECODE    ---       #425
      00FF33F2H   LINE      ECODE    ---       #426
      00FF33F2H   LINE      ECODE    ---       #427
      00FF33FCH   LINE      ECODE    ---       #428
      00FF340CH   LINE      ECODE    ---       #429
      00FF341CH   LINE      ECODE    ---       #430
      00FF3421H   LINE      ECODE    ---       #432
      00FF342BH   LINE      ECODE    ---       #433
      00FF3434H   LINE      ECODE    ---       #434
      00FF343DH   LINE      ECODE    ---       #435
      00FF3446H   LINE      ECODE    ---       #437
      00FF3454H   LINE      ECODE    ---       #438
      00FF3460H   LINE      ECODE    ---       #440
      00FF346BH   LINE      ECODE    ---       #442
      00FF347BH   LINE      ECODE    ---       #443
      ---         BLOCKEND  ---      ---       LVL=0

      00FF347EH   BLOCK     ECODE    ---       LVL=0
      WR4         REGSYM    ---      WORD      high
      REG=3       REGSYM    ---      ---       p
      00FF348CH   BLOCK     ECODE    NEAR LAB  LVL=1
      ---         BLOCKEND  ---      ---       LVL=1
      00FF347EH   LINE      ECODE    ---       #459
      00FF348CH   LINE      ECODE    ---       #460
      00FF348CH   LINE      ECODE    ---       #461
      00FF3492H   LINE      ECODE    ---       #462
      00FF3496H   LINE      ECODE    ---       #463
      00FF349AH   LINE      ECODE    ---       #464
      00FF349FH   LINE      ECODE    ---       #467
L251 LINKER/LOCATER V4.66.93.0                                                        07/17/2023  21:05:08  PAGE 136


      00FF34A9H   LINE      ECODE    ---       #468
      00FF34BAH   LINE      ECODE    ---       #469
      00FF34C6H   LINE      ECODE    ---       #471
      00FF34C9H   LINE      ECODE    ---       #473
      00FF34D2H   LINE      ECODE    ---       #475
      00FF34D7H   LINE      ECODE    ---       #477
      00FF34DCH   LINE      ECODE    ---       #478
      00FF3525H   LINE      ECODE    ---       #479
      00FF3572H   LINE      ECODE    ---       #480
      00FF35C1H   LINE      ECODE    ---       #481
      00FF3618H   LINE      ECODE    ---       #482
      00FF366DH   LINE      ECODE    ---       #483
      00FF36C8H   LINE      ECODE    ---       #484
      00FF3725H   LINE      ECODE    ---       #485
      00FF3782H   LINE      ECODE    ---       #487
      00FF378AH   LINE      ECODE    ---       #488
      00FF37A1H   LINE      ECODE    ---       #489
      00FF37B8H   LINE      ECODE    ---       #490
      ---         BLOCKEND  ---      ---       LVL=0

      00FF37BBH   BLOCK     ECODE    ---       LVL=0
      REG=3       REGSYM    ---      ---       p
      00FF37CFH   BLOCK     ECODE    NEAR LAB  LVL=1
      ---         BLOCKEND  ---      ---       LVL=1
      00FF37BBH   LINE      ECODE    ---       #504
      00FF37CFH   LINE      ECODE    ---       #505
      00FF37CFH   LINE      ECODE    ---       #508
      00FF37D3H   LINE      ECODE    ---       #510
      00FF37D7H   LINE      ECODE    ---       #512
      00FF37F9H   LINE      ECODE    ---       #513
      00FF37FFH   LINE      ECODE    ---       #515
      00FF3806H   LINE      ECODE    ---       #516
      00FF3808H   LINE      ECODE    ---       #517
      00FF3818H   LINE      ECODE    ---       #518
      00FF3834H   LINE      ECODE    ---       #519
      00FF384AH   LINE      ECODE    ---       #520
      ---         BLOCKEND  ---      ---       LVL=0

      00FF384DH   BLOCK     ECODE    ---       LVL=0
      R7          REGSYM    ---      BYTE      dat
      00FF384DH   LINE      ECODE    ---       #534
      00FF384DH   LINE      ECODE    ---       #536
      00FF384FH   LINE      ECODE    ---       #537
      00FF3851H   LINE      ECODE    ---       #538
      00FF3855H   LINE      ECODE    ---       #539
      00FF3857H   LINE      ECODE    ---       #542
      ---         BLOCKEND  ---      ---       LVL=0

      00FF3858H   BLOCK     ECODE    ---       LVL=0
      R7          REGSYM    ---      BYTE      cmd
      00FF3858H   LINE      ECODE    ---       #576
      00FF3858H   LINE      ECODE    ---       #578
      00FF385AH   LINE      ECODE    ---       #579
      00FF385CH   LINE      ECODE    ---       #580
      00FF3860H   LINE      ECODE    ---       #581
      00FF3862H   LINE      ECODE    ---       #582
      ---         BLOCKEND  ---      ---       LVL=0

      00FF3863H   BLOCK     ECODE    ---       LVL=0
      WR8         REGSYM    ---      WORD      hex
      REG=7       REGSYM    ---      ---       Print
      00FF3867H   BLOCK     ECODE    NEAR LAB  LVL=1
      R5          REGSYM    ---      BYTE      hexcheck
      R10         REGSYM    ---      BYTE      TEMP
      ---         BLOCKEND  ---      ---       LVL=1
L251 LINKER/LOCATER V4.66.93.0                                                        07/17/2023  21:05:08  PAGE 137


      00FF3863H   LINE      ECODE    ---       #591
      00FF3867H   LINE      ECODE    ---       #592
      00FF3867H   LINE      ECODE    ---       #595
      00FF386AH   LINE      ECODE    ---       #596
      00FF386FH   LINE      ECODE    ---       #597
      00FF386FH   LINE      ECODE    ---       #599
      00FF3871H   LINE      ECODE    ---       #600
      00FF3879H   LINE      ECODE    ---       #601
      00FF387FH   LINE      ECODE    ---       #602
      00FF3890H   LINE      ECODE    ---       #603
      00FF3894H   LINE      ECODE    ---       #605
      ---         BLOCKEND  ---      ---       LVL=0

      00FF3895H   BLOCK     ECODE    ---       LVL=0
      00FF3895H   LINE      ECODE    ---       #614
      00FF3895H   LINE      ECODE    ---       #617
      00FF3897H   LINE      ECODE    ---       #619
      00FF38B6H   LINE      ECODE    ---       #621
      00FF38B8H   LINE      ECODE    ---       #622
      00FF38C0H   LINE      ECODE    ---       #623
      00FF38C2H   LINE      ECODE    ---       #625
      00FF38C8H   LINE      ECODE    ---       #626
      00FF38CDH   LINE      ECODE    ---       #627
      00FF38D3H   LINE      ECODE    ---       #628
      00FF38D9H   LINE      ECODE    ---       #629
      00FF38DFH   LINE      ECODE    ---       #630
      00FF38E5H   LINE      ECODE    ---       #633
      00FF38EBH   LINE      ECODE    ---       #634
      00FF38F1H   LINE      ECODE    ---       #640
      00FF38F7H   LINE      ECODE    ---       #641
      00FF38FDH   LINE      ECODE    ---       #642
      00FF3903H   LINE      ECODE    ---       #643
      00FF3909H   LINE      ECODE    ---       #644
      00FF390EH   LINE      ECODE    ---       #645
      00FF3914H   LINE      ECODE    ---       #646
      00FF391AH   LINE      ECODE    ---       #647
      00FF3920H   LINE      ECODE    ---       #648
      00FF3926H   LINE      ECODE    ---       #649
      00FF392CH   LINE      ECODE    ---       #650
      00FF3932H   LINE      ECODE    ---       #651
      00FF3938H   LINE      ECODE    ---       #652
      00FF393EH   LINE      ECODE    ---       #653
      00FF3944H   LINE      ECODE    ---       #654
      00FF394AH   LINE      ECODE    ---       #655
      00FF3950H   LINE      ECODE    ---       #656
      00FF3956H   LINE      ECODE    ---       #657
      00FF395CH   LINE      ECODE    ---       #658
      00FF3962H   LINE      ECODE    ---       #659
      00FF3968H   LINE      ECODE    ---       #660
      00FF396DH   LINE      ECODE    ---       #661
      ---         BLOCKEND  ---      ---       LVL=0

      00FF3974H   BLOCK     ECODE    ---       LVL=0
      R15         REGSYM    ---      BYTE      x
      R10         REGSYM    ---      BYTE      y
      00FF3974H   LINE      ECODE    ---       #672
      00FF3978H   LINE      ECODE    ---       #676
      00FF3980H   LINE      ECODE    ---       #677
      00FF398DH   LINE      ECODE    ---       #678
      00FF3995H   LINE      ECODE    ---       #679
      ---         BLOCKEND  ---      ---       LVL=0

      00FF3998H   BLOCK     ECODE    ---       LVL=0
      R15         REGSYM    ---      BYTE      bmp_data
      00FF399EH   BLOCK     ECODE    NEAR LAB  LVL=1
L251 LINKER/LOCATER V4.66.93.0                                                        07/17/2023  21:05:08  PAGE 138


      R14         REGSYM    ---      BYTE      y
      R13         REGSYM    ---      BYTE      x
      ---         BLOCKEND  ---      ---       LVL=1
      00FF3998H   LINE      ECODE    ---       #688
      00FF399EH   LINE      ECODE    ---       #689
      00FF399EH   LINE      ECODE    ---       #692
      00FF39A0H   LINE      ECODE    ---       #694
      00FF39A8H   LINE      ECODE    ---       #695
      00FF39AEH   LINE      ECODE    ---       #696
      00FF39B4H   LINE      ECODE    ---       #697
      00FF39C3H   LINE      ECODE    ---       #698
      00FF39CAH   LINE      ECODE    ---       #699
      ---         BLOCKEND  ---      ---       LVL=0

      00FF39CFH   BLOCK     ECODE    ---       LVL=0
      R15         REGSYM    ---      BYTE      x
      R14         REGSYM    ---      BYTE      y
      R13         REGSYM    ---      BYTE      data1
      00FF39CFH   LINE      ECODE    ---       #712
      00FF39D9H   LINE      ECODE    ---       #714
      00FF39DDH   LINE      ECODE    ---       #715
      00FF39E5H   LINE      ECODE    ---       #716
      00FF39F2H   LINE      ECODE    ---       #717
      00FF39FAH   LINE      ECODE    ---       #718
      00FF3A00H   LINE      ECODE    ---       #719
      ---         BLOCKEND  ---      ---       LVL=0

      00FF3A05H   BLOCK     ECODE    ---       LVL=0
      R15         REGSYM    ---      BYTE      x
      R14         REGSYM    ---      BYTE      y
      00FF3A05H   LINE      ECODE    ---       #729
      00FF3A0BH   LINE      ECODE    ---       #731
      00FF3A0FH   LINE      ECODE    ---       #732
      00FF3A17H   LINE      ECODE    ---       #733
      00FF3A24H   LINE      ECODE    ---       #734
      00FF3A2CH   LINE      ECODE    ---       #735
      00FF3A31H   LINE      ECODE    ---       #736
      ---         BLOCKEND  ---      ---       LVL=0

      00FF3A34H   BLOCK     ECODE    ---       LVL=0
      000007A8H   SYMBOL    EDATA    BYTE      x
      000007A9H   SYMBOL    EDATA    BYTE      y
      REG=3       REGSYM    ---      ---       ch
      00FF3A40H   BLOCK     ECODE    NEAR LAB  LVL=1
      000007AAH   SYMBOL    EDATA    BYTE      c
      000007ABH   SYMBOL    EDATA    BYTE      i
      000007ACH   SYMBOL    EDATA    BYTE      j
      ---         BLOCKEND  ---      ---       LVL=1
      00FF3A34H   LINE      ECODE    ---       #748
      00FF3A40H   LINE      ECODE    ---       #749
      00FF3A40H   LINE      ECODE    ---       #750
      00FF3A49H   LINE      ECODE    ---       #751
      00FF3A4BH   LINE      ECODE    ---       #753
      00FF3A62H   LINE      ECODE    ---       #754
      00FF3A79H   LINE      ECODE    ---       #755
      00FF3A85H   LINE      ECODE    ---       #756
      00FF3AB6H   LINE      ECODE    ---       #757
      00FF3AC0H   LINE      ECODE    ---       #758
      00FF3AC9H   LINE      ECODE    ---       #759
      00FF3ADBH   LINE      ECODE    ---       #760
      ---         BLOCKEND  ---      ---       LVL=0

      00FF3ADEH   BLOCK     ECODE    ---       LVL=0
      REG=3       REGSYM    ---      ---       ch
      00FF3AEAH   BLOCK     ECODE    NEAR LAB  LVL=1
L251 LINKER/LOCATER V4.66.93.0                                                        07/17/2023  21:05:08  PAGE 139


      ---         BLOCKEND  ---      ---       LVL=1
      00FF3ADEH   LINE      ECODE    ---       #771
      00FF3AEAH   LINE      ECODE    ---       #772
      00FF3AEAH   LINE      ECODE    ---       #773
      00FF3AF3H   LINE      ECODE    ---       #775
      00FF3AF6H   LINE      ECODE    ---       #777
      00FF3B0DH   LINE      ECODE    ---       #778
      00FF3B24H   LINE      ECODE    ---       #780
      00FF3B30H   LINE      ECODE    ---       #781
      00FF3B61H   LINE      ECODE    ---       #783
      00FF3B6FH   LINE      ECODE    ---       #784
      00FF3BA0H   LINE      ECODE    ---       #786
      00FF3BAAH   LINE      ECODE    ---       #787
      00FF3BB3H   LINE      ECODE    ---       #788
      00FF3BC5H   LINE      ECODE    ---       #789
      ---         BLOCKEND  ---      ---       LVL=0

      00FF3BC8H   BLOCK     ECODE    ---       LVL=0
      R14         REGSYM    ---      BYTE      x
      R15         REGSYM    ---      BYTE      y
      WR4         REGSYM    ---      WORD      num
      00FF3BCEH   BLOCK     ECODE    NEAR LAB  LVL=1
      ---         BLOCKEND  ---      ---       LVL=1
      00FF3BC8H   LINE      ECODE    ---       #800
      00FF3BCEH   LINE      ECODE    ---       #801
      00FF3BCEH   LINE      ECODE    ---       #804
      00FF3BD8H   LINE      ECODE    ---       #806
      00FF3BE4H   LINE      ECODE    ---       #808
      ---         BLOCKEND  ---      ---       LVL=0

      00FF3BE7H   BLOCK     ECODE    ---       LVL=0
      R15         REGSYM    ---      BYTE      x
      R14         REGSYM    ---      BYTE      y
      WR12        REGSYM    ---      INT       num
      00FF3BEFH   BLOCK     ECODE    NEAR LAB  LVL=1
      ---         BLOCKEND  ---      ---       LVL=1
      00FF3BE7H   LINE      ECODE    ---       #819
      00FF3BEFH   LINE      ECODE    ---       #820
      00FF3BEFH   LINE      ECODE    ---       #822
      00FF3C09H   LINE      ECODE    ---       #823
      00FF3C19H   LINE      ECODE    ---       #824
      00FF3C1CH   LINE      ECODE    ---       #826
      00FF3C26H   LINE      ECODE    ---       #827
      00FF3C32H   LINE      ECODE    ---       #828
      ---         BLOCKEND  ---      ---       LVL=0

      00FF3C35H   BLOCK     ECODE    ---       LVL=0
      WR12        REGSYM    ---      WORD      y
      R15         REGSYM    ---      BYTE      num
      00FF3C43H   BLOCK     ECODE    NEAR LAB  LVL=1
      R14         REGSYM    ---      BYTE      length
      ---         BLOCKEND  ---      ---       LVL=1
      00FF3C35H   LINE      ECODE    ---       #841
      00FF3C43H   LINE      ECODE    ---       #842
      00FF3C43H   LINE      ECODE    ---       #846
      00FF3C4BH   LINE      ECODE    ---       #848
      00FF3C4DH   LINE      ECODE    ---       #849
      00FF3C6FH   LINE      ECODE    ---       #852
      00FF3C75H   LINE      ECODE    ---       #853
      00FF3C8FH   LINE      ECODE    ---       #854
      00FF3C91H   LINE      ECODE    ---       #855
      00FF3C91H   LINE      ECODE    ---       #856
      00FF3C96H   LINE      ECODE    ---       #858
      00FF3C9CH   LINE      ECODE    ---       #859
      00FF3C9EH   LINE      ECODE    ---       #860
L251 LINKER/LOCATER V4.66.93.0                                                        07/17/2023  21:05:08  PAGE 140


      00FF3CA2H   LINE      ECODE    ---       #861
      00FF3CA9H   LINE      ECODE    ---       #863
      00FF3CB7H   LINE      ECODE    ---       #864
      ---         BLOCKEND  ---      ---       LVL=0

      00FF3CBAH   BLOCK     ECODE    ---       LVL=0
      DR12        REGSYM    ---      FLOAT     dat
      00FF3CCAH   BLOCK     ECODE    NEAR LAB  LVL=1
      R7          REGSYM    ---      CHAR      point
      ---         BLOCKEND  ---      ---       LVL=1
      00FF3CBAH   LINE      ECODE    ---       #881
      00FF3CCAH   LINE      ECODE    ---       #882
      00FF3CCAH   LINE      ECODE    ---       #887
      00FF3CD9H   LINE      ECODE    ---       #888
      00FF3CE8H   LINE      ECODE    ---       #890
      00FF3D0CH   LINE      ECODE    ---       #893
      00FF3D26H   LINE      ECODE    ---       #894
      00FF3D2BH   LINE      ECODE    ---       #895
      00FF3D2BH   LINE      ECODE    ---       #896
      00FF3D35H   LINE      ECODE    ---       #897
      00FF3D45H   LINE      ECODE    ---       #898
      00FF3D55H   LINE      ECODE    ---       #899
      00FF3D5AH   LINE      ECODE    ---       #901
      00FF3D64H   LINE      ECODE    ---       #902
      00FF3D6DH   LINE      ECODE    ---       #903
      00FF3D76H   LINE      ECODE    ---       #904
      00FF3D7FH   LINE      ECODE    ---       #906
      00FF3D8DH   LINE      ECODE    ---       #907
      00FF3D99H   LINE      ECODE    ---       #909
      00FF3DA4H   LINE      ECODE    ---       #911
      00FF3DB4H   LINE      ECODE    ---       #912
      ---         BLOCKEND  ---      ---       LVL=0

      00FF3DB7H   BLOCK     ECODE    ---       LVL=0
      WR4         REGSYM    ---      WORD      high
      REG=3       REGSYM    ---      ---       p
      00FF3DC5H   BLOCK     ECODE    NEAR LAB  LVL=1
      ---         BLOCKEND  ---      ---       LVL=1
      00FF3DB7H   LINE      ECODE    ---       #928
      00FF3DC5H   LINE      ECODE    ---       #929
      00FF3DC5H   LINE      ECODE    ---       #935
      00FF3DCDH   LINE      ECODE    ---       #936
      00FF3DD9H   LINE      ECODE    ---       #937
      00FF3DE7H   LINE      ECODE    ---       #939
      00FF3DECH   LINE      ECODE    ---       #941
      00FF3DF5H   LINE      ECODE    ---       #942
      00FF3DFAH   LINE      ECODE    ---       #944
      00FF3DFFH   LINE      ECODE    ---       #945
      00FF3E48H   LINE      ECODE    ---       #946
      00FF3E95H   LINE      ECODE    ---       #947
      00FF3EE4H   LINE      ECODE    ---       #948
      00FF3F3BH   LINE      ECODE    ---       #949
      00FF3F90H   LINE      ECODE    ---       #950
      00FF3FEBH   LINE      ECODE    ---       #951
      00FF4048H   LINE      ECODE    ---       #952
      00FF40A5H   LINE      ECODE    ---       #954
      00FF40ADH   LINE      ECODE    ---       #955
      00FF40C4H   LINE      ECODE    ---       #956
      00FF40DBH   LINE      ECODE    ---       #957
      ---         BLOCKEND  ---      ---       LVL=0

      00FF40DEH   BLOCK     ECODE    ---       LVL=0
      REG=3       REGSYM    ---      ---       p
      00FF40F2H   BLOCK     ECODE    NEAR LAB  LVL=1
      ---         BLOCKEND  ---      ---       LVL=1
L251 LINKER/LOCATER V4.66.93.0                                                        07/17/2023  21:05:08  PAGE 141


      00FF40DEH   LINE      ECODE    ---       #971
      00FF40F2H   LINE      ECODE    ---       #972
      00FF40F2H   LINE      ECODE    ---       #975
      00FF40F6H   LINE      ECODE    ---       #977
      00FF40FAH   LINE      ECODE    ---       #979
      00FF411CH   LINE      ECODE    ---       #980
      00FF4122H   LINE      ECODE    ---       #982
      00FF4129H   LINE      ECODE    ---       #983
      00FF412BH   LINE      ECODE    ---       #984
      00FF413BH   LINE      ECODE    ---       #985
      00FF4157H   LINE      ECODE    ---       #986
      00FF416DH   LINE      ECODE    ---       #987
      ---         BLOCKEND  ---      ---       LVL=0

      ---         MODULE    ---      ---       SEEKFREE_PRINTF
      00FF9D58H   PUBLIC    ECODE    ---       number_conversion_ascii?
      00FF9E2CH   PUBLIC    ECODE    ---       zf_sprintf?
      00FF9DEEH   PUBLIC    ECODE    ---       printf_reverse_order?
      0000014AH   PUBLIC    EDATA    BYTE      ?number_conversion_ascii??BYTE
      0000011CH   PUBLIC    EDATA    BYTE      ?zf_sprintf??BYTE
      000000D0H   SFRSYM    DATA     BYTE      PSW
      0000009DH   SFRSYM    DATA     BYTE      IRCBAND
      00000097H   SFRSYM    DATA     BYTE      AUXR2
      000000EFH   SFRSYM    DATA     BYTE      AUXINTIF
      000000FDH   SFRSYM    DATA     BYTE      S4CON
      000000ACH   SFRSYM    DATA     BYTE      S3CON
      0000009AH   SFRSYM    DATA     BYTE      S2CON
      000000B7H   SFRSYM    DATA     BYTE      IPH
      000000CDH   SFRSYM    DATA     BYTE      SPSTAT
      000000DDH   SFRSYM    DATA     BYTE      T4T3M
      000000C1H   SFRSYM    DATA     BYTE      WDT_CONTR
      000000DFH   SFRSYM    DATA     BYTE      IP3
      000000F4H   SFRSYM    DATA     BYTE      USBCON
      000000B5H   SFRSYM    DATA     BYTE      IP2
      000000FFH   SFRSYM    DATA     BYTE      RSTCFG
      000000F9H   SFRSYM    DATA     BYTE      LINICR
      0000008EH   SFRSYM    DATA     BYTE      AUXR
      000000AFH   SFRSYM    DATA     BYTE      IE2
      00000088H   SFRSYM    DATA     BYTE      TCON
      00000098H   SFRSYM    DATA     BYTE      SCON
      000000F1H   SFRSYM    DATA     BYTE      CANICR
      00000087H   SFRSYM    DATA     BYTE      PCON
      000000BCH   SFRSYM    DATA     BYTE      ADC_CONTR
      000000E7H   SFRSYM    DATA     BYTE      CMPCR2
      000000E6H   SFRSYM    DATA     BYTE      CMPCR1
      000000B8H   SFRSYM    DATA     BYTE      IP
      0000008FH   SFRSYM    DATA     BYTE      INTCLKO
      000000EEH   SFRSYM    DATA     BYTE      IP3H
      000000B6H   SFRSYM    DATA     BYTE      IP2H
      000000A8H   SFRSYM    DATA     BYTE      IE
      000000BBH   SFRSYM    DATA     BYTE      P_SW3
      000000BAH   SFRSYM    DATA     BYTE      P_SW2
      000000A2H   SFRSYM    DATA     BYTE      P_SW1
      000000CEH   SFRSYM    DATA     BYTE      SPCTL
      000000F8H   SFRSYM    DATA     BYTE      P7
      000000E8H   SFRSYM    DATA     BYTE      P6
      000000C8H   SFRSYM    DATA     BYTE      P5
      000000C0H   SFRSYM    DATA     BYTE      P4
      000000B0H   SFRSYM    DATA     BYTE      P3
      000000A0H   SFRSYM    DATA     BYTE      P2
      00000090H   SFRSYM    DATA     BYTE      P1
      00000080H   SFRSYM    DATA     BYTE      P0

      00FF9D58H   BLOCK     ECODE    ---       LVL=0
      DR24        REGSYM    ---      DWORD     dat
L251 LINKER/LOCATER V4.66.93.0                                                        07/17/2023  21:05:08  PAGE 142


      REG=7       REGSYM    ---      ---       p
      R10         REGSYM    ---      BYTE      neg_type
      00000153H   SYMBOL    EDATA    BYTE      radix
      00FF9D60H   BLOCK     ECODE    NEAR LAB  LVL=1
      DR20        REGSYM    ---      LONG      neg_dat
      DR24        REGSYM    ---      DWORD     pos_dat
      R14         REGSYM    ---      BYTE      temp_data
      R15         REGSYM    ---      BYTE      valid_num
      ---         BLOCKEND  ---      ---       LVL=1
      00FF9D58H   LINE      ECODE    ---       #25
      00FF9D60H   LINE      ECODE    ---       #26
      00FF9D60H   LINE      ECODE    ---       #29
      00FF9D60H   LINE      ECODE    ---       #30
      00FF9D62H   LINE      ECODE    ---       #32
      00FF9D66H   LINE      ECODE    ---       #34
      00FF9D68H   LINE      ECODE    ---       #35
      00FF9D78H   LINE      ECODE    ---       #36
      00FF9D78H   LINE      ECODE    ---       #38
      00FF9D8FH   LINE      ECODE    ---       #39
      00FF9D9FH   LINE      ECODE    ---       #40
      00FF9DA1H   LINE      ECODE    ---       #42
      00FF9DA7H   LINE      ECODE    ---       #43
      00FF9DA9H   LINE      ECODE    ---       #44
      00FF9DABH   LINE      ECODE    ---       #45
      00FF9DADH   LINE      ECODE    ---       #48
      00FF9DADH   LINE      ECODE    ---       #49
      00FF9DADH   LINE      ECODE    ---       #51
      00FF9DBDH   LINE      ECODE    ---       #52
      00FF9DC7H   LINE      ECODE    ---       #53
      00FF9DCAH   LINE      ECODE    ---       #55
      00FF9DCDH   LINE      ECODE    ---       #57
      00FF9DDDH   LINE      ECODE    ---       #58
      00FF9DDFH   LINE      ECODE    ---       #60
      00FF9DE5H   LINE      ECODE    ---       #61
      00FF9DE7H   LINE      ECODE    ---       #62
      00FF9DE9H   LINE      ECODE    ---       #63
      00FF9DE9H   LINE      ECODE    ---       #64
      00FF9DEBH   LINE      ECODE    ---       #65
      ---         BLOCKEND  ---      ---       LVL=0

      00FF9DEEH   BLOCK     ECODE    ---       LVL=0
      REG=7       REGSYM    ---      ---       d_buff
      DR24        REGSYM    ---      DWORD     len
      00FF9DF2H   BLOCK     ECODE    NEAR LAB  LVL=1
      DR4         REGSYM    ---      DWORD     i
      R3          REGSYM    ---      CHAR      temp_data
      ---         BLOCKEND  ---      ---       LVL=1
      00FF9DEEH   LINE      ECODE    ---       #67
      00FF9DF2H   LINE      ECODE    ---       #68
      00FF9DF2H   LINE      ECODE    ---       #71
      00FF9DF6H   LINE      ECODE    ---       #73
      00FF9E05H   LINE      ECODE    ---       #74
      00FF9E13H   LINE      ECODE    ---       #75
      00FF9E1AH   LINE      ECODE    ---       #76
      00FF9E2BH   LINE      ECODE    ---       #77
      ---         BLOCKEND  ---      ---       LVL=0

      00FF9E2CH   BLOCK     ECODE    ---       LVL=0
      REG=3       REGSYM    ---      ---       buff
      00000120H   SYMBOL    EDATA    ---       format
      00FF9E34H   BLOCK     ECODE    NEAR LAB  LVL=1
      00000124H   SYMBOL    EDATA    DWORD     buff_len
      00000128H   SYMBOL    EDATA    ---       arg
      00FF9E49H   BLOCK     ECODE    NEAR LAB  LVL=2
      0000012CH   SYMBOL    EDATA    CHAR      ret
L251 LINKER/LOCATER V4.66.93.0                                                        07/17/2023  21:05:08  PAGE 143


      00FF9F73H   BLOCK     ECODE    NEAR LAB  LVL=3
      0000012DH   SYMBOL    EDATA    CHAR      ch
      ---         BLOCKEND  ---      ---       LVL=3
      00FF9F8CH   BLOCK     ECODE    NEAR LAB  LVL=3
      0000012DH   SYMBOL    EDATA    ---       vstr
      0000014EH   SYMBOL    EDATA    LONG      ival
      00000152H   SYMBOL    EDATA    BYTE      vlen
      ---         BLOCKEND  ---      ---       LVL=3
      00FFA008H   BLOCK     ECODE    NEAR LAB  LVL=3
      0000012DH   SYMBOL    EDATA    ---       vstr
      0000014EH   SYMBOL    EDATA    FLOAT     ival
      00000152H   SYMBOL    EDATA    BYTE      vlen
      ---         BLOCKEND  ---      ---       LVL=3
      00FFA150H   BLOCK     ECODE    NEAR LAB  LVL=3
      0000012DH   SYMBOL    EDATA    ---       vstr
      0000014EH   SYMBOL    EDATA    DWORD     ival
      00000152H   SYMBOL    EDATA    BYTE      vlen
      ---         BLOCKEND  ---      ---       LVL=3
      00FFA1ABH   BLOCK     ECODE    NEAR LAB  LVL=3
      0000012DH   SYMBOL    EDATA    ---       vstr
      0000014EH   SYMBOL    EDATA    DWORD     ival
      00000152H   SYMBOL    EDATA    BYTE      vlen
      ---         BLOCKEND  ---      ---       LVL=3
      00FFA205H   BLOCK     ECODE    NEAR LAB  LVL=3
      0000012DH   SYMBOL    EDATA    ---       vstr
      0000014EH   SYMBOL    EDATA    DWORD     ival
      00000152H   SYMBOL    EDATA    BYTE      vlen
      ---         BLOCKEND  ---      ---       LVL=3
      00FFA26AH   BLOCK     ECODE    NEAR LAB  LVL=3
      0000012DH   SYMBOL    EDATA    ---       pc
      ---         BLOCKEND  ---      ---       LVL=3
      00FFA2ACH   BLOCK     ECODE    NEAR LAB  LVL=3
      0000012DH   SYMBOL    EDATA    ---       vstr
      0000014EH   SYMBOL    EDATA    DWORD     ival
      ---         BLOCKEND  ---      ---       LVL=3
      ---         BLOCKEND  ---      ---       LVL=2
      ---         BLOCKEND  ---      ---       LVL=1
      00FF9E2CH   LINE      ECODE    ---       #212
      00FF9E34H   LINE      ECODE    ---       #213
      00FF9E34H   LINE      ECODE    ---       #214
      00FF9E3AH   LINE      ECODE    ---       #216
      00FF9E46H   LINE      ECODE    ---       #218
      00FF9E49H   LINE      ECODE    ---       #219
      00FF9E49H   LINE      ECODE    ---       #220
      00FF9E54H   LINE      ECODE    ---       #221
      00FF9E5CH   LINE      ECODE    ---       #223
      00FF9F73H   LINE      ECODE    ---       #225
      00FF9F73H   LINE      ECODE    ---       #229
      00FF9F73H   LINE      ECODE    ---       #232
      00FF9F73H   LINE      ECODE    ---       #233
      00FF9F73H   LINE      ECODE    ---       #234
      00FF9F89H   LINE      ECODE    ---       #235
      00FF9F89H   LINE      ECODE    ---       #236
      00FF9F89H   LINE      ECODE    ---       #237
      00FF9F89H   LINE      ECODE    ---       #239
      00FF9F8CH   LINE      ECODE    ---       #242
      00FF9F8CH   LINE      ECODE    ---       #243
      00FF9F8CH   LINE      ECODE    ---       #244
      00FF9F8CH   LINE      ECODE    ---       #246
      00FF9FA5H   LINE      ECODE    ---       #247
      00FF9FB9H   LINE      ECODE    ---       #249
      00FF9FC3H   LINE      ECODE    ---       #251
      00FF9FD0H   LINE      ECODE    ---       #252
      00FF9FD5H   LINE      ECODE    ---       #253
      00FF9FD5H   LINE      ECODE    ---       #254
L251 LINKER/LOCATER V4.66.93.0                                                        07/17/2023  21:05:08  PAGE 144


      00FF9FE5H   LINE      ECODE    ---       #255
      00FF9FF9H   LINE      ECODE    ---       #256
      00FFA001H   LINE      ECODE    ---       #257
      00FFA005H   LINE      ECODE    ---       #260
      00FFA008H   LINE      ECODE    ---       #262
      00FFA008H   LINE      ECODE    ---       #263
      00FFA008H   LINE      ECODE    ---       #264
      00FFA008H   LINE      ECODE    ---       #266
      00FFA021H   LINE      ECODE    ---       #267
      00FFA039H   LINE      ECODE    ---       #269
      00FFA045H   LINE      ECODE    ---       #271
      00FFA052H   LINE      ECODE    ---       #272
      00FFA057H   LINE      ECODE    ---       #273
      00FFA057H   LINE      ECODE    ---       #274
      00FFA067H   LINE      ECODE    ---       #275
      00FFA07BH   LINE      ECODE    ---       #276
      00FFA083H   LINE      ECODE    ---       #277
      00FFA095H   LINE      ECODE    ---       #279
      00FFA0BDH   LINE      ECODE    ---       #280
      00FFA0C3H   LINE      ECODE    ---       #282
      00FFA0D7H   LINE      ECODE    ---       #283
      00FFA0D9H   LINE      ECODE    ---       #286
      00FFA0F3H   LINE      ECODE    ---       #287
      00FFA0F9H   LINE      ECODE    ---       #288
      00FFA0F9H   LINE      ECODE    ---       #290
      00FFA0FEH   LINE      ECODE    ---       #292
      00FFA108H   LINE      ECODE    ---       #293
      00FFA10DH   LINE      ECODE    ---       #294
      00FFA116H   LINE      ECODE    ---       #296
      00FFA11EH   LINE      ECODE    ---       #297
      00FFA125H   LINE      ECODE    ---       #299
      00FFA135H   LINE      ECODE    ---       #300
      00FFA149H   LINE      ECODE    ---       #301
      00FFA14DH   LINE      ECODE    ---       #303
      00FFA150H   LINE      ECODE    ---       #306
      00FFA150H   LINE      ECODE    ---       #307
      00FFA150H   LINE      ECODE    ---       #309
      00FFA169H   LINE      ECODE    ---       #310
      00FFA17CH   LINE      ECODE    ---       #312
      00FFA188H   LINE      ECODE    ---       #313
      00FFA19CH   LINE      ECODE    ---       #314
      00FFA1A4H   LINE      ECODE    ---       #315
      00FFA1A8H   LINE      ECODE    ---       #316
      00FFA1ABH   LINE      ECODE    ---       #318
      00FFA1ABH   LINE      ECODE    ---       #319
      00FFA1ABH   LINE      ECODE    ---       #321
      00FFA1C4H   LINE      ECODE    ---       #322
      00FFA1D7H   LINE      ECODE    ---       #324
      00FFA1E3H   LINE      ECODE    ---       #325
      00FFA1F7H   LINE      ECODE    ---       #326
      00FFA1FFH   LINE      ECODE    ---       #327
      00FFA203H   LINE      ECODE    ---       #329
      00FFA205H   LINE      ECODE    ---       #331
      00FFA205H   LINE      ECODE    ---       #332
      00FFA205H   LINE      ECODE    ---       #333
      00FFA205H   LINE      ECODE    ---       #335
      00FFA21EH   LINE      ECODE    ---       #336
      00FFA231H   LINE      ECODE    ---       #338
      00FFA23DH   LINE      ECODE    ---       #339
      00FFA251H   LINE      ECODE    ---       #340
      00FFA259H   LINE      ECODE    ---       #341
      00FFA267H   LINE      ECODE    ---       #342
      00FFA26AH   LINE      ECODE    ---       #345
      00FFA26AH   LINE      ECODE    ---       #346
      00FFA26AH   LINE      ECODE    ---       #347
L251 LINKER/LOCATER V4.66.93.0                                                        07/17/2023  21:05:08  PAGE 145


      00FFA27FH   LINE      ECODE    ---       #348
      00FFA281H   LINE      ECODE    ---       #350
      00FFA28BH   LINE      ECODE    ---       #351
      00FFA28DH   LINE      ECODE    ---       #352
      00FFA297H   LINE      ECODE    ---       #353
      00FFA2A1H   LINE      ECODE    ---       #354
      00FFA2AAH   LINE      ECODE    ---       #355
      00FFA2ACH   LINE      ECODE    ---       #357
      00FFA2ACH   LINE      ECODE    ---       #358
      00FFA2ACH   LINE      ECODE    ---       #360
      00FFA2C5H   LINE      ECODE    ---       #362
      00FFA2D4H   LINE      ECODE    ---       #364
      00FFA2E0H   LINE      ECODE    ---       #365
      00FFA2F2H   LINE      ECODE    ---       #366
      00FFA2F6H   LINE      ECODE    ---       #367
      00FFA2FEH   LINE      ECODE    ---       #369
      00FFA300H   LINE      ECODE    ---       #372
      00FFA300H   LINE      ECODE    ---       #374
      00FFA305H   LINE      ECODE    ---       #375
      00FFA307H   LINE      ECODE    ---       #376
      00FFA30DH   LINE      ECODE    ---       #377
      00FFA30FH   LINE      ECODE    ---       #379
      00FFA30FH   LINE      ECODE    ---       #380
      00FFA30FH   LINE      ECODE    ---       #381
      00FFA30FH   LINE      ECODE    ---       #384
      00FFA319H   LINE      ECODE    ---       #385
      00FFA31BH   LINE      ECODE    ---       #386
      00FFA325H   LINE      ECODE    ---       #387
      00FFA325H   LINE      ECODE    ---       #388
      00FFA32FH   LINE      ECODE    ---       #389
      00FFA33BH   LINE      ECODE    ---       #392
      00FFA33FH   LINE      ECODE    ---       #393
      ---         BLOCKEND  ---      ---       LVL=0

      ---         MODULE    ---      ---       SEEKFREE_TSL1401
      000002D5H   PUBLIC    EDATA    BYTE      tsl1401_finish_flag
      000002D6H   PUBLIC    EDATA    ---       ccd_data
      000000D0H   SFRSYM    DATA     BYTE      PSW
      0000009DH   SFRSYM    DATA     BYTE      IRCBAND
      00000097H   SFRSYM    DATA     BYTE      AUXR2
      000000EFH   SFRSYM    DATA     BYTE      AUXINTIF
      000000FDH   SFRSYM    DATA     BYTE      S4CON
      000000ACH   SFRSYM    DATA     BYTE      S3CON
      0000009AH   SFRSYM    DATA     BYTE      S2CON
      000000B7H   SFRSYM    DATA     BYTE      IPH
      000000CDH   SFRSYM    DATA     BYTE      SPSTAT
      000000DDH   SFRSYM    DATA     BYTE      T4T3M
      000000C1H   SFRSYM    DATA     BYTE      WDT_CONTR
      000000DFH   SFRSYM    DATA     BYTE      IP3
      000000F4H   SFRSYM    DATA     BYTE      USBCON
      000000B5H   SFRSYM    DATA     BYTE      IP2
      000000FFH   SFRSYM    DATA     BYTE      RSTCFG
      000000F9H   SFRSYM    DATA     BYTE      LINICR
      0000008EH   SFRSYM    DATA     BYTE      AUXR
      000000AFH   SFRSYM    DATA     BYTE      IE2
      000000B0H.3 SFRSYM    DATA     BIT       P33
      00000088H   SFRSYM    DATA     BYTE      TCON
      000000B0H.2 SFRSYM    DATA     BIT       P32
      00000098H   SFRSYM    DATA     BYTE      SCON
      000000F1H   SFRSYM    DATA     BYTE      CANICR
      00000087H   SFRSYM    DATA     BYTE      PCON
      000000BCH   SFRSYM    DATA     BYTE      ADC_CONTR
      000000E7H   SFRSYM    DATA     BYTE      CMPCR2
      000000E6H   SFRSYM    DATA     BYTE      CMPCR1
      000000B8H   SFRSYM    DATA     BYTE      IP
L251 LINKER/LOCATER V4.66.93.0                                                        07/17/2023  21:05:08  PAGE 146


      0000008FH   SFRSYM    DATA     BYTE      INTCLKO
      000000EEH   SFRSYM    DATA     BYTE      IP3H
      000000B6H   SFRSYM    DATA     BYTE      IP2H
      000000A8H   SFRSYM    DATA     BYTE      IE
      000000BBH   SFRSYM    DATA     BYTE      P_SW3
      000000BAH   SFRSYM    DATA     BYTE      P_SW2
      000000A2H   SFRSYM    DATA     BYTE      P_SW1
      000000CEH   SFRSYM    DATA     BYTE      SPCTL
      000000F8H   SFRSYM    DATA     BYTE      P7
      000000E8H   SFRSYM    DATA     BYTE      P6
      000000C8H   SFRSYM    DATA     BYTE      P5
      000000C0H   SFRSYM    DATA     BYTE      P4
      000000B0H   SFRSYM    DATA     BYTE      P3
      000000A0H   SFRSYM    DATA     BYTE      P2
      00000090H   SFRSYM    DATA     BYTE      P1
      00000080H   SFRSYM    DATA     BYTE      P0
      REG=3       REGSYM    ---      ---       dat
      R15         REGSYM    ---      BYTE      i

      ---         MODULE    ---      ---       SEEKFREE_VIRSCO
      00FFDA11H   PUBLIC    ECODE    ---       CRC_CHECK?
      00FFDA4BH   PUBLIC    ECODE    ---       data_conversion?
      0000077FH   PUBLIC    EDATA    ---       virtual_scope_data
      000000D0H   SFRSYM    DATA     BYTE      PSW
      0000009DH   SFRSYM    DATA     BYTE      IRCBAND
      00000097H   SFRSYM    DATA     BYTE      AUXR2
      000000EFH   SFRSYM    DATA     BYTE      AUXINTIF
      000000FDH   SFRSYM    DATA     BYTE      S4CON
      000000ACH   SFRSYM    DATA     BYTE      S3CON
      0000009AH   SFRSYM    DATA     BYTE      S2CON
      000000B7H   SFRSYM    DATA     BYTE      IPH
      000000CDH   SFRSYM    DATA     BYTE      SPSTAT
      000000DDH   SFRSYM    DATA     BYTE      T4T3M
      000000C1H   SFRSYM    DATA     BYTE      WDT_CONTR
      000000DFH   SFRSYM    DATA     BYTE      IP3
      000000F4H   SFRSYM    DATA     BYTE      USBCON
      000000B5H   SFRSYM    DATA     BYTE      IP2
      000000FFH   SFRSYM    DATA     BYTE      RSTCFG
      000000F9H   SFRSYM    DATA     BYTE      LINICR
      0000008EH   SFRSYM    DATA     BYTE      AUXR
      000000AFH   SFRSYM    DATA     BYTE      IE2
      00000088H   SFRSYM    DATA     BYTE      TCON
      00000098H   SFRSYM    DATA     BYTE      SCON
      000000F1H   SFRSYM    DATA     BYTE      CANICR
      00000087H   SFRSYM    DATA     BYTE      PCON
      000000BCH   SFRSYM    DATA     BYTE      ADC_CONTR
      000000E7H   SFRSYM    DATA     BYTE      CMPCR2
      000000E6H   SFRSYM    DATA     BYTE      CMPCR1
      000000B8H   SFRSYM    DATA     BYTE      IP
      0000008FH   SFRSYM    DATA     BYTE      INTCLKO
      000000EEH   SFRSYM    DATA     BYTE      IP3H
      000000B6H   SFRSYM    DATA     BYTE      IP2H
      000000A8H   SFRSYM    DATA     BYTE      IE
      000000BBH   SFRSYM    DATA     BYTE      P_SW3
      000000BAH   SFRSYM    DATA     BYTE      P_SW2
      000000A2H   SFRSYM    DATA     BYTE      P_SW1
      000000CEH   SFRSYM    DATA     BYTE      SPCTL
      000000F8H   SFRSYM    DATA     BYTE      P7
      000000E8H   SFRSYM    DATA     BYTE      P6
      000000C8H   SFRSYM    DATA     BYTE      P5
      000000C0H   SFRSYM    DATA     BYTE      P4
      000000B0H   SFRSYM    DATA     BYTE      P3
      000000A0H   SFRSYM    DATA     BYTE      P2
      00000090H   SFRSYM    DATA     BYTE      P1
      00000080H   SFRSYM    DATA     BYTE      P0
L251 LINKER/LOCATER V4.66.93.0                                                        07/17/2023  21:05:08  PAGE 147



      00FFDA11H   BLOCK     ECODE    ---       LVL=0
      REG=7       REGSYM    ---      ---       Buf
      R10         REGSYM    ---      BYTE      CRC_CNT
      00FFDA15H   BLOCK     ECODE    NEAR LAB  LVL=1
      WR6         REGSYM    ---      WORD      CRC_Temp
      R5          REGSYM    ---      BYTE      i
      R4          REGSYM    ---      BYTE      j
      ---         BLOCKEND  ---      ---       LVL=1
      00FFDA11H   LINE      ECODE    ---       #38
      00FFDA15H   LINE      ECODE    ---       #39
      00FFDA15H   LINE      ECODE    ---       #42
      00FFDA19H   LINE      ECODE    ---       #44
      00FFDA1DH   LINE      ECODE    ---       #45
      00FFDA2AH   LINE      ECODE    ---       #46
      00FFDA2CH   LINE      ECODE    ---       #47
      00FFDA34H   LINE      ECODE    ---       #48
      00FFDA3CH   LINE      ECODE    ---       #50
      00FFDA3EH   LINE      ECODE    ---       #51
      00FFDA44H   LINE      ECODE    ---       #52
      00FFDA4AH   LINE      ECODE    ---       #53
      00FFDA4AH   LINE      ECODE    ---       #54
      ---         BLOCKEND  ---      ---       LVL=0

      00FFDA4BH   BLOCK     ECODE    ---       LVL=0
      WR0         REGSYM    ---      INT       data1
      WR30        REGSYM    ---      INT       data2
      WR8         REGSYM    ---      INT       data3
      WR10        REGSYM    ---      INT       data4
      00FFDA53H   BLOCK     ECODE    NEAR LAB  LVL=1
      WR6         REGSYM    ---      WORD      CRC16
      ---         BLOCKEND  ---      ---       LVL=1
      00FFDA4BH   LINE      ECODE    ---       #67
      00FFDA53H   LINE      ECODE    ---       #68
      00FFDA53H   LINE      ECODE    ---       #71
      00FFDA5AH   LINE      ECODE    ---       #72
      00FFDA64H   LINE      ECODE    ---       #74
      00FFDA6EH   LINE      ECODE    ---       #75
      00FFDA78H   LINE      ECODE    ---       #77
      00FFDA80H   LINE      ECODE    ---       #78
      00FFDA88H   LINE      ECODE    ---       #80
      00FFDA90H   LINE      ECODE    ---       #81
      00FFDA98H   LINE      ECODE    ---       #83
      00FFDAA2H   LINE      ECODE    ---       #84
      00FFDAAAH   LINE      ECODE    ---       #85
      00FFDAB4H   LINE      ECODE    ---       #88
      ---         BLOCKEND  ---      ---       LVL=0

      ---         MODULE    ---      ---       SEEKFREE_WIRELESS
      00FFD9B2H   PUBLIC    ECODE    ---       wireless_uart_read_buff?
      00FFD957H   PUBLIC    ECODE    ---       wireless_uart_send_buff?
      00FFD93DH   PUBLIC    ECODE    ---       wireless_uart_callback?
      00FFD9D5H   PUBLIC    ECODE    ---       wireless_uart_init?
      000000D0H   SFRSYM    DATA     BYTE      PSW
      0000009DH   SFRSYM    DATA     BYTE      IRCBAND
      00000097H   SFRSYM    DATA     BYTE      AUXR2
      000000EFH   SFRSYM    DATA     BYTE      AUXINTIF
      000000FDH   SFRSYM    DATA     BYTE      S4CON
      000000ACH   SFRSYM    DATA     BYTE      S3CON
      0000009AH   SFRSYM    DATA     BYTE      S2CON
      000000FEH   SFRSYM    DATA     BYTE      S4BUF
      000000B7H   SFRSYM    DATA     BYTE      IPH
      000000CDH   SFRSYM    DATA     BYTE      SPSTAT
      000000DDH   SFRSYM    DATA     BYTE      T4T3M
      000000C1H   SFRSYM    DATA     BYTE      WDT_CONTR
L251 LINKER/LOCATER V4.66.93.0                                                        07/17/2023  21:05:08  PAGE 148


      000000DFH   SFRSYM    DATA     BYTE      IP3
      000000F4H   SFRSYM    DATA     BYTE      USBCON
      000000B5H   SFRSYM    DATA     BYTE      IP2
      000000FFH   SFRSYM    DATA     BYTE      RSTCFG
      000000F9H   SFRSYM    DATA     BYTE      LINICR
      0000008EH   SFRSYM    DATA     BYTE      AUXR
      000000AFH   SFRSYM    DATA     BYTE      IE2
      000000C0H.5 SFRSYM    DATA     BIT       P45
      00000088H   SFRSYM    DATA     BYTE      TCON
      00000098H   SFRSYM    DATA     BYTE      SCON
      000000F1H   SFRSYM    DATA     BYTE      CANICR
      00000087H   SFRSYM    DATA     BYTE      PCON
      000000BCH   SFRSYM    DATA     BYTE      ADC_CONTR
      000000E7H   SFRSYM    DATA     BYTE      CMPCR2
      000000E6H   SFRSYM    DATA     BYTE      CMPCR1
      000000B8H   SFRSYM    DATA     BYTE      IP
      0000008FH   SFRSYM    DATA     BYTE      INTCLKO
      000000EEH   SFRSYM    DATA     BYTE      IP3H
      000000B6H   SFRSYM    DATA     BYTE      IP2H
      000000A8H   SFRSYM    DATA     BYTE      IE
      000000BBH   SFRSYM    DATA     BYTE      P_SW3
      000000BAH   SFRSYM    DATA     BYTE      P_SW2
      000000A2H   SFRSYM    DATA     BYTE      P_SW1
      000000CEH   SFRSYM    DATA     BYTE      SPCTL
      000000F8H   SFRSYM    DATA     BYTE      P7
      000000E8H   SFRSYM    DATA     BYTE      P6
      000000C8H   SFRSYM    DATA     BYTE      P5
      000000C0H   SFRSYM    DATA     BYTE      P4
      000000B0H   SFRSYM    DATA     BYTE      P3
      000000A0H   SFRSYM    DATA     BYTE      P2
      00000090H   SFRSYM    DATA     BYTE      P1
      00000080H   SFRSYM    DATA     BYTE      P0
      00000634H   SYMBOL    EDATA    BYTE      wireless_uart_data
      00000635H   SYMBOL    EDATA    ---       wireless_uart_fifo
      00000649H   SYMBOL    EDATA    ---       wireless_uart_buffer

      00FFD93DH   BLOCK     ECODE    ---       LVL=0
      00FFD93DH   LINE      ECODE    ---       #48
      00FFD93DH   LINE      ECODE    ---       #51
      00FFD943H   LINE      ECODE    ---       #52
      ---         BLOCKEND  ---      ---       LVL=0

      00FFD957H   BLOCK     ECODE    ---       LVL=0
      REG=3       REGSYM    ---      ---       buff
      00FFD957H   LINE      ECODE    ---       #66
      00FFD95FH   LINE      ECODE    ---       #68
      00FFD961H   LINE      ECODE    ---       #70
      00FFD968H   LINE      ECODE    ---       #72
      00FFD970H   LINE      ECODE    ---       #73
      00FFD970H   LINE      ECODE    ---       #75
      00FFD97CH   LINE      ECODE    ---       #77
      00FFD980H   LINE      ECODE    ---       #78
      00FFD98CH   LINE      ECODE    ---       #79
      00FFD996H   LINE      ECODE    ---       #81
      00FFD99DH   LINE      ECODE    ---       #83
      00FFD9A3H   LINE      ECODE    ---       #84
      00FFD9A3H   LINE      ECODE    ---       #86
      00FFD9ADH   LINE      ECODE    ---       #88
      00FFD9AFH   LINE      ECODE    ---       #89
      ---         BLOCKEND  ---      ---       LVL=0

      00FFD9B2H   BLOCK     ECODE    ---       LVL=0
      REG=7       REGSYM    ---      ---       buff
      DR8         REGSYM    ---      DWORD     len
      00FFD9B4H   BLOCK     ECODE    NEAR LAB  LVL=1
L251 LINKER/LOCATER V4.66.93.0                                                        07/17/2023  21:05:08  PAGE 149


      ---         BLOCKEND  ---      ---       LVL=1
      00FFD9B2H   LINE      ECODE    ---       #100
      00FFD9B4H   LINE      ECODE    ---       #101
      00FFD9B4H   LINE      ECODE    ---       #102
      00FFD9B8H   LINE      ECODE    ---       #103
      00FFD9D0H   LINE      ECODE    ---       #104
      00FFD9D4H   LINE      ECODE    ---       #105
      ---         BLOCKEND  ---      ---       LVL=0

      00FFD9D5H   BLOCK     ECODE    ---       LVL=0
      00FFD9D5H   LINE      ECODE    ---       #118
      00FFD9D5H   LINE      ECODE    ---       #120
      00FFD9D7H   LINE      ECODE    ---       #121
      00FFD9DFH   LINE      ECODE    ---       #123
      00FFD9F3H   LINE      ECODE    ---       #124
      ---         BLOCKEND  ---      ---       LVL=0

      ---         MODULE    ---      ---       SEEKFREE_WIRELESS_CH573
      00FFD8DCH   PUBLIC    ECODE    ---       wireless_ch573_read_buff?
      00FFD87DH   PUBLIC    ECODE    ---       wireless_ch573_send_buff?
      00FFD863H   PUBLIC    ECODE    ---       wireless_ch573_callback?
      00FFD8FFH   PUBLIC    ECODE    ---       wireless_ch573_init?
      000000D0H   SFRSYM    DATA     BYTE      PSW
      0000009DH   SFRSYM    DATA     BYTE      IRCBAND
      00000097H   SFRSYM    DATA     BYTE      AUXR2
      000000EFH   SFRSYM    DATA     BYTE      AUXINTIF
      000000FDH   SFRSYM    DATA     BYTE      S4CON
      000000ACH   SFRSYM    DATA     BYTE      S3CON
      0000009AH   SFRSYM    DATA     BYTE      S2CON
      000000FEH   SFRSYM    DATA     BYTE      S4BUF
      000000B7H   SFRSYM    DATA     BYTE      IPH
      000000CDH   SFRSYM    DATA     BYTE      SPSTAT
      000000DDH   SFRSYM    DATA     BYTE      T4T3M
      000000C1H   SFRSYM    DATA     BYTE      WDT_CONTR
      000000DFH   SFRSYM    DATA     BYTE      IP3
      000000F4H   SFRSYM    DATA     BYTE      USBCON
      000000B5H   SFRSYM    DATA     BYTE      IP2
      000000FFH   SFRSYM    DATA     BYTE      RSTCFG
      000000F9H   SFRSYM    DATA     BYTE      LINICR
      0000008EH   SFRSYM    DATA     BYTE      AUXR
      000000AFH   SFRSYM    DATA     BYTE      IE2
      00000080H.7 SFRSYM    DATA     BIT       P07
      00000088H   SFRSYM    DATA     BYTE      TCON
      00000098H   SFRSYM    DATA     BYTE      SCON
      000000F1H   SFRSYM    DATA     BYTE      CANICR
      00000087H   SFRSYM    DATA     BYTE      PCON
      000000BCH   SFRSYM    DATA     BYTE      ADC_CONTR
      000000E7H   SFRSYM    DATA     BYTE      CMPCR2
      000000E6H   SFRSYM    DATA     BYTE      CMPCR1
      000000B8H   SFRSYM    DATA     BYTE      IP
      0000008FH   SFRSYM    DATA     BYTE      INTCLKO
      000000EEH   SFRSYM    DATA     BYTE      IP3H
      000000B6H   SFRSYM    DATA     BYTE      IP2H
      000000A8H   SFRSYM    DATA     BYTE      IE
      000000BBH   SFRSYM    DATA     BYTE      P_SW3
      000000BAH   SFRSYM    DATA     BYTE      P_SW2
      000000A2H   SFRSYM    DATA     BYTE      P_SW1
      000000CEH   SFRSYM    DATA     BYTE      SPCTL
      000000F8H   SFRSYM    DATA     BYTE      P7
      000000E8H   SFRSYM    DATA     BYTE      P6
      000000C8H   SFRSYM    DATA     BYTE      P5
      000000C0H   SFRSYM    DATA     BYTE      P4
      000000B0H   SFRSYM    DATA     BYTE      P3
      000000A0H   SFRSYM    DATA     BYTE      P2
      00000090H   SFRSYM    DATA     BYTE      P1
L251 LINKER/LOCATER V4.66.93.0                                                        07/17/2023  21:05:08  PAGE 150


      00000080H   SFRSYM    DATA     BYTE      P0
      00000689H   SYMBOL    EDATA    ---       wireless_ch573_buffer
      000006C9H   SYMBOL    EDATA    BYTE      wireless_ch573_data
      000006CAH   SYMBOL    EDATA    ---       wireless_ch573_fifo

      00FFD863H   BLOCK     ECODE    ---       LVL=0
      00FFD863H   LINE      ECODE    ---       #39
      00FFD863H   LINE      ECODE    ---       #42
      00FFD869H   LINE      ECODE    ---       #43
      ---         BLOCKEND  ---      ---       LVL=0

      00FFD87DH   BLOCK     ECODE    ---       LVL=0
      REG=3       REGSYM    ---      ---       buff
      00FFD87DH   LINE      ECODE    ---       #58
      00FFD885H   LINE      ECODE    ---       #60
      00FFD887H   LINE      ECODE    ---       #62
      00FFD88EH   LINE      ECODE    ---       #64
      00FFD896H   LINE      ECODE    ---       #65
      00FFD896H   LINE      ECODE    ---       #67
      00FFD8A4H   LINE      ECODE    ---       #69
      00FFD8A8H   LINE      ECODE    ---       #70
      00FFD8B4H   LINE      ECODE    ---       #71
      00FFD8BEH   LINE      ECODE    ---       #73
      00FFD8C5H   LINE      ECODE    ---       #75
      00FFD8CBH   LINE      ECODE    ---       #76
      00FFD8CBH   LINE      ECODE    ---       #78
      00FFD8D7H   LINE      ECODE    ---       #80
      00FFD8D9H   LINE      ECODE    ---       #81
      ---         BLOCKEND  ---      ---       LVL=0

      00FFD8DCH   BLOCK     ECODE    ---       LVL=0
      REG=7       REGSYM    ---      ---       buff
      DR8         REGSYM    ---      DWORD     len
      00FFD8DEH   BLOCK     ECODE    NEAR LAB  LVL=1
      ---         BLOCKEND  ---      ---       LVL=1
      00FFD8DCH   LINE      ECODE    ---       #91
      00FFD8DEH   LINE      ECODE    ---       #92
      00FFD8DEH   LINE      ECODE    ---       #93
      00FFD8E2H   LINE      ECODE    ---       #94
      00FFD8FAH   LINE      ECODE    ---       #95
      00FFD8FEH   LINE      ECODE    ---       #96
      ---         BLOCKEND  ---      ---       LVL=0

      00FFD8FFH   BLOCK     ECODE    ---       LVL=0
      00FFD8FFH   LINE      ECODE    ---       #110
      00FFD8FFH   LINE      ECODE    ---       #112
      00FFD901H   LINE      ECODE    ---       #113
      00FFD909H   LINE      ECODE    ---       #115
      00FFD91DH   LINE      ECODE    ---       #116
      ---         BLOCKEND  ---      ---       LVL=0

      ---         MODULE    ---      ---       eeprom
      00FFD639H   PUBLIC    ECODE    ---       read_float?
      00FFD549H   PUBLIC    ECODE    ---       eeprom_init?
      00FFD601H   PUBLIC    ECODE    ---       save_float?
      00FFD5D4H   PUBLIC    ECODE    ---       read_int?
      00FFD59CH   PUBLIC    ECODE    ---       save_int?
      0000051BH   PUBLIC    EDATA    ---       date_buff
      000000D0H   SFRSYM    DATA     BYTE      PSW
      0000009DH   SFRSYM    DATA     BYTE      IRCBAND
      00000097H   SFRSYM    DATA     BYTE      AUXR2
      000000EFH   SFRSYM    DATA     BYTE      AUXINTIF
      000000FDH   SFRSYM    DATA     BYTE      S4CON
      000000ACH   SFRSYM    DATA     BYTE      S3CON
      0000009AH   SFRSYM    DATA     BYTE      S2CON
L251 LINKER/LOCATER V4.66.93.0                                                        07/17/2023  21:05:08  PAGE 151


      000000B7H   SFRSYM    DATA     BYTE      IPH
      000000CDH   SFRSYM    DATA     BYTE      SPSTAT
      000000DDH   SFRSYM    DATA     BYTE      T4T3M
      000000C1H   SFRSYM    DATA     BYTE      WDT_CONTR
      000000DFH   SFRSYM    DATA     BYTE      IP3
      000000F4H   SFRSYM    DATA     BYTE      USBCON
      000000B5H   SFRSYM    DATA     BYTE      IP2
      000000FFH   SFRSYM    DATA     BYTE      RSTCFG
      000000F9H   SFRSYM    DATA     BYTE      LINICR
      0000008EH   SFRSYM    DATA     BYTE      AUXR
      000000AFH   SFRSYM    DATA     BYTE      IE2
      00000088H   SFRSYM    DATA     BYTE      TCON
      00000098H   SFRSYM    DATA     BYTE      SCON
      000000F1H   SFRSYM    DATA     BYTE      CANICR
      00000087H   SFRSYM    DATA     BYTE      PCON
      000000BCH   SFRSYM    DATA     BYTE      ADC_CONTR
      000000E7H   SFRSYM    DATA     BYTE      CMPCR2
      000000E6H   SFRSYM    DATA     BYTE      CMPCR1
      000000B8H   SFRSYM    DATA     BYTE      IP
      0000008FH   SFRSYM    DATA     BYTE      INTCLKO
      000000EEH   SFRSYM    DATA     BYTE      IP3H
      000000B6H   SFRSYM    DATA     BYTE      IP2H
      000000A8H   SFRSYM    DATA     BYTE      IE
      000000BBH   SFRSYM    DATA     BYTE      P_SW3
      000000BAH   SFRSYM    DATA     BYTE      P_SW2
      000000A2H   SFRSYM    DATA     BYTE      P_SW1
      000000CEH   SFRSYM    DATA     BYTE      SPCTL
      000000F8H   SFRSYM    DATA     BYTE      P7
      000000E8H   SFRSYM    DATA     BYTE      P6
      000000C8H   SFRSYM    DATA     BYTE      P5
      000000C0H   SFRSYM    DATA     BYTE      P4
      000000B0H   SFRSYM    DATA     BYTE      P3
      000000A0H   SFRSYM    DATA     BYTE      P2
      00000090H   SFRSYM    DATA     BYTE      P1
      00000080H   SFRSYM    DATA     BYTE      P0

      00FFD549H   BLOCK     ECODE    ---       LVL=0
      00FFD549H   LINE      ECODE    ---       #4
      00FFD549H   LINE      ECODE    ---       #6
      00FFD54DH   LINE      ECODE    ---       #8
      00FFD55BH   LINE      ECODE    ---       #11
      00FFD567H   LINE      ECODE    ---       #12
      00FFD571H   LINE      ECODE    ---       #13
      00FFD57DH   LINE      ECODE    ---       #15
      00FFD587H   LINE      ECODE    ---       #16
      00FFD593H   LINE      ECODE    ---       #18
      00FFD597H   LINE      ECODE    ---       #19
      00FFD59BH   LINE      ECODE    ---       #30
      ---         BLOCKEND  ---      ---       LVL=0

      00FFD59CH   BLOCK     ECODE    ---       LVL=0
      R3          REGSYM    ---      BYTE      value_bit
      00FFD5A2H   BLOCK     ECODE    NEAR LAB  LVL=1
      R3          REGSYM    ---      BYTE      i
      R10         REGSYM    ---      BYTE      begin
      REG=1       REGSYM    ---      ---       p
      ---         BLOCKEND  ---      ---       LVL=1
      00FFD59CH   LINE      ECODE    ---       #31
      00FFD5A2H   LINE      ECODE    ---       #32
      00FFD5A2H   LINE      ECODE    ---       #34
      00FFD5A8H   LINE      ECODE    ---       #35
      00FFD5ACH   LINE      ECODE    ---       #36
      00FFD5AEH   LINE      ECODE    ---       #38
      00FFD5BFH   LINE      ECODE    ---       #39
      00FFD5C6H   LINE      ECODE    ---       #40
L251 LINKER/LOCATER V4.66.93.0                                                        07/17/2023  21:05:08  PAGE 152


      ---         BLOCKEND  ---      ---       LVL=0

      00FFD5D4H   BLOCK     ECODE    ---       LVL=0
      R6          REGSYM    ---      BYTE      value_bit
      00FFD5D6H   BLOCK     ECODE    NEAR LAB  LVL=1
      R3          REGSYM    ---      BYTE      i
      R10         REGSYM    ---      BYTE      begin
      REG=1       REGSYM    ---      ---       p
      ---         BLOCKEND  ---      ---       LVL=1
      00FFD5D4H   LINE      ECODE    ---       #43
      00FFD5D6H   LINE      ECODE    ---       #44
      00FFD5D6H   LINE      ECODE    ---       #46
      00FFD5DCH   LINE      ECODE    ---       #48
      00FFD5E0H   LINE      ECODE    ---       #49
      00FFD5E2H   LINE      ECODE    ---       #51
      00FFD5F5H   LINE      ECODE    ---       #52
      00FFD5FCH   LINE      ECODE    ---       #53
      00FFD600H   LINE      ECODE    ---       #54
      ---         BLOCKEND  ---      ---       LVL=0

      00FFD601H   BLOCK     ECODE    ---       LVL=0
      000000C9H   SYMBOL    EDATA    FLOAT     input
      R3          REGSYM    ---      BYTE      value_bit
      00FFD607H   BLOCK     ECODE    NEAR LAB  LVL=1
      R3          REGSYM    ---      BYTE      i
      R10         REGSYM    ---      BYTE      begin
      REG=1       REGSYM    ---      ---       p
      ---         BLOCKEND  ---      ---       LVL=1
      00FFD601H   LINE      ECODE    ---       #56
      00FFD607H   LINE      ECODE    ---       #57
      00FFD607H   LINE      ECODE    ---       #59
      00FFD60DH   LINE      ECODE    ---       #60
      00FFD611H   LINE      ECODE    ---       #61
      00FFD613H   LINE      ECODE    ---       #63
      00FFD624H   LINE      ECODE    ---       #64
      00FFD62BH   LINE      ECODE    ---       #65
      ---         BLOCKEND  ---      ---       LVL=0

      00FFD639H   BLOCK     ECODE    ---       LVL=0
      R6          REGSYM    ---      BYTE      value_bit
      00FFD63BH   BLOCK     ECODE    NEAR LAB  LVL=1
      R3          REGSYM    ---      BYTE      i
      R10         REGSYM    ---      BYTE      begin
      000000C9H   SYMBOL    EDATA    FLOAT     output
      REG=1       REGSYM    ---      ---       p
      ---         BLOCKEND  ---      ---       LVL=1
      00FFD639H   LINE      ECODE    ---       #67
      00FFD63BH   LINE      ECODE    ---       #68
      00FFD63BH   LINE      ECODE    ---       #70
      00FFD641H   LINE      ECODE    ---       #72
      00FFD645H   LINE      ECODE    ---       #73
      00FFD647H   LINE      ECODE    ---       #75
      00FFD65AH   LINE      ECODE    ---       #76
      00FFD661H   LINE      ECODE    ---       #77
      00FFD665H   LINE      ECODE    ---       #78
      ---         BLOCKEND  ---      ---       LVL=0

      ---         MODULE    ---      ---       main
      00FFD765H   PUBLIC    ECODE    ---       main?
      000000D0H   SFRSYM    DATA     BYTE      PSW
      0000009DH   SFRSYM    DATA     BYTE      IRCBAND
      00000097H   SFRSYM    DATA     BYTE      AUXR2
      000000EFH   SFRSYM    DATA     BYTE      AUXINTIF
      000000FDH   SFRSYM    DATA     BYTE      S4CON
      000000ACH   SFRSYM    DATA     BYTE      S3CON
L251 LINKER/LOCATER V4.66.93.0                                                        07/17/2023  21:05:08  PAGE 153


      0000009AH   SFRSYM    DATA     BYTE      S2CON
      000000B7H   SFRSYM    DATA     BYTE      IPH
      000000CDH   SFRSYM    DATA     BYTE      SPSTAT
      000000DDH   SFRSYM    DATA     BYTE      T4T3M
      000000C1H   SFRSYM    DATA     BYTE      WDT_CONTR
      000000DFH   SFRSYM    DATA     BYTE      IP3
      000000F4H   SFRSYM    DATA     BYTE      USBCON
      000000B5H   SFRSYM    DATA     BYTE      IP2
      000000FFH   SFRSYM    DATA     BYTE      RSTCFG
      000000F9H   SFRSYM    DATA     BYTE      LINICR
      0000008EH   SFRSYM    DATA     BYTE      AUXR
      000000AFH   SFRSYM    DATA     BYTE      IE2
      000000E8H.7 SFRSYM    DATA     BIT       P67
      00000088H   SFRSYM    DATA     BYTE      TCON
      00000098H   SFRSYM    DATA     BYTE      SCON
      000000F1H   SFRSYM    DATA     BYTE      CANICR
      00000087H   SFRSYM    DATA     BYTE      PCON
      000000BCH   SFRSYM    DATA     BYTE      ADC_CONTR
      000000E7H   SFRSYM    DATA     BYTE      CMPCR2
      000000E6H   SFRSYM    DATA     BYTE      CMPCR1
      000000B8H   SFRSYM    DATA     BYTE      IP
      0000008FH   SFRSYM    DATA     BYTE      INTCLKO
      000000EEH   SFRSYM    DATA     BYTE      IP3H
      000000B6H   SFRSYM    DATA     BYTE      IP2H
      000000A8H   SFRSYM    DATA     BYTE      IE
      000000BBH   SFRSYM    DATA     BYTE      P_SW3
      000000BAH   SFRSYM    DATA     BYTE      P_SW2
      000000A2H   SFRSYM    DATA     BYTE      P_SW1
      000000CEH   SFRSYM    DATA     BYTE      SPCTL
      000000F8H   SFRSYM    DATA     BYTE      P7
      000000E8H   SFRSYM    DATA     BYTE      P6
      000000C8H   SFRSYM    DATA     BYTE      P5
      000000C0H   SFRSYM    DATA     BYTE      P4
      000000B0H   SFRSYM    DATA     BYTE      P3
      000000A0H   SFRSYM    DATA     BYTE      P2
      00000090H   SFRSYM    DATA     BYTE      P1
      00000080H   SFRSYM    DATA     BYTE      P0

      00FFD765H   BLOCK     ECODE    ---       LVL=0
      00FFD765H   LINE      ECODE    ---       #11
      00FFD765H   LINE      ECODE    ---       #13
      00FFD769H   LINE      ECODE    ---       #15
      00FFD773H   LINE      ECODE    ---       #16
      00FFD77DH   LINE      ECODE    ---       #17
      00FFD787H   LINE      ECODE    ---       #18
      00FFD791H   LINE      ECODE    ---       #19
      00FFD79BH   LINE      ECODE    ---       #20
      00FFD7A5H   LINE      ECODE    ---       #21
      00FFD7B7H   LINE      ECODE    ---       #22
      00FFD7C9H   LINE      ECODE    ---       #23
      00FFD7D5H   LINE      ECODE    ---       #24
      00FFD7D7H   LINE      ECODE    ---       #25
      00FFD7DBH   LINE      ECODE    ---       #26
      00FFD7E7H   LINE      ECODE    ---       #27
      00FFD7F3H   LINE      ECODE    ---       #28
      00FFD7F7H   LINE      ECODE    ---       #29
      00FFD80BH   LINE      ECODE    ---       #30
      00FFD811H   LINE      ECODE    ---       #31
      00FFD819H   LINE      ECODE    ---       #33
      00FFD81BH   LINE      ECODE    ---       #35
      00FFD823H   LINE      ECODE    ---       #36
      00FFD82FH   LINE      ECODE    ---       #37
      00FFD835H   LINE      ECODE    ---       #39
      00FFD839H   LINE      ECODE    ---       #44
      00FFD845H   LINE      ECODE    ---       #45
L251 LINKER/LOCATER V4.66.93.0                                                        07/17/2023  21:05:08  PAGE 154


      00FFD847H   LINE      ECODE    ---       #46
      00FFD84FH   LINE      ECODE    ---       #47
      00FFD851H   LINE      ECODE    ---       #48
      00FFD859H   LINE      ECODE    ---       #50
      00FFD859H   LINE      ECODE    ---       #52
      00FFD85DH   LINE      ECODE    ---       #53
      00FFD861H   LINE      ECODE    ---       #55
      ---         BLOCKEND  ---      ---       LVL=0

      ---         MODULE    ---      ---       key
      00FF5B12H   PUBLIC    ECODE    ---       Keystroke_Menu_TWO_Seven?
      00FF58A4H   PUBLIC    ECODE    ---       Keystroke_Menu_ONE_Four?
      00FF5395H   PUBLIC    ECODE    ---       Cursor?
      00FF5466H   PUBLIC    ECODE    ---       KeystrokeLabel_Switch?
      00FF580BH   PUBLIC    ECODE    ---       Keystroke_Menu_ONE?
      00FF586AH   PUBLIC    ECODE    ---       Keystroke_Menu_ONE_One?
      00FF57A0H   PUBLIC    ECODE    ---       Menu_ONE_Display?
      00FF5C50H   PUBLIC    ECODE    ---       Keystroke_Menu_THREE_Four?
      00FF5B9DH   PUBLIC    ECODE    ---       Keystroke_Menu_THREE?
      00FF5AEEH   PUBLIC    ECODE    ---       Keystroke_Menu_TWO_Four?
      00FF5A31H   PUBLIC    ECODE    ---       Keystroke_Menu_TWO?
      00FF5BFCH   PUBLIC    ECODE    ---       Keystroke_Menu_THREE_One?
      00FF5AACH   PUBLIC    ECODE    ---       Keystroke_Menu_TWO_One?
      00FF5880H   PUBLIC    ECODE    ---       Keystroke_Menu_ONE_Two?
      00FF618AH   PUBLIC    ECODE    ---       Keystroke_Menu_FIVE_Three?
      00FF5B2EH   PUBLIC    ECODE    ---       Menu_THREE_Display?
      00FF58B2H   PUBLIC    ECODE    ---       Menu_TWO_Display?
      00FF52B3H   PUBLIC    ECODE    ---       Keystroke_Scan?
      00FF5B04H   PUBLIC    ECODE    ---       Keystroke_Menu_TWO_Six?
      00FF5C18H   PUBLIC    ECODE    ---       Keystroke_Menu_THREE_Two?
      00FF5AC2H   PUBLIC    ECODE    ---       Keystroke_Menu_TWO_Two?
      00FF55CDH   PUBLIC    ECODE    ---       Keystroke_Menu?
      00FF61D1H   PUBLIC    ECODE    ---       Keystroke_Menu_FIVE_Four?
      00FF56ECH   PUBLIC    ECODE    ---       Keystroke_Menu_HOME?
      00FF5FFDH   PUBLIC    ECODE    ---       Keystroke_Menu_FIVE?
      00FF5576H   PUBLIC    ECODE    ---       Keystroke_Special_Value?
      00FF605CH   PUBLIC    ECODE    ---       Keystroke_Menu_FIVE_One?
      00FF5C6CH   PUBLIC    ECODE    ---       Keystroke_Menu_FOUR?
      00FF5F0CH   PUBLIC    ECODE    ---       Menu_FIVE_Display?
      00FF5896H   PUBLIC    ECODE    ---       Keystroke_Menu_ONE_Three?
      00FF60F3H   PUBLIC    ECODE    ---       Keystroke_Menu_FIVE_Two?
      00FF5B20H   PUBLIC    ECODE    ---       Keystroke_Menu_TWO_Eight?
      00FF5C34H   PUBLIC    ECODE    ---       Keystroke_Menu_THREE_Three?
      00FF5AD8H   PUBLIC    ECODE    ---       Keystroke_Menu_TWO_Three?
      0000070EH   PUBLIC    EDATA    BYTE      key1_status
      0000070FH   PUBLIC    EDATA    BYTE      key2_status
      00000710H   PUBLIC    EDATA    BYTE      key3_status
      00000711H   PUBLIC    EDATA    BYTE      key4_status
      00000712H   PUBLIC    EDATA    INT       This_Codename
      00000714H   PUBLIC    EDATA    BYTE      key1_last_status
      00000715H   PUBLIC    EDATA    BYTE      key2_last_status
      00000716H   PUBLIC    EDATA    BYTE      key3_last_status
      00000717H   PUBLIC    EDATA    BYTE      key4_last_status
      00000718H   PUBLIC    EDATA    BYTE      sw1_status
      00000719H   PUBLIC    EDATA    BYTE      sw2_status
      0000071AH   PUBLIC    EDATA    BYTE      KeystrokeLabel
      0000071BH   PUBLIC    EDATA    BYTE      target_value_bit
      0000071CH   PUBLIC    EDATA    BYTE      MenuNextFlag
      0000071DH   PUBLIC    EDATA    BYTE      CursorRow
      0000071EH   PUBLIC    EDATA    INT       Dispay_Codename
      00000720H   PUBLIC    EDATA    BYTE      key1_flag
      00000721H   PUBLIC    EDATA    BYTE      key2_flag
      00000722H   PUBLIC    EDATA    BYTE      key3_flag
      00000723H   PUBLIC    EDATA    BYTE      key4_flag
      000000D0H   SFRSYM    DATA     BYTE      PSW
L251 LINKER/LOCATER V4.66.93.0                                                        07/17/2023  21:05:08  PAGE 155


      0000009DH   SFRSYM    DATA     BYTE      IRCBAND
      00000097H   SFRSYM    DATA     BYTE      AUXR2
      000000EFH   SFRSYM    DATA     BYTE      AUXINTIF
      000000FDH   SFRSYM    DATA     BYTE      S4CON
      000000ACH   SFRSYM    DATA     BYTE      S3CON
      0000009AH   SFRSYM    DATA     BYTE      S2CON
      000000B7H   SFRSYM    DATA     BYTE      IPH
      000000CDH   SFRSYM    DATA     BYTE      SPSTAT
      000000DDH   SFRSYM    DATA     BYTE      T4T3M
      000000C1H   SFRSYM    DATA     BYTE      WDT_CONTR
      000000DFH   SFRSYM    DATA     BYTE      IP3
      000000F4H   SFRSYM    DATA     BYTE      USBCON
      000000B5H   SFRSYM    DATA     BYTE      IP2
      000000FFH   SFRSYM    DATA     BYTE      RSTCFG
      000000F9H   SFRSYM    DATA     BYTE      LINICR
      0000008EH   SFRSYM    DATA     BYTE      AUXR
      000000AFH   SFRSYM    DATA     BYTE      IE2
      000000F8H.6 SFRSYM    DATA     BIT       P76
      000000F8H.5 SFRSYM    DATA     BIT       P75
      000000F8H.3 SFRSYM    DATA     BIT       P73
      000000F8H.2 SFRSYM    DATA     BIT       P72
      000000F8H.1 SFRSYM    DATA     BIT       P71
      000000F8H.0 SFRSYM    DATA     BIT       P70
      00000088H   SFRSYM    DATA     BYTE      TCON
      00000098H   SFRSYM    DATA     BYTE      SCON
      000000F1H   SFRSYM    DATA     BYTE      CANICR
      00000087H   SFRSYM    DATA     BYTE      PCON
      000000BCH   SFRSYM    DATA     BYTE      ADC_CONTR
      000000E7H   SFRSYM    DATA     BYTE      CMPCR2
      000000E6H   SFRSYM    DATA     BYTE      CMPCR1
      000000B8H   SFRSYM    DATA     BYTE      IP
      0000008FH   SFRSYM    DATA     BYTE      INTCLKO
      000000EEH   SFRSYM    DATA     BYTE      IP3H
      000000B6H   SFRSYM    DATA     BYTE      IP2H
      000000A8H   SFRSYM    DATA     BYTE      IE
      000000BBH   SFRSYM    DATA     BYTE      P_SW3
      000000BAH   SFRSYM    DATA     BYTE      P_SW2
      000000A2H   SFRSYM    DATA     BYTE      P_SW1
      000000CEH   SFRSYM    DATA     BYTE      SPCTL
      000000F8H   SFRSYM    DATA     BYTE      P7
      000000E8H   SFRSYM    DATA     BYTE      P6
      000000C8H   SFRSYM    DATA     BYTE      P5
      000000C0H   SFRSYM    DATA     BYTE      P4
      000000B0H   SFRSYM    DATA     BYTE      P3
      000000A0H   SFRSYM    DATA     BYTE      P2
      00000090H   SFRSYM    DATA     BYTE      P1
      00000080H   SFRSYM    DATA     BYTE      P0

      00FF52B3H   BLOCK     ECODE    ---       LVL=0
      00FF52B3H   LINE      ECODE    ---       #49
      00FF52B3H   LINE      ECODE    ---       #53
      00FF52BBH   LINE      ECODE    ---       #54
      00FF52C3H   LINE      ECODE    ---       #58
      00FF52CBH   LINE      ECODE    ---       #59
      00FF52D3H   LINE      ECODE    ---       #60
      00FF52DBH   LINE      ECODE    ---       #61
      00FF52E3H   LINE      ECODE    ---       #63
      00FF52EBH   LINE      ECODE    ---       #64
      00FF52F3H   LINE      ECODE    ---       #65
      00FF52FBH   LINE      ECODE    ---       #66
      00FF5303H   LINE      ECODE    ---       #70
      00FF5315H   LINE      ECODE    ---       #71
      00FF5327H   LINE      ECODE    ---       #72
      00FF5339H   LINE      ECODE    ---       #73
      00FF534BH   LINE      ECODE    ---       #76
L251 LINKER/LOCATER V4.66.93.0                                                        07/17/2023  21:05:08  PAGE 156


      00FF5350H   LINE      ECODE    ---       #77
      00FF5356H   LINE      ECODE    ---       #79
      00FF535BH   LINE      ECODE    ---       #80
      00FF5361H   LINE      ECODE    ---       #81
      00FF5361H   LINE      ECODE    ---       #83
      00FF5367H   LINE      ECODE    ---       #85
      00FF536CH   LINE      ECODE    ---       #86
      00FF5372H   LINE      ECODE    ---       #87
      00FF5372H   LINE      ECODE    ---       #89
      00FF5378H   LINE      ECODE    ---       #91
      00FF537DH   LINE      ECODE    ---       #92
      00FF5383H   LINE      ECODE    ---       #93
      00FF5383H   LINE      ECODE    ---       #95
      00FF5389H   LINE      ECODE    ---       #97
      00FF538EH   LINE      ECODE    ---       #98
      00FF5394H   LINE      ECODE    ---       #99
      ---         BLOCKEND  ---      ---       LVL=0

      00FF5395H   BLOCK     ECODE    ---       LVL=0
      00FF5397H   BLOCK     ECODE    NEAR LAB  LVL=1
      WR14        REGSYM    ---      INT       i
      ---         BLOCKEND  ---      ---       LVL=1
      00FF5395H   LINE      ECODE    ---       #105
      00FF5397H   LINE      ECODE    ---       #106
      00FF5397H   LINE      ECODE    ---       #108
      00FF539CH   LINE      ECODE    ---       #110
      00FF539CH   LINE      ECODE    ---       #112
      00FF53A0H   LINE      ECODE    ---       #114
      00FF53A7H   LINE      ECODE    ---       #116
      00FF53B0H   LINE      ECODE    ---       #117
      00FF53B2H   LINE      ECODE    ---       #119
      00FF53BCH   LINE      ECODE    ---       #120
      00FF53CAH   LINE      ECODE    ---       #122
      00FF53DAH   LINE      ECODE    ---       #123
      00FF53E2H   LINE      ECODE    ---       #124
      00FF53E2H   LINE      ECODE    ---       #126
      00FF53E9H   LINE      ECODE    ---       #128
      00FF53F2H   LINE      ECODE    ---       #129
      00FF53F4H   LINE      ECODE    ---       #131
      00FF53FEH   LINE      ECODE    ---       #132
      00FF540CH   LINE      ECODE    ---       #134
      00FF541CH   LINE      ECODE    ---       #135
      00FF5424H   LINE      ECODE    ---       #136
      00FF5424H   LINE      ECODE    ---       #138
      00FF542DH   LINE      ECODE    ---       #140
      00FF5433H   LINE      ECODE    ---       #141
      00FF5433H   LINE      ECODE    ---       #143
      00FF5438H   LINE      ECODE    ---       #145
      00FF543EH   LINE      ECODE    ---       #146
      00FF543EH   LINE      ECODE    ---       #149
      00FF5447H   LINE      ECODE    ---       #151
      00FF544CH   LINE      ECODE    ---       #152
      00FF544CH   LINE      ECODE    ---       #153
      00FF5455H   LINE      ECODE    ---       #155
      00FF545AH   LINE      ECODE    ---       #156
      00FF5463H   LINE      ECODE    ---       #160
      ---         BLOCKEND  ---      ---       LVL=0

      00FF5466H   BLOCK     ECODE    ---       LVL=0
      DR12        REGSYM    ---      FLOAT     change_unit
      000000C8H   SYMBOL    EDATA    BYTE      value_bit
      00FF546EH   BLOCK     ECODE    NEAR LAB  LVL=1
      00000724H   SYMBOL    EDATA    FLOAT     tem_value
      ---         BLOCKEND  ---      ---       LVL=1
      00FF5466H   LINE      ECODE    ---       #162
L251 LINKER/LOCATER V4.66.93.0                                                        07/17/2023  21:05:08  PAGE 157


      00FF546EH   LINE      ECODE    ---       #163
      00FF546EH   LINE      ECODE    ---       #165
      00FF5484H   LINE      ECODE    ---       #167
      00FF5492H   LINE      ECODE    ---       #168
      00FF549BH   LINE      ECODE    ---       #169
      00FF54A5H   LINE      ECODE    ---       #170
      00FF54AFH   LINE      ECODE    ---       #171
      00FF54B9H   LINE      ECODE    ---       #172
      00FF54C3H   LINE      ECODE    ---       #175
      00FF54CDH   LINE      ECODE    ---       #176
      00FF54D7H   LINE      ECODE    ---       #179
      00FF54DBH   LINE      ECODE    ---       #180
      00FF54E1H   LINE      ECODE    ---       #182
      00FF54EFH   LINE      ECODE    ---       #183
      00FF54EFH   LINE      ECODE    ---       #184
      00FF54FBH   LINE      ECODE    ---       #186
      00FF5509H   LINE      ECODE    ---       #187
      00FF5509H   LINE      ECODE    ---       #188
      00FF551DH   LINE      ECODE    ---       #190
      00FF551DH   LINE      ECODE    ---       #191
      00FF551DH   LINE      ECODE    ---       #192
      00FF551FH   LINE      ECODE    ---       #194
      00FF551FH   LINE      ECODE    ---       #195
      00FF552DH   LINE      ECODE    ---       #196
      00FF5535H   LINE      ECODE    ---       #197
      00FF5535H   LINE      ECODE    ---       #198
      00FF5537H   LINE      ECODE    ---       #199
      00FF5537H   LINE      ECODE    ---       #200
      00FF5545H   LINE      ECODE    ---       #201
      00FF554DH   LINE      ECODE    ---       #202
      00FF5555H   LINE      ECODE    ---       #203
      00FF5557H   LINE      ECODE    ---       #205
      00FF5557H   LINE      ECODE    ---       #206
      00FF5563H   LINE      ECODE    ---       #207
      00FF5563H   LINE      ECODE    ---       #208
      00FF5565H   LINE      ECODE    ---       #209
      00FF5565H   LINE      ECODE    ---       #210
      00FF556BH   LINE      ECODE    ---       #211
      00FF5573H   LINE      ECODE    ---       #212
      00FF5573H   LINE      ECODE    ---       #213
      00FF5573H   LINE      ECODE    ---       #214
      ---         BLOCKEND  ---      ---       LVL=0

      00FF5576H   BLOCK     ECODE    ---       LVL=0
      REG=3       REGSYM    ---      ---       parameter
      00FF5576H   LINE      ECODE    ---       #215
      00FF557AH   LINE      ECODE    ---       #217
      00FF557EH   LINE      ECODE    ---       #218
      00FF5592H   LINE      ECODE    ---       #220
      00FF5592H   LINE      ECODE    ---       #221
      00FF5592H   LINE      ECODE    ---       #222
      00FF5594H   LINE      ECODE    ---       #224
      00FF5594H   LINE      ECODE    ---       #225
      00FF559BH   LINE      ECODE    ---       #226
      00FF559BH   LINE      ECODE    ---       #227
      00FF559DH   LINE      ECODE    ---       #228
      00FF559DH   LINE      ECODE    ---       #229
      00FF55A4H   LINE      ECODE    ---       #230
      00FF55ACH   LINE      ECODE    ---       #231
      00FF55AEH   LINE      ECODE    ---       #233
      00FF55AEH   LINE      ECODE    ---       #234
      00FF55BAH   LINE      ECODE    ---       #235
      00FF55BAH   LINE      ECODE    ---       #236
      00FF55BCH   LINE      ECODE    ---       #237
      00FF55BCH   LINE      ECODE    ---       #238
L251 LINKER/LOCATER V4.66.93.0                                                        07/17/2023  21:05:08  PAGE 158


      00FF55C2H   LINE      ECODE    ---       #239
      00FF55CAH   LINE      ECODE    ---       #240
      00FF55CAH   LINE      ECODE    ---       #241
      00FF55CAH   LINE      ECODE    ---       #242
      ---         BLOCKEND  ---      ---       LVL=0

      00FF55CDH   BLOCK     ECODE    ---       LVL=0
      00FF55CDH   LINE      ECODE    ---       #253
      00FF55CDH   LINE      ECODE    ---       #255
      00FF5687H   LINE      ECODE    ---       #257
      00FF5687H   LINE      ECODE    ---       #258
      00FF568BH   LINE      ECODE    ---       #259
      00FF568BH   LINE      ECODE    ---       #261
      00FF568BH   LINE      ECODE    ---       #262
      00FF568FH   LINE      ECODE    ---       #263
      00FF568FH   LINE      ECODE    ---       #264
      00FF568FH   LINE      ECODE    ---       #265
      00FF5693H   LINE      ECODE    ---       #266
      00FF5693H   LINE      ECODE    ---       #267
      00FF5693H   LINE      ECODE    ---       #268
      00FF5697H   LINE      ECODE    ---       #269
      00FF5697H   LINE      ECODE    ---       #270
      00FF5697H   LINE      ECODE    ---       #271
      00FF569BH   LINE      ECODE    ---       #272
      00FF569BH   LINE      ECODE    ---       #273
      00FF569BH   LINE      ECODE    ---       #274
      00FF569FH   LINE      ECODE    ---       #275
      00FF569FH   LINE      ECODE    ---       #277
      00FF569FH   LINE      ECODE    ---       #278
      00FF56A3H   LINE      ECODE    ---       #279
      00FF56A3H   LINE      ECODE    ---       #280
      00FF56A3H   LINE      ECODE    ---       #281
      00FF56A7H   LINE      ECODE    ---       #282
      00FF56A7H   LINE      ECODE    ---       #283
      00FF56A7H   LINE      ECODE    ---       #284
      00FF56ABH   LINE      ECODE    ---       #285
      00FF56ABH   LINE      ECODE    ---       #286
      00FF56ABH   LINE      ECODE    ---       #287
      00FF56AFH   LINE      ECODE    ---       #288
      00FF56AFH   LINE      ECODE    ---       #289
      00FF56AFH   LINE      ECODE    ---       #290
      00FF56B3H   LINE      ECODE    ---       #291
      00FF56B3H   LINE      ECODE    ---       #292
      00FF56B3H   LINE      ECODE    ---       #293
      00FF56B7H   LINE      ECODE    ---       #294
      00FF56B7H   LINE      ECODE    ---       #295
      00FF56B7H   LINE      ECODE    ---       #296
      00FF56BBH   LINE      ECODE    ---       #297
      00FF56BBH   LINE      ECODE    ---       #298
      00FF56BBH   LINE      ECODE    ---       #299
      00FF56BFH   LINE      ECODE    ---       #300
      00FF56BFH   LINE      ECODE    ---       #303
      00FF56BFH   LINE      ECODE    ---       #304
      00FF56C3H   LINE      ECODE    ---       #305
      00FF56C3H   LINE      ECODE    ---       #306
      00FF56C3H   LINE      ECODE    ---       #307
      00FF56C7H   LINE      ECODE    ---       #308
      00FF56C7H   LINE      ECODE    ---       #309
      00FF56C7H   LINE      ECODE    ---       #310
      00FF56CBH   LINE      ECODE    ---       #311
      00FF56CBH   LINE      ECODE    ---       #312
      00FF56CBH   LINE      ECODE    ---       #313
      00FF56CFH   LINE      ECODE    ---       #314
      00FF56CFH   LINE      ECODE    ---       #315
      00FF56CFH   LINE      ECODE    ---       #316
L251 LINKER/LOCATER V4.66.93.0                                                        07/17/2023  21:05:08  PAGE 159


      00FF56D3H   LINE      ECODE    ---       #317
      00FF56D3H   LINE      ECODE    ---       #319
      00FF56D3H   LINE      ECODE    ---       #320
      00FF56D7H   LINE      ECODE    ---       #321
      00FF56D7H   LINE      ECODE    ---       #323
      00FF56D7H   LINE      ECODE    ---       #324
      00FF56DBH   LINE      ECODE    ---       #325
      00FF56DBH   LINE      ECODE    ---       #326
      00FF56DBH   LINE      ECODE    ---       #327
      00FF56DFH   LINE      ECODE    ---       #328
      00FF56DFH   LINE      ECODE    ---       #329
      00FF56DFH   LINE      ECODE    ---       #330
      00FF56E3H   LINE      ECODE    ---       #331
      00FF56E3H   LINE      ECODE    ---       #332
      00FF56E3H   LINE      ECODE    ---       #333
      00FF56E7H   LINE      ECODE    ---       #334
      00FF56E7H   LINE      ECODE    ---       #335
      00FF56E7H   LINE      ECODE    ---       #336
      00FF56EBH   LINE      ECODE    ---       #337
      00FF56EBH   LINE      ECODE    ---       #338
      00FF56EBH   LINE      ECODE    ---       #340
      ---         BLOCKEND  ---      ---       LVL=0

      00FF56ECH   BLOCK     ECODE    ---       LVL=0
      00FF56ECH   LINE      ECODE    ---       #351
      00FF56ECH   LINE      ECODE    ---       #353
      00FF5700H   LINE      ECODE    ---       #354
      00FF5714H   LINE      ECODE    ---       #355
      00FF5728H   LINE      ECODE    ---       #356
      00FF573CH   LINE      ECODE    ---       #357
      00FF5750H   LINE      ECODE    ---       #359
      00FF5754H   LINE      ECODE    ---       #361
      00FF576BH   LINE      ECODE    ---       #363
      00FF576BH   LINE      ECODE    ---       #364
      00FF5771H   LINE      ECODE    ---       #365
      00FF5772H   LINE      ECODE    ---       #367
      00FF5772H   LINE      ECODE    ---       #368
      00FF5776H   LINE      ECODE    ---       #369
      00FF5776H   LINE      ECODE    ---       #370
      00FF5776H   LINE      ECODE    ---       #371
      00FF5778H   LINE      ECODE    ---       #372
      00FF5778H   LINE      ECODE    ---       #373
      00FF577CH   LINE      ECODE    ---       #374
      00FF577CH   LINE      ECODE    ---       #375
      00FF577CH   LINE      ECODE    ---       #376
      00FF577EH   LINE      ECODE    ---       #377
      00FF577EH   LINE      ECODE    ---       #378
      00FF5782H   LINE      ECODE    ---       #379
      00FF5782H   LINE      ECODE    ---       #380
      00FF5782H   LINE      ECODE    ---       #381
      00FF5784H   LINE      ECODE    ---       #382
      00FF5784H   LINE      ECODE    ---       #383
      00FF5788H   LINE      ECODE    ---       #384
      00FF5788H   LINE      ECODE    ---       #385
      00FF5788H   LINE      ECODE    ---       #386
      00FF578AH   LINE      ECODE    ---       #388
      00FF578AH   LINE      ECODE    ---       #389
      00FF5792H   LINE      ECODE    ---       #390
      00FF579AH   LINE      ECODE    ---       #391
      00FF579FH   LINE      ECODE    ---       #393
      00FF579FH   LINE      ECODE    ---       #394
      ---         BLOCKEND  ---      ---       LVL=0

      00FF57A0H   BLOCK     ECODE    ---       LVL=0
      R15         REGSYM    ---      BYTE      control_line
L251 LINKER/LOCATER V4.66.93.0                                                        07/17/2023  21:05:08  PAGE 160


      00FF57A0H   LINE      ECODE    ---       #396
      00FF57A4H   LINE      ECODE    ---       #398
      00FF57B8H   LINE      ECODE    ---       #399
      00FF57CCH   LINE      ECODE    ---       #401
      00FF57E2H   LINE      ECODE    ---       #402
      00FF57F8H   LINE      ECODE    ---       #404
      00FF5808H   LINE      ECODE    ---       #405
      ---         BLOCKEND  ---      ---       LVL=0

      00FF580BH   BLOCK     ECODE    ---       LVL=0
      00FF580BH   LINE      ECODE    ---       #407
      00FF580BH   LINE      ECODE    ---       #409
      00FF5811H   LINE      ECODE    ---       #410
      00FF5815H   LINE      ECODE    ---       #412
      00FF581CH   LINE      ECODE    ---       #414
      00FF5822H   LINE      ECODE    ---       #415
      00FF5822H   LINE      ECODE    ---       #417
      00FF583AH   LINE      ECODE    ---       #419
      00FF583AH   LINE      ECODE    ---       #420
      00FF583CH   LINE      ECODE    ---       #421
      00FF583CH   LINE      ECODE    ---       #422
      00FF583EH   LINE      ECODE    ---       #423
      00FF583EH   LINE      ECODE    ---       #424
      00FF5842H   LINE      ECODE    ---       #425
      00FF5844H   LINE      ECODE    ---       #427
      00FF5844H   LINE      ECODE    ---       #428
      00FF584CH   LINE      ECODE    ---       #430
      00FF584DH   LINE      ECODE    ---       #431
      00FF584DH   LINE      ECODE    ---       #432
      00FF5851H   LINE      ECODE    ---       #433
      00FF5851H   LINE      ECODE    ---       #434
      00FF5853H   LINE      ECODE    ---       #435
      00FF5853H   LINE      ECODE    ---       #436
      00FF5857H   LINE      ECODE    ---       #437
      00FF5857H   LINE      ECODE    ---       #438
      00FF5859H   LINE      ECODE    ---       #439
      00FF5859H   LINE      ECODE    ---       #440
      00FF5861H   LINE      ECODE    ---       #441
      00FF5869H   LINE      ECODE    ---       #442
      00FF5869H   LINE      ECODE    ---       #444
      00FF5869H   LINE      ECODE    ---       #447
      ---         BLOCKEND  ---      ---       LVL=0

      00FF586AH   BLOCK     ECODE    ---       LVL=0
      00FF586AH   LINE      ECODE    ---       #449
      00FF586AH   LINE      ECODE    ---       #451
      00FF5872H   LINE      ECODE    ---       #452
      00FF5878H   LINE      ECODE    ---       #453
      ---         BLOCKEND  ---      ---       LVL=0

      00FF5880H   BLOCK     ECODE    ---       LVL=0
      00FF5880H   LINE      ECODE    ---       #456
      00FF5880H   LINE      ECODE    ---       #458
      00FF5888H   LINE      ECODE    ---       #459
      00FF588EH   LINE      ECODE    ---       #460
      ---         BLOCKEND  ---      ---       LVL=0

      00FF5896H   BLOCK     ECODE    ---       LVL=0
      00FF5896H   LINE      ECODE    ---       #463
      00FF5896H   LINE      ECODE    ---       #465
      00FF589EH   LINE      ECODE    ---       #466
      ---         BLOCKEND  ---      ---       LVL=0

      00FF58A4H   BLOCK     ECODE    ---       LVL=0
      00FF58A4H   LINE      ECODE    ---       #470
L251 LINKER/LOCATER V4.66.93.0                                                        07/17/2023  21:05:08  PAGE 161


      00FF58A4H   LINE      ECODE    ---       #472
      00FF58ACH   LINE      ECODE    ---       #473
      ---         BLOCKEND  ---      ---       LVL=0

      00FF58B2H   BLOCK     ECODE    ---       LVL=0
      R15         REGSYM    ---      BYTE      control_line
      00FF58B2H   LINE      ECODE    ---       #477
      00FF58B6H   LINE      ECODE    ---       #479
      00FF58CAH   LINE      ECODE    ---       #480
      00FF58DEH   LINE      ECODE    ---       #481
      00FF58F2H   LINE      ECODE    ---       #482
      00FF5906H   LINE      ECODE    ---       #488
      00FF5910H   LINE      ECODE    ---       #490
      00FF5920H   LINE      ECODE    ---       #491
      00FF5922H   LINE      ECODE    ---       #494
      00FF5936H   LINE      ECODE    ---       #495
      00FF5936H   LINE      ECODE    ---       #496
      00FF5940H   LINE      ECODE    ---       #498
      00FF5950H   LINE      ECODE    ---       #499
      00FF5952H   LINE      ECODE    ---       #502
      00FF5966H   LINE      ECODE    ---       #503
      00FF5966H   LINE      ECODE    ---       #504
      00FF5970H   LINE      ECODE    ---       #506
      00FF5980H   LINE      ECODE    ---       #507
      00FF5982H   LINE      ECODE    ---       #510
      00FF5996H   LINE      ECODE    ---       #511
      00FF5996H   LINE      ECODE    ---       #512
      00FF59A0H   LINE      ECODE    ---       #514
      00FF59B0H   LINE      ECODE    ---       #515
      00FF59B2H   LINE      ECODE    ---       #518
      00FF59C6H   LINE      ECODE    ---       #519
      00FF59C6H   LINE      ECODE    ---       #521
      00FF59DCH   LINE      ECODE    ---       #522
      00FF59F2H   LINE      ECODE    ---       #523
      00FF5A08H   LINE      ECODE    ---       #524
      00FF5A1EH   LINE      ECODE    ---       #530
      00FF5A2EH   LINE      ECODE    ---       #531
      ---         BLOCKEND  ---      ---       LVL=0

      00FF5A31H   BLOCK     ECODE    ---       LVL=0
      00FF5A31H   LINE      ECODE    ---       #532
      00FF5A31H   LINE      ECODE    ---       #534
      00FF5A37H   LINE      ECODE    ---       #535
      00FF5A3BH   LINE      ECODE    ---       #537
      00FF5A42H   LINE      ECODE    ---       #539
      00FF5A48H   LINE      ECODE    ---       #540
      00FF5A48H   LINE      ECODE    ---       #542
      00FF5A6AH   LINE      ECODE    ---       #544
      00FF5A6AH   LINE      ECODE    ---       #545
      00FF5A6CH   LINE      ECODE    ---       #546
      00FF5A6CH   LINE      ECODE    ---       #547
      00FF5A6EH   LINE      ECODE    ---       #548
      00FF5A6EH   LINE      ECODE    ---       #549
      00FF5A72H   LINE      ECODE    ---       #550
      00FF5A74H   LINE      ECODE    ---       #552
      00FF5A74H   LINE      ECODE    ---       #553
      00FF5A7CH   LINE      ECODE    ---       #555
      00FF5A7DH   LINE      ECODE    ---       #556
      00FF5A7DH   LINE      ECODE    ---       #557
      00FF5A81H   LINE      ECODE    ---       #558
      00FF5A81H   LINE      ECODE    ---       #559
      00FF5A83H   LINE      ECODE    ---       #560
      00FF5A83H   LINE      ECODE    ---       #561
      00FF5A87H   LINE      ECODE    ---       #562
      00FF5A87H   LINE      ECODE    ---       #563
L251 LINKER/LOCATER V4.66.93.0                                                        07/17/2023  21:05:08  PAGE 162


      00FF5A89H   LINE      ECODE    ---       #564
      00FF5A89H   LINE      ECODE    ---       #565
      00FF5A8DH   LINE      ECODE    ---       #566
      00FF5A8DH   LINE      ECODE    ---       #567
      00FF5A8FH   LINE      ECODE    ---       #569
      00FF5A8FH   LINE      ECODE    ---       #570
      00FF5A93H   LINE      ECODE    ---       #571
      00FF5A93H   LINE      ECODE    ---       #572
      00FF5A95H   LINE      ECODE    ---       #573
      00FF5A95H   LINE      ECODE    ---       #574
      00FF5A99H   LINE      ECODE    ---       #575
      00FF5A99H   LINE      ECODE    ---       #576
      00FF5A9BH   LINE      ECODE    ---       #577
      00FF5A9BH   LINE      ECODE    ---       #578
      00FF5AA3H   LINE      ECODE    ---       #579
      00FF5AABH   LINE      ECODE    ---       #580
      00FF5AABH   LINE      ECODE    ---       #583
      00FF5AABH   LINE      ECODE    ---       #585
      ---         BLOCKEND  ---      ---       LVL=0

      00FF5AACH   BLOCK     ECODE    ---       LVL=0
      00FF5AACH   LINE      ECODE    ---       #587
      00FF5AACH   LINE      ECODE    ---       #589
      00FF5AB4H   LINE      ECODE    ---       #590
      00FF5ABAH   LINE      ECODE    ---       #591
      ---         BLOCKEND  ---      ---       LVL=0

      00FF5AC2H   BLOCK     ECODE    ---       LVL=0
      00FF5AC2H   LINE      ECODE    ---       #593
      00FF5AC2H   LINE      ECODE    ---       #595
      00FF5ACAH   LINE      ECODE    ---       #596
      00FF5AD0H   LINE      ECODE    ---       #597
      ---         BLOCKEND  ---      ---       LVL=0

      00FF5AD8H   BLOCK     ECODE    ---       LVL=0
      00FF5AD8H   LINE      ECODE    ---       #599
      00FF5AD8H   LINE      ECODE    ---       #601
      00FF5AE0H   LINE      ECODE    ---       #602
      00FF5AE6H   LINE      ECODE    ---       #603
      ---         BLOCKEND  ---      ---       LVL=0

      00FF5AEEH   BLOCK     ECODE    ---       LVL=0
      00FF5AEEH   LINE      ECODE    ---       #605
      00FF5AEEH   LINE      ECODE    ---       #607
      00FF5AF6H   LINE      ECODE    ---       #608
      00FF5AFCH   LINE      ECODE    ---       #609
      ---         BLOCKEND  ---      ---       LVL=0

      00FF5B04H   BLOCK     ECODE    ---       LVL=0
      00FF5B04H   LINE      ECODE    ---       #611
      00FF5B04H   LINE      ECODE    ---       #613
      00FF5B0CH   LINE      ECODE    ---       #614
      ---         BLOCKEND  ---      ---       LVL=0

      00FF5B12H   BLOCK     ECODE    ---       LVL=0
      00FF5B12H   LINE      ECODE    ---       #617
      00FF5B12H   LINE      ECODE    ---       #619
      00FF5B1AH   LINE      ECODE    ---       #620
      ---         BLOCKEND  ---      ---       LVL=0

      00FF5B20H   BLOCK     ECODE    ---       LVL=0
      00FF5B20H   LINE      ECODE    ---       #623
      00FF5B20H   LINE      ECODE    ---       #625
      00FF5B28H   LINE      ECODE    ---       #626
      ---         BLOCKEND  ---      ---       LVL=0
L251 LINKER/LOCATER V4.66.93.0                                                        07/17/2023  21:05:08  PAGE 163



      00FF5B2EH   BLOCK     ECODE    ---       LVL=0
      R15         REGSYM    ---      BYTE      control_line
      00FF5B2EH   LINE      ECODE    ---       #633
      00FF5B32H   LINE      ECODE    ---       #637
      00FF5B46H   LINE      ECODE    ---       #638
      00FF5B5AH   LINE      ECODE    ---       #642
      00FF5B72H   LINE      ECODE    ---       #643
      00FF5B8AH   LINE      ECODE    ---       #645
      00FF5B9AH   LINE      ECODE    ---       #646
      ---         BLOCKEND  ---      ---       LVL=0

      00FF5B9DH   BLOCK     ECODE    ---       LVL=0
      00FF5B9DH   LINE      ECODE    ---       #648
      00FF5B9DH   LINE      ECODE    ---       #650
      00FF5BA3H   LINE      ECODE    ---       #652
      00FF5BA7H   LINE      ECODE    ---       #654
      00FF5BAEH   LINE      ECODE    ---       #656
      00FF5BB4H   LINE      ECODE    ---       #657
      00FF5BB4H   LINE      ECODE    ---       #659
      00FF5BCCH   LINE      ECODE    ---       #661
      00FF5BCCH   LINE      ECODE    ---       #662
      00FF5BCEH   LINE      ECODE    ---       #663
      00FF5BCEH   LINE      ECODE    ---       #664
      00FF5BD0H   LINE      ECODE    ---       #665
      00FF5BD0H   LINE      ECODE    ---       #666
      00FF5BD4H   LINE      ECODE    ---       #667
      00FF5BD6H   LINE      ECODE    ---       #669
      00FF5BD6H   LINE      ECODE    ---       #670
      00FF5BDEH   LINE      ECODE    ---       #672
      00FF5BDFH   LINE      ECODE    ---       #673
      00FF5BDFH   LINE      ECODE    ---       #674
      00FF5BE3H   LINE      ECODE    ---       #675
      00FF5BE3H   LINE      ECODE    ---       #676
      00FF5BE5H   LINE      ECODE    ---       #677
      00FF5BE5H   LINE      ECODE    ---       #678
      00FF5BE9H   LINE      ECODE    ---       #679
      00FF5BE9H   LINE      ECODE    ---       #680
      00FF5BEBH   LINE      ECODE    ---       #681
      00FF5BEBH   LINE      ECODE    ---       #682
      00FF5BF3H   LINE      ECODE    ---       #683
      00FF5BFBH   LINE      ECODE    ---       #684
      00FF5BFBH   LINE      ECODE    ---       #686
      00FF5BFBH   LINE      ECODE    ---       #688
      ---         BLOCKEND  ---      ---       LVL=0

      00FF5BFCH   BLOCK     ECODE    ---       LVL=0
      00FF5BFCH   LINE      ECODE    ---       #690
      00FF5BFCH   LINE      ECODE    ---       #692
      00FF5C04H   LINE      ECODE    ---       #693
      00FF5C0AH   LINE      ECODE    ---       #694
      ---         BLOCKEND  ---      ---       LVL=0

      00FF5C18H   BLOCK     ECODE    ---       LVL=0
      00FF5C18H   LINE      ECODE    ---       #697
      00FF5C18H   LINE      ECODE    ---       #699
      00FF5C20H   LINE      ECODE    ---       #700
      00FF5C26H   LINE      ECODE    ---       #701
      ---         BLOCKEND  ---      ---       LVL=0

      00FF5C34H   BLOCK     ECODE    ---       LVL=0
      00FF5C34H   LINE      ECODE    ---       #704
      00FF5C34H   LINE      ECODE    ---       #706
      00FF5C3CH   LINE      ECODE    ---       #707
      00FF5C42H   LINE      ECODE    ---       #708
L251 LINKER/LOCATER V4.66.93.0                                                        07/17/2023  21:05:08  PAGE 164


      ---         BLOCKEND  ---      ---       LVL=0

      00FF5C50H   BLOCK     ECODE    ---       LVL=0
      00FF5C50H   LINE      ECODE    ---       #711
      00FF5C50H   LINE      ECODE    ---       #713
      00FF5C58H   LINE      ECODE    ---       #714
      00FF5C5EH   LINE      ECODE    ---       #715
      ---         BLOCKEND  ---      ---       LVL=0

      00FF5C6CH   BLOCK     ECODE    ---       LVL=0
      00FF5C6CH   LINE      ECODE    ---       #718
      00FF5C6CH   LINE      ECODE    ---       #721
      00FF5C92H   LINE      ECODE    ---       #722
      00FF5CB8H   LINE      ECODE    ---       #723
      00FF5CE0H   LINE      ECODE    ---       #724
      00FF5D08H   LINE      ECODE    ---       #725
      00FF5D30H   LINE      ECODE    ---       #726
      00FF5D58H   LINE      ECODE    ---       #727
      00FF5D6CH   LINE      ECODE    ---       #729
      00FF5D83H   LINE      ECODE    ---       #730
      00FF5D9AH   LINE      ECODE    ---       #731
      00FF5DAFH   LINE      ECODE    ---       #732
      00FF5DD6H   LINE      ECODE    ---       #734
      00FF5DEEH   LINE      ECODE    ---       #735
      00FF5E06H   LINE      ECODE    ---       #738
      00FF5E1EH   LINE      ECODE    ---       #740
      00FF5E45H   LINE      ECODE    ---       #742
      00FF5E6CH   LINE      ECODE    ---       #743
      00FF5E93H   LINE      ECODE    ---       #744
      00FF5EB8H   LINE      ECODE    ---       #745
      00FF5ECEH   LINE      ECODE    ---       #746
      00FF5EE4H   LINE      ECODE    ---       #748
      00FF5EE8H   LINE      ECODE    ---       #749
      00FF5EF4H   LINE      ECODE    ---       #751
      00FF5EF4H   LINE      ECODE    ---       #752
      00FF5EFCH   LINE      ECODE    ---       #753
      00FF5EFDH   LINE      ECODE    ---       #766
      00FF5EFDH   LINE      ECODE    ---       #767
      00FF5F03H   LINE      ECODE    ---       #768
      00FF5F0BH   LINE      ECODE    ---       #769
      00FF5F0BH   LINE      ECODE    ---       #770
      00FF5F0BH   LINE      ECODE    ---       #771
      ---         BLOCKEND  ---      ---       LVL=0

      00FF5F0CH   BLOCK     ECODE    ---       LVL=0
      R15         REGSYM    ---      BYTE      control_line
      00FF5F0CH   LINE      ECODE    ---       #776
      00FF5F10H   LINE      ECODE    ---       #778
      00FF5F24H   LINE      ECODE    ---       #779
      00FF5F3CH   LINE      ECODE    ---       #780
      00FF5F50H   LINE      ECODE    ---       #781
      00FF5F68H   LINE      ECODE    ---       #784
      00FF5F7CH   LINE      ECODE    ---       #785
      00FF5F94H   LINE      ECODE    ---       #786
      00FF5FA6H   LINE      ECODE    ---       #787
      00FF5FBEH   LINE      ECODE    ---       #788
      00FF5FD2H   LINE      ECODE    ---       #789
      00FF5FEAH   LINE      ECODE    ---       #791
      00FF5FFAH   LINE      ECODE    ---       #792
      ---         BLOCKEND  ---      ---       LVL=0

      00FF5FFDH   BLOCK     ECODE    ---       LVL=0
      00FF5FFDH   LINE      ECODE    ---       #794
      00FF5FFDH   LINE      ECODE    ---       #796
      00FF6003H   LINE      ECODE    ---       #797
L251 LINKER/LOCATER V4.66.93.0                                                        07/17/2023  21:05:08  PAGE 165


      00FF6007H   LINE      ECODE    ---       #799
      00FF600EH   LINE      ECODE    ---       #801
      00FF6014H   LINE      ECODE    ---       #802
      00FF6014H   LINE      ECODE    ---       #804
      00FF602CH   LINE      ECODE    ---       #806
      00FF602CH   LINE      ECODE    ---       #807
      00FF602EH   LINE      ECODE    ---       #808
      00FF602EH   LINE      ECODE    ---       #809
      00FF6030H   LINE      ECODE    ---       #810
      00FF6030H   LINE      ECODE    ---       #811
      00FF6038H   LINE      ECODE    ---       #812
      00FF6039H   LINE      ECODE    ---       #814
      00FF6039H   LINE      ECODE    ---       #815
      00FF603DH   LINE      ECODE    ---       #816
      00FF603DH   LINE      ECODE    ---       #817
      00FF603FH   LINE      ECODE    ---       #818
      00FF603FH   LINE      ECODE    ---       #819
      00FF6043H   LINE      ECODE    ---       #820
      00FF6043H   LINE      ECODE    ---       #821
      00FF6045H   LINE      ECODE    ---       #822
      00FF6045H   LINE      ECODE    ---       #823
      00FF6049H   LINE      ECODE    ---       #824
      00FF6049H   LINE      ECODE    ---       #825
      00FF604BH   LINE      ECODE    ---       #826
      00FF604BH   LINE      ECODE    ---       #827
      00FF6053H   LINE      ECODE    ---       #828
      00FF605BH   LINE      ECODE    ---       #829
      00FF605BH   LINE      ECODE    ---       #831
      00FF605BH   LINE      ECODE    ---       #833
      ---         BLOCKEND  ---      ---       LVL=0

      00FF605CH   BLOCK     ECODE    ---       LVL=0
      00FF605EH   BLOCK     ECODE    NEAR LAB  LVL=1
      DR12        REGSYM    ---      FLOAT     change_unit
      ---         BLOCKEND  ---      ---       LVL=1
      00FF605CH   LINE      ECODE    ---       #835
      00FF605EH   LINE      ECODE    ---       #836
      00FF605EH   LINE      ECODE    ---       #837
      00FF6066H   LINE      ECODE    ---       #838
      00FF606EH   LINE      ECODE    ---       #839
      00FF6074H   LINE      ECODE    ---       #841
      00FF6078H   LINE      ECODE    ---       #842
      00FF607EH   LINE      ECODE    ---       #844
      00FF6086H   LINE      ECODE    ---       #845
      00FF6086H   LINE      ECODE    ---       #846
      00FF608EH   LINE      ECODE    ---       #848
      00FF6096H   LINE      ECODE    ---       #849
      00FF6096H   LINE      ECODE    ---       #851
      00FF60AAH   LINE      ECODE    ---       #853
      00FF60AAH   LINE      ECODE    ---       #854
      00FF60AAH   LINE      ECODE    ---       #855
      00FF60ACH   LINE      ECODE    ---       #857
      00FF60ACH   LINE      ECODE    ---       #858
      00FF60BAH   LINE      ECODE    ---       #860
      00FF60BAH   LINE      ECODE    ---       #861
      00FF60BCH   LINE      ECODE    ---       #862
      00FF60BCH   LINE      ECODE    ---       #863
      00FF60CAH   LINE      ECODE    ---       #865
      00FF60D2H   LINE      ECODE    ---       #866
      00FF60D4H   LINE      ECODE    ---       #868
      00FF60D4H   LINE      ECODE    ---       #869
      00FF60E0H   LINE      ECODE    ---       #870
      00FF60E0H   LINE      ECODE    ---       #871
      00FF60E2H   LINE      ECODE    ---       #872
      00FF60E2H   LINE      ECODE    ---       #873
L251 LINKER/LOCATER V4.66.93.0                                                        07/17/2023  21:05:08  PAGE 166


      00FF60E8H   LINE      ECODE    ---       #874
      00FF60F0H   LINE      ECODE    ---       #875
      00FF60F0H   LINE      ECODE    ---       #876
      00FF60F0H   LINE      ECODE    ---       #878
      ---         BLOCKEND  ---      ---       LVL=0

      00FF60F3H   BLOCK     ECODE    ---       LVL=0
      00FF60F5H   BLOCK     ECODE    NEAR LAB  LVL=1
      DR12        REGSYM    ---      FLOAT     change_unit
      ---         BLOCKEND  ---      ---       LVL=1
      00FF60F3H   LINE      ECODE    ---       #880
      00FF60F5H   LINE      ECODE    ---       #881
      00FF60F5H   LINE      ECODE    ---       #882
      00FF60FDH   LINE      ECODE    ---       #883
      00FF6105H   LINE      ECODE    ---       #884
      00FF610BH   LINE      ECODE    ---       #885
      00FF610FH   LINE      ECODE    ---       #886
      00FF6115H   LINE      ECODE    ---       #888
      00FF611DH   LINE      ECODE    ---       #889
      00FF611DH   LINE      ECODE    ---       #890
      00FF6125H   LINE      ECODE    ---       #892
      00FF612DH   LINE      ECODE    ---       #893
      00FF612DH   LINE      ECODE    ---       #895
      00FF6141H   LINE      ECODE    ---       #897
      00FF6141H   LINE      ECODE    ---       #898
      00FF6141H   LINE      ECODE    ---       #899
      00FF6143H   LINE      ECODE    ---       #901
      00FF6143H   LINE      ECODE    ---       #902
      00FF6151H   LINE      ECODE    ---       #903
      00FF6151H   LINE      ECODE    ---       #904
      00FF6153H   LINE      ECODE    ---       #905
      00FF6153H   LINE      ECODE    ---       #906
      00FF6161H   LINE      ECODE    ---       #907
      00FF6169H   LINE      ECODE    ---       #908
      00FF616BH   LINE      ECODE    ---       #910
      00FF616BH   LINE      ECODE    ---       #911
      00FF6177H   LINE      ECODE    ---       #912
      00FF6177H   LINE      ECODE    ---       #913
      00FF6179H   LINE      ECODE    ---       #914
      00FF6179H   LINE      ECODE    ---       #915
      00FF617FH   LINE      ECODE    ---       #916
      00FF6187H   LINE      ECODE    ---       #917
      00FF6187H   LINE      ECODE    ---       #918
      00FF6187H   LINE      ECODE    ---       #919
      ---         BLOCKEND  ---      ---       LVL=0

      00FF618AH   BLOCK     ECODE    ---       LVL=0
      00FF618AH   LINE      ECODE    ---       #921
      00FF618AH   LINE      ECODE    ---       #922
      00FF618AH   LINE      ECODE    ---       #923
      00FF618AH   LINE      ECODE    ---       #924
      00FF6192H   LINE      ECODE    ---       #925
      00FF6198H   LINE      ECODE    ---       #926
      00FF619CH   LINE      ECODE    ---       #927
      00FF619CH   LINE      ECODE    ---       #929
      00FF619CH   LINE      ECODE    ---       #930
      00FF619CH   LINE      ECODE    ---       #931
      00FF619CH   LINE      ECODE    ---       #933
      00FF619CH   LINE      ECODE    ---       #934
      00FF619CH   LINE      ECODE    ---       #936
      00FF61ABH   LINE      ECODE    ---       #938
      00FF61ABH   LINE      ECODE    ---       #939
      00FF61B3H   LINE      ECODE    ---       #940
      00FF61B4H   LINE      ECODE    ---       #951
      00FF61B4H   LINE      ECODE    ---       #952
L251 LINKER/LOCATER V4.66.93.0                                                        07/17/2023  21:05:08  PAGE 167


      00FF61C0H   LINE      ECODE    ---       #953
      00FF61C0H   LINE      ECODE    ---       #954
      00FF61C2H   LINE      ECODE    ---       #955
      00FF61C2H   LINE      ECODE    ---       #956
      00FF61C8H   LINE      ECODE    ---       #957
      00FF61D0H   LINE      ECODE    ---       #958
      00FF61D0H   LINE      ECODE    ---       #959
      00FF61D0H   LINE      ECODE    ---       #960
      ---         BLOCKEND  ---      ---       LVL=0

      00FF61D1H   BLOCK     ECODE    ---       LVL=0
      00FF61D1H   LINE      ECODE    ---       #962
      00FF61D1H   LINE      ECODE    ---       #963
      00FF61D1H   LINE      ECODE    ---       #964
      00FF61D1H   LINE      ECODE    ---       #965
      00FF61D9H   LINE      ECODE    ---       #966
      00FF61DFH   LINE      ECODE    ---       #969
      00FF61E3H   LINE      ECODE    ---       #970
      00FF61E3H   LINE      ECODE    ---       #972
      00FF61E3H   LINE      ECODE    ---       #973
      00FF61E3H   LINE      ECODE    ---       #974
      00FF61E3H   LINE      ECODE    ---       #976
      00FF61E3H   LINE      ECODE    ---       #977
      00FF61E3H   LINE      ECODE    ---       #979
      00FF61F2H   LINE      ECODE    ---       #981
      00FF61F2H   LINE      ECODE    ---       #982
      00FF61FAH   LINE      ECODE    ---       #983
      00FF61FBH   LINE      ECODE    ---       #994
      00FF61FBH   LINE      ECODE    ---       #995
      00FF6207H   LINE      ECODE    ---       #996
      00FF6207H   LINE      ECODE    ---       #997
      00FF6209H   LINE      ECODE    ---       #998
      00FF6209H   LINE      ECODE    ---       #999
      00FF620FH   LINE      ECODE    ---       #1000
      00FF6217H   LINE      ECODE    ---       #1001
      00FF6217H   LINE      ECODE    ---       #1002
      00FF6217H   LINE      ECODE    ---       #1003
      ---         BLOCKEND  ---      ---       LVL=0

      ---         MODULE    ---      ---       Direction
      00FFA6CDH   PUBLIC    ECODE    ---       DirectionControl?
      00FFA342H   PUBLIC    ECODE    ---       Read_ADC?
      00FFA4ADH   PUBLIC    ECODE    ---       InductorNormal?
      000004A3H   PUBLIC    EDATA    INT       second_leftp
      000004A5H   PUBLIC    EDATA    INT       leftS
      000004A7H   PUBLIC    EDATA    INT       leftV
      000004A9H   PUBLIC    EDATA    ---       g_ValueOfAD
      000004BBH   PUBLIC    EDATA    ---       g_fDirectionError_dot
      000004C7H   PUBLIC    EDATA    INT       zhidaoflag
      000004C9H   PUBLIC    EDATA    ---       g_fDirectionError
      000004DDH   PUBLIC    EDATA    ---       g_ValueOfADFilter
      000004E7H   PUBLIC    EDATA    INT       rightP
      000004E9H   PUBLIC    EDATA    INT       second_rightp
      000004EBH   PUBLIC    EDATA    INT       middle
      000004EDH   PUBLIC    EDATA    INT       rightS
      000004EFH   PUBLIC    EDATA    INT       rightV
      000004F1H   PUBLIC    EDATA    INT       leftP
      00000008H   PUBLIC    DATA     ---       diangan
      000000D0H   SFRSYM    DATA     BYTE      PSW
      0000009DH   SFRSYM    DATA     BYTE      IRCBAND
      00000097H   SFRSYM    DATA     BYTE      AUXR2
      000000EFH   SFRSYM    DATA     BYTE      AUXINTIF
      000000FDH   SFRSYM    DATA     BYTE      S4CON
      000000ACH   SFRSYM    DATA     BYTE      S3CON
      0000009AH   SFRSYM    DATA     BYTE      S2CON
L251 LINKER/LOCATER V4.66.93.0                                                        07/17/2023  21:05:08  PAGE 168


      000000B7H   SFRSYM    DATA     BYTE      IPH
      000000CDH   SFRSYM    DATA     BYTE      SPSTAT
      000000DDH   SFRSYM    DATA     BYTE      T4T3M
      000000C1H   SFRSYM    DATA     BYTE      WDT_CONTR
      000000DFH   SFRSYM    DATA     BYTE      IP3
      000000F4H   SFRSYM    DATA     BYTE      USBCON
      000000B5H   SFRSYM    DATA     BYTE      IP2
      000000FFH   SFRSYM    DATA     BYTE      RSTCFG
      000000F9H   SFRSYM    DATA     BYTE      LINICR
      0000008EH   SFRSYM    DATA     BYTE      AUXR
      000000AFH   SFRSYM    DATA     BYTE      IE2
      00000088H   SFRSYM    DATA     BYTE      TCON
      00000098H   SFRSYM    DATA     BYTE      SCON
      000000F1H   SFRSYM    DATA     BYTE      CANICR
      00000087H   SFRSYM    DATA     BYTE      PCON
      000000BCH   SFRSYM    DATA     BYTE      ADC_CONTR
      000000E7H   SFRSYM    DATA     BYTE      CMPCR2
      000000E6H   SFRSYM    DATA     BYTE      CMPCR1
      000000B8H   SFRSYM    DATA     BYTE      IP
      0000008FH   SFRSYM    DATA     BYTE      INTCLKO
      000000EEH   SFRSYM    DATA     BYTE      IP3H
      000000B6H   SFRSYM    DATA     BYTE      IP2H
      000000A8H   SFRSYM    DATA     BYTE      IE
      000000BBH   SFRSYM    DATA     BYTE      P_SW3
      000000BAH   SFRSYM    DATA     BYTE      P_SW2
      000000A2H   SFRSYM    DATA     BYTE      P_SW1
      000000CEH   SFRSYM    DATA     BYTE      SPCTL
      000000F8H   SFRSYM    DATA     BYTE      P7
      000000E8H   SFRSYM    DATA     BYTE      P6
      000000C8H   SFRSYM    DATA     BYTE      P5
      000000C0H   SFRSYM    DATA     BYTE      P4
      000000B0H   SFRSYM    DATA     BYTE      P3
      000000A0H   SFRSYM    DATA     BYTE      P2
      00000090H   SFRSYM    DATA     BYTE      P1
      00000080H   SFRSYM    DATA     BYTE      P0

      00FFA342H   BLOCK     ECODE    ---       LVL=0
      00FFA344H   BLOCK     ECODE    NEAR LAB  LVL=1
      WR14        REGSYM    ---      INT       i
      WR4         REGSYM    ---      INT       j
      WR2         REGSYM    ---      INT       k
      WR0         REGSYM    ---      INT       temp
      00000026H   SYMBOL    EDATA    ---       ad_valu
      00000080H   SYMBOL    EDATA    ---       ad_valu1
      00000092H   SYMBOL    EDATA    ---       ad_sum
      000000A4H   SYMBOL    EDATA    ---       ValueOfADOld
      000000B6H   SYMBOL    EDATA    ---       ValueOfADNew
      ---         BLOCKEND  ---      ---       LVL=1
      00FFA342H   LINE      ECODE    ---       #24
      00FFA344H   LINE      ECODE    ---       #25
      00FFA344H   LINE      ECODE    ---       #31
      00FFA346H   LINE      ECODE    ---       #33
      00FFA358H   LINE      ECODE    ---       #34
      00FFA36AH   LINE      ECODE    ---       #35
      00FFA37CH   LINE      ECODE    ---       #36
      00FFA38EH   LINE      ECODE    ---       #37
      00FFA3A0H   LINE      ECODE    ---       #38
      00FFA3B2H   LINE      ECODE    ---       #49
      00FFA3BAH   LINE      ECODE    ---       #53
      00FFA3BEH   LINE      ECODE    ---       #55
      00FFA3C0H   LINE      ECODE    ---       #57
      00FFA3C4H   LINE      ECODE    ---       #59
      00FFA3DCH   LINE      ECODE    ---       #61
      00FFA3DCH   LINE      ECODE    ---       #62
      00FFA3E0H   LINE      ECODE    ---       #63
L251 LINKER/LOCATER V4.66.93.0                                                        07/17/2023  21:05:08  PAGE 169


      00FFA3E4H   LINE      ECODE    ---       #64
      00FFA3F0H   LINE      ECODE    ---       #66
      00FFA3F8H   LINE      ECODE    ---       #67
      00FFA400H   LINE      ECODE    ---       #70
      00FFA402H   LINE      ECODE    ---       #72
      00FFA420H   LINE      ECODE    ---       #73
      00FFA430H   LINE      ECODE    ---       #74
      00FFA438H   LINE      ECODE    ---       #77
      00FFA43AH   LINE      ECODE    ---       #79
      00FFA454H   LINE      ECODE    ---       #82
      00FFA45CH   LINE      ECODE    ---       #83
      00FFA464H   LINE      ECODE    ---       #85
      00FFA470H   LINE      ECODE    ---       #86
      00FFA48CH   LINE      ECODE    ---       #88
      00FFA4A2H   LINE      ECODE    ---       #89
      00FFA4AAH   LINE      ECODE    ---       #91
      ---         BLOCKEND  ---      ---       LVL=0

      00FFA4ADH   BLOCK     ECODE    ---       LVL=0
      00FFA4ADH   LINE      ECODE    ---       #96
      00FFA4ADH   LINE      ECODE    ---       #98
      00FFA4B1H   LINE      ECODE    ---       #99
      00FFA4B8H   LINE      ECODE    ---       #100
      00FFA4BFH   LINE      ECODE    ---       #101
      00FFA4C6H   LINE      ECODE    ---       #102
      00FFA4CDH   LINE      ECODE    ---       #103
      00FFA4D4H   LINE      ECODE    ---       #104
      00FFA4DBH   LINE      ECODE    ---       #108
      00FFA50CH   LINE      ECODE    ---       #109
      00FFA534H   LINE      ECODE    ---       #111
      00FFA55CH   LINE      ECODE    ---       #112
      00FFA584H   LINE      ECODE    ---       #114
      00FFA5AEH   LINE      ECODE    ---       #115
      00FFA5D0H   LINE      ECODE    ---       #118
      00FFA5E2H   LINE      ECODE    ---       #119
      00FFA5FAH   LINE      ECODE    ---       #120
      00FFA610H   LINE      ECODE    ---       #121
      00FFA624H   LINE      ECODE    ---       #122
      00FFA63AH   LINE      ECODE    ---       #123
      00FFA64EH   LINE      ECODE    ---       #124
      00FFA664H   LINE      ECODE    ---       #125
      00FFA678H   LINE      ECODE    ---       #126
      00FFA68EH   LINE      ECODE    ---       #127
      00FFA6A2H   LINE      ECODE    ---       #128
      00FFA6B8H   LINE      ECODE    ---       #129
      00FFA6CCH   LINE      ECODE    ---       #136
      ---         BLOCKEND  ---      ---       LVL=0

      00FFA6CDH   BLOCK     ECODE    ---       LVL=0
      00FFA6CFH   BLOCK     ECODE    NEAR LAB  LVL=1
      000004F3H   SYMBOL    EDATA    ---       g_fDirectionErrorTemp
      ---         BLOCKEND  ---      ---       LVL=1
      00FFA6CDH   LINE      ECODE    ---       #153
      00FFA6CFH   LINE      ECODE    ---       #154
      00FFA6CFH   LINE      ECODE    ---       #157
      00FFA6D3H   LINE      ECODE    ---       #158
      00FFA733H   LINE      ECODE    ---       #159
      00FFA793H   LINE      ECODE    ---       #160
      00FFA889H   LINE      ECODE    ---       #163
      00FFA89BH   LINE      ECODE    ---       #165
      00FFA8A3H   LINE      ECODE    ---       #166
      00FFA8ABH   LINE      ECODE    ---       #167
      00FFA8B3H   LINE      ECODE    ---       #168
      00FFA8BBH   LINE      ECODE    ---       #169
      00FFA8C3H   LINE      ECODE    ---       #170
L251 LINKER/LOCATER V4.66.93.0                                                        07/17/2023  21:05:08  PAGE 170


      00FFA8D9H   LINE      ECODE    ---       #173
      ---         BLOCKEND  ---      ---       LVL=0

      ---         MODULE    ---      ---       control
      00FFDB41H   PUBLIC    ECODE    ---       Control?
      00000789H   PUBLIC    EDATA    FLOAT     servo
      0000078DH   PUBLIC    EDATA    INT       duty1
      0000078FH   PUBLIC    EDATA    INT       duty2
      000000D0H   SFRSYM    DATA     BYTE      PSW
      0000009DH   SFRSYM    DATA     BYTE      IRCBAND
      00000097H   SFRSYM    DATA     BYTE      AUXR2
      000000EFH   SFRSYM    DATA     BYTE      AUXINTIF
      000000FDH   SFRSYM    DATA     BYTE      S4CON
      000000ACH   SFRSYM    DATA     BYTE      S3CON
      0000009AH   SFRSYM    DATA     BYTE      S2CON
      000000B7H   SFRSYM    DATA     BYTE      IPH
      000000CDH   SFRSYM    DATA     BYTE      SPSTAT
      000000DDH   SFRSYM    DATA     BYTE      T4T3M
      000000C1H   SFRSYM    DATA     BYTE      WDT_CONTR
      000000DFH   SFRSYM    DATA     BYTE      IP3
      000000F4H   SFRSYM    DATA     BYTE      USBCON
      000000B5H   SFRSYM    DATA     BYTE      IP2
      000000FFH   SFRSYM    DATA     BYTE      RSTCFG
      000000F9H   SFRSYM    DATA     BYTE      LINICR
      0000008EH   SFRSYM    DATA     BYTE      AUXR
      000000AFH   SFRSYM    DATA     BYTE      IE2
      000000E8H.4 SFRSYM    DATA     BIT       P64
      000000E8H.0 SFRSYM    DATA     BIT       P60
      00000088H   SFRSYM    DATA     BYTE      TCON
      00000098H   SFRSYM    DATA     BYTE      SCON
      000000F1H   SFRSYM    DATA     BYTE      CANICR
      00000087H   SFRSYM    DATA     BYTE      PCON
      000000BCH   SFRSYM    DATA     BYTE      ADC_CONTR
      000000E7H   SFRSYM    DATA     BYTE      CMPCR2
      000000E6H   SFRSYM    DATA     BYTE      CMPCR1
      000000B8H   SFRSYM    DATA     BYTE      IP
      0000008FH   SFRSYM    DATA     BYTE      INTCLKO
      000000EEH   SFRSYM    DATA     BYTE      IP3H
      000000B6H   SFRSYM    DATA     BYTE      IP2H
      000000A8H   SFRSYM    DATA     BYTE      IE
      000000BBH   SFRSYM    DATA     BYTE      P_SW3
      000000BAH   SFRSYM    DATA     BYTE      P_SW2
      000000A2H   SFRSYM    DATA     BYTE      P_SW1
      000000CEH   SFRSYM    DATA     BYTE      SPCTL
      000000F8H   SFRSYM    DATA     BYTE      P7
      000000E8H   SFRSYM    DATA     BYTE      P6
      000000C8H   SFRSYM    DATA     BYTE      P5
      000000C0H   SFRSYM    DATA     BYTE      P4
      000000B0H   SFRSYM    DATA     BYTE      P3
      000000A0H   SFRSYM    DATA     BYTE      P2
      00000090H   SFRSYM    DATA     BYTE      P1
      00000080H   SFRSYM    DATA     BYTE      P0

      00FFDB41H   BLOCK     ECODE    ---       LVL=0
      00FFDB41H   LINE      ECODE    ---       #12
      00FFDB43H   LINE      ECODE    ---       #14
      00FFDB4DH   LINE      ECODE    ---       #16
      00FFDB5BH   LINE      ECODE    ---       #17
      00FFDB5DH   LINE      ECODE    ---       #18
      00FFDB5FH   LINE      ECODE    ---       #21
      00FFDB7BH   LINE      ECODE    ---       #22
      00FFDB7DH   LINE      ECODE    ---       #23
      00FFDB7DH   LINE      ECODE    ---       #25
      00FFDB87H   LINE      ECODE    ---       #27
      00FFDB95H   LINE      ECODE    ---       #28
L251 LINKER/LOCATER V4.66.93.0                                                        07/17/2023  21:05:08  PAGE 171


      00FFDB97H   LINE      ECODE    ---       #29
      00FFDB99H   LINE      ECODE    ---       #32
      00FFDBB5H   LINE      ECODE    ---       #33
      00FFDBB7H   LINE      ECODE    ---       #34
      00FFDBB7H   LINE      ECODE    ---       #39
      ---         BLOCKEND  ---      ---       LVL=0

      ---         MODULE    ---      ---       encoder
      00FFDC25H   PUBLIC    ECODE    ---       read_encoder?
      000007DDH   PUBLIC    EDATA    INT       speed1
      000007DFH   PUBLIC    EDATA    INT       speed2
      000000D0H   SFRSYM    DATA     BYTE      PSW
      0000009DH   SFRSYM    DATA     BYTE      IRCBAND
      00000097H   SFRSYM    DATA     BYTE      AUXR2
      000000EFH   SFRSYM    DATA     BYTE      AUXINTIF
      000000FDH   SFRSYM    DATA     BYTE      S4CON
      000000ACH   SFRSYM    DATA     BYTE      S3CON
      0000009AH   SFRSYM    DATA     BYTE      S2CON
      000000B7H   SFRSYM    DATA     BYTE      IPH
      000000CDH   SFRSYM    DATA     BYTE      SPSTAT
      000000DDH   SFRSYM    DATA     BYTE      T4T3M
      000000C1H   SFRSYM    DATA     BYTE      WDT_CONTR
      000000DFH   SFRSYM    DATA     BYTE      IP3
      000000F4H   SFRSYM    DATA     BYTE      USBCON
      000000B5H   SFRSYM    DATA     BYTE      IP2
      000000FFH   SFRSYM    DATA     BYTE      RSTCFG
      000000F9H   SFRSYM    DATA     BYTE      LINICR
      0000008EH   SFRSYM    DATA     BYTE      AUXR
      000000AFH   SFRSYM    DATA     BYTE      IE2
      000000B0H.5 SFRSYM    DATA     BIT       P35
      000000C8H.3 SFRSYM    DATA     BIT       P53
      00000088H   SFRSYM    DATA     BYTE      TCON
      00000098H   SFRSYM    DATA     BYTE      SCON
      000000F1H   SFRSYM    DATA     BYTE      CANICR
      00000087H   SFRSYM    DATA     BYTE      PCON
      000000BCH   SFRSYM    DATA     BYTE      ADC_CONTR
      000000E7H   SFRSYM    DATA     BYTE      CMPCR2
      000000E6H   SFRSYM    DATA     BYTE      CMPCR1
      000000B8H   SFRSYM    DATA     BYTE      IP
      0000008FH   SFRSYM    DATA     BYTE      INTCLKO
      000000EEH   SFRSYM    DATA     BYTE      IP3H
      000000B6H   SFRSYM    DATA     BYTE      IP2H
      000000A8H   SFRSYM    DATA     BYTE      IE
      000000BBH   SFRSYM    DATA     BYTE      P_SW3
      000000BAH   SFRSYM    DATA     BYTE      P_SW2
      000000A2H   SFRSYM    DATA     BYTE      P_SW1
      000000CEH   SFRSYM    DATA     BYTE      SPCTL
      000000F8H   SFRSYM    DATA     BYTE      P7
      000000E8H   SFRSYM    DATA     BYTE      P6
      000000C8H   SFRSYM    DATA     BYTE      P5
      000000C0H   SFRSYM    DATA     BYTE      P4
      000000B0H   SFRSYM    DATA     BYTE      P3
      000000A0H   SFRSYM    DATA     BYTE      P2
      00000090H   SFRSYM    DATA     BYTE      P1
      00000080H   SFRSYM    DATA     BYTE      P0

      00FFDC25H   BLOCK     ECODE    ---       LVL=0
      00FFDC25H   LINE      ECODE    ---       #7
      00FFDC25H   LINE      ECODE    ---       #9
      00FFDC2CH   LINE      ECODE    ---       #11
      00FFDC38H   LINE      ECODE    ---       #12
      00FFDC3AH   LINE      ECODE    ---       #15
      00FFDC44H   LINE      ECODE    ---       #16
      00FFDC44H   LINE      ECODE    ---       #18
      00FFDC4BH   LINE      ECODE    ---       #20
L251 LINKER/LOCATER V4.66.93.0                                                        07/17/2023  21:05:08  PAGE 172


      00FFDC53H   LINE      ECODE    ---       #21
      00FFDC55H   LINE      ECODE    ---       #24
      00FFDC67H   LINE      ECODE    ---       #26
      00FFDC67H   LINE      ECODE    ---       #27
      00FFDC6DH   LINE      ECODE    ---       #28
      ---         BLOCKEND  ---      ---       LVL=0

      ---         MODULE    ---      ---       pid
      00FFAA26H   PUBLIC    ECODE    ---       speedL_pid?
      00FFAAAEH   PUBLIC    ECODE    ---       speedR_pid?
      00FFAB36H   PUBLIC    ECODE    ---       mpu660_PID?
      00FFACE6H   PUBLIC    ECODE    ---       Ordinary_trace?
      00FFAC94H   PUBLIC    ECODE    ---       mpu660_angle?
      00FFA931H   PUBLIC    ECODE    ---       Target_speed?
      00FFA8DCH   PUBLIC    ECODE    ---       dir_pid?
      00FFACBDH   PUBLIC    ECODE    ---       IMU660ra_Angle_Y?
      00FFABFFH   PUBLIC    ECODE    ---       IMU660ra_Angle_Y_V_Filter?
      0000057FH   PUBLIC    EDATA    INT       normal_speed
      00000581H   PUBLIC    EDATA    INT       error_pre2
      00000583H   PUBLIC    EDATA    FLOAT     angle
      00000587H   PUBLIC    EDATA    FLOAT     cha_err1
      0000058BH   PUBLIC    EDATA    FLOAT     cha_err2
      0000058FH   PUBLIC    EDATA    FLOAT     Target_speed1
      00000593H   PUBLIC    EDATA    FLOAT     Target_speed2
      00000597H   PUBLIC    EDATA    FLOAT     last_err1
      0000059BH   PUBLIC    EDATA    FLOAT     g_dirControl_D
      0000059FH   PUBLIC    EDATA    FLOAT     last_err2
      000005A3H   PUBLIC    EDATA    FLOAT     g_dirControl_P
      000005A7H   PUBLIC    EDATA    INT       round_speed
      000005A9H   PUBLIC    EDATA    FLOAT     now_x
      000005ADH   PUBLIC    EDATA    FLOAT     now_y
      000005B1H   PUBLIC    EDATA    FLOAT     gr_y
      000005B5H   PUBLIC    EDATA    FLOAT     y_v_angle
      000005B9H   PUBLIC    EDATA    FLOAT     Motor_Ki_L
      000005BDH   PUBLIC    EDATA    INT       error_pre
      000005BFH   PUBLIC    EDATA    FLOAT     gr
      000005C3H   PUBLIC    EDATA    FLOAT     Motor_Ki_R
      000005C7H   PUBLIC    EDATA    FLOAT     Motor_Kp_L
      000005CBH   PUBLIC    EDATA    INT       error1
      000005CDH   PUBLIC    EDATA    INT       error2
      000005CFH   PUBLIC    EDATA    FLOAT     v_angle
      000005D3H   PUBLIC    EDATA    FLOAT     Motor_Kp_R
      000005D7H   PUBLIC    EDATA    FLOAT     angle_y
      000005DBH   PUBLIC    EDATA    FLOAT     angle_kp1
      000000D0H   SFRSYM    DATA     BYTE      PSW
      0000009DH   SFRSYM    DATA     BYTE      IRCBAND
      00000097H   SFRSYM    DATA     BYTE      AUXR2
      000000EFH   SFRSYM    DATA     BYTE      AUXINTIF
      000000FDH   SFRSYM    DATA     BYTE      S4CON
      000000ACH   SFRSYM    DATA     BYTE      S3CON
      0000009AH   SFRSYM    DATA     BYTE      S2CON
      000000B7H   SFRSYM    DATA     BYTE      IPH
      000000CDH   SFRSYM    DATA     BYTE      SPSTAT
      000000DDH   SFRSYM    DATA     BYTE      T4T3M
      000000C1H   SFRSYM    DATA     BYTE      WDT_CONTR
      000000DFH   SFRSYM    DATA     BYTE      IP3
      000000F4H   SFRSYM    DATA     BYTE      USBCON
      000000B5H   SFRSYM    DATA     BYTE      IP2
      000000FFH   SFRSYM    DATA     BYTE      RSTCFG
      000000F9H   SFRSYM    DATA     BYTE      LINICR
      0000008EH   SFRSYM    DATA     BYTE      AUXR
      000000AFH   SFRSYM    DATA     BYTE      IE2
      000000E8H.7 SFRSYM    DATA     BIT       P67
      00000088H   SFRSYM    DATA     BYTE      TCON
      00000098H   SFRSYM    DATA     BYTE      SCON
L251 LINKER/LOCATER V4.66.93.0                                                        07/17/2023  21:05:08  PAGE 173


      000000F1H   SFRSYM    DATA     BYTE      CANICR
      00000087H   SFRSYM    DATA     BYTE      PCON
      000000BCH   SFRSYM    DATA     BYTE      ADC_CONTR
      000000E7H   SFRSYM    DATA     BYTE      CMPCR2
      000000E6H   SFRSYM    DATA     BYTE      CMPCR1
      000000B8H   SFRSYM    DATA     BYTE      IP
      0000008FH   SFRSYM    DATA     BYTE      INTCLKO
      000000EEH   SFRSYM    DATA     BYTE      IP3H
      000000B6H   SFRSYM    DATA     BYTE      IP2H
      000000A8H   SFRSYM    DATA     BYTE      IE
      000000BBH   SFRSYM    DATA     BYTE      P_SW3
      000000BAH   SFRSYM    DATA     BYTE      P_SW2
      000000A2H   SFRSYM    DATA     BYTE      P_SW1
      000000CEH   SFRSYM    DATA     BYTE      SPCTL
      000000F8H   SFRSYM    DATA     BYTE      P7
      000000E8H   SFRSYM    DATA     BYTE      P6
      000000C8H   SFRSYM    DATA     BYTE      P5
      000000C0H   SFRSYM    DATA     BYTE      P4
      000000B0H   SFRSYM    DATA     BYTE      P3
      000000A0H   SFRSYM    DATA     BYTE      P2
      00000090H   SFRSYM    DATA     BYTE      P1
      00000080H   SFRSYM    DATA     BYTE      P0

      00FFA8DCH   BLOCK     ECODE    ---       LVL=0
      00FFA8DCH   LINE      ECODE    ---       #27
      00FFA8DCH   LINE      ECODE    ---       #30
      00FFA904H   LINE      ECODE    ---       #31
      00FFA908H   LINE      ECODE    ---       #32
      00FFA91CH   LINE      ECODE    ---       #34
      00FFA922H   LINE      ECODE    ---       #35
      00FFA926H   LINE      ECODE    ---       #37
      00FFA927H   LINE      ECODE    ---       #40
      00FFA92DH   LINE      ECODE    ---       #41
      00FFA931H   LINE      ECODE    ---       #42
      00FFA931H   LINE      ECODE    ---       #43
      ---         BLOCKEND  ---      ---       LVL=0

      00FFA931H   BLOCK     ECODE    ---       LVL=0
      00FFA931H   LINE      ECODE    ---       #45
      00FFA933H   LINE      ECODE    ---       #47
      00FFA9ABH   LINE      ECODE    ---       #48
      00FFAA21H   LINE      ECODE    ---       #50
      00FFAA23H   LINE      ECODE    ---       #51
      ---         BLOCKEND  ---      ---       LVL=0

      00FFAA26H   BLOCK     ECODE    ---       LVL=0
      00FFAA26H   LINE      ECODE    ---       #53
      00FFAA26H   LINE      ECODE    ---       #55
      00FFAA44H   LINE      ECODE    ---       #56
      00FFAA88H   LINE      ECODE    ---       #57
      00FFAA8CH   LINE      ECODE    ---       #58
      00FFAA9FH   LINE      ECODE    ---       #59
      00FFAAADH   LINE      ECODE    ---       #60
      ---         BLOCKEND  ---      ---       LVL=0

      00FFAAAEH   BLOCK     ECODE    ---       LVL=0
      00FFAAAEH   LINE      ECODE    ---       #62
      00FFAAAEH   LINE      ECODE    ---       #64
      00FFAACCH   LINE      ECODE    ---       #65
      00FFAB10H   LINE      ECODE    ---       #66
      00FFAB14H   LINE      ECODE    ---       #67
      00FFAB27H   LINE      ECODE    ---       #68
      00FFAB35H   LINE      ECODE    ---       #69
      ---         BLOCKEND  ---      ---       LVL=0

L251 LINKER/LOCATER V4.66.93.0                                                        07/17/2023  21:05:08  PAGE 174


      00FFAB36H   BLOCK     ECODE    ---       LVL=0
      00FFAB38H   BLOCK     ECODE    NEAR LAB  LVL=1
      00000026H   SYMBOL    EDATA    ---       v_angle_array
      DR24        REGSYM    ---      FLOAT     temp
      WR14        REGSYM    ---      INT       i
      WR28        REGSYM    ---      INT       j
      ---         BLOCKEND  ---      ---       LVL=1
      00FFAB36H   LINE      ECODE    ---       #71
      00FFAB38H   LINE      ECODE    ---       #72
      00FFAB38H   LINE      ECODE    ---       #75
      00FFAB3CH   LINE      ECODE    ---       #77
      00FFAB3EH   LINE      ECODE    ---       #79
      00FFAB54H   LINE      ECODE    ---       #80
      00FFAB5CH   LINE      ECODE    ---       #82
      00FFAB60H   LINE      ECODE    ---       #84
      00FFAB64H   LINE      ECODE    ---       #86
      00FFAB84H   LINE      ECODE    ---       #88
      00FFAB84H   LINE      ECODE    ---       #89
      00FFAB8CH   LINE      ECODE    ---       #90
      00FFAB94H   LINE      ECODE    ---       #91
      00FFABA0H   LINE      ECODE    ---       #93
      00FFABA8H   LINE      ECODE    ---       #95
      00FFABCAH   LINE      ECODE    ---       #98
      00FFABE6H   LINE      ECODE    ---       #100
      00FFABEEH   LINE      ECODE    ---       #101
      00FFABF0H   LINE      ECODE    ---       #104
      00FFABFCH   LINE      ECODE    ---       #105
      00FFABFCH   LINE      ECODE    ---       #107
      ---         BLOCKEND  ---      ---       LVL=0

      00FFABFFH   BLOCK     ECODE    ---       LVL=0
      00FFAC01H   BLOCK     ECODE    NEAR LAB  LVL=1
      00000026H   SYMBOL    EDATA    ---       y_v_angle_array
      DR24        REGSYM    ---      FLOAT     temp
      WR14        REGSYM    ---      INT       i
      WR30        REGSYM    ---      INT       j
      ---         BLOCKEND  ---      ---       LVL=1
      00FFABFFH   LINE      ECODE    ---       #109
      00FFAC01H   LINE      ECODE    ---       #110
      00FFAC01H   LINE      ECODE    ---       #113
      00FFAC05H   LINE      ECODE    ---       #115
      00FFAC07H   LINE      ECODE    ---       #117
      00FFAC1DH   LINE      ECODE    ---       #118
      00FFAC25H   LINE      ECODE    ---       #120
      00FFAC27H   LINE      ECODE    ---       #122
      00FFAC2BH   LINE      ECODE    ---       #124
      00FFAC4BH   LINE      ECODE    ---       #126
      00FFAC4BH   LINE      ECODE    ---       #127
      00FFAC53H   LINE      ECODE    ---       #128
      00FFAC5BH   LINE      ECODE    ---       #129
      00FFAC67H   LINE      ECODE    ---       #131
      00FFAC6FH   LINE      ECODE    ---       #133
      00FFAC91H   LINE      ECODE    ---       #134
      ---         BLOCKEND  ---      ---       LVL=0

      00FFAC94H   BLOCK     ECODE    ---       LVL=0
      00FFAC94H   LINE      ECODE    ---       #136
      00FFAC94H   LINE      ECODE    ---       #138
      00FFAC98H   LINE      ECODE    ---       #139
      00FFACA0H   LINE      ECODE    ---       #140
      00FFACA4H   LINE      ECODE    ---       #141
      00FFACBCH   LINE      ECODE    ---       #142
      ---         BLOCKEND  ---      ---       LVL=0

      00FFACBDH   BLOCK     ECODE    ---       LVL=0
L251 LINKER/LOCATER V4.66.93.0                                                        07/17/2023  21:05:08  PAGE 175


      00FFACBDH   LINE      ECODE    ---       #144
      00FFACBDH   LINE      ECODE    ---       #146
      00FFACC1H   LINE      ECODE    ---       #147
      00FFACC9H   LINE      ECODE    ---       #148
      00FFACCDH   LINE      ECODE    ---       #149
      00FFACE5H   LINE      ECODE    ---       #150
      ---         BLOCKEND  ---      ---       LVL=0

      00FFACE6H   BLOCK     ECODE    ---       LVL=0
      00FFACE6H   LINE      ECODE    ---       #152
      00FFACE8H   LINE      ECODE    ---       #154
      00FFACECH   LINE      ECODE    ---       #155
      00FFACF0H   LINE      ECODE    ---       #157
      00FFAD04H   LINE      ECODE    ---       #160
      00FFAD0AH   LINE      ECODE    ---       #161
      00FFAD0AH   LINE      ECODE    ---       #162
      00FFAD0CH   LINE      ECODE    ---       #163
      00FFAD20H   LINE      ECODE    ---       #166
      00FFAD2AH   LINE      ECODE    ---       #167
      00FFAD2AH   LINE      ECODE    ---       #168
      00FFAD2CH   LINE      ECODE    ---       #171
      00FFAD2EH   LINE      ECODE    ---       #172
      00FFAD6EH   LINE      ECODE    ---       #173
      00FFAD72H   LINE      ECODE    ---       #174
      00FFAD76H   LINE      ECODE    ---       #175
      00FFAD76H   LINE      ECODE    ---       #176
      ---         BLOCKEND  ---      ---       LVL=0

      ---         MODULE    ---      ---       round
      00FF91A9H   PUBLIC    ECODE    ---       Slope?
      00FF9256H   PUBLIC    ECODE    ---       Obstacle_Deal?
      00FF941AH   PUBLIC    ECODE    ---       Cross?
      00FF92BBH   PUBLIC    ECODE    ---       Obstacle?
      00FF901DH   PUBLIC    ECODE    ---       Huan_Dao_R?
      00FF8E91H   PUBLIC    ECODE    ---       Huan_Dao_Z?
      00FF8BB9H   PUBLIC    ECODE    ---       knn?
      00FF8E22H   PUBLIC    ECODE    ---       Round_Deal?
      000006DEH   PUBLIC    EDATA    INT       round1_type
      000006E0H   PUBLIC    EDATA    INT       round2_type
      000006E2H   PUBLIC    EDATA    INT       round3_type
      000006E4H   PUBLIC    EDATA    INT       flag_hd_Z
      000006E6H   PUBLIC    EDATA    INT       round4_type
      000006E8H   PUBLIC    EDATA    INT       roundcount2
      000006EAH   PUBLIC    EDATA    INT       roundcount3
      000006ECH   PUBLIC    EDATA    INT       flag_c_hd
      000006EEH   PUBLIC    EDATA    INT       round_number
      000006F0H   PUBLIC    EDATA    INT       flag_r_hd
      000006F2H   PUBLIC    EDATA    INT       slope_flag
      000006F4H   PUBLIC    EDATA    INT       obstacle1_type
      000006F6H   PUBLIC    EDATA    INT       cross_flag
      000006F8H   PUBLIC    EDATA    INT       obstacle2_type
      000006FAH   PUBLIC    EDATA    INT       obstacle3_type
      000006FCH   PUBLIC    EDATA    INT       obstacle_number
      000006FEH   PUBLIC    EDATA    FLOAT     Gyro_Pitch_Angle
      00000702H   PUBLIC    EDATA    INT       obstacle_flag
      00000704H   PUBLIC    EDATA    INT       real_obstacle_flag
      00000706H   PUBLIC    EDATA    INT       roundcount
      00000708H   PUBLIC    EDATA    INT       e_r1
      0000070AH   PUBLIC    EDATA    INT       e_r2
      0000070CH   PUBLIC    EDATA    INT       flag_hd_R
      000000D0H   SFRSYM    DATA     BYTE      PSW
      0000009DH   SFRSYM    DATA     BYTE      IRCBAND
      00000097H   SFRSYM    DATA     BYTE      AUXR2
      000000EFH   SFRSYM    DATA     BYTE      AUXINTIF
      000000FDH   SFRSYM    DATA     BYTE      S4CON
L251 LINKER/LOCATER V4.66.93.0                                                        07/17/2023  21:05:08  PAGE 176


      000000ACH   SFRSYM    DATA     BYTE      S3CON
      0000009AH   SFRSYM    DATA     BYTE      S2CON
      000000B7H   SFRSYM    DATA     BYTE      IPH
      000000CDH   SFRSYM    DATA     BYTE      SPSTAT
      000000DDH   SFRSYM    DATA     BYTE      T4T3M
      000000C1H   SFRSYM    DATA     BYTE      WDT_CONTR
      000000DFH   SFRSYM    DATA     BYTE      IP3
      000000F4H   SFRSYM    DATA     BYTE      USBCON
      000000B5H   SFRSYM    DATA     BYTE      IP2
      000000FFH   SFRSYM    DATA     BYTE      RSTCFG
      000000F9H   SFRSYM    DATA     BYTE      LINICR
      0000008EH   SFRSYM    DATA     BYTE      AUXR
      000000AFH   SFRSYM    DATA     BYTE      IE2
      000000E8H.7 SFRSYM    DATA     BIT       P67
      000000A0H.6 SFRSYM    DATA     BIT       P26
      00000088H   SFRSYM    DATA     BYTE      TCON
      00000098H   SFRSYM    DATA     BYTE      SCON
      000000F1H   SFRSYM    DATA     BYTE      CANICR
      00000087H   SFRSYM    DATA     BYTE      PCON
      000000BCH   SFRSYM    DATA     BYTE      ADC_CONTR
      000000E7H   SFRSYM    DATA     BYTE      CMPCR2
      000000E6H   SFRSYM    DATA     BYTE      CMPCR1
      000000B8H   SFRSYM    DATA     BYTE      IP
      0000008FH   SFRSYM    DATA     BYTE      INTCLKO
      000000EEH   SFRSYM    DATA     BYTE      IP3H
      000000B6H   SFRSYM    DATA     BYTE      IP2H
      000000A8H   SFRSYM    DATA     BYTE      IE
      000000BBH   SFRSYM    DATA     BYTE      P_SW3
      000000BAH   SFRSYM    DATA     BYTE      P_SW2
      000000A2H   SFRSYM    DATA     BYTE      P_SW1
      000000CEH   SFRSYM    DATA     BYTE      SPCTL
      000000F8H   SFRSYM    DATA     BYTE      P7
      000000E8H   SFRSYM    DATA     BYTE      P6
      000000C8H   SFRSYM    DATA     BYTE      P5
      000000C0H   SFRSYM    DATA     BYTE      P4
      000000B0H   SFRSYM    DATA     BYTE      P3
      000000A0H   SFRSYM    DATA     BYTE      P2
      00000090H   SFRSYM    DATA     BYTE      P1
      00000080H   SFRSYM    DATA     BYTE      P0

      00FF8BB9H   BLOCK     ECODE    ---       LVL=0
      00FF8BB9H   LINE      ECODE    ---       #29
      00FF8BBBH   LINE      ECODE    ---       #31
      00FF8C7BH   LINE      ECODE    ---       #35
      00FF8D3BH   LINE      ECODE    ---       #39
      00FF8D67H   LINE      ECODE    ---       #41
      00FF8D6FH   LINE      ECODE    ---       #42
      00FF8D71H   LINE      ECODE    ---       #43
      00FF8D71H   LINE      ECODE    ---       #45
      00FF8D81H   LINE      ECODE    ---       #47
      00FF8D89H   LINE      ECODE    ---       #48
      00FF8D89H   LINE      ECODE    ---       #50
      00FF8DC5H   LINE      ECODE    ---       #53
      00FF8DCDH   LINE      ECODE    ---       #54
      00FF8DCFH   LINE      ECODE    ---       #55
      00FF8DCFH   LINE      ECODE    ---       #57
      00FF8E17H   LINE      ECODE    ---       #59
      00FF8E1FH   LINE      ECODE    ---       #60
      ---         BLOCKEND  ---      ---       LVL=0

      00FF8E22H   BLOCK     ECODE    ---       LVL=0
      00FF8E22H   LINE      ECODE    ---       #67
      00FF8E24H   LINE      ECODE    ---       #69
      00FF8E36H   LINE      ECODE    ---       #71
      00FF8E40H   LINE      ECODE    ---       #73
L251 LINKER/LOCATER V4.66.93.0                                                        07/17/2023  21:05:08  PAGE 177


      00FF8E44H   LINE      ECODE    ---       #74
      00FF8E46H   LINE      ECODE    ---       #75
      00FF8E4CH   LINE      ECODE    ---       #77
      00FF8E50H   LINE      ECODE    ---       #78
      00FF8E50H   LINE      ECODE    ---       #81
      00FF8E64H   LINE      ECODE    ---       #83
      00FF8E6EH   LINE      ECODE    ---       #85
      00FF8E72H   LINE      ECODE    ---       #86
      00FF8E74H   LINE      ECODE    ---       #87
      00FF8E7AH   LINE      ECODE    ---       #89
      00FF8E7EH   LINE      ECODE    ---       #90
      00FF8E7EH   LINE      ECODE    ---       #93
      00FF8E88H   LINE      ECODE    ---       #95
      00FF8E8EH   LINE      ECODE    ---       #96
      ---         BLOCKEND  ---      ---       LVL=0

      00FF8E91H   BLOCK     ECODE    ---       LVL=0
      00FF8E91H   LINE      ECODE    ---       #100
      00FF8E93H   LINE      ECODE    ---       #103
      00FF8EBBH   LINE      ECODE    ---       #104
      00FF8EC7H   LINE      ECODE    ---       #106
      00FF8EF4H   LINE      ECODE    ---       #107
      00FF8EFCH   LINE      ECODE    ---       #108
      00FF8F0CH   LINE      ECODE    ---       #110
      00FF8F50H   LINE      ECODE    ---       #111
      00FF8F54H   LINE      ECODE    ---       #112
      00FF8F57H   LINE      ECODE    ---       #113
      00FF8F60H   LINE      ECODE    ---       #115
      00FF8F64H   LINE      ECODE    ---       #117
      00FF8F76H   LINE      ECODE    ---       #120
      00FF8F7CH   LINE      ECODE    ---       #121
      00FF8F7EH   LINE      ECODE    ---       #122
      00FF8FA2H   LINE      ECODE    ---       #124
      00FF8FA2H   LINE      ECODE    ---       #125
      00FF8FA4H   LINE      ECODE    ---       #126
      00FF8FC8H   LINE      ECODE    ---       #129
      00FF8FD2H   LINE      ECODE    ---       #131
      00FF8FD4H   LINE      ECODE    ---       #133
      00FF8FF8H   LINE      ECODE    ---       #135
      00FF8FFCH   LINE      ECODE    ---       #136
      00FF8FFEH   LINE      ECODE    ---       #144
      00FF9004H   LINE      ECODE    ---       #145
      00FF9008H   LINE      ECODE    ---       #146
      00FF900CH   LINE      ECODE    ---       #147
      00FF9016H   LINE      ECODE    ---       #148
      00FF901AH   LINE      ECODE    ---       #150
      00FF901AH   LINE      ECODE    ---       #152
      ---         BLOCKEND  ---      ---       LVL=0

      00FF901DH   BLOCK     ECODE    ---       LVL=0
      00FF901DH   LINE      ECODE    ---       #155
      00FF901FH   LINE      ECODE    ---       #157
      00FF9047H   LINE      ECODE    ---       #158
      00FF9053H   LINE      ECODE    ---       #160
      00FF9080H   LINE      ECODE    ---       #161
      00FF9088H   LINE      ECODE    ---       #162
      00FF9098H   LINE      ECODE    ---       #164
      00FF90DCH   LINE      ECODE    ---       #165
      00FF90E0H   LINE      ECODE    ---       #166
      00FF90E3H   LINE      ECODE    ---       #167
      00FF90ECH   LINE      ECODE    ---       #169
      00FF90F0H   LINE      ECODE    ---       #171
      00FF9102H   LINE      ECODE    ---       #174
      00FF9108H   LINE      ECODE    ---       #175
      00FF910AH   LINE      ECODE    ---       #176
L251 LINKER/LOCATER V4.66.93.0                                                        07/17/2023  21:05:08  PAGE 178


      00FF912EH   LINE      ECODE    ---       #178
      00FF912EH   LINE      ECODE    ---       #179
      00FF9130H   LINE      ECODE    ---       #180
      00FF9154H   LINE      ECODE    ---       #183
      00FF915EH   LINE      ECODE    ---       #185
      00FF9160H   LINE      ECODE    ---       #187
      00FF9184H   LINE      ECODE    ---       #189
      00FF9188H   LINE      ECODE    ---       #191
      00FF918AH   LINE      ECODE    ---       #199
      00FF9190H   LINE      ECODE    ---       #200
      00FF9194H   LINE      ECODE    ---       #201
      00FF9198H   LINE      ECODE    ---       #202
      00FF91A2H   LINE      ECODE    ---       #203
      00FF91A6H   LINE      ECODE    ---       #205
      00FF91A6H   LINE      ECODE    ---       #207
      ---         BLOCKEND  ---      ---       LVL=0

      00FF91A9H   BLOCK     ECODE    ---       LVL=0
      00FF91A9H   LINE      ECODE    ---       #210
      00FF91ABH   LINE      ECODE    ---       #212
      00FF91BDH   LINE      ECODE    ---       #214
      00FF91C5H   LINE      ECODE    ---       #215
      00FF91C5H   LINE      ECODE    ---       #216
      00FF91D4H   LINE      ECODE    ---       #218
      00FF91D4H   LINE      ECODE    ---       #221
      00FF91D8H   LINE      ECODE    ---       #223
      00FF91DCH   LINE      ECODE    ---       #224
      00FF91E4H   LINE      ECODE    ---       #225
      00FF91F0H   LINE      ECODE    ---       #229
      00FF91F8H   LINE      ECODE    ---       #230
      00FF91F8H   LINE      ECODE    ---       #231
      00FF91FAH   LINE      ECODE    ---       #233
      00FF91FAH   LINE      ECODE    ---       #236
      00FF91FEH   LINE      ECODE    ---       #238
      00FF922BH   LINE      ECODE    ---       #239
      00FF9233H   LINE      ECODE    ---       #241
      00FF9239H   LINE      ECODE    ---       #243
      00FF923FH   LINE      ECODE    ---       #244
      00FF9243H   LINE      ECODE    ---       #245
      00FF924DH   LINE      ECODE    ---       #246
      00FF9251H   LINE      ECODE    ---       #247
      00FF9253H   LINE      ECODE    ---       #248
      00FF9253H   LINE      ECODE    ---       #249
      00FF9253H   LINE      ECODE    ---       #250
      00FF9253H   LINE      ECODE    ---       #251
      ---         BLOCKEND  ---      ---       LVL=0

      00FF9256H   BLOCK     ECODE    ---       LVL=0
      00FF9256H   LINE      ECODE    ---       #255
      00FF9258H   LINE      ECODE    ---       #257
      00FF926AH   LINE      ECODE    ---       #259
      00FF9274H   LINE      ECODE    ---       #261
      00FF9274H   LINE      ECODE    ---       #262
      00FF9276H   LINE      ECODE    ---       #263
      00FF927CH   LINE      ECODE    ---       #265
      00FF927CH   LINE      ECODE    ---       #266
      00FF927EH   LINE      ECODE    ---       #269
      00FF928EH   LINE      ECODE    ---       #271
      00FF9298H   LINE      ECODE    ---       #273
      00FF929CH   LINE      ECODE    ---       #274
      00FF929EH   LINE      ECODE    ---       #275
      00FF92A4H   LINE      ECODE    ---       #277
      00FF92A8H   LINE      ECODE    ---       #278
      00FF92A8H   LINE      ECODE    ---       #293
      00FF92B2H   LINE      ECODE    ---       #295
L251 LINKER/LOCATER V4.66.93.0                                                        07/17/2023  21:05:08  PAGE 179


      00FF92B8H   LINE      ECODE    ---       #296
      ---         BLOCKEND  ---      ---       LVL=0

      00FF92BBH   BLOCK     ECODE    ---       LVL=0
      00FF92BBH   LINE      ECODE    ---       #301
      00FF92BDH   LINE      ECODE    ---       #303
      00FF92EAH   LINE      ECODE    ---       #304
      00FF92F2H   LINE      ECODE    ---       #306
      00FF930BH   LINE      ECODE    ---       #308
      00FF930BH   LINE      ECODE    ---       #309
      00FF932FH   LINE      ECODE    ---       #310
      00FF933BH   LINE      ECODE    ---       #311
      00FF9345H   LINE      ECODE    ---       #312
      00FF9349H   LINE      ECODE    ---       #313
      00FF9368H   LINE      ECODE    ---       #315
      00FF9370H   LINE      ECODE    ---       #316
      00FF9376H   LINE      ECODE    ---       #317
      00FF937AH   LINE      ECODE    ---       #318
      00FF937AH   LINE      ECODE    ---       #319
      00FF937DH   LINE      ECODE    ---       #320
      00FF937DH   LINE      ECODE    ---       #321
      00FF93A1H   LINE      ECODE    ---       #322
      00FF93ADH   LINE      ECODE    ---       #323
      00FF93B7H   LINE      ECODE    ---       #324
      00FF93BBH   LINE      ECODE    ---       #325
      00FF93E9H   LINE      ECODE    ---       #327
      00FF93EBH   LINE      ECODE    ---       #328
      00FF93F5H   LINE      ECODE    ---       #329
      00FF93FBH   LINE      ECODE    ---       #330
      00FF93FFH   LINE      ECODE    ---       #331
      00FF9403H   LINE      ECODE    ---       #333
      00FF940BH   LINE      ECODE    ---       #335
      00FF940BH   LINE      ECODE    ---       #336
      00FF940DH   LINE      ECODE    ---       #337
      00FF940DH   LINE      ECODE    ---       #338
      00FF9413H   LINE      ECODE    ---       #339
      00FF9417H   LINE      ECODE    ---       #341
      00FF9417H   LINE      ECODE    ---       #344
      00FF9417H   LINE      ECODE    ---       #346
      ---         BLOCKEND  ---      ---       LVL=0

      00FF941AH   BLOCK     ECODE    ---       LVL=0
      00FF941AH   LINE      ECODE    ---       #350
      00FF941CH   LINE      ECODE    ---       #352
      00FF9449H   LINE      ECODE    ---       #353
      00FF9451H   LINE      ECODE    ---       #354
      00FF945AH   LINE      ECODE    ---       #356
      00FF945CH   LINE      ECODE    ---       #357
      00FF94BAH   LINE      ECODE    ---       #358
      00FF94BEH   LINE      ECODE    ---       #359
      00FF952EH   LINE      ECODE    ---       #360
      00FF959EH   LINE      ECODE    ---       #361
      00FF95A0H   LINE      ECODE    ---       #364
      00FF95A6H   LINE      ECODE    ---       #365
      00FF95AAH   LINE      ECODE    ---       #366
      00FF95AAH   LINE      ECODE    ---       #367
      ---         BLOCKEND  ---      ---       LVL=0

      ---         MODULE    ---      ---       isr
      00FFC5ACH   PUBLIC    ECODE    ---       UART1_Isr?
      00FFC5E5H   PUBLIC    ECODE    ---       UART2_Isr?
      00FFC5FFH   PUBLIC    ECODE    ---       UART3_Isr?
      00FFC619H   PUBLIC    ECODE    ---       UART4_Isr?
      00FFC681H   PUBLIC    ECODE    ---       INT0_Isr?
      00FFC684H   PUBLIC    ECODE    ---       INT1_Isr?
L251 LINKER/LOCATER V4.66.93.0                                                        07/17/2023  21:05:08  PAGE 180


      00FFC685H   PUBLIC    ECODE    ---       INT2_Isr?
      00FFC689H   PUBLIC    ECODE    ---       INT3_Isr?
      00FFC68DH   PUBLIC    ECODE    ---       INT4_Isr?
      00FFC691H   PUBLIC    ECODE    ---       TM0_Isr?
      00FFC692H   PUBLIC    ECODE    ---       TM1_Isr?
      00FFC693H   PUBLIC    ECODE    ---       TM2_Isr?
      00FFC697H   PUBLIC    ECODE    ---       TM3_Isr?
      00FFC69BH   PUBLIC    ECODE    ---       TM4_Isr?
      000000D0H   SFRSYM    DATA     BYTE      PSW
      0000009DH   SFRSYM    DATA     BYTE      IRCBAND
      00000097H   SFRSYM    DATA     BYTE      AUXR2
      000000EFH   SFRSYM    DATA     BYTE      AUXINTIF
      000000FDH   SFRSYM    DATA     BYTE      S4CON
      000000ACH   SFRSYM    DATA     BYTE      S3CON
      0000009AH   SFRSYM    DATA     BYTE      S2CON
      000000B7H   SFRSYM    DATA     BYTE      IPH
      000000CDH   SFRSYM    DATA     BYTE      SPSTAT
      000000DDH   SFRSYM    DATA     BYTE      T4T3M
      000000C1H   SFRSYM    DATA     BYTE      WDT_CONTR
      000000DFH   SFRSYM    DATA     BYTE      IP3
      000000F4H   SFRSYM    DATA     BYTE      USBCON
      000000B5H   SFRSYM    DATA     BYTE      IP2
      000000FFH   SFRSYM    DATA     BYTE      RSTCFG
      000000C7H   SFRSYM    DATA     BYTE      IAP_CONTR
      000000F9H   SFRSYM    DATA     BYTE      LINICR
      0000008EH   SFRSYM    DATA     BYTE      AUXR
      000000AFH   SFRSYM    DATA     BYTE      IE2
      000000C8H.2 SFRSYM    DATA     BIT       P52
      00000088H   SFRSYM    DATA     BYTE      TCON
      00000098H   SFRSYM    DATA     BYTE      SCON
      000000F1H   SFRSYM    DATA     BYTE      CANICR
      00000087H   SFRSYM    DATA     BYTE      PCON
      00000099H   SFRSYM    DATA     BYTE      SBUF
      000000BCH   SFRSYM    DATA     BYTE      ADC_CONTR
      000000E7H   SFRSYM    DATA     BYTE      CMPCR2
      000000E6H   SFRSYM    DATA     BYTE      CMPCR1
      000000B8H   SFRSYM    DATA     BYTE      IP
      0000008FH   SFRSYM    DATA     BYTE      INTCLKO
      000000EEH   SFRSYM    DATA     BYTE      IP3H
      000000B6H   SFRSYM    DATA     BYTE      IP2H
      000000A8H   SFRSYM    DATA     BYTE      IE
      000000BBH   SFRSYM    DATA     BYTE      P_SW3
      000000BAH   SFRSYM    DATA     BYTE      P_SW2
      000000A2H   SFRSYM    DATA     BYTE      P_SW1
      000000CEH   SFRSYM    DATA     BYTE      SPCTL
      000000F8H   SFRSYM    DATA     BYTE      P7
      000000E8H   SFRSYM    DATA     BYTE      P6
      000000C8H   SFRSYM    DATA     BYTE      P5
      000000C0H   SFRSYM    DATA     BYTE      P4
      000000B0H   SFRSYM    DATA     BYTE      P3
      000000A0H   SFRSYM    DATA     BYTE      P2
      00000090H   SFRSYM    DATA     BYTE      P1
      00000080H   SFRSYM    DATA     BYTE      P0

      00FFC5ACH   BLOCK     ECODE    ---       LVL=0
      00FFC5AEH   BLOCK     ECODE    NEAR LAB  LVL=1
      R11         REGSYM    ---      BYTE      res
      000007F1H   SYMBOL    EDATA    BYTE      dwon_count
      ---         BLOCKEND  ---      ---       LVL=1
      00FFC5ACH   LINE      ECODE    ---       #23
      00FFC5AEH   LINE      ECODE    ---       #24
      00FFC5AEH   LINE      ECODE    ---       #27
      00FFC5B3H   LINE      ECODE    ---       #29
      00FFC5B6H   LINE      ECODE    ---       #30
      00FFC5BBH   LINE      ECODE    ---       #31
L251 LINKER/LOCATER V4.66.93.0                                                        07/17/2023  21:05:08  PAGE 181


      00FFC5BBH   LINE      ECODE    ---       #32
      00FFC5C0H   LINE      ECODE    ---       #34
      00FFC5C3H   LINE      ECODE    ---       #35
      00FFC5C5H   LINE      ECODE    ---       #37
      00FFC5C8H   LINE      ECODE    ---       #39
      00FFC5D8H   LINE      ECODE    ---       #40
      00FFC5DBH   LINE      ECODE    ---       #41
      00FFC5DDH   LINE      ECODE    ---       #44
      00FFC5E2H   LINE      ECODE    ---       #45
      00FFC5E2H   LINE      ECODE    ---       #46
      ---         BLOCKEND  ---      ---       LVL=0

      00FFC5E5H   BLOCK     ECODE    ---       LVL=0
      00FFC5E5H   LINE      ECODE    ---       #50
      00FFC5E7H   LINE      ECODE    ---       #52
      00FFC5ECH   LINE      ECODE    ---       #54
      00FFC5EFH   LINE      ECODE    ---       #55
      00FFC5F4H   LINE      ECODE    ---       #56
      00FFC5F4H   LINE      ECODE    ---       #57
      00FFC5F9H   LINE      ECODE    ---       #59
      00FFC5FCH   LINE      ECODE    ---       #62
      ---         BLOCKEND  ---      ---       LVL=0

      00FFC5FFH   BLOCK     ECODE    ---       LVL=0
      00FFC5FFH   LINE      ECODE    ---       #67
      00FFC601H   LINE      ECODE    ---       #69
      00FFC606H   LINE      ECODE    ---       #71
      00FFC609H   LINE      ECODE    ---       #72
      00FFC60EH   LINE      ECODE    ---       #73
      00FFC60EH   LINE      ECODE    ---       #74
      00FFC613H   LINE      ECODE    ---       #76
      00FFC616H   LINE      ECODE    ---       #79
      ---         BLOCKEND  ---      ---       LVL=0

      00FFC619H   BLOCK     ECODE    ---       LVL=0
      00FFC619H   LINE      ECODE    ---       #84
      00FFC62FH   LINE      ECODE    ---       #86
      00FFC634H   LINE      ECODE    ---       #88
      00FFC637H   LINE      ECODE    ---       #89
      00FFC63CH   LINE      ECODE    ---       #90
      00FFC63CH   LINE      ECODE    ---       #91
      00FFC641H   LINE      ECODE    ---       #93
      00FFC644H   LINE      ECODE    ---       #96
      00FFC64EH   LINE      ECODE    ---       #98
      00FFC652H   LINE      ECODE    ---       #99
      00FFC654H   LINE      ECODE    ---       #100
      00FFC65AH   LINE      ECODE    ---       #102
      00FFC65EH   LINE      ECODE    ---       #103
      00FFC660H   LINE      ECODE    ---       #104
      00FFC666H   LINE      ECODE    ---       #106
      00FFC66AH   LINE      ECODE    ---       #107
      00FFC66AH   LINE      ECODE    ---       #109
      ---         BLOCKEND  ---      ---       LVL=0

      00FFC681H   BLOCK     ECODE    ---       LVL=0
      00FFC681H   LINE      ECODE    ---       #112
      00FFC681H   LINE      ECODE    ---       #114
      00FFC683H   LINE      ECODE    ---       #115
      ---         BLOCKEND  ---      ---       LVL=0

      00FFC684H   BLOCK     ECODE    ---       LVL=0
      00FFC684H   LINE      ECODE    ---       #116
      00FFC684H   LINE      ECODE    ---       #119
      ---         BLOCKEND  ---      ---       LVL=0

L251 LINKER/LOCATER V4.66.93.0                                                        07/17/2023  21:05:08  PAGE 182


      00FFC685H   BLOCK     ECODE    ---       LVL=0
      00FFC685H   LINE      ECODE    ---       #120
      00FFC685H   LINE      ECODE    ---       #122
      00FFC688H   LINE      ECODE    ---       #123
      ---         BLOCKEND  ---      ---       LVL=0

      00FFC689H   BLOCK     ECODE    ---       LVL=0
      00FFC689H   LINE      ECODE    ---       #124
      00FFC689H   LINE      ECODE    ---       #126
      00FFC68CH   LINE      ECODE    ---       #127
      ---         BLOCKEND  ---      ---       LVL=0

      00FFC68DH   BLOCK     ECODE    ---       LVL=0
      00FFC68DH   LINE      ECODE    ---       #129
      00FFC68DH   LINE      ECODE    ---       #131
      00FFC690H   LINE      ECODE    ---       #132
      ---         BLOCKEND  ---      ---       LVL=0

      00FFC691H   BLOCK     ECODE    ---       LVL=0
      00FFC691H   LINE      ECODE    ---       #134
      00FFC691H   LINE      ECODE    ---       #137
      ---         BLOCKEND  ---      ---       LVL=0

      00FFC692H   BLOCK     ECODE    ---       LVL=0
      00FFC692H   LINE      ECODE    ---       #138
      00FFC692H   LINE      ECODE    ---       #141
      ---         BLOCKEND  ---      ---       LVL=0

      00FFC693H   BLOCK     ECODE    ---       LVL=0
      00FFC693H   LINE      ECODE    ---       #142
      00FFC693H   LINE      ECODE    ---       #144
      00FFC696H   LINE      ECODE    ---       #146
      ---         BLOCKEND  ---      ---       LVL=0

      00FFC697H   BLOCK     ECODE    ---       LVL=0
      00FFC697H   LINE      ECODE    ---       #147
      00FFC697H   LINE      ECODE    ---       #149
      00FFC69AH   LINE      ECODE    ---       #151
      ---         BLOCKEND  ---      ---       LVL=0

      00FFC69BH   BLOCK     ECODE    ---       LVL=0
      00FFC69BH   LINE      ECODE    ---       #154
      00FFC6B1H   LINE      ECODE    ---       #156
      00FFC6B4H   LINE      ECODE    ---       #158
      00FFC6B8H   LINE      ECODE    ---       #159
      00FFC6BCH   LINE      ECODE    ---       #160
      00FFC6C0H   LINE      ECODE    ---       #162
      00FFC6EDH   LINE      ECODE    ---       #163
      00FFC6F9H   LINE      ECODE    ---       #165
      00FFC6FDH   LINE      ECODE    ---       #167
      00FFC707H   LINE      ECODE    ---       #169
      00FFC70FH   LINE      ECODE    ---       #171
      00FFC713H   LINE      ECODE    ---       #173
      00FFC715H   LINE      ECODE    ---       #175
      00FFC71FH   LINE      ECODE    ---       #177
      00FFC723H   LINE      ECODE    ---       #178
      00FFC725H   LINE      ECODE    ---       #179
      00FFC72FH   LINE      ECODE    ---       #181
      00FFC733H   LINE      ECODE    ---       #182
      00FFC735H   LINE      ECODE    ---       #183
      00FFC73FH   LINE      ECODE    ---       #185
      00FFC743H   LINE      ECODE    ---       #186
      00FFC745H   LINE      ECODE    ---       #189
      00FFC749H   LINE      ECODE    ---       #190
      00FFC749H   LINE      ECODE    ---       #191
L251 LINKER/LOCATER V4.66.93.0                                                        07/17/2023  21:05:08  PAGE 183


      00FFC749H   LINE      ECODE    ---       #193
      00FFC74DH   LINE      ECODE    ---       #194
      00FFC751H   LINE      ECODE    ---       #195
      00FFC755H   LINE      ECODE    ---       #196
      00FFC759H   LINE      ECODE    ---       #198
      00FFC76BH   LINE      ECODE    ---       #199
      00FFC77FH   LINE      ECODE    ---       #200
      00FFC797H   LINE      ECODE    ---       #201
      00FFC7ADH   LINE      ECODE    ---       #202
      ---         BLOCKEND  ---      ---       LVL=0

      ---         MODULE    ---      ---       park
      00FFCBE1H   PUBLIC    ECODE    ---       CHUKU?
      00FFCC4DH   PUBLIC    ECODE    ---       RuKu?
      00FFCD53H   PUBLIC    ECODE    ---       Re_Start?
      0000073AH   PUBLIC    EDATA    INT       Hall
      0000073CH   PUBLIC    EDATA    INT       CK_count
      0000073EH   PUBLIC    EDATA    INT       park_number
      00000740H   PUBLIC    EDATA    INT       XJ
      00000742H   PUBLIC    EDATA    INT       roundcount_k
      00000744H   PUBLIC    EDATA    INT       CK_count2
      00000746H   PUBLIC    EDATA    INT       garage_out_direction
      00000748H   PUBLIC    EDATA    INT       roundcount2_k
      0000074AH   PUBLIC    EDATA    INT       Start_Flag
      000000D0H   SFRSYM    DATA     BYTE      PSW
      0000009DH   SFRSYM    DATA     BYTE      IRCBAND
      00000097H   SFRSYM    DATA     BYTE      AUXR2
      000000EFH   SFRSYM    DATA     BYTE      AUXINTIF
      000000FDH   SFRSYM    DATA     BYTE      S4CON
      000000ACH   SFRSYM    DATA     BYTE      S3CON
      0000009AH   SFRSYM    DATA     BYTE      S2CON
      000000B7H   SFRSYM    DATA     BYTE      IPH
      000000CDH   SFRSYM    DATA     BYTE      SPSTAT
      000000DDH   SFRSYM    DATA     BYTE      T4T3M
      000000C1H   SFRSYM    DATA     BYTE      WDT_CONTR
      000000DFH   SFRSYM    DATA     BYTE      IP3
      000000F4H   SFRSYM    DATA     BYTE      USBCON
      000000B5H   SFRSYM    DATA     BYTE      IP2
      000000FFH   SFRSYM    DATA     BYTE      RSTCFG
      000000F9H   SFRSYM    DATA     BYTE      LINICR
      0000008EH   SFRSYM    DATA     BYTE      AUXR
      000000AFH   SFRSYM    DATA     BYTE      IE2
      000000E8H.7 SFRSYM    DATA     BIT       P67
      00000088H   SFRSYM    DATA     BYTE      TCON
      00000098H   SFRSYM    DATA     BYTE      SCON
      000000F1H   SFRSYM    DATA     BYTE      CANICR
      00000087H   SFRSYM    DATA     BYTE      PCON
      000000BCH   SFRSYM    DATA     BYTE      ADC_CONTR
      000000E7H   SFRSYM    DATA     BYTE      CMPCR2
      000000E6H   SFRSYM    DATA     BYTE      CMPCR1
      000000B8H   SFRSYM    DATA     BYTE      IP
      0000008FH   SFRSYM    DATA     BYTE      INTCLKO
      000000EEH   SFRSYM    DATA     BYTE      IP3H
      000000B6H   SFRSYM    DATA     BYTE      IP2H
      000000A8H   SFRSYM    DATA     BYTE      IE
      000000BBH   SFRSYM    DATA     BYTE      P_SW3
      000000BAH   SFRSYM    DATA     BYTE      P_SW2
      000000A2H   SFRSYM    DATA     BYTE      P_SW1
      000000CEH   SFRSYM    DATA     BYTE      SPCTL
      000000F8H   SFRSYM    DATA     BYTE      P7
      000000E8H   SFRSYM    DATA     BYTE      P6
      000000C8H   SFRSYM    DATA     BYTE      P5
      000000C0H   SFRSYM    DATA     BYTE      P4
      000000B0H   SFRSYM    DATA     BYTE      P3
      000000A0H   SFRSYM    DATA     BYTE      P2
L251 LINKER/LOCATER V4.66.93.0                                                        07/17/2023  21:05:08  PAGE 184


      00000090H   SFRSYM    DATA     BYTE      P1
      00000080H   SFRSYM    DATA     BYTE      P0

      00FFCBE1H   BLOCK     ECODE    ---       LVL=0
      00FFCBE1H   LINE      ECODE    ---       #14
      00FFCBE1H   LINE      ECODE    ---       #16
      00FFCBFBH   LINE      ECODE    ---       #18
      00FFCC05H   LINE      ECODE    ---       #20
      00FFCC0FH   LINE      ECODE    ---       #21
      00FFCC17H   LINE      ECODE    ---       #22
      00FFCC1BH   LINE      ECODE    ---       #23
      00FFCC1DH   LINE      ECODE    ---       #24
      00FFCC23H   LINE      ECODE    ---       #26
      00FFCC2DH   LINE      ECODE    ---       #27
      00FFCC35H   LINE      ECODE    ---       #28
      00FFCC3DH   LINE      ECODE    ---       #29
      00FFCC3EH   LINE      ECODE    ---       #32
      00FFCC44H   LINE      ECODE    ---       #34
      00FFCC4CH   LINE      ECODE    ---       #35
      ---         BLOCKEND  ---      ---       LVL=0

      00FFCC4DH   BLOCK     ECODE    ---       LVL=0
      00FFCC4DH   LINE      ECODE    ---       #39
      00FFCC4FH   LINE      ECODE    ---       #41
      00FFCC7CH   LINE      ECODE    ---       #42
      00FFCC84H   LINE      ECODE    ---       #43
      00FFCC90H   LINE      ECODE    ---       #45
      00FFCC92H   LINE      ECODE    ---       #46
      00FFCC9CH   LINE      ECODE    ---       #47
      00FFCCA0H   LINE      ECODE    ---       #48
      00FFCCA2H   LINE      ECODE    ---       #49
      00FFCCA5H   LINE      ECODE    ---       #52
      00FFCCD2H   LINE      ECODE    ---       #53
      00FFCCDAH   LINE      ECODE    ---       #55
      00FFCCE6H   LINE      ECODE    ---       #57
      00FFCCF0H   LINE      ECODE    ---       #58
      00FFCCF4H   LINE      ECODE    ---       #59
      00FFCCF6H   LINE      ECODE    ---       #60
      00FFCCF8H   LINE      ECODE    ---       #63
      00FFCCFCH   LINE      ECODE    ---       #64
      00FFCD0EH   LINE      ECODE    ---       #66
      00FFCD18H   LINE      ECODE    ---       #67
      00FFCD1CH   LINE      ECODE    ---       #68
      00FFCD26H   LINE      ECODE    ---       #70
      00FFCD30H   LINE      ECODE    ---       #71
      00FFCD32H   LINE      ECODE    ---       #72
      00FFCD38H   LINE      ECODE    ---       #74
      00FFCD3EH   LINE      ECODE    ---       #75
      00FFCD40H   LINE      ECODE    ---       #79
      00FFCD42H   LINE      ECODE    ---       #80
      00FFCD48H   LINE      ECODE    ---       #81
      00FFCD4CH   LINE      ECODE    ---       #82
      00FFCD50H   LINE      ECODE    ---       #83
      00FFCD50H   LINE      ECODE    ---       #84
      00FFCD50H   LINE      ECODE    ---       #85
      00FFCD50H   LINE      ECODE    ---       #86
      ---         BLOCKEND  ---      ---       LVL=0

      00FFCD53H   BLOCK     ECODE    ---       LVL=0
      00FFCD53H   LINE      ECODE    ---       #91
      00FFCD55H   LINE      ECODE    ---       #93
      00FFCD82H   LINE      ECODE    ---       #94
      00FFCD8AH   LINE      ECODE    ---       #95
      00FFCD8EH   LINE      ECODE    ---       #96
      00FFCD98H   LINE      ECODE    ---       #98
L251 LINKER/LOCATER V4.66.93.0                                                        07/17/2023  21:05:08  PAGE 185


      00FFCD9EH   LINE      ECODE    ---       #99
      00FFCDA2H   LINE      ECODE    ---       #100
      00FFCDA6H   LINE      ECODE    ---       #101
      00FFCDAAH   LINE      ECODE    ---       #102
      00FFCDB4H   LINE      ECODE    ---       #103
      ---         BLOCKEND  ---      ---       LVL=0

      ---         MODULE    ---      ---       SEEKFREE_CONFIG
      00FF00A7H   PUBLIC    CODE     ---       imu660ra_config_file

      ---         MODULE    ---      ---       ?C?FPADD?
      00FF7F98H   PUBLIC    ECODE    ---       ?C?FPADD?
      00FF7F95H   PUBLIC    ECODE    ---       ?C?FPSUB?

      ---         MODULE    ---      ---       ?C?FPMUL?
      00FF8050H   PUBLIC    ECODE    ---       ?C?FPMUL?

      ---         MODULE    ---      ---       ?C?FPDIV?
      00FF80F0H   PUBLIC    ECODE    ---       ?C?FPDIV?

      ---         MODULE    ---      ---       ?C?FPCMP?
      00FF8171H   PUBLIC    ECODE    ---       ?C?FPCMP3?
      00FF8173H   PUBLIC    ECODE    ---       ?C?FPCMP?

      ---         MODULE    ---      ---       ?C?FCAST?
      00FF81C1H   PUBLIC    ECODE    FAR LAB   ?C?FCASTC?
      00FF81BCH   PUBLIC    ECODE    FAR LAB   ?C?FCASTI?
      00FF81B7H   PUBLIC    ECODE    FAR LAB   ?C?FCASTL?

      ---         MODULE    ---      ---       ?C?CASTF?
      00FF81F4H   PUBLIC    ECODE    FAR LAB   ?C?CASTF?

      ---         MODULE    ---      ---       PRINTF?
      00000102H   PUBLIC    EDATA    ---       ?PRINTF??BYTE
      00FF8231H   PUBLIC    ECODE    FAR LAB   PRINTF?

      ---         MODULE    ---      ---       SQRT??
      00FF825EH   PUBLIC    ECODE    ---       SQRT??

      ---         MODULE    ---      ---       POW??
      00FFD666H   PUBLIC    ECODE    ---       pow??

      ---         MODULE    ---      ---       ?C?FPGETOPN?
      00FF82F0H   PUBLIC    ECODE    ---       ?C?FPGETOPN2?
      00FF832DH   PUBLIC    ECODE    ---       ?C?FPNANRESULT?
      00FF8335H   PUBLIC    ECODE    ---       ?C?FPOVERFLOW?
      00FF831FH   PUBLIC    ECODE    ---       ?C?FPRESULT2?
      00FF8309H   PUBLIC    ECODE    ---       ?C?FPRESULT?
      00FF8332H   PUBLIC    ECODE    ---       ?C?FPUNDERFLOW?

      ---         MODULE    ---      ---       _CHKFLOAT_??
      00FF8341H   PUBLIC    ECODE    ---       _CHKFLOAT_??

      ---         MODULE    ---      ---       ?C?FPNEG?
      00FF835EH   PUBLIC    ECODE    ---       ?C?FPNEG?

      ---         MODULE    ---      ---       ?C?PRNFMT?
      00FF8399H   PUBLIC    ECODE    ---       ?C?PRNFMT?

      ---         MODULE    ---      ---       EXP??
      00FF87E1H   PUBLIC    ECODE    ---       EXP??

      ---         MODULE    ---      ---       LOG??
      00FF8874H   PUBLIC    ECODE    FAR LAB   LOG??

L251 LINKER/LOCATER V4.66.93.0                                                        07/17/2023  21:05:08  PAGE 186


      ---         MODULE    ---      ---       ?C?FPCONVERT?
      00FF894FH   PUBLIC    ECODE    ---       ?C?FPCONVERT?
      00FF8A09H   PUBLIC    ECODE    ---       ?C?FPROUND?

      ---         MODULE    ---      ---       ?C?FPSERIES?
      00FF8A4CH   PUBLIC    ECODE    ---       ?C?FP2SERIES?
      00FF8A56H   PUBLIC    ECODE    ---       ?C?FPSERIES?

      ---         MODULE    ---      ---       ?C?FTNPWR?
      00FF8AACH   PUBLIC    ECODE    ---       ?C?FTNPWR?

      ---         MODULE    ---      ---       ?C_START?
      00FF0000H   PUBLIC    CODE     ---       ?C?STARTUP?
      00FF0000H   PUBLIC    CODE     ---       ?C_STARTUP?

      ---         MODULE    ---      ---       ?C?INITEDATA
      00FF2EC2H   PUBLIC    CODE     ---       ?C?INITEDATA

      ---         MODULE    ---      ---       ?C?SIDIV?
      00FF8AE4H   PUBLIC    ECODE    ---       ?C?SIDIV?

      ---         MODULE    ---      ---       ?C?LMUL?
      00FF8B16H   PUBLIC    ECODE    ---       ?C?LMUL?

      ---         MODULE    ---      ---       ?C?LIMUL?
      00FF8B27H   PUBLIC    ECODE    ---       ?C?LIMUL?

      ---         MODULE    ---      ---       ?C?ULDIV?
      00FF8B32H   PUBLIC    ECODE    FAR LAB   ?C?ULDIV?
      00FF8B30H   PUBLIC    ECODE    FAR LAB   ?C?ULIDIV?

      ---         MODULE    ---      ---       ?C?SLDIV?
      00FF8B83H   PUBLIC    ECODE    FAR LAB   ?C?SLDIV?

      ---         MODULE    ---      ---       ABS?
      00FF0067H   PUBLIC    ECODE    ---       abs??

      ---         MODULE    ---      ---       MEMCPY?
      00FFDC75H   PUBLIC    ECODE    ---       memcpy??

      ---         MODULE    ---      ---       MEMSET?
      00FF0027H   PUBLIC    ECODE    ---       memset??

      ---         MODULE    ---      ---       ?C?INITEDATA_END
      00FFDEC8H   PUBLIC    HCONST   WORD      ?C?INITEDATA_END



*** WARNING L15: MULTIPLE CALL TO FUNCTION
    NAME:    imu660ra_simspi_r_reg_bytes/SEEKFREE_IMU660RA
    CALLER1: TM4_Isr?/isr
    CALLER2: ?C_C51STARTUP?3

Program Size: data=26.0 edata+hdata=2264 xdata=0 const=1109 code=56408
L251 RUN COMPLETE.  1 WARNING(S),  0 ERROR(S)
