L251 LINKER/LOCATER V4.66.93.0                                                          06/26/2023  14:53:20  PAGE 1


L251 LINKER/LOCATER V4.66.93.0, INVOKED BY:
C:\KEIL_V5\C251\BIN\L251.EXE .\Out_File\board.obj, .\Out_File\common.obj, .\Out_File\zf_adc.obj, .\Out_File\zf_delay.obj
>> , .\Out_File\zf_eeprom.obj, .\Out_File\zf_exti.obj, .\Out_File\zf_gpio.obj, .\Out_File\zf_iic.obj, .\Out_File\zf_nvic
>> .obj, .\Out_File\zf_pwm.obj, .\Out_File\zf_spi.obj, .\Out_File\zf_tim.obj, .\Out_File\zf_uart.obj, .\Out_File\zf_fifo
>> .obj, .\Out_File\SEEKFREE_18TFT.obj, .\Out_File\SEEKFREE_ABSOLUTE_ENCODER.obj, .\Out_File\SEEKFREE_AT24C02.obj, .\Out
>> _File\SEEKFREE_BLUETOOTH_CH9141.obj, ..\..\Libraries\seekfree_peripheral\SEEKFREE_CONFIG.LIB, .\Out_File\SEEKFREE_DL1
>> A.obj, .\Out_File\SEEKFREE_FONT.obj, .\Out_File\SEEKFREE_ICM20602.obj, .\Out_File\SEEKFREE_IMU660RA.obj, .\Out_File\S
>> EEKFREE_IMU963RA.obj, .\Out_File\SEEKFREE_IPS114_SPI.obj, .\Out_File\SEEKFREE_MPU6050.obj, .\Out_File\SEEKFREE_OLED.o
>> bj, .\Out_File\SEEKFREE_PRINTF.obj, .\Out_File\SEEKFREE_TSL1401.obj, .\Out_File\SEEKFREE_VIRSCO.obj, .\Out_File\SEEKF
>> REE_WIRELESS.obj, .\Out_File\SEEKFREE_WIRELESS_CH573.obj, .\Out_File\main.obj, .\Out_File\key.obj, .\Out_File\anotc.o
>> bj, .\Out_File\menu.obj, .\Out_File\eeprom.obj, .\Out_File\Direction.obj, .\Out_File\control.obj, .\Out_File\encoder.
>> obj, .\Out_File\park.obj, .\Out_File\pid.obj, .\Out_File\round.obj, .\Out_File\isr.obj TO .\Out_File\SEEKFREE PRINT (
>> .\Out_File\SEEKFREE.map) CASE DISABLEWARNING (16, 57) REMOVEUNUSED CLASSES (EDATA (0X0-0XFFF), HDATA (0X0-0XFFF))


CPU MODE:     251 SOURCE MODE
INTR FRAME:   2 BYTES SAVED ON INTERRUPT
MEMORY MODEL: LARGE WITH FLOATING POINT ARITHMETIC


INPUT MODULES INCLUDED:
  .\Out_File\board.obj (board)
         COMMENT TYPE 0: C251 V5.60.0
  .\Out_File\common.obj (common)
         COMMENT TYPE 0: C251 V5.60.0
  .\Out_File\zf_adc.obj (zf_adc)
         COMMENT TYPE 0: C251 V5.60.0
  .\Out_File\zf_delay.obj (zf_delay)
         COMMENT TYPE 0: C251 V5.60.0
  .\Out_File\zf_eeprom.obj (zf_eeprom)
         COMMENT TYPE 0: C251 V5.60.0
  .\Out_File\zf_exti.obj (zf_exti)
         COMMENT TYPE 0: C251 V5.60.0
  .\Out_File\zf_gpio.obj (zf_gpio)
         COMMENT TYPE 0: C251 V5.60.0
  .\Out_File\zf_iic.obj (zf_iic)
         COMMENT TYPE 0: C251 V5.60.0
  .\Out_File\zf_nvic.obj (zf_nvic)
         COMMENT TYPE 0: C251 V5.60.0
  .\Out_File\zf_pwm.obj (zf_pwm)
         COMMENT TYPE 0: C251 V5.60.0
  .\Out_File\zf_spi.obj (zf_spi)
         COMMENT TYPE 0: C251 V5.60.0
  .\Out_File\zf_tim.obj (zf_tim)
         COMMENT TYPE 0: C251 V5.60.0
  .\Out_File\zf_uart.obj (zf_uart)
         COMMENT TYPE 0: C251 V5.60.0
  .\Out_File\zf_fifo.obj (zf_fifo)
         COMMENT TYPE 0: C251 V5.60.0
  .\Out_File\SEEKFREE_18TFT.obj (SEEKFREE_18TFT)
         COMMENT TYPE 0: C251 V5.60.0
  .\Out_File\SEEKFREE_ABSOLUTE_ENCODER.obj (SEEKFREE_ABSOLUTE_ENCODER)
         COMMENT TYPE 0: C251 V5.60.0
  .\Out_File\SEEKFREE_AT24C02.obj (SEEKFREE_AT24C02)
         COMMENT TYPE 0: C251 V5.60.0
  .\Out_File\SEEKFREE_BLUETOOTH_CH9141.obj (SEEKFREE_BLUETOOTH_CH9141)
         COMMENT TYPE 0: C251 V5.60.0
  .\Out_File\SEEKFREE_DL1A.obj (SEEKFREE_DL1A)
         COMMENT TYPE 0: C251 V5.60.0
  .\Out_File\SEEKFREE_FONT.obj (SEEKFREE_FONT)
         COMMENT TYPE 0: C251 V5.60.0
  .\Out_File\SEEKFREE_ICM20602.obj (SEEKFREE_ICM20602)
         COMMENT TYPE 0: C251 V5.60.0
  .\Out_File\SEEKFREE_IMU660RA.obj (SEEKFREE_IMU660RA)
         COMMENT TYPE 0: C251 V5.60.0
  .\Out_File\SEEKFREE_IMU963RA.obj (SEEKFREE_IMU963RA)
L251 LINKER/LOCATER V4.66.93.0                                                        06/26/2023  14:53:20  PAGE 2


         COMMENT TYPE 0: C251 V5.60.0
  .\Out_File\SEEKFREE_IPS114_SPI.obj (SEEKFREE_IPS114_SPI)
         COMMENT TYPE 0: C251 V5.60.0
  .\Out_File\SEEKFREE_MPU6050.obj (SEEKFREE_MPU6050)
         COMMENT TYPE 0: C251 V5.60.0
  .\Out_File\SEEKFREE_OLED.obj (SEEKFREE_OLED)
         COMMENT TYPE 0: C251 V5.60.0
  .\Out_File\SEEKFREE_PRINTF.obj (SEEKFREE_PRINTF)
         COMMENT TYPE 0: C251 V5.60.0
  .\Out_File\SEEKFREE_TSL1401.obj (SEEKFREE_TSL1401)
         COMMENT TYPE 0: C251 V5.60.0
  .\Out_File\SEEKFREE_VIRSCO.obj (SEEKFREE_VIRSCO)
         COMMENT TYPE 0: C251 V5.60.0
  .\Out_File\SEEKFREE_WIRELESS.obj (SEEKFREE_WIRELESS)
         COMMENT TYPE 0: C251 V5.60.0
  .\Out_File\SEEKFREE_WIRELESS_CH573.obj (SEEKFREE_WIRELESS_CH573)
         COMMENT TYPE 0: C251 V5.60.0
  .\Out_File\main.obj (main)
         COMMENT TYPE 0: C251 V5.60.0
  .\Out_File\key.obj (key)
         COMMENT TYPE 0: C251 V5.60.0
  .\Out_File\anotc.obj (anotc)
         COMMENT TYPE 0: C251 V5.60.0
  .\Out_File\menu.obj (menu)
         COMMENT TYPE 0: C251 V5.60.0
  .\Out_File\eeprom.obj (eeprom)
         COMMENT TYPE 0: C251 V5.60.0
  .\Out_File\Direction.obj (Direction)
         COMMENT TYPE 0: C251 V5.60.0
  .\Out_File\control.obj (control)
         COMMENT TYPE 0: C251 V5.60.0
  .\Out_File\encoder.obj (encoder)
         COMMENT TYPE 0: C251 V5.60.0
  .\Out_File\park.obj (park)
         COMMENT TYPE 0: C251 V5.60.0
  .\Out_File\pid.obj (pid)
         COMMENT TYPE 0: C251 V5.60.0
  .\Out_File\round.obj (round)
         COMMENT TYPE 0: C251 V5.60.0
  .\Out_File\isr.obj (isr)
         COMMENT TYPE 0: C251 V5.60.0
  ..\..\Libraries\seekfree_peripheral\SEEKFREE_CONFIG.LIB (SEEKFREE_CONFIG)
         COMMENT TYPE 0: C251 V5.60.0
  C:\KEIL_V5\C251\LIB\C2SFPL.LIB (?C?FPADD?)
         COMMENT TYPE 0: A251 V4.69.6.0
  C:\KEIL_V5\C251\LIB\C2SFPL.LIB (?C?FPMUL?)
         COMMENT TYPE 0: A251 V4.69.6.0
  C:\KEIL_V5\C251\LIB\C2SFPL.LIB (?C?FPDIV?)
         COMMENT TYPE 0: A251 V4.69.6.0
  C:\KEIL_V5\C251\LIB\C2SFPL.LIB (?C?FPCMP?)
         COMMENT TYPE 0: A251 V4.69.6.0
  C:\KEIL_V5\C251\LIB\C2SFPL.LIB (?C?FCAST?)
         COMMENT TYPE 0: A251 V4.69.6.0
  C:\KEIL_V5\C251\LIB\C2SFPL.LIB (?C?CASTF?)
         COMMENT TYPE 0: A251 V4.69.6.0
  C:\KEIL_V5\C251\LIB\C2SFPL.LIB (PRINTF?)
         COMMENT TYPE 0: A251 V4.69.6.0
  C:\KEIL_V5\C251\LIB\C2SFPL.LIB (SQRT??)
         COMMENT TYPE 0: A251 V4.69.6.0
  C:\KEIL_V5\C251\LIB\C2SFPL.LIB (POW??)
         COMMENT TYPE 0: C251 V5.58.7
  C:\KEIL_V5\C251\LIB\C2SFPL.LIB (?C?FPGETOPN?)
         COMMENT TYPE 0: A251 V4.69.6.0
  C:\KEIL_V5\C251\LIB\C2SFPL.LIB (_CHKFLOAT_??)
         COMMENT TYPE 0: A251 V4.69.6.0
L251 LINKER/LOCATER V4.66.93.0                                                        06/26/2023  14:53:20  PAGE 3


  C:\KEIL_V5\C251\LIB\C2SFPL.LIB (?C?FPNEG?)
         COMMENT TYPE 0: A251 V4.69.6.0
  C:\KEIL_V5\C251\LIB\C2SFPL.LIB (?C?PRNFMT?)
         COMMENT TYPE 0: A251 V4.69.6.0
  C:\KEIL_V5\C251\LIB\C2SFPL.LIB (EXP??)
         COMMENT TYPE 0: A251 V4.69.6.0
  C:\KEIL_V5\C251\LIB\C2SFPL.LIB (LOG??)
         COMMENT TYPE 0: A251 V4.69.6.0
  C:\KEIL_V5\C251\LIB\C2SFPL.LIB (?C?FPCONVERT?)
         COMMENT TYPE 0: A251 V4.69.6.0
  C:\KEIL_V5\C251\LIB\C2SFPL.LIB (?C?FPSERIES?)
         COMMENT TYPE 0: A251 V4.69.6.0
  C:\KEIL_V5\C251\LIB\C2SFPL.LIB (?C?FTNPWR?)
         COMMENT TYPE 0: A251 V4.69.6.0
  C:\KEIL_V5\C251\LIB\C2SL.LIB (?C_START?)
         COMMENT TYPE 0: A251 V4.69.6.0
  C:\KEIL_V5\C251\LIB\C2SL.LIB (?C?INITHDATA)
         COMMENT TYPE 0: A251 V4.69.6.0
  C:\KEIL_V5\C251\LIB\C2SL.LIB (?C?SIDIV?)
         COMMENT TYPE 0: A251 V4.69.6.0
  C:\KEIL_V5\C251\LIB\C2SL.LIB (?C?LMUL?)
         COMMENT TYPE 0: A251 V4.69.6.0
  C:\KEIL_V5\C251\LIB\C2SL.LIB (?C?LIMUL?)
         COMMENT TYPE 0: A251 V4.69.6.0
  C:\KEIL_V5\C251\LIB\C2SL.LIB (?C?ULDIV?)
         COMMENT TYPE 0: A251 V4.69.6.0
  C:\KEIL_V5\C251\LIB\C2SL.LIB (?C?SLDIV?)
         COMMENT TYPE 0: A251 V4.69.6.0
  C:\KEIL_V5\C251\LIB\C2SL.LIB (?C?BMOVEPP?)
         COMMENT TYPE 0: A251 V4.69.6.0
  C:\KEIL_V5\C251\LIB\C2SL.LIB (ABS?)
         COMMENT TYPE 0: C251 V5.58.7
  C:\KEIL_V5\C251\LIB\C2SL.LIB (MEMCPY?)
         COMMENT TYPE 0: C251 V5.58.7
  C:\KEIL_V5\C251\LIB\C2SL.LIB (MEMSET?)
         COMMENT TYPE 0: C251 V5.58.7
  C:\KEIL_V5\C251\LIB\C2SL.LIB (?C?INITHDATA_END)
         COMMENT TYPE 0: A251 V4.69.6.0


ACTIVE MEMORY CLASSES OF MODULE:  .\Out_File\SEEKFREE (board)

BASE        START       END         USED      MEMORY CLASS
==========================================================
000000H     000000H     000FFFH     000100H   EDATA
000000H     000000H     000FFFH               HDATA
000000H     FF0000H     FFFFFFH     00BBCDH   ECODE
010000H     010000H     01FFFFH     0008F4H   XDATA
000000H     FF0000H     FFFFFFH     000542H   HCONST
FF0000H     FF0000H     FFFFFFH     002E8BH   CODE
000000H     000000H     00007FH     00001AH   DATA


MEMORY MAP OF MODULE:  .\Out_File\SEEKFREE (board)


START     STOP      LENGTH    ALIGN  RELOC    MEMORY CLASS   SEGMENT NAME
=========================================================================
000000H   000007H   000008H   ---    AT..     DATA           "REG BANK 0"
000008H   000019H   000012H   BYTE   UNIT     DATA           ?DT?DIRECTION
00001AH   000119H   000100H   BYTE   UNIT     EDATA          ?STACK
00011AH   00FFFFH   00FEE6H   ---    ---      **GAP**
010000H   0102BEH   0002BFH   BYTE   UNIT     XDATA          _XDATA_GROUP_
0102BFH   010402H   000144H   BYTE   INSEG    XDATA          ?XD?DIRECTION
010403H   010503H   000101H   BYTE   INSEG    XDATA          ?XD?SEEKFREE_TSL1401
L251 LINKER/LOCATER V4.66.93.0                                                        06/26/2023  14:53:20  PAGE 4


010504H   0105D0H   0000CDH   BYTE   INSEG    XDATA          ?XD?ZF_UART
0105D1H   010634H   000064H   BYTE   INSEG    XDATA          ?XD?EEPROM
010635H   010689H   000055H   BYTE   INSEG    XDATA          ?XD?SEEKFREE_BLUETOOTH_CH9141
01068AH   0106DEH   000055H   BYTE   INSEG    XDATA          ?XD?SEEKFREE_WIRELESS
0106DFH   010733H   000055H   BYTE   INSEG    XDATA          ?XD?SEEKFREE_WIRELESS_CH573
010734H   01077DH   00004AH   BYTE   INSEG    XDATA          ?XD?PID
01077EH   0107A6H   000029H   BYTE   INSEG    XDATA          ?XD?KEY
0107A7H   0107CCH   000026H   BYTE   INSEG    XDATA          ?XD?ROUND
0107CDH   0107EDH   000021H   BYTE   INSEG    XDATA          ?XD?MENU
0107EEH   01080CH   00001FH   BYTE   INSEG    XDATA          ?XD?ANOTC
01080DH   01081EH   000012H   BYTE   INSEG    XDATA          ?XD?SEEKFREE_IMU963RA
01081FH   01082DH   00000FH   BYTE   UNIT     XDATA          ?XD?FIFO_READ_BUFFER??ZF_FIFO
01082EH   01083BH   00000EH   BYTE   INSEG    XDATA          ?XD?ENCODER
01083CH   010849H   00000EH   BYTE   INSEG    XDATA          ?XD?PARK
01084AH   010855H   00000CH   BYTE   INSEG    XDATA          ?XD?SEEKFREE_ICM20602
010856H   010861H   00000CH   BYTE   INSEG    XDATA          ?XD?SEEKFREE_IMU660RA
010862H   01086DH   00000CH   BYTE   INSEG    XDATA          ?XD?SEEKFREE_MPU6050
01086EH   010877H   00000AH   BYTE   INSEG    XDATA          ?XD?SEEKFREE_VIRSCO
010878H   01087FH   000008H   BYTE   UNIT     XDATA          ?XD?IPS114_SHOWINT16_SIMSPI??SEEKFREE_IPS114_SPI
010880H   010886H   000007H   BYTE   INSEG    XDATA          ?XD?ISR
010887H   01088CH   000006H   BYTE   UNIT     XDATA          ?XD?LCD_SHOWSTR_SIMSPI??SEEKFREE_18TFT
01088DH   010892H   000006H   BYTE   UNIT     XDATA          ?XD?IPS114_SHOWSTR_SIMSPI??SEEKFREE_IPS114_SPI
010893H   010898H   000006H   BYTE   UNIT     XDATA          ?XD?IPS114_SHOWSTR??SEEKFREE_IPS114_SPI
010899H   01089DH   000005H   BYTE   UNIT     XDATA          ?XD?OLED_P6X8STR??SEEKFREE_OLED
01089EH   0108A2H   000005H   BYTE   UNIT     XDATA          ?XD?OLED_P6X8STR_SPI??SEEKFREE_OLED
0108A3H   0108A7H   000005H   BYTE   INSEG    XDATA          ?XD?CONTROL
0108A8H   0108ABH   000004H   BYTE   INSEG    XDATA          ?XD?BOARD
0108ACH   0108AFH   000004H   BYTE   INSEG    XDATA          ?XD?ZF_DELAY
0108B0H   0108B3H   000004H   BYTE   UNIT     XDATA          ?XD?UART_PUTBUFF??ZF_UART
0108B4H   0108B7H   000004H   BYTE   UNIT     XDATA          ?XD?FIFO_INIT??ZF_FIFO
0108B8H   0108BBH   000004H   BYTE   UNIT     XDATA          ?XD?LCD_SET_REGION_SIMSPI??SEEKFREE_18TFT
0108BCH   0108BFH   000004H   BYTE   UNIT     XDATA          ?XD?LCD_SHOWCHAR_SIMSPI??SEEKFREE_18TFT
0108C0H   0108C3H   000004H   BYTE   UNIT     XDATA          ?XD?ICM20602_SIMSPI_R_REG_BYTES?SEEKFREE_ICM20602
0108C4H   0108C7H   000004H   BYTE   UNIT     XDATA          ?XD?IMU660RA_SIMSPI_W_REG_BYTES?SEEKFREE_IMU660RA
0108C8H   0108CBH   000004H   BYTE   UNIT     XDATA          ?XD?IMU963RA_SIMSPI_R_REG_BYTES?SEEKFREE_IMU963RA
0108CCH   0108CFH   000004H   BYTE   UNIT     XDATA          ?XD?IPS114_SET_REGION_SIMSPI??SEEKFREE_IPS114_SPI
0108D0H   0108D3H   000004H   BYTE   UNIT     XDATA          ?XD?IPS114_SHOWCHAR_SIMSPI??SEEKFREE_IPS114_SPI
0108D4H   0108D7H   000004H   BYTE   UNIT     XDATA          ?XD?IPS114_SET_REGION??SEEKFREE_IPS114_SPI
0108D8H   0108DBH   000004H   BYTE   UNIT     XDATA          ?XD?IPS114_SHOWCHAR??SEEKFREE_IPS114_SPI
0108DCH   0108DFH   000004H   BYTE   INSEG    XDATA          ?XD?MAIN
0108E0H   0108E2H   000003H   BYTE   INSEG    XDATA          ?XD?SEEKFREE_DL1A
0108E3H   0108E5H   000003H   BYTE   UNIT     XDATA          ?XD?MPU6050_SIMIIC_READ_REGS??SEEKFREE_MPU6050
0108E6H   0108E7H   000002H   BYTE   INSEG    XDATA          ?XD?COMMON
0108E8H   0108E9H   000002H   BYTE   UNIT     XDATA          ?XD?IMU660RA_READ_REGISTER?SEEKFREE_IMU660RA
0108EAH   0108EBH   000002H   BYTE   UNIT     XDATA          ?XD?IMU963RA_WRITE_MAG_REGISTER?SEEKFREE_IMU963RA
0108ECH   0108EDH   000002H   BYTE   UNIT     XDATA          ?XD?IPS114_WRITEDATA_16BIT??SEEKFREE_IPS114_SPI
0108EEH   0108EFH   000002H   BYTE   UNIT     XDATA          ?XD?WIRELESS_UART_SEND_BUFF??SEEKFREE_WIRELESS
0108F0H   0108F0H   000001H   BYTE   UNIT     XDATA          ?XD?ENCODER_SELF4_CHECK??SEEKFREE_ABSOLUTE_ENCODER
0108F1H   0108F1H   000001H   BYTE   UNIT     XDATA          ?XD?ENCODER_SELF5_CHECK??SEEKFREE_ABSOLUTE_ENCODER
0108F2H   0108F2H   000001H   BYTE   UNIT     XDATA          ?XD?ICM20602_READ_REGISTER?SEEKFREE_ICM20602
0108F3H   0108F3H   000001H   BYTE   UNIT     XDATA          ?XD?IMU963RA_READ_ACC_GYRO_REGISTER?SEEKFREE_IMU963RA
0108F4H   FEFFFFH   FDF70CH   ---    ---      **GAP**
FF0000H   FF0002H   000003H   ---    OFFS..   CODE           ?CO?start251?4
FF0003H   FF0006H   000004H   ---    OFFS..   CODE           ?PR?IV?0
FF0007H   FF000AH   000004H   BYTE   INSEG    HCONST         ?HC?PRINTF
FF000BH   FF000EH   000004H   ---    OFFS..   CODE           ?PR?IV?1
FF000FH   FF0012H   000004H   ---    ---      **GAP**
FF0013H   FF0016H   000004H   ---    OFFS..   CODE           ?PR?IV?2
FF0017H   FF001AH   000004H   ---    ---      **GAP**
FF001BH   FF001EH   000004H   ---    OFFS..   CODE           ?PR?IV?3
FF001FH   FF0022H   000004H   ---    ---      **GAP**
FF0023H   FF0026H   000004H   ---    OFFS..   CODE           ?PR?IV?4
FF0027H   FF0040H   00001AH   BYTE   INSEG    ECODE          ?PR?MEMSET_
FF0041H   FF0042H   000002H   ---    ---      **GAP**
FF0043H   FF0046H   000004H   ---    OFFS..   CODE           ?PR?IV?8
L251 LINKER/LOCATER V4.66.93.0                                                        06/26/2023  14:53:20  PAGE 5


FF0047H   FF0050H   00000AH   BYTE   UNIT     HCONST         ?HC?SEEKFREE_OLED
FF0051H   FF0052H   000002H   ---    ---      **GAP**
FF0053H   FF0056H   000004H   ---    OFFS..   CODE           ?PR?IV?10
FF0057H   FF005AH   000004H   ---    ---      **GAP**
FF005BH   FF005EH   000004H   ---    OFFS..   CODE           ?PR?IV?11
FF005FH   FF0062H   000004H   ---    ---      **GAP**
FF0063H   FF0066H   000004H   ---    OFFS..   CODE           ?PR?IV?12
FF0067H   FF0076H   000010H   BYTE   INSEG    ECODE          ?PR?ABS_
FF0077H   FF007CH   000006H   BYTE   UNIT     HCONST         ?HC?SEEKFREE_18TFT
FF007DH   FF0082H   000006H   BYTE   UNIT     HCONST         ?HC?SEEKFREE_IPS114_SPI
FF0083H   FF0086H   000004H   ---    OFFS..   CODE           ?PR?IV?16
FF0087H   FF008AH   000004H   ---    ---      **GAP**
FF008BH   FF008EH   000004H   ---    OFFS..   CODE           ?PR?IV?17
FF008FH   FF0092H   000004H   ---    ---      **GAP**
FF0093H   FF0096H   000004H   ---    OFFS..   CODE           ?PR?IV?18
FF0097H   FF009AH   000004H   ---    ---      **GAP**
FF009BH   FF009EH   000004H   ---    OFFS..   CODE           ?PR?IV?19
FF009FH   FF00A2H   000004H   ---    ---      **GAP**
FF00A3H   FF00A6H   000004H   ---    OFFS..   CODE           ?PR?IV?20
FF00A7H   FF20A6H   002000H   BYTE   UNIT     CODE           ?CO?SEEKFREE_CONFIG
FF20A7H   FF2EAEH   000E08H   BYTE   UNIT     CODE           ?CO?SEEKFREE_FONT
FF2EAFH   FF2EC1H   000013H   BYTE   UNIT     CODE           ?C_C51STARTUP
FF2EC2H   FF2EF2H   000031H   BYTE   UNIT     CODE           ?C_C51STARTUP?2
FF2EF3H   FF2EF6H   000004H   BYTE   UNIT     CODE           ?C_C51STARTUP?3
FF2EF7H   FF43B0H   0014BAH   BYTE   INSEG    ECODE          ?PR?SEEKFREE_OLED
FF43B1H   FF56C5H   001315H   BYTE   INSEG    ECODE          ?PR?SEEKFREE_18TFT
FF56C6H   FF67D4H   00110FH   BYTE   INSEG    ECODE          ?PR?KEY
FF67D5H   FF78CCH   0010F8H   BYTE   INSEG    ECODE          ?PR?SEEKFREE_IPS114_SPI
FF78CDH   FF88D9H   00100DH   BYTE   INSEG    ECODE          ?PR?SEEKFREE_DL1A
FF88DAH   FF9529H   000C50H   BYTE   INSEG    ECODE          ?C?LIB_CODE?
FF952AH   FF9DA9H   000880H   BYTE   INSEG    ECODE          ?PR?DIRECTION
FF9DAAH   FFA574H   0007CBH   BYTE   INSEG    ECODE          ?PR?ZF_PWM
FFA575H   FFAD0CH   000798H   BYTE   INSEG    ECODE          ?PR?SEEKFREE_PRINTF
FFAD0DH   FFB45CH   000750H   BYTE   INSEG    ECODE          ?PR?ROUND
FFB45DH   FFB8C1H   000465H   BYTE   INSEG    ECODE          ?PR?ZF_GPIO
FFB8C2H   FFBCFFH   00043EH   BYTE   INSEG    ECODE          ?PR?SEEKFREE_IMU963RA
FFBD00H   FFC130H   000431H   BYTE   INSEG    ECODE          ?PR?PID
FFC131H   FFC4DEH   0003AEH   BYTE   INSEG    ECODE          ?PR?ZF_FIFO
FFC4DFH   FFC800H   000322H   BYTE   INSEG    ECODE          ?PR?ZF_IIC
FFC801H   FFCAD0H   0002D0H   BYTE   INSEG    ECODE          ?PR?ISR
FFCAD1H   FFCD78H   0002A8H   BYTE   INSEG    ECODE          ?PR?SEEKFREE_IMU660RA
FFCD79H   FFD020H   0002A8H   BYTE   INSEG    ECODE          ?PR?SEEKFREE_MPU6050
FFD021H   FFD2A9H   000289H   BYTE   INSEG    ECODE          ?PR?SEEKFREE_ABSOLUTE_ENCODER
FFD2AAH   FFD521H   000278H   BYTE   INSEG    ECODE          ?PR?ZF_UART
FFD522H   FFD768H   000247H   BYTE   INSEG    ECODE          ?PR?SEEKFREE_ICM20602
FFD769H   FFD969H   000201H   BYTE   INSEG    ECODE          ?PR?SEEKFREE_AT24C02
FFD96AH   FFDB56H   0001EDH   BYTE   INSEG    ECODE          ?PR?BOARD
FFDB57H   FFDD24H   0001CEH   BYTE   INSEG    ECODE          ?PR?ZF_SPI
FFDD25H   FFDEDFH   0001BBH   BYTE   INSEG    ECODE          ?PR?ZF_EEPROM
FFDEE0H   FFE07FH   0001A0H   BYTE   INSEG    ECODE          ?PR?EEPROM
FFE080H   FFE211H   000192H   BYTE   INSEG    ECODE          ?PR?SEEKFREE_BLUETOOTH_CH9141
FFE212H   FFE394H   000183H   BYTE   INSEG    ECODE          ?PR?ZF_TIM
FFE395H   FFE4B5H   000121H   BYTE   INSEG    ECODE          ?PR?SEEKFREE_WIRELESS_CH573
FFE4B6H   FFE5D0H   00011BH   BYTE   INSEG    ECODE          ?PR?SEEKFREE_WIRELESS
FFE5D1H   FFE6CFH   0000FFH   BYTE   INSEG    ECODE          ?PR?POW__
FFE6D0H   FFE7B5H   0000E6H   BYTE   INSEG    ECODE          ?PR?SEEKFREE_VIRSCO
FFE7B6H   FFE899H   0000E4H   BYTE   INSEG    ECODE          ?PR?MAIN
FFE89AH   FFE929H   000090H   BYTE   INSEG    ECODE          ?PR?ZF_ADC
FFE92AH   FFE9A6H   00007DH   BYTE   INSEG    ECODE          ?PR?CONTROL
FFE9A7H   FFEA20H   00007AH   BYTE   INSEG    ECODE          ?PR?ZF_DELAY
FFEA21H   FFEA74H   000054H   BYTE   INSEG    ECODE          ?PR?ENCODER
FFEA75H   FFEA99H   000025H   BYTE   INSEG    ECODE          ?PR?MEMCPY_
FFEA9AH   FFEDC5H   00032CH   BYTE   UNIT     HCONST         ?C_INITHDATA
FFEDC6H   FFEE54H   00008FH   BYTE   UNIT     HCONST         ?HC?KEY
FFEE55H   FFEEACH   000058H   BYTE   UNIT     HCONST         ?HC?ZF_PWM
L251 LINKER/LOCATER V4.66.93.0                                                        06/26/2023  14:53:20  PAGE 6


FFEEADH   FFEEF7H   00004BH   BYTE   UNIT     HCONST         ?HC?SEEKFREE_IMU963RA
FFEEF8H   FFEF2BH   000034H   BYTE   UNIT     HCONST         ?HC?SEEKFREE_IMU660RA
FFEF2CH   FFEF5EH   000033H   BYTE   UNIT     HCONST         ?HC?SEEKFREE_ICM20602
FFEF5FH   FFEF86H   000028H   BYTE   UNIT     HCONST         ?HC?ROUND
FFEF87H   FFEF9CH   000016H   BYTE   UNIT     HCONST         ?HC?SEEKFREE_MPU6050
FFEF9DH   FFEFAFH   000013H   BYTE   UNIT     HCONST         ?HC?SEEKFREE_DL1A
FFEFB0H   FFEFC1H   000012H   BYTE   UNIT     HCONST         ?HC?MENU

* * * * * * * * *   R E M O V E D     S E G M E N T S   * * * * * * * *
   *DEL*:           00003EH   BYTE   INSEG    ECODE          ?PR?ZF_EXTI
   *DEL*:           000004H   BYTE   UNIT     XDATA          ?XD?IIC_INIT??ZF_IIC
   *DEL*:           000004H   BYTE   UNIT     XDATA          ?XD?IIC_READ_REG??ZF_IIC
   *DEL*:           000003H   BYTE   UNIT     XDATA          ?XD?IIC_READ_REG_BYTES??ZF_IIC
   *DEL*:           00006CH   BYTE   INSEG    ECODE          ?PR?ZF_NVIC
   *DEL*:           000004H   BYTE   UNIT     XDATA          ?XD?PWM_FREQ??ZF_PWM
   *DEL*:           000002H   BYTE   UNIT     XDATA          ?XD?UART_PUTSTR??ZF_UART
   *DEL*:           000005H   BYTE   UNIT     XDATA          ?XD?LCD_SHOWINT8_SIMSPI??SEEKFREE_18TFT
   *DEL*:           000004H   BYTE   UNIT     XDATA          ?XD?LCD_SHOWUINT8_SIMSPI??SEEKFREE_18TFT
   *DEL*:           000008H   BYTE   UNIT     XDATA          ?XD?LCD_SHOWINT16_SIMSPI??SEEKFREE_18TFT
   *DEL*:           000006H   BYTE   UNIT     XDATA          ?XD?LCD_SHOWUINT16_SIMSPI??SEEKFREE_18TFT
   *DEL*:           000028H   BYTE   UNIT     XDATA          ?XD?LCD_SHOWINT32_SIMSPI??SEEKFREE_18TFT
   *DEL*:           00002BH   BYTE   UNIT     XDATA          ?XD?LCD_SHOWFLOAT_SIMSPI??SEEKFREE_18TFT
   *DEL*:           000005H   BYTE   UNIT     XDATA          ?XD?LCD_SHOWINT8??SEEKFREE_18TFT
   *DEL*:           000004H   BYTE   UNIT     XDATA          ?XD?LCD_SHOWUINT8??SEEKFREE_18TFT
   *DEL*:           000008H   BYTE   UNIT     XDATA          ?XD?LCD_SHOWINT16??SEEKFREE_18TFT
   *DEL*:           000006H   BYTE   UNIT     XDATA          ?XD?LCD_SHOWUINT16??SEEKFREE_18TFT
   *DEL*:           000028H   BYTE   UNIT     XDATA          ?XD?LCD_SHOWINT32??SEEKFREE_18TFT
   *DEL*:           000008H   BYTE   UNIT     XDATA          ?XD?SHOWIMAGE??SEEKFREE_18TFT
   *DEL*:           000002H   BYTE   UNIT     XDATA          ?XD?AT24C02_WRITE_BYTES??SEEKFREE_AT24C02
   *DEL*:           000002H   BYTE   UNIT     XDATA          ?XD?AT24C02_READ_BYTES??SEEKFREE_AT24C02
   *DEL*:           000006H   BYTE   UNIT     XDATA          ?XD?BLUETOOTH_CH9141_SEND_BUFF??SEEKFREE_BLUETOOTH_CH9141
   *DEL*:           000004H   BYTE   UNIT     XDATA          ?XD?BLUETOOTH_CH9141_READ_BUFF??SEEKFREE_BLUETOOTH_CH9141
   *DEL*:           000006H   BYTE   UNIT     XDATA          ?XD?ICM20602_GET_ACC??SEEKFREE_ICM20602
   *DEL*:           000006H   BYTE   UNIT     XDATA          ?XD?ICM20602_GET_GYRO??SEEKFREE_ICM20602
   *DEL*:           000007H   BYTE   UNIT     XDATA          ?XD?IMU660RA_GET_ACC??SEEKFREE_IMU660RA
   *DEL*:           000006H   BYTE   UNIT     XDATA          ?XD?IMU963RA_GET_ACC??SEEKFREE_IMU963RA
   *DEL*:           000006H   BYTE   UNIT     XDATA          ?XD?IMU963RA_GET_GYRO??SEEKFREE_IMU963RA
   *DEL*:           000006H   BYTE   UNIT     XDATA          ?XD?IMU963RA_GET_MAG??SEEKFREE_IMU963RA
   *DEL*:           000002H   BYTE   UNIT     XDATA          ?XD?IPS114_CLEAR_SIMSPI??SEEKFREE_IPS114_SPI
   *DEL*:           000005H   BYTE   UNIT     XDATA          ?XD?IPS114_SHOWINT8_SIMSPI??SEEKFREE_IPS114_SPI
   *DEL*:           000004H   BYTE   UNIT     XDATA          ?XD?IPS114_SHOWUINT8_SIMSPI??SEEKFREE_IPS114_SPI
   *DEL*:           000006H   BYTE   UNIT     XDATA          ?XD?IPS114_SHOWUINT16_SIMSPI??SEEKFREE_IPS114_SPI
   *DEL*:           000028H   BYTE   UNIT     XDATA          ?XD?IPS114_SHOWINT32_SIMSPI??SEEKFREE_IPS114_SPI
   *DEL*:           00002BH   BYTE   UNIT     XDATA          ?XD?IPS114_SHOWFLOAT_SIMSPI??SEEKFREE_IPS114_SPI
   *DEL*:           000002H   BYTE   UNIT     XDATA          ?XD?IPS114_CLEAR??SEEKFREE_IPS114_SPI
   *DEL*:           000005H   BYTE   UNIT     XDATA          ?XD?IPS114_SHOWINT8??SEEKFREE_IPS114_SPI
   *DEL*:           000004H   BYTE   UNIT     XDATA          ?XD?IPS114_SHOWUINT8??SEEKFREE_IPS114_SPI
   *DEL*:           000008H   BYTE   UNIT     XDATA          ?XD?IPS114_SHOWINT16??SEEKFREE_IPS114_SPI
   *DEL*:           000006H   BYTE   UNIT     XDATA          ?XD?IPS114_SHOWUINT16??SEEKFREE_IPS114_SPI
   *DEL*:           000028H   BYTE   UNIT     XDATA          ?XD?IPS114_SHOWINT32??SEEKFREE_IPS114_SPI
   *DEL*:           00002BH   BYTE   UNIT     XDATA          ?XD?IPS114_SHOWFLOAT??SEEKFREE_IPS114_SPI
   *DEL*:           000006H   BYTE   UNIT     XDATA          ?XD?MPU6050_GET_ACCDATA??SEEKFREE_MPU6050
   *DEL*:           000006H   BYTE   UNIT     XDATA          ?XD?MPU6050_GET_GYRO??SEEKFREE_MPU6050
   *DEL*:           000005H   BYTE   UNIT     XDATA          ?XD?OLED_P8X16STR??SEEKFREE_OLED
   *DEL*:           000007H   BYTE   UNIT     XDATA          ?XD?OLED_UINT16??SEEKFREE_OLED
   *DEL*:           000007H   BYTE   UNIT     XDATA          ?XD?OLED_INT16??SEEKFREE_OLED
   *DEL*:           000028H   BYTE   UNIT     XDATA          ?XD?OLED_PRINTF_INT32??SEEKFREE_OLED
   *DEL*:           00002BH   BYTE   UNIT     XDATA          ?XD?OLED_PRINTF_FLOAT??SEEKFREE_OLED
   *DEL*:           00000CH   BYTE   UNIT     XDATA          ?XD?OLED_DIS_BMP??SEEKFREE_OLED
   *DEL*:           00000AH   BYTE   UNIT     XDATA          ?XD?OLED_PRINT_CHINESE??SEEKFREE_OLED
   *DEL*:           000005H   BYTE   UNIT     XDATA          ?XD?OLED_P8X16STR_SPI??SEEKFREE_OLED
   *DEL*:           000007H   BYTE   UNIT     XDATA          ?XD?OLED_UINT16_SPI??SEEKFREE_OLED
   *DEL*:           000007H   BYTE   UNIT     XDATA          ?XD?OLED_INT16_SPI??SEEKFREE_OLED
   *DEL*:           000028H   BYTE   UNIT     XDATA          ?XD?OLED_PRINTF_INT32_SPI??SEEKFREE_OLED
   *DEL*:           00002BH   BYTE   UNIT     XDATA          ?XD?OLED_PRINTF_FLOAT_SPI??SEEKFREE_OLED
L251 LINKER/LOCATER V4.66.93.0                                                        06/26/2023  14:53:20  PAGE 7


   *DEL*:           00000CH   BYTE   UNIT     XDATA          ?XD?OLED_DIS_BMP_SPI??SEEKFREE_OLED
   *DEL*:           00000AH   BYTE   UNIT     XDATA          ?XD?OLED_PRINT_CHINESE_SPI??SEEKFREE_OLED
   *DEL*:           0000E5H   BYTE   INSEG    ECODE          ?PR?SEEKFREE_TSL1401
   *DEL*:           000003H   BYTE   UNIT     XDATA          ?XD?CCD_SEND_DATA??SEEKFREE_TSL1401
   *DEL*:           000004H   BYTE   UNIT     XDATA          ?XD?DATA_CONVERSION??SEEKFREE_VIRSCO
   *DEL*:           000004H   BYTE   UNIT     XDATA          ?XD?WIRELESS_UART_READ_BUFF??SEEKFREE_WIRELESS
   *DEL*:           000002H   BYTE   UNIT     XDATA          ?XD?WIRELESS_CH573_SEND_BUFF??SEEKFREE_WIRELESS_CH573
   *DEL*:           000004H   BYTE   UNIT     XDATA          ?XD?WIRELESS_CH573_READ_BUFF??SEEKFREE_WIRELESS_CH573
   *DEL*:           00015CH   BYTE   INSEG    ECODE          ?PR?ANOTC
   *DEL*:           000008H   BYTE   UNIT     XDATA          ?XD?ANO_SENDDATA??ANOTC
   *DEL*:           0001C3H   BYTE   INSEG    ECODE          ?PR?MENU
   *DEL*:           000004H   BYTE   UNIT     XDATA          ?XD?SAVE_INT??EEPROM
   *DEL*:           000004H   BYTE   UNIT     XDATA          ?XD?READ_INT??EEPROM



OVERLAY MAP OF MODULE:   .\Out_File\SEEKFREE (board)


FUNCTION/MODULE                               XDATA_GROUP
--> CALLED FUNCTION/MODULE                    START  STOP
=========================================================
UART1_Isr?/isr                                ----- -----

*** NEW ROOT ********************************

UART2_Isr?/isr                                ----- -----

*** NEW ROOT ********************************

UART3_Isr?/isr                                ----- -----

*** NEW ROOT ********************************

UART4_Isr?/isr                                ----- -----
  +--> wireless_uart_callback?/SEEKFREE_WIRELESS
  +--> bluetooth_ch9141_uart_callback?/SEEKFREE_BLUETOOTH_CH9141
  +--> wireless_ch573_callback?/SEEKFREE_WIRELESS_CH573

wireless_uart_callback?/SEEKFREE_WIRELES+     ----- -----
... S
  +--> fifo_write_buffer?/zf_fifo

fifo_write_buffer?/zf_fifo                    0000H 000BH
  +--> memcpy??/MEMCPY?
  +--> fifo_head_offset?/zf_fifo

memcpy??/MEMCPY?                              ----- -----

fifo_head_offset?/zf_fifo                     ----- -----

bluetooth_ch9141_uart_callback?/SEEKFREE+     ----- -----
... _BLUETOOTH_CH9141
  +--> fifo_write_buffer?/zf_fifo

wireless_ch573_callback?/SEEKFREE_WIRELE+     ----- -----
... SS_CH573
  +--> fifo_write_buffer?/zf_fifo

*** NEW ROOT ********************************

INT0_Isr?/isr                                 ----- -----

*** NEW ROOT ********************************

L251 LINKER/LOCATER V4.66.93.0                                                        06/26/2023  14:53:20  PAGE 8


INT1_Isr?/isr                                 ----- -----

*** NEW ROOT ********************************

INT2_Isr?/isr                                 ----- -----

*** NEW ROOT ********************************

INT3_Isr?/isr                                 ----- -----

*** NEW ROOT ********************************

INT4_Isr?/isr                                 ----- -----

*** NEW ROOT ********************************

TM0_Isr?/isr                                  ----- -----

*** NEW ROOT ********************************

TM1_Isr?/isr                                  ----- -----

*** NEW ROOT ********************************

TM2_Isr?/isr                                  ----- -----

*** NEW ROOT ********************************

TM3_Isr?/isr                                  ----- -----

*** NEW ROOT ********************************

TM4_Isr?/isr                                  ----- -----
  +--> dl1a_get_distance?/SEEKFREE_DL1A
  +--> mpu660_PID?/pid
  +--> knn?/round
  +--> DirectionControl?/Direction
  +--> ctimer_count_read?/zf_tim
  +--> CHUKU?/round
  +--> RuKu?/round
  +--> obstacle?/round
  +--> Huan_Dao_R?/round
  +--> Huan_Dao_Z?/round
  +--> dir_pid?/pid
  +--> read_encoder?/encoder
  +--> Target_speed?/pid
  +--> speedR_pid?/pid
  +--> speedL_pid?/pid
  +--> Control?/control
  +--> pwm_duty?/zf_pwm

dl1a_get_distance?/SEEKFREE_DL1A              000CH 000EH
  +--> dl1a_simiic_read_regs_1/SEEKFREE_DL1A
  +--> dl1a_simiic_write_reg/SEEKFREE_DL1A

dl1a_simiic_read_regs_1/SEEKFREE_DL1A         000FH 0014H
  +--> dl1a_simiic_start/SEEKFREE_DL1A
  +--> dl1a_send_ch/SEEKFREE_DL1A
  +--> dl1a_read_ch/SEEKFREE_DL1A
  +--> dl1a_simiic_stop/SEEKFREE_DL1A

dl1a_simiic_start/SEEKFREE_DL1A               ----- -----
  +--> dl1a_simiic_delay/SEEKFREE_DL1A

dl1a_simiic_delay/SEEKFREE_DL1A               ----- -----
L251 LINKER/LOCATER V4.66.93.0                                                        06/26/2023  14:53:20  PAGE 9



dl1a_send_ch/SEEKFREE_DL1A                    ----- -----
  +--> dl1a_simiic_delay/SEEKFREE_DL1A
  +--> dl1a_sccb_waitack/SEEKFREE_DL1A

dl1a_sccb_waitack/SEEKFREE_DL1A               ----- -----
  +--> dl1a_simiic_delay/SEEKFREE_DL1A

dl1a_read_ch/SEEKFREE_DL1A                    ----- -----
  +--> dl1a_simiic_delay/SEEKFREE_DL1A
  +--> dl1a_simiic_sendack/SEEKFREE_DL1A

dl1a_simiic_sendack/SEEKFREE_DL1A             ----- -----
  +--> dl1a_simiic_delay/SEEKFREE_DL1A

dl1a_simiic_stop/SEEKFREE_DL1A                ----- -----
  +--> dl1a_simiic_delay/SEEKFREE_DL1A

dl1a_simiic_write_reg/SEEKFREE_DL1A           ----- -----
  +--> dl1a_simiic_start/SEEKFREE_DL1A
  +--> dl1a_send_ch/SEEKFREE_DL1A
  +--> dl1a_simiic_stop/SEEKFREE_DL1A

mpu660_PID?/pid                               ----- -----
  +--> imu660ra_get_gyro?/SEEKFREE_IMU660RA
  +--> imu660ra_gyro_transition?/SEEKFREE_IMU660RA

imu660ra_get_gyro?/SEEKFREE_IMU660RA          000CH 0012H
  +--> imu660ra_read_registers/SEEKFREE_IMU660RA

imu660ra_read_registers/SEEKFREE_IMU660R+     ----- -----
... A
  +--> imu660ra_simspi_r_reg_bytes/SEEKFREE_IMU660RA

imu660ra_simspi_r_reg_bytes/SEEKFREE_IMU+     0013H 0016H
... 660RA
  +--> imu660ra_simspi_wr_byte/SEEKFREE_IMU660RA

imu660ra_simspi_wr_byte/SEEKFREE_IMU660R+     ----- -----
... A

imu660ra_gyro_transition?/SEEKFREE_IMU66+     ----- -----
... 0RA

knn?/round                                    000CH 0033H
  +--> pow??/POW??

pow??/POW??                                   ----- -----
  +--> LOG??/LOG??

LOG??/LOG??                                   ----- -----

DirectionControl?/Direction                   ----- -----
  +--> InductorNormal?/Direction
  +--> abs??/ABS?

InductorNormal?/Direction                     ----- -----
  +--> Read_ADC?/Direction

Read_ADC?/Direction                           000CH 00ADH
  +--> adc_once?/zf_adc

adc_once?/zf_adc                              ----- -----

abs??/ABS?                                    ----- -----
L251 LINKER/LOCATER V4.66.93.0                                                        06/26/2023  14:53:20  PAGE 10



ctimer_count_read?/zf_tim                     ----- -----

CHUKU?/round                                  ----- -----

RuKu?/round                                   ----- -----
  +--> ctimer_count_read?/zf_tim

obstacle?/round                               ----- -----
  +--> ctimer_count_read?/zf_tim

Huan_Dao_R?/round                             ----- -----
  +--> ctimer_count_read?/zf_tim

Huan_Dao_Z?/round                             ----- -----
  +--> ctimer_count_read?/zf_tim

dir_pid?/pid                                  ----- -----

read_encoder?/encoder                         ----- -----
  +--> ctimer_count_read?/zf_tim
  +--> ctimer_count_clean?/zf_tim

ctimer_count_clean?/zf_tim                    ----- -----

Target_speed?/pid                             ----- -----

speedR_pid?/pid                               ----- -----

speedL_pid?/pid                               ----- -----

Control?/control                              ----- -----
  +--> pwm_duty?/zf_pwm

pwm_duty?/zf_pwm                              ----- -----

*** NEW ROOT ********************************

?C_C51STARTUP                                 ----- -----

*** NEW ROOT ********************************

?C_C51STARTUP?3                               ----- -----
  +--> main?/main

main?/main                                    ----- -----
  +--> board_init?/board
  +--> adc_init?/zf_adc
  +--> pwm_init?/zf_pwm
  +--> gpio_mode?/zf_gpio
  +--> lcd_init?/SEEKFREE_18TFT
  +--> EnableGlobalIRQ?/board
  +--> ctimer_count_init?/zf_tim
  +--> eeprom_init?/eeprom
  +--> dl1a_init?/SEEKFREE_DL1A
  +--> pit_timer_ms?/zf_tim
  +--> Keystroke_Scan?/key
  +--> Keystroke_Menu?/key

board_init?/board                             ----- -----
  +--> set_clk?/board
  +--> delay_init?/zf_delay
  +--> uart_init?/zf_uart
  +--> EnableGlobalIRQ?/board

L251 LINKER/LOCATER V4.66.93.0                                                        06/26/2023  14:53:20  PAGE 11


set_clk?/board                                ----- -----

delay_init?/zf_delay                          ----- -----
  +--> ?C?SLDIV?/?C?SLDIV?

?C?SLDIV?/?C?SLDIV?                           ----- -----
  +--> ?C?ULIDIV?/?C?ULDIV?

?C?ULIDIV?/?C?ULDIV?                          ----- -----

uart_init?/zf_uart                            00AEH 00B3H
  +--> ?C?ULIDIV?/?C?ULDIV?

EnableGlobalIRQ?/board                        ----- -----

adc_init?/zf_adc                              ----- -----

pwm_init?/zf_pwm                              00AEH 00B9H
  +--> pwm_set_gpio?/zf_pwm
  +--> ?C?ULIDIV?/?C?ULDIV?

pwm_set_gpio?/zf_pwm                          ----- -----
  +--> gpio_mode?/zf_gpio

gpio_mode?/zf_gpio                            ----- -----

lcd_init?/SEEKFREE_18TFT                      ----- -----
  +--> spi_init?/zf_spi
  +--> delay_ms?/zf_delay
  +--> lcd_writeIndex?/SEEKFREE_18TFT
  +--> lcd_writeData?/SEEKFREE_18TFT
  +--> lcd_clear?/SEEKFREE_18TFT

spi_init?/zf_spi                              00AEH 00B1H
  +--> gpio_mode?/zf_gpio

delay_ms?/zf_delay                            ----- -----

lcd_writeIndex?/SEEKFREE_18TFT                ----- -----
  +--> spi_mosi?/zf_spi

spi_mosi?/zf_spi                              ----- -----

lcd_writeData?/SEEKFREE_18TFT                 ----- -----
  +--> spi_mosi?/zf_spi

lcd_clear?/SEEKFREE_18TFT                     ----- -----
  +--> lcd_set_region?/SEEKFREE_18TFT
  +--> lcd_writedata_16bit?/SEEKFREE_18TFT

lcd_set_region?/SEEKFREE_18TFT                00E6H 00E9H
  +--> lcd_writeIndex?/SEEKFREE_18TFT
  +--> lcd_writeData?/SEEKFREE_18TFT

lcd_writedata_16bit?/SEEKFREE_18TFT           00E6H 00E7H
  +--> spi_mosi?/zf_spi

ctimer_count_init?/zf_tim                     ----- -----

eeprom_init?/eeprom                           ----- -----
  +--> iap_init?/zf_eeprom
  +--> iap_read_bytes?/zf_eeprom
  +--> read_float?/eeprom

iap_init?/zf_eeprom                           ----- -----
L251 LINKER/LOCATER V4.66.93.0                                                        06/26/2023  14:53:20  PAGE 12


  +--> iap_set_tps?/zf_eeprom

iap_set_tps?/zf_eeprom                        ----- -----
  +--> ?C?SLDIV?/?C?SLDIV?

iap_read_bytes?/zf_eeprom                     02BBH 02BEH
  +--> eeprom_trig?/zf_eeprom

eeprom_trig?/zf_eeprom                        ----- -----

read_float?/eeprom                            00B1H 00B4H

dl1a_init?/SEEKFREE_DL1A                      00AEH 00BFH
  +--> memset??/MEMSET?
  +--> delay_ms?/zf_delay
  +--> dl1a_simiic_read_reg/SEEKFREE_DL1A
  +--> dl1a_simiic_write_reg/SEEKFREE_DL1A
  +--> dl1a_simiic_read_regs/SEEKFREE_DL1A
  +--> dl1a_set_signal_rate_limit/SEEKFREE_DL1A
  +--> dl1a_get_spad_info/SEEKFREE_DL1A
  +--> PRINTF?/PRINTF?
  +--> dl1a_simiic_write_dats/SEEKFREE_DL1A
  +--> dl1a_get_measurement_timing_budget/SEEKFREE_DL1A
  +--> dl1a_set_measurement_timing_budget/SEEKFREE_DL1A
  +--> dl1a_perform_single_ref_calibration/SEEKFREE_DL1A

memset??/MEMSET?                              ----- -----

dl1a_simiic_read_reg/SEEKFREE_DL1A            ----- -----
  +--> dl1a_simiic_start/SEEKFREE_DL1A
  +--> dl1a_send_ch/SEEKFREE_DL1A
  +--> dl1a_read_ch/SEEKFREE_DL1A
  +--> dl1a_simiic_stop/SEEKFREE_DL1A

dl1a_simiic_read_regs/SEEKFREE_DL1A           00ECH 00F1H
  +--> dl1a_simiic_start/SEEKFREE_DL1A
  +--> dl1a_send_ch/SEEKFREE_DL1A
  +--> dl1a_read_ch/SEEKFREE_DL1A
  +--> dl1a_simiic_stop/SEEKFREE_DL1A

dl1a_set_signal_rate_limit/SEEKFREE_DL1A      00C0H 00C2H
  +--> dl1a_simiic_write_dats/SEEKFREE_DL1A

dl1a_simiic_write_dats/SEEKFREE_DL1A          00E3H 00E7H
  +--> dl1a_simiic_start/SEEKFREE_DL1A
  +--> dl1a_send_ch/SEEKFREE_DL1A
  +--> dl1a_simiic_stop/SEEKFREE_DL1A

dl1a_get_spad_info/SEEKFREE_DL1A              00C0H 00C7H
  +--> dl1a_simiic_write_reg/SEEKFREE_DL1A
  +--> dl1a_simiic_read_regs/SEEKFREE_DL1A

PRINTF?/PRINTF?                               00C0H 00E7H
  +--> OUT/PRINTF?

OUT/PRINTF?                                   ----- -----
  +--> PUTCH/PRINTF?

PUTCH/PRINTF?                                 ----- -----
  +--> putchar?/board
  +--> OUT/PRINTF?

putchar?/board                                ----- -----
  +--> uart_putchar?/zf_uart

L251 LINKER/LOCATER V4.66.93.0                                                        06/26/2023  14:53:20  PAGE 13


uart_putchar?/zf_uart                         ----- -----

dl1a_get_measurement_timing_budget/SEEKF+     00C0H 00DAH
... REE_DL1A
  +--> dl1a_get_sequence_step_enables/SEEKFREE_DL1A
  +--> dl1a_get_sequence_step_timeouts/SEEKFREE_DL1A

dl1a_get_sequence_step_enables/SEEKFREE_+     00E3H 00E3H
... DL1A
  +--> dl1a_simiic_read_regs/SEEKFREE_DL1A

dl1a_get_sequence_step_timeouts/SEEKFREE+     00E3H 00EAH
... _DL1A
  +--> dl1a_get_vcsel_pulse_period/SEEKFREE_DL1A
  +--> dl1a_simiic_read_regs/SEEKFREE_DL1A
  +--> dl1a_timeout_mclks_to_microseconds/SEEKFREE_DL1A
  +--> dl1a_decode_timeout/SEEKFREE_DL1A

dl1a_get_vcsel_pulse_period/SEEKFREE_DL1+     00EBH 00EBH
... A
  +--> dl1a_simiic_read_regs/SEEKFREE_DL1A

dl1a_timeout_mclks_to_microseconds/SEEKF+     ----- -----
... REE_DL1A
  +--> ?C?ULIDIV?/?C?ULDIV?

dl1a_decode_timeout/SEEKFREE_DL1A             ----- -----

dl1a_set_measurement_timing_budget/SEEKF+     00C0H 00E2H
... REE_DL1A
  +--> dl1a_get_sequence_step_enables/SEEKFREE_DL1A
  +--> dl1a_get_sequence_step_timeouts/SEEKFREE_DL1A
  +--> dl1a_timeout_microseconds_to_mclks/SEEKFREE_DL1A
  +--> dl1a_encode_timeout/SEEKFREE_DL1A
  +--> dl1a_simiic_write_dats/SEEKFREE_DL1A

dl1a_timeout_microseconds_to_mclks/SEEKF+     ----- -----
... REE_DL1A
  +--> ?C?ULIDIV?/?C?ULDIV?

dl1a_encode_timeout/SEEKFREE_DL1A             ----- -----

dl1a_perform_single_ref_calibration/SEEK+     00C0H 00C2H
... FREE_DL1A
  +--> dl1a_simiic_write_reg/SEEKFREE_DL1A
  +--> dl1a_simiic_read_regs/SEEKFREE_DL1A

pit_timer_ms?/zf_tim                          ----- -----
  +--> ?C?SLDIV?/?C?SLDIV?

Keystroke_Scan?/key                           ----- -----

Keystroke_Menu?/key                           ----- -----
  +--> Keystroke_Menu_HOME?/key
  +--> Keystroke_Menu_ONE?/key
  +--> Keystroke_Menu_ONE_One?/key
  +--> Keystroke_Menu_ONE_Two?/key
  +--> Keystroke_Menu_ONE_Three?/key
  +--> Keystroke_Menu_ONE_Four?/key
  +--> Keystroke_Menu_TWO?/key
  +--> Keystroke_Menu_TWO_One?/key
  +--> Keystroke_Menu_THREE?/key
  +--> Keystroke_Menu_THREE_One?/key
  +--> Keystroke_Menu_THREE_Two?/key
  +--> Keystroke_Menu_THREE_Three?/key
L251 LINKER/LOCATER V4.66.93.0                                                        06/26/2023  14:53:20  PAGE 14


  +--> Keystroke_Menu_THREE_Four?/key
  +--> Keystroke_Menu_FOUR?/key

Keystroke_Menu_HOME?/key                      ----- -----
  +--> lcd_showstr?/SEEKFREE_18TFT
  +--> Cursor?/key
  +--> lcd_clear?/SEEKFREE_18TFT

lcd_showstr?/SEEKFREE_18TFT                   00DCH 00E1H
  +--> lcd_showchar?/SEEKFREE_18TFT

lcd_showchar?/SEEKFREE_18TFT                  00E2H 00E5H
  +--> lcd_set_region?/SEEKFREE_18TFT
  +--> lcd_writedata_16bit?/SEEKFREE_18TFT

Cursor?/key                                   ----- -----
  +--> Keystroke_Scan?/key
  +--> lcd_showstr?/SEEKFREE_18TFT

Keystroke_Menu_ONE?/key                       ----- -----
  +--> lcd_showstr?/SEEKFREE_18TFT
  +--> lcd_showfloat?/SEEKFREE_18TFT
  +--> Cursor?/key
  +--> lcd_clear?/SEEKFREE_18TFT

lcd_showfloat?/SEEKFREE_18TFT                 00B1H 00DBH
  +--> zf_sprintf?/SEEKFREE_PRINTF
  +--> lcd_showstr?/SEEKFREE_18TFT

zf_sprintf?/SEEKFREE_PRINTF                   00DCH 013AH
  +--> number_conversion_ascii?/SEEKFREE_PRINTF
  +--> printf_reverse_order?/SEEKFREE_PRINTF
  +--> memcpy??/MEMCPY?

number_conversion_ascii?/SEEKFREE_PRINTF      013BH 013BH
  +--> ?C?SLDIV?/?C?SLDIV?
  +--> ?C?ULIDIV?/?C?ULDIV?

printf_reverse_order?/SEEKFREE_PRINTF         ----- -----

Keystroke_Menu_ONE_One?/key                   ----- -----
  +--> lcd_showstr?/SEEKFREE_18TFT
  +--> lcd_showfloat?/SEEKFREE_18TFT
  +--> KeystrokeLabel_Switch?/key

KeystrokeLabel_Switch?/key                    00AEH 00B0H
  +--> iap_read_bytes?/zf_eeprom
  +--> read_float?/eeprom
  +--> lcd_showfloat?/SEEKFREE_18TFT
  +--> Keystroke_Scan?/key
  +--> save_float?/eeprom
  +--> lcd_clear?/SEEKFREE_18TFT

save_float?/eeprom                            00B1H 00B4H
  +--> extern_iap_write_bytes?/zf_eeprom

extern_iap_write_bytes?/zf_eeprom             00B5H 02BAH
  +--> iap_read_bytes?/zf_eeprom
  +--> iap_erase_page?/zf_eeprom
  +--> iap_write_bytes?/zf_eeprom

iap_erase_page?/zf_eeprom                     ----- -----
  +--> eeprom_trig?/zf_eeprom

iap_write_bytes?/zf_eeprom                    02BBH 02BEH
L251 LINKER/LOCATER V4.66.93.0                                                        06/26/2023  14:53:20  PAGE 15


  +--> eeprom_trig?/zf_eeprom

Keystroke_Menu_ONE_Two?/key                   ----- -----
  +--> lcd_showstr?/SEEKFREE_18TFT
  +--> lcd_showfloat?/SEEKFREE_18TFT
  +--> KeystrokeLabel_Switch?/key

Keystroke_Menu_ONE_Three?/key                 ----- -----
  +--> lcd_showstr?/SEEKFREE_18TFT
  +--> lcd_showfloat?/SEEKFREE_18TFT
  +--> KeystrokeLabel_Switch?/key

Keystroke_Menu_ONE_Four?/key                  ----- -----
  +--> eeprom_init?/eeprom
  +--> lcd_showstr?/SEEKFREE_18TFT
  +--> lcd_showfloat?/SEEKFREE_18TFT
  +--> KeystrokeLabel_Switch?/key

Keystroke_Menu_TWO?/key                       ----- -----
  +--> lcd_showstr?/SEEKFREE_18TFT
  +--> lcd_showfloat?/SEEKFREE_18TFT
  +--> Cursor?/key
  +--> lcd_clear?/SEEKFREE_18TFT

Keystroke_Menu_TWO_One?/key                   ----- -----
  +--> lcd_showstr?/SEEKFREE_18TFT
  +--> lcd_showfloat?/SEEKFREE_18TFT
  +--> KeystrokeLabel_Switch?/key

Keystroke_Menu_THREE?/key                     ----- -----
  +--> lcd_showstr?/SEEKFREE_18TFT
  +--> lcd_showfloat?/SEEKFREE_18TFT
  +--> Cursor?/key
  +--> lcd_clear?/SEEKFREE_18TFT

Keystroke_Menu_THREE_One?/key                 ----- -----
  +--> lcd_showstr?/SEEKFREE_18TFT
  +--> lcd_showfloat?/SEEKFREE_18TFT
  +--> KeystrokeLabel_Switch?/key

Keystroke_Menu_THREE_Two?/key                 ----- -----
  +--> lcd_showstr?/SEEKFREE_18TFT
  +--> lcd_showfloat?/SEEKFREE_18TFT
  +--> KeystrokeLabel_Switch?/key

Keystroke_Menu_THREE_Three?/key               ----- -----
  +--> lcd_showstr?/SEEKFREE_18TFT
  +--> lcd_showfloat?/SEEKFREE_18TFT
  +--> KeystrokeLabel_Switch?/key

Keystroke_Menu_THREE_Four?/key                ----- -----
  +--> lcd_showstr?/SEEKFREE_18TFT
  +--> lcd_showfloat?/SEEKFREE_18TFT
  +--> KeystrokeLabel_Switch?/key

Keystroke_Menu_FOUR?/key                      ----- -----
  +--> lcd_showfloat?/SEEKFREE_18TFT
  +--> Keystroke_Scan?/key
  +--> lcd_clear?/SEEKFREE_18TFT

*** NEW ROOT ********************************

?C_C51STARTUP?2                               ----- -----


L251 LINKER/LOCATER V4.66.93.0                                                        06/26/2023  14:53:20  PAGE 16



PUBLIC SYMBOLS OF MODULE:  .\Out_File\SEEKFREE (board)


      VALUE       CLASS    TYPE      PUBLIC SYMBOL NAME
      =================================================
      00FF9501H   ECODE    ---       ?C?BMOVEPP8?
      00FF9503H   ECODE    ---       ?C?BMOVEPP?
      00FF8B3CH   ECODE    FAR LAB   ?C?CASTF?
      000000FFH   NUMBER   ---       ?C?CODESEG
      00FF8B09H   ECODE    FAR LAB   ?C?FCASTC?
      00FF8B04H   ECODE    FAR LAB   ?C?FCASTI?
      00FF8AFFH   ECODE    FAR LAB   ?C?FCASTL?
      00FF9394H   ECODE    ---       ?C?FP2SERIES?
      00FF88E0H   ECODE    ---       ?C?FPADD?
      00FF8AB9H   ECODE    ---       ?C?FPCMP3?
      00FF8ABBH   ECODE    ---       ?C?FPCMP?
      00FF9297H   ECODE    ---       ?C?FPCONVERT?
      00FF8A38H   ECODE    ---       ?C?FPDIV?
      00FF8C38H   ECODE    ---       ?C?FPGETOPN2?
      00FF8998H   ECODE    ---       ?C?FPMUL?
      00FF8C75H   ECODE    ---       ?C?FPNANRESULT?
      00FF8CA6H   ECODE    ---       ?C?FPNEG?
      00FF8C7DH   ECODE    ---       ?C?FPOVERFLOW?
      00FF8C67H   ECODE    ---       ?C?FPRESULT2?
      00FF8C51H   ECODE    ---       ?C?FPRESULT?
      00FF9351H   ECODE    ---       ?C?FPROUND?
      00FF939EH   ECODE    ---       ?C?FPSERIES?
      00FF88DDH   ECODE    ---       ?C?FPSUB?
      00FF8C7AH   ECODE    ---       ?C?FPUNDERFLOW?
      00FF93F4H   ECODE    ---       ?C?FTNPWR?
      00FF2EC2H   CODE     ---       ?C?INITHDATA
      00FFEDC4H   HCONST   WORD      ?C?INITHDATA_END
      00FF946FH   ECODE    ---       ?C?LIMUL?
      00FF945EH   ECODE    ---       ?C?LMUL?
      00FF8CE1H   ECODE    ---       ?C?PRNFMT?
      00FF942CH   ECODE    ---       ?C?SIDIV?
      00FF94CBH   ECODE    FAR LAB   ?C?SLDIV?
      00FF0000H   CODE     ---       ?C?STARTUP?
      00FF947AH   ECODE    FAR LAB   ?C?ULDIV?
      00FF9478H   ECODE    FAR LAB   ?C?ULIDIV?
      00000001H   NUMBER   ---       ?C?XDATASEG
      00FF0000H   CODE     ---       ?C_STARTUP?
*DEL*:1FFFFFF8H   XDATA    BYTE      ?data_conversion??BYTE
      000108ACH   XDATA    BYTE      ?fifo_init??BYTE
      0001081BH   XDATA    BYTE      ?fifo_read_buffer??BYTE
      0000FFFCH   XDATA    BYTE      ?fifo_write_buffer??BYTE
*DEL*:1FFFFFFAH   XDATA    BYTE      ?iic_init??BYTE
*DEL*:1FFFFFFCH   XDATA    BYTE      ?ips114_showfloat??BYTE
*DEL*:1FFFFFFCH   XDATA    BYTE      ?ips114_showfloat_simspi??BYTE
      000100ADH   XDATA    BYTE      ?lcd_showfloat??BYTE
*DEL*:1FFFFFFCH   XDATA    BYTE      ?lcd_showfloat_simspi??BYTE
      00010132H   XDATA    BYTE      ?number_conversion_ascii??BYTE
*DEL*:1FFFFFFCH   XDATA    BYTE      ?oled_printf_float??BYTE
*DEL*:1FFFFFFCH   XDATA    BYTE      ?oled_printf_float_spi??BYTE
      000100E8H   XDATA    ---       ?printf??BYTE
*DEL*:1FFFFFFAH   XDATA    BYTE      ?pwm_freq??BYTE
      000100ACH   XDATA    BYTE      ?pwm_init??BYTE
      000100A5H   XDATA    BYTE      ?spi_init??BYTE
      000100A8H   XDATA    BYTE      ?uart_init??BYTE
      00010104H   XDATA    BYTE      ?zf_sprintf??BYTE
      00FF8C89H   ECODE    ---       _chkfloat_??
      0001080CH   XDATA    BYTE      _cnt
      0001030FH   XDATA    INT       a_r
      00FF0067H   ECODE    ---       abs??
L251 LINKER/LOCATER V4.66.93.0                                                        06/26/2023  14:53:20  PAGE 17


      0001038FH   XDATA    ---       ad_max
      00010367H   XDATA    ---       ad_min
*SFR* 000000BCH   DATA     BYTE      ADC_CONTR
      00FFE89AH   ECODE    ---       adc_init?
      00FFE8F8H   ECODE    ---       adc_once?
*SFR* 000000BDH   DATA     BYTE      ADC_RES
*SFR* 000000BEH   DATA     BYTE      ADC_RESL
*SFR* 000000DEH   DATA     BYTE      ADCCFG
      00010335H   XDATA    FLOAT     al
      00010311H   XDATA    FLOAT     all
      000107D1H   XDATA    FLOAT     angle_kd
      000107D5H   XDATA    FLOAT     angle_kp
      0001077AH   XDATA    FLOAT     angle_kp1
*DEL*:00000000H   ECODE    ---       ANO_SendData?
      00010343H   XDATA    FLOAT     ar
      0001031DH   XDATA    FLOAT     arr
      00FFD8A0H   ECODE    ---       at24c02_read_byte?
      00FFD90EH   ECODE    ---       at24c02_read_bytes?
      00FFD886H   ECODE    ---       at24c02_write_byte?
      00FFD8B6H   ECODE    ---       at24c02_write_bytes?
*SFR* 000000EFH   DATA     BYTE      AUXINTIF
*SFR* 0000008EH   DATA     BYTE      AUXR
*SFR* 00000097H   DATA     BYTE      AUXR2
      00FFE0A8H   ECODE    ---       bluetooth_ch9141_init?
      00FFE1D3H   ECODE    ---       bluetooth_ch9141_read_buff?
      00FFE0FCH   ECODE    ---       bluetooth_ch9141_send_buff?
      00FFE080H   ECODE    ---       bluetooth_ch9141_uart_callback?
      00FFDA9EH   ECODE    ---       board_init?
      000107EEH   XDATA    ---       BUFF
      000105CCH   XDATA    ---       busy
*SFR* 000000F1H   DATA     BYTE      CANICR
*DEL*:000000A3H   ECODE    ---       ccd_collect?
      00010404H   XDATA    ---       ccd_data
*DEL*:00000000H   ECODE    ---       ccd_init?
*DEL*:00000018H   ECODE    ---       ccd_send_data?
      000107C9H   XDATA    INT       cd_time_1
      00010736H   XDATA    FLOAT     cha_err1
      0001073AH   XDATA    FLOAT     cha_err2
      00FFB417H   ECODE    ---       CHUKU?
      000107B1H   XDATA    INT       CK_count
      000107BBH   XDATA    INT       CK_count2
*SFR* 000000EAH   DATA     BYTE      CKCON
*SFR* 000000E6H   DATA     BYTE      CMPCR1
*SFR* 000000E7H   DATA     BYTE      CMPCR2
      00FFE92AH   ECODE    ---       Control?
      00010880H   XDATA    INT       count
      00010832H   XDATA    INT       count_flag
      000107B5H   XDATA    INT       count_IN
      000107A9H   XDATA    INT       count_OUT
      000107BFH   XDATA    INT       count_R
      00FFE6D0H   ECODE    ---       CRC_CHECK?
      00FFE2A9H   ECODE    ---       ctimer_count_clean?
      00FFE212H   ECODE    ---       ctimer_count_init?
      00FFE25CH   ECODE    ---       ctimer_count_read?
      00FF5879H   ECODE    ---       Cursor?
      00010790H   XDATA    BYTE      CursorRow
      000108DEH   XDATA    INT       d
      00FFE70AH   ECODE    ---       data_conversion?
      000105D1H   XDATA    ---       date_buff
      00FFE9A7H   ECODE    ---       delay_init?
      00FFE9EDH   ECODE    ---       delay_ms?
      00FFEA06H   ECODE    ---       delay_us?
      00000008H   DATA     ---       diangan
      000107E6H   XDATA    FLOAT     dir_kd
      000107EAH   XDATA    FLOAT     dir_kp
L251 LINKER/LOCATER V4.66.93.0                                                        06/26/2023  14:53:20  PAGE 18


      00FFBD00H   ECODE    ---       dir_pid?
      00FF9AC1H   ECODE    ---       DirectionControl?
      00FFDB51H   ECODE    ---       DisableGlobalIRQ?
      00010795H   XDATA    INT       Dispay_Codename
      000108E0H   XDATA    WORD      dl1a_distance_mm
      000108E2H   XDATA    BYTE      dl1a_finsh_flag
      00FF81EDH   ECODE    ---       dl1a_get_distance?
      00FF8262H   ECODE    ---       dl1a_init?
      000108A4H   XDATA    INT       duty1
      000108A6H   XDATA    INT       duty2
      000107C5H   XDATA    INT       e_r1
      000107C7H   XDATA    INT       e_r2
*SFR* 000000A8H.7 DATA     BIT       EA
*SFR* 000000BAH.7 DATA     BIT       EAXFR
      00FFDEE0H   ECODE    ---       eeprom_init?
      00FFDD25H   ECODE    ---       eeprom_trig?
      00FFDB54H   ECODE    ---       EnableGlobalIRQ?
      00010838H   XDATA    FLOAT     encoder
      00FFD117H   ECODE    ---       encoder_angle_simspi?
      00FFD23EH   ECODE    ---       encoder_angle_spi?
      00FFD021H   ECODE    ---       encoder_delay_us?
      00FFD152H   ECODE    ---       encoder_init_simspi?
      00FFD279H   ECODE    ---       encoder_init_spi?
      0001082EH   XDATA    FLOAT     encoder_integral
      00FFD13CH   ECODE    ---       encoder_self4_check?
      00FFD263H   ECODE    ---       encoder_self5_check?
      00FFD0BDH   ECODE    ---       encoder_simspi_r_reg_byte?
      00FFD080H   ECODE    ---       encoder_simspi_w_reg_byte?
      00FFD1E4H   ECODE    ---       encoder_spi_r_reg_byte?
      00FFD1A7H   ECODE    ---       encoder_spi_w_reg_byte?
      00010762H   XDATA    INT       error1
      00010764H   XDATA    INT       error2
      00010758H   XDATA    INT       error_pre
      00010734H   XDATA    INT       error_pre2
*SFR* 000000A8H.4 DATA     BIT       ES
*SFR* 000000A8H.1 DATA     BIT       ET0
*SFR* 000000A8H.3 DATA     BIT       ET1
*SFR* 000000A8H.0 DATA     BIT       EX0
*SFR* 000000A8H.2 DATA     BIT       EX1
*DEL*:00000000H   ECODE    ---       exit_init?
      00FF9129H   ECODE    ---       exp??
      00FFDE1DH   ECODE    ---       extern_iap_write_bytes?
*SFR* 000000D0H.5 DATA     BIT       F0
      00FFC208H   ECODE    ---       fifo_clear?
      00FFC1C2H   ECODE    ---       fifo_end_offset?
      00FFC180H   ECODE    ---       fifo_head_offset?
      00FFC131H   ECODE    ---       fifo_init?
      00FFC384H   ECODE    ---       fifo_read_buffer?
      00FFC22DH   ECODE    ---       fifo_used?
      00FFC242H   ECODE    ---       fifo_write_buffer?
      00010882H   XDATA    INT       flag1
      000107CBH   XDATA    INT       flag_hd_R
      000107A7H   XDATA    INT       flag_hd_Z
      000107AFH   XDATA    INT       flag_hd_Z_2
      000107B7H   XDATA    INT       flag_hding1
      000107B9H   XDATA    INT       flag_hding2
      000107C1H   XDATA    INT       flag_in_round
      000107C3H   XDATA    INT       flag_out_round
      00010347H   XDATA    FLOAT     fSpeedErrorInteg
      000107E5H   XDATA    BYTE      function
      000107CDH   XDATA    BYTE      function1
      000107CEH   XDATA    BYTE      function2
      000107CFH   XDATA    BYTE      function3
      00010748H   XDATA    FLOAT     g_dirControl_D
      00010750H   XDATA    FLOAT     g_dirControl_P
L251 LINKER/LOCATER V4.66.93.0                                                        06/26/2023  14:53:20  PAGE 19


      000103BDH   XDATA    FLOAT     g_f_ExpectSpeed
      000103CFH   XDATA    FLOAT     g_f_Left_RealSpeed
      000102D9H   XDATA    FLOAT     g_f_RealSpeed
      0001035FH   XDATA    FLOAT     g_f_Right_RealSpeed
      000102EDH   XDATA    FLOAT     g_f_SpeedError
      0001038BH   XDATA    FLOAT     g_f_SpeedFilter
      000103D3H   XDATA    FLOAT     g_fDirectionControlOut
      0001034BH   XDATA    ---       g_fDirectionError
      000102DFH   XDATA    ---       g_fDirectionError_dot
      00010319H   XDATA    FLOAT     g_fSpeedControlOut
      00010321H   XDATA    ---       g_fSpeedErrorTemp
      0001030BH   XDATA    FLOAT     g_n_Left_pulse
      0001033DH   XDATA    FLOAT     g_n_Leftpulse
      00010339H   XDATA    FLOAT     g_n_Righpulse
      00010303H   XDATA    FLOAT     g_n_Right_pulse
      000102FFH   XDATA    FLOAT     g_rolControl_D
      00010307H   XDATA    FLOAT     g_rolControl_P
      00010363H   XDATA    FLOAT     g_speedControl_I
      000103C7H   XDATA    FLOAT     g_speedControl_P
      000102C7H   XDATA    ---       g_ValueOfAD
      000102F1H   XDATA    INT       g_ValueOfADError
      000103B3H   XDATA    ---       g_ValueOfADFilter
      00FFB4CBH   ECODE    ---       gpio_mode?
      00FFB45DH   ECODE    ---       gpio_pull_set?
      000102C3H   XDATA    INT       Hall
      000107ADH   XDATA    INT       HD
      00FFB196H   ECODE    ---       Huan_Dao_R?
      00FFB021H   ECODE    ---       Huan_Dao_Z?
*SFR* 000000F6H   DATA     BYTE      IAP_ADDRE
*SFR* 000000C3H   DATA     BYTE      IAP_ADDRH
*SFR* 000000C4H   DATA     BYTE      IAP_ADDRL
*SFR* 000000C5H   DATA     BYTE      IAP_CMD
*SFR* 000000C7H   DATA     BYTE      IAP_CONTR
*SFR* 000000C2H   DATA     BYTE      IAP_DATA
      00FFDE0EH   ECODE    ---       iap_erase_page?
      00FFDD45H   ECODE    ---       iap_get_cmd_state?
      00FFDD41H   ECODE    ---       iap_idle?
      00FFDD3AH   ECODE    ---       iap_init?
      00FFDD6EH   ECODE    ---       iap_read_bytes?
      00FFDD51H   ECODE    ---       iap_set_tps?
*SFR* 000000F5H   DATA     BYTE      IAP_TPS
*SFR* 000000C6H   DATA     BYTE      IAP_TRIG
      00FFDDBEH   ECODE    ---       iap_write_bytes?
      00FFD6A7H   ECODE    ---       icm20602_acc_transition?
      0001084AH   XDATA    INT       icm20602_acc_x
      0001084CH   XDATA    INT       icm20602_acc_y
      0001084EH   XDATA    INT       icm20602_acc_z
      00FFD607H   ECODE    ---       icm20602_get_acc?
      00FFD657H   ECODE    ---       icm20602_get_gyro?
      00FFD6B9H   ECODE    ---       icm20602_gyro_transition?
      00010850H   XDATA    INT       icm20602_gyro_x
      00010852H   XDATA    INT       icm20602_gyro_y
      00010854H   XDATA    INT       icm20602_gyro_z
      00FFD6CDH   ECODE    ---       icm20602_init?
*SFR* 000000A8H   DATA     BYTE      IE
*SFR* 000000AFH   DATA     BYTE      IE2
      00FFC7D2H   ECODE    ---       iic_change_pin?
      00FFC4DFH   ECODE    ---       iic_delay_us?
      00FFC5D5H   ECODE    ---       iic_init?
      00FFC69EH   ECODE    ---       iic_read_reg?
      00FFC729H   ECODE    ---       iic_read_reg_bytes?
      00FFC636H   ECODE    ---       iic_write_reg?
      00FFCC83H   ECODE    ---       imu660ra_acc_transition?
      00010856H   XDATA    INT       imu660ra_acc_x
      00010858H   XDATA    INT       imu660ra_acc_y
L251 LINKER/LOCATER V4.66.93.0                                                        06/26/2023  14:53:20  PAGE 20


      0001085AH   XDATA    INT       imu660ra_acc_z
      00FF00A7H   CODE     ---       imu660ra_config_file
      00FFCBE3H   ECODE    ---       imu660ra_get_acc?
      00FFCC33H   ECODE    ---       imu660ra_get_gyro?
      00FFCC95H   ECODE    ---       imu660ra_gyro_transition?
      0001085CH   XDATA    INT       imu660ra_gyro_x
      0001085EH   XDATA    INT       imu660ra_gyro_y
      00010860H   XDATA    INT       imu660ra_gyro_z
      00FFCCA9H   ECODE    ---       imu660ra_init?
      00FFBBD4H   ECODE    ---       imu963ra_acc_transition?
      0001080DH   XDATA    INT       imu963ra_acc_x
      0001080FH   XDATA    INT       imu963ra_acc_y
      00010811H   XDATA    INT       imu963ra_acc_z
      00FFBACDH   ECODE    ---       imu963ra_get_acc?
      00FFBB1DH   ECODE    ---       imu963ra_get_gyro?
      00FFBB6DH   ECODE    ---       imu963ra_get_mag?
      00FFBBD7H   ECODE    ---       imu963ra_gyro_transition?
      00010819H   XDATA    INT       imu963ra_gyro_x
      0001081BH   XDATA    INT       imu963ra_gyro_y
      0001081DH   XDATA    INT       imu963ra_gyro_z
      00FFBBEEH   ECODE    ---       imu963ra_init?
      00FFBBDAH   ECODE    ---       imu963ra_mag_transition?
      00010813H   XDATA    INT       imu963ra_mag_x
      00010815H   XDATA    INT       imu963ra_mag_y
      00010817H   XDATA    INT       imu963ra_mag_z
      00FF97C5H   ECODE    ---       InductorNormal?
      00FFC8FFH   ECODE    ---       INT0_Isr?
      00FFC906H   ECODE    ---       INT1_Isr?
      00FFC907H   ECODE    ---       INT2_Isr?
      00FFC90FH   ECODE    ---       INT3_Isr?
      00FFC917H   ECODE    ---       INT4_Isr?
*SFR* 0000008FH   DATA     BYTE      INTCLKO
*SFR* 000000B8H   DATA     BYTE      IP
*SFR* 000000B5H   DATA     BYTE      IP2
*SFR* 000000B6H   DATA     BYTE      IP2H
*SFR* 000000DFH   DATA     BYTE      IP3
*SFR* 000000EEH   DATA     BYTE      IP3H
*SFR* 000000B7H   DATA     BYTE      IPH
      00FF72A6H   ECODE    ---       ips114_clear?
      00FF6A33H   ECODE    ---       ips114_clear_simspi?
      00FF72EDH   ECODE    ---       ips114_drawpoint?
      00FF6A7AH   ECODE    ---       ips114_drawpoint_simspi?
      00FF709FH   ECODE    ---       ips114_init?
      00FF6853H   ECODE    ---       ips114_init_simspi?
      00FF724FH   ECODE    ---       ips114_set_region?
      00FF69E0H   ECODE    ---       ips114_set_region_simspi?
      00FF7302H   ECODE    ---       ips114_showchar?
      00FF6A8FH   ECODE    ---       ips114_showchar_simspi?
      00FF7792H   ECODE    ---       ips114_showfloat?
      00FF6F2BH   ECODE    ---       ips114_showfloat_simspi?
      00FF7537H   ECODE    ---       ips114_showint16?
      00FF6CCCH   ECODE    ---       ips114_showint16_simspi?
      00FF76CFH   ECODE    ---       ips114_showint32?
      00FF6E68H   ECODE    ---       ips114_showint32_simspi?
      00FF73EDH   ECODE    ---       ips114_showint8?
      00FF6B7AH   ECODE    ---       ips114_showint8_simspi?
      00FF738AH   ECODE    ---       ips114_showstr?
      00FF6B17H   ECODE    ---       ips114_showstr_simspi?
      00FF7637H   ECODE    ---       ips114_showuint16?
      00FF6DD0H   ECODE    ---       ips114_showuint16_simspi?
      00FF74B5H   ECODE    ---       ips114_showuint8?
      00FF6C46H   ECODE    ---       ips114_showuint8_simspi?
      00FF7071H   ECODE    ---       ips114_writeData?
      00FF707CH   ECODE    ---       ips114_writedata_16bit?
      00FF67FEH   ECODE    ---       ips114_writeData_simspi?
L251 LINKER/LOCATER V4.66.93.0                                                        06/26/2023  14:53:20  PAGE 21


      00FF6827H   ECODE    ---       ips114_writeDatai_16bit_simspi?
      00FF7066H   ECODE    ---       ips114_writeIndex?
      00FF67D5H   ECODE    ---       ips114_writeIndex_simspi?
*SFR* 0000009DH   DATA     BYTE      IRCBAND
*SFR* 0000009FH   DATA     BYTE      IRTRIM
*SFR* 00000088H.0 DATA     BIT       IT0
*SFR* 00000088H.2 DATA     BIT       IT1
      00010782H   XDATA    BYTE      key1_count
      0001079BH   XDATA    BYTE      key1_flag
      00010788H   XDATA    BYTE      key1_last_status
      0001077EH   XDATA    BYTE      key1_status
      00010783H   XDATA    BYTE      key2_count
      0001079CH   XDATA    BYTE      key2_flag
      00010789H   XDATA    BYTE      key2_last_status
      0001077FH   XDATA    BYTE      key2_status
      00010784H   XDATA    BYTE      key3_count
      0001079DH   XDATA    BYTE      key3_flag
      0001078AH   XDATA    BYTE      key3_last_status
      00010780H   XDATA    BYTE      key3_status
      00010785H   XDATA    BYTE      key4_count
      0001079EH   XDATA    BYTE      key4_flag
      0001078BH   XDATA    BYTE      key4_last_status
      00010781H   XDATA    BYTE      key4_status
      00FF57C0H   ECODE    ---       Keystroke_Menu?
      00FF664BH   ECODE    ---       Keystroke_Menu_FOUR?
      00FF5AA0H   ECODE    ---       Keystroke_Menu_HOME?
      00FF5B3BH   ECODE    ---       Keystroke_Menu_ONE?
      00FF5F21H   ECODE    ---       Keystroke_Menu_ONE_Four?
      00FF5C58H   ECODE    ---       Keystroke_Menu_ONE_One?
      00FF5E33H   ECODE    ---       Keystroke_Menu_ONE_Three?
      00FF5D45H   ECODE    ---       Keystroke_Menu_ONE_Two?
      00FF6176H   ECODE    ---       Keystroke_Menu_THREE?
      00FF655DH   ECODE    ---       Keystroke_Menu_THREE_Four?
      00FF6293H   ECODE    ---       Keystroke_Menu_THREE_One?
      00FF646FH   ECODE    ---       Keystroke_Menu_THREE_Three?
      00FF6381H   ECODE    ---       Keystroke_Menu_THREE_Two?
      00FF6013H   ECODE    ---       Keystroke_Menu_TWO?
      00FF60DCH   ECODE    ---       Keystroke_Menu_TWO_One?
      00FF56C6H   ECODE    ---       Keystroke_Scan?
      0001078EH   XDATA    BYTE      KeystrokeLabel
      00FF592AH   ECODE    ---       KeystrokeLabel_Switch?
      00FFAD0DH   ECODE    ---       knn?
      00010746H   XDATA    INT       last_err1
      0001074EH   XDATA    INT       last_err2
      000102FBH   XDATA    INT       last_PWMServo
      00FF4D92H   ECODE    ---       lcd_clear?
      00FF448EH   ECODE    ---       lcd_clear_simspi?
      00FF500DH   ECODE    ---       lcd_drawpoint?
      00FF4708H   ECODE    ---       lcd_drawpoint_simspi?
      00FF4DBFH   ECODE    ---       lcd_init?
      00FF44BBH   ECODE    ---       lcd_init_simspi?
      00FF4D2FH   ECODE    ---       lcd_set_region?
      00FF442FH   ECODE    ---       lcd_set_region_simspi?
      00FF5022H   ECODE    ---       lcd_showchar?
      00FF471DH   ECODE    ---       lcd_showchar_simspi?
      00FF54C0H   ECODE    ---       lcd_showfloat?
      00FF4BBBH   ECODE    ---       lcd_showfloat_simspi?
      00FF5261H   ECODE    ---       lcd_showint16?
      00FF495CH   ECODE    ---       lcd_showint16_simspi?
      00FF53FDH   ECODE    ---       lcd_showint32?
      00FF4AF8H   ECODE    ---       lcd_showint32_simspi?
      00FF510FH   ECODE    ---       lcd_showint8?
      00FF480AH   ECODE    ---       lcd_showint8_simspi?
      00FF50ACH   ECODE    ---       lcd_showstr?
      00FF47A7H   ECODE    ---       lcd_showstr_simspi?
L251 LINKER/LOCATER V4.66.93.0                                                        06/26/2023  14:53:20  PAGE 22


      00FF5365H   ECODE    ---       lcd_showuint16?
      00FF4A60H   ECODE    ---       lcd_showuint16_simspi?
      00FF51DBH   ECODE    ---       lcd_showuint8?
      00FF48D6H   ECODE    ---       lcd_showuint8_simspi?
      00FF4D01H   ECODE    ---       lcd_writeData?
      00FF4D0CH   ECODE    ---       lcd_writedata_16bit?
      00FF4403H   ECODE    ---       lcd_writeData_16bit_simspi?
      00FF43DAH   ECODE    ---       lcd_writeData_simspi?
      00FF4CF6H   ECODE    ---       lcd_writeIndex?
      00FF43B1H   ECODE    ---       lcd_writeIndex_simspi?
*DEL*:00000000H   ECODE    ---       LCDLight_adc?
*DEL*:000001C2H   ECODE    ---       LCDLight_star2?
      000103D9H   XDATA    INT       leftP
      000102C1H   XDATA    INT       leftS
      000102C5H   XDATA    INT       leftV
*SFR* 000000F9H   DATA     BYTE      LINICR
      00FF91BCH   ECODE    FAR LAB   log??
      00FFE7B6H   ECODE    ---       main?
      00FFEA75H   ECODE    ---       memcpy??
      00FF0027H   ECODE    ---       memset??
      000107D0H   XDATA    BYTE      menu_flag
      0001078FH   XDATA    BYTE      MenuNextFlag
      00010315H   XDATA    FLOAT     mid
      000103C5H   XDATA    INT       middle
      00010754H   XDATA    FLOAT     Motor_Ki_L
      0001075AH   XDATA    FLOAT     Motor_Ki_R
      0001075EH   XDATA    FLOAT     Motor_Kp_L
      0001076EH   XDATA    FLOAT     Motor_Kp_R
      00010862H   XDATA    INT       mpu6050_acc_x
      00010864H   XDATA    INT       mpu6050_acc_y
      00010866H   XDATA    INT       mpu6050_acc_z
      00FFCF7BH   ECODE    ---       mpu6050_get_accdata?
      00FFCFCEH   ECODE    ---       mpu6050_get_gyro?
      00010868H   XDATA    INT       mpu6050_gyro_x
      0001086AH   XDATA    INT       mpu6050_gyro_y
      0001086CH   XDATA    INT       mpu6050_gyro_z
      00FFCF1EH   ECODE    ---       mpu6050_init?
      00FFCE6BH   ECODE    ---       mpu6050_simiic_read_reg?
      00FFCE94H   ECODE    ---       mpu6050_simiic_read_regs?
      00FFC118H   ECODE    ---       mpu660_PID?
      00FFA575H   ECODE    ---       number_conversion_ascii?
*DEL*:00000000H   ECODE    ---       NVIC_SetPriority?
      00FFB335H   ECODE    ---       obstacle?
      00FF2C87H   CODE     ---       oled_6x8
      00FF20A7H   CODE     ---       oled_8x16
      00FF30CEH   ECODE    ---       oled_clrpixel?
      00FF3B2EH   ECODE    ---       oled_clrpixel_spi?
      00FF3514H   ECODE    ---       oled_dis_bmp?
      00FF3F72H   ECODE    ---       oled_dis_bmp_spi?
      00FF305FH   ECODE    ---       oled_fill?
      00FF3AC1H   ECODE    ---       oled_fill_spi?
      00FF2F49H   ECODE    ---       oled_hexascii?
      00FF398CH   ECODE    ---       oled_hexascii_spi?
      00FF2F77H   ECODE    ---       oled_init?
      00FF39BAH   ECODE    ---       oled_init_spi?
      00FF32C0H   ECODE    ---       oled_int16?
      00FF3D1EH   ECODE    ---       oled_int16_spi?
      00FF30FFH   ECODE    ---       oled_p6x8str?
      00FF3B5DH   ECODE    ---       oled_p6x8str_spi?
      00FF31AAH   ECODE    ---       oled_p8x16str?
      00FF3C08H   ECODE    ---       oled_p8x16str_spi?
      00FF38B9H   ECODE    ---       oled_print_chinese?
      00FF42F4H   ECODE    ---       oled_print_chinese_spi?
      00FF33D9H   ECODE    ---       oled_printf_float?
      00FF3E37H   ECODE    ---       oled_printf_float_spi?
L251 LINKER/LOCATER V4.66.93.0                                                        06/26/2023  14:53:20  PAGE 23


      00FF3316H   ECODE    ---       oled_printf_int32?
      00FF3D74H   ECODE    ---       oled_printf_int32_spi?
      00FF3096H   ECODE    ---       oled_putpixel?
      00FF3AF8H   ECODE    ---       oled_putpixel_spi?
      00FF3039H   ECODE    ---       oled_set_pos?
      00FF3A9DH   ECODE    ---       oled_set_pos_spi?
      00FF3299H   ECODE    ---       oled_uint16?
      00FF3CF7H   ECODE    ---       oled_uint16_spi?
      00FF2F20H   ECODE    ---       oled_wrcmd?
      00FF3981H   ECODE    ---       oled_wrcmd_spi?
      00FF2EF7H   ECODE    ---       oled_wrdat?
      00FF3976H   ECODE    ---       oled_wrdat_spi?
*SFR* 00000080H   DATA     BYTE      P0
*SFR* 00000080H.7 DATA     BIT       P07
*SFR* 00000094H   DATA     BYTE      P0M0
*SFR* 00000093H   DATA     BYTE      P0M1
*SFR* 00000090H   DATA     BYTE      P1
*SFR* 00000092H   DATA     BYTE      P1M0
*SFR* 00000091H   DATA     BYTE      P1M1
*SFR* 000000A0H   DATA     BYTE      P2
*SFR* 000000A0H.0 DATA     BIT       P20
*SFR* 000000A0H.1 DATA     BIT       P21
*SFR* 000000A0H.2 DATA     BIT       P22
*SFR* 000000A0H.3 DATA     BIT       P23
*SFR* 000000A0H.4 DATA     BIT       P24
*SFR* 000000A0H.5 DATA     BIT       P25
*SFR* 000000A0H.6 DATA     BIT       P26
*SFR* 000000A0H.7 DATA     BIT       P27
*SFR* 00000096H   DATA     BYTE      P2M0
*SFR* 00000095H   DATA     BYTE      P2M1
*SFR* 000000B0H   DATA     BYTE      P3
*SFR* 000000B0H.2 DATA     BIT       P32
*SFR* 000000B0H.3 DATA     BIT       P33
*SFR* 000000B0H.5 DATA     BIT       P35
*SFR* 000000B2H   DATA     BYTE      P3M0
*SFR* 000000B1H   DATA     BYTE      P3M1
*SFR* 000000C0H   DATA     BYTE      P4
*SFR* 000000C0H.0 DATA     BIT       P40
*SFR* 000000C0H.1 DATA     BIT       P41
*SFR* 000000C0H.2 DATA     BIT       P42
*SFR* 000000C0H.3 DATA     BIT       P43
*SFR* 000000C0H.5 DATA     BIT       P45
*SFR* 000000C0H.7 DATA     BIT       P47
*SFR* 000000B4H   DATA     BYTE      P4M0
*SFR* 000000B3H   DATA     BYTE      P4M1
*SFR* 000000C8H   DATA     BYTE      P5
*SFR* 000000C8H.2 DATA     BIT       P52
*SFR* 000000C8H.3 DATA     BIT       P53
*SFR* 000000CAH   DATA     BYTE      P5M0
*SFR* 000000C9H   DATA     BYTE      P5M1
*SFR* 000000E8H   DATA     BYTE      P6
*SFR* 000000E8H.0 DATA     BIT       P60
*SFR* 000000E8H.1 DATA     BIT       P61
*SFR* 000000E8H.3 DATA     BIT       P63
*SFR* 000000E8H.4 DATA     BIT       P64
*SFR* 000000E8H.5 DATA     BIT       P65
*SFR* 000000E8H.7 DATA     BIT       P67
*SFR* 000000CCH   DATA     BYTE      P6M0
*SFR* 000000CBH   DATA     BYTE      P6M1
*SFR* 000000F8H   DATA     BYTE      P7
*SFR* 000000F8H.0 DATA     BIT       P70
*SFR* 000000F8H.1 DATA     BIT       P71
*SFR* 000000F8H.2 DATA     BIT       P72
*SFR* 000000F8H.3 DATA     BIT       P73
*SFR* 000000F8H.4 DATA     BIT       P74
L251 LINKER/LOCATER V4.66.93.0                                                        06/26/2023  14:53:20  PAGE 24


*SFR* 000000F8H.5 DATA     BIT       P75
*SFR* 000000F8H.6 DATA     BIT       P76
*SFR* 000000E2H   DATA     BYTE      P7M0
*SFR* 000000E1H   DATA     BYTE      P7M1
*SFR* 000000A2H   DATA     BYTE      P_SW1
*SFR* 000000BAH   DATA     BYTE      P_SW2
*SFR* 000000BBH   DATA     BYTE      P_SW3
      00010793H   XDATA    BYTE      param1_1
      00010794H   XDATA    BYTE      param1_2
      00010791H   XDATA    BYTE      param3
      00010792H   XDATA    BYTE      param4
      00010844H   XDATA    INT       park1
      00010846H   XDATA    INT       park2
      00010848H   XDATA    INT       park3
*SFR* 00000087H   DATA     BYTE      PCON
      00FFE2FAH   ECODE    ---       pit_timer_ms?
      00FFE5D1H   ECODE    ---       pow??
      00010772H   XDATA    FLOAT     price_PWM
      00FF8B79H   ECODE    FAR LAB   printf?
      00FFA60BH   ECODE    ---       printf_reverse_order?
*SFR* 000000D0H   DATA     BYTE      PSW
      00FFDB42H   ECODE    ---       putchar?
      00FFEE75H   HCONST   ---       PWM_ARR_ADDR
      00FFEE7DH   HCONST   ---       PWM_CCER_ADDR
      00FFEE8DH   HCONST   ---       PWM_CCMR_ADDR
      00FFEE55H   HCONST   ---       PWM_CCR_ADDR
      00FFA364H   ECODE    ---       pwm_duty?
      00FFA431H   ECODE    ---       pwm_freq?
      00FFA04CH   ECODE    ---       pwm_init?
      00FF9DAAH   ECODE    ---       pwm_set_gpio?
      000102F7H   XDATA    FLOAT     Ratio_Encoder_Left
      000102F3H   XDATA    FLOAT     Ratio_Encoder_Righ
      00FF952AH   ECODE    ---       Read_ADC?
      00FFEA21H   ECODE    ---       read_encoder?
      00FFE043H   ECODE    ---       read_float?
      00FFDFB6H   ECODE    ---       read_int?
      00FFC563H   ECODE    ---       recv_ack?
      00FFC574H   ECODE    ---       recv_data?
      000103C1H   XDATA    INT       rightP
      000103CDH   XDATA    INT       rightS
      000103D7H   XDATA    INT       rightV
      000108A3H   XDATA    BYTE      Ring_state
      0001083CH   XDATA    INT       rk_time1
      0001083EH   XDATA    INT       rk_time2
      00010840H   XDATA    INT       rk_time3
      000107BDH   XDATA    INT       roundcount
      000107ABH   XDATA    INT       roundcount2
*SFR* 000000FFH   DATA     BYTE      RSTCFG
      00010842H   XDATA    INT       ruku
      00FFAF54H   ECODE    ---       RuKu?
*SFR* 0000009BH   DATA     BYTE      S2BUF
*SFR* 0000009AH   DATA     BYTE      S2CON
*SFR* 000000ADH   DATA     BYTE      S3BUF
*SFR* 000000ACH   DATA     BYTE      S3CON
*SFR* 000000FEH   DATA     BYTE      S4BUF
*SFR* 000000FDH   DATA     BYTE      S4CON
      000102EBH   XDATA    INT       sancha_yuzhi
      00010341H   XDATA    INT       sanchayou
      00FFDFF3H   ECODE    ---       save_float?
      00FFDF66H   ECODE    ---       save_int?
*SFR* 00000099H   DATA     BYTE      SBUF
*SFR* 00000098H   DATA     BYTE      SCON
      000102BFH   XDATA    INT       second_leftp
      000103C3H   XDATA    INT       second_rightp
      00FFC591H   ECODE    ---       send_ack?
L251 LINKER/LOCATER V4.66.93.0                                                        06/26/2023  14:53:20  PAGE 25


      00FFC54BH   ECODE    ---       send_data?
      00FFC5AAH   ECODE    ---       send_nak?
      000108DCH   XDATA    INT       servo
      00FFD96AH   ECODE    ---       set_clk?
      00FFD0F1H   ECODE    ---       set_zero_position_simspi?
      00FFD218H   ECODE    ---       set_zero_position_spi?
      00FF55FBH   ECODE    ---       showimage?
      00FFD062H   ECODE    ---       simspi_r_reg_byte?
      00FFD046H   ECODE    ---       simspi_w_reg_byte?
      00FFD027H   ECODE    ---       simspi_wr_byte?
*SFR* 000000CEH   DATA     BYTE      SPCTL
*SFR* 000000CFH   DATA     BYTE      SPDAT
      0001074CH   XDATA    INT       speed
      00010834H   XDATA    INT       speed1
      00010836H   XDATA    INT       speed2
      000107D9H   XDATA    FLOAT     speed_d
      000107DDH   XDATA    FLOAT     speed_i
      000107E1H   XDATA    FLOAT     speed_p
      00FFBFBCH   ECODE    ---       speedL_pid?
      00FFC06AH   ECODE    ---       speedR_pid?
      00FFDD08H   ECODE    ---       spi_change_mode?
      00FFDC51H   ECODE    ---       spi_change_pin?
      00FFDB57H   ECODE    ---       spi_init?
      00FFDC43H   ECODE    ---       spi_mosi?
      00FFD189H   ECODE    ---       spi_r_reg_byte?
      00FFD16DH   ECODE    ---       spi_w_reg_byte?
      00FFD164H   ECODE    ---       spi_wr_byte?
*SFR* 000000CDH   DATA     BYTE      SPSTAT
      00FF8BA6H   ECODE    ---       sqrt??
      00010884H   XDATA    INT       start1
      00FFC53AH   ECODE    ---       start?
      00FFC5C4H   ECODE    ---       stop?
      0001078CH   XDATA    BYTE      sw1_status
      0001078DH   XDATA    BYTE      sw2_status
      000108A8H   XDATA    LONG      sys_clk
      000103CBH   XDATA    INT       t
*SFR* 000000D6H   DATA     BYTE      T2H
*SFR* 000000D7H   DATA     BYTE      T2L
*SFR* 000000D4H   DATA     BYTE      T3H
*SFR* 000000D5H   DATA     BYTE      T3L
*SFR* 000000D2H   DATA     BYTE      T4H
*SFR* 000000D3H   DATA     BYTE      T4L
*SFR* 000000DDH   DATA     BYTE      T4T3M
      0001073EH   XDATA    FLOAT     Target_speed1
      00010742H   XDATA    FLOAT     Target_speed2
      00FFBFBBH   ECODE    ---       Target_speed?
*SFR* 00000088H   DATA     BYTE      TCON
      00010797H   XDATA    BYTE      test1
      00010798H   XDATA    BYTE      test2
      00010799H   XDATA    BYTE      test3
      0001079AH   XDATA    BYTE      test4
      00FF2697H   CODE     ---       tft_ascii
*SFR* 0000008CH   DATA     BYTE      TH0
*SFR* 0000008DH   DATA     BYTE      TH1
      00010786H   XDATA    INT       This_Codename
*SFR* 0000008AH   DATA     BYTE      TL0
*SFR* 0000008BH   DATA     BYTE      TL1
      00FFC91FH   ECODE    ---       TM0_Isr?
      00FFC920H   ECODE    ---       TM1_Isr?
      00FFC921H   ECODE    ---       TM2_Isr?
      00FFC929H   ECODE    ---       TM3_Isr?
      00FFC931H   ECODE    ---       TM4_Isr?
*SFR* 00000089H   DATA     BYTE      TMOD
*SFR* 00000088H.4 DATA     BIT       TR0
*SFR* 00000088H.6 DATA     BIT       TR1
L251 LINKER/LOCATER V4.66.93.0                                                        06/26/2023  14:53:20  PAGE 26


      00010403H   XDATA    BYTE      tsl1401_finish_flag
      00FFC801H   ECODE    ---       UART1_Isr?
      00010504H   XDATA    ---       uart1_rx_buff
      00010568H   XDATA    ---       uart1_tx_buff
      00FFC845H   ECODE    ---       UART2_Isr?
      00FFC86BH   ECODE    ---       UART3_Isr?
      00FFC891H   ECODE    ---       UART4_Isr?
      00FFD2AAH   ECODE    ---       uart_init?
      00FFD4CAH   ECODE    ---       uart_putbuff?
      00FFD476H   ECODE    ---       uart_putchar?
      00FFD4FFH   ECODE    ---       uart_putstr?
      000102DDH   XDATA    WORD      ui_ValueOfADError
*SFR* 000000F4H   DATA     BYTE      USBCON
      00010766H   XDATA    FLOAT     v_angle
      0001086EH   XDATA    ---       virtual_scope_data
*SFR* 000000A6H   DATA     BYTE      VRTRIM
      00FFC4F4H   ECODE    ---       wait?
*SFR* 000000C1H   DATA     BYTE      WDT_CONTR
      00FFE395H   ECODE    ---       wireless_ch573_callback?
      00FFE462H   ECODE    ---       wireless_ch573_init?
      00FFE423H   ECODE    ---       wireless_ch573_read_buff?
      00FFE3BDH   ECODE    ---       wireless_ch573_send_buff?
      000108E6H   XDATA    INT       wireless_type
      00FFE4B6H   ECODE    ---       wireless_uart_callback?
      00FFE57FH   ECODE    ---       wireless_uart_init?
      00FFE540H   ECODE    ---       wireless_uart_read_buff?
      00FFE4DEH   ECODE    ---       wireless_uart_send_buff?
*SFR* 000000E9H   DATA     BYTE      WTST
      000107B3H   XDATA    INT       XJ
      000108ACH   XDATA    WORD      zf_delay_ms
      000108AEH   XDATA    WORD      zf_delay_us
      00FFA649H   ECODE    ---       zf_sprintf?
      000102FDH   XDATA    INT       zhidaoflag
      0001076AH   XDATA    FLOAT     ZX_kd
      00010776H   XDATA    FLOAT     ZX_kp



SYMBOL TABLE OF MODULE:  .\Out_File\SEEKFREE (board)

      VALUE       REP       CLASS    TYPE      SYMBOL NAME
      ====================================================
      ---         MODULE    ---      ---       board
      00FFDB54H   PUBLIC    ECODE    ---       EnableGlobalIRQ?
      00FFDA9EH   PUBLIC    ECODE    ---       board_init?
      00FFD96AH   PUBLIC    ECODE    ---       set_clk?
      00FFDB51H   PUBLIC    ECODE    ---       DisableGlobalIRQ?
      00FFDB42H   PUBLIC    ECODE    ---       putchar?
      000108A8H   PUBLIC    XDATA    LONG      sys_clk
      00000094H   SFRSYM    DATA     BYTE      P0M0
      000000D0H   SFRSYM    DATA     BYTE      PSW
      000000BAH.7 SFRSYM    DATA     BIT       EAXFR
      0000009DH   SFRSYM    DATA     BYTE      IRCBAND
      00000097H   SFRSYM    DATA     BYTE      AUXR2
      000000EAH   SFRSYM    DATA     BYTE      CKCON
      000000EFH   SFRSYM    DATA     BYTE      AUXINTIF
      000000FDH   SFRSYM    DATA     BYTE      S4CON
      000000ACH   SFRSYM    DATA     BYTE      S3CON
      0000009AH   SFRSYM    DATA     BYTE      S2CON
      000000A6H   SFRSYM    DATA     BYTE      VRTRIM
      000000B7H   SFRSYM    DATA     BYTE      IPH
      000000CDH   SFRSYM    DATA     BYTE      SPSTAT
      000000DDH   SFRSYM    DATA     BYTE      T4T3M
      0000009FH   SFRSYM    DATA     BYTE      IRTRIM
      000000C1H   SFRSYM    DATA     BYTE      WDT_CONTR
L251 LINKER/LOCATER V4.66.93.0                                                        06/26/2023  14:53:20  PAGE 27


      000000E9H   SFRSYM    DATA     BYTE      WTST
      000000DFH   SFRSYM    DATA     BYTE      IP3
      000000F4H   SFRSYM    DATA     BYTE      USBCON
      000000B5H   SFRSYM    DATA     BYTE      IP2
      000000FFH   SFRSYM    DATA     BYTE      RSTCFG
      000000F9H   SFRSYM    DATA     BYTE      LINICR
      0000008EH   SFRSYM    DATA     BYTE      AUXR
      000000AFH   SFRSYM    DATA     BYTE      IE2
      00000088H   SFRSYM    DATA     BYTE      TCON
      00000089H   SFRSYM    DATA     BYTE      TMOD
      00000098H   SFRSYM    DATA     BYTE      SCON
      000000F1H   SFRSYM    DATA     BYTE      CANICR
      00000087H   SFRSYM    DATA     BYTE      PCON
      000000BCH   SFRSYM    DATA     BYTE      ADC_CONTR
      000000E7H   SFRSYM    DATA     BYTE      CMPCR2
      000000E6H   SFRSYM    DATA     BYTE      CMPCR1
      000000DEH   SFRSYM    DATA     BYTE      ADCCFG
      000000B8H   SFRSYM    DATA     BYTE      IP
      0000008FH   SFRSYM    DATA     BYTE      INTCLKO
      000000EEH   SFRSYM    DATA     BYTE      IP3H
      000000B6H   SFRSYM    DATA     BYTE      IP2H
      000000A8H   SFRSYM    DATA     BYTE      IE
      000000BBH   SFRSYM    DATA     BYTE      P_SW3
      000000BAH   SFRSYM    DATA     BYTE      P_SW2
      000000A2H   SFRSYM    DATA     BYTE      P_SW1
      000000CEH   SFRSYM    DATA     BYTE      SPCTL
      000000F8H   SFRSYM    DATA     BYTE      P7
      000000A8H.7 SFRSYM    DATA     BIT       EA
      000000E1H   SFRSYM    DATA     BYTE      P7M1
      000000E8H   SFRSYM    DATA     BYTE      P6
      000000C8H   SFRSYM    DATA     BYTE      P5
      000000CBH   SFRSYM    DATA     BYTE      P6M1
      000000E2H   SFRSYM    DATA     BYTE      P7M0
      000000C0H   SFRSYM    DATA     BYTE      P4
      000000C9H   SFRSYM    DATA     BYTE      P5M1
      000000CCH   SFRSYM    DATA     BYTE      P6M0
      000000B0H   SFRSYM    DATA     BYTE      P3
      000000B3H   SFRSYM    DATA     BYTE      P4M1
      000000CAH   SFRSYM    DATA     BYTE      P5M0
      000000A0H   SFRSYM    DATA     BYTE      P2
      000000B1H   SFRSYM    DATA     BYTE      P3M1
      000000B4H   SFRSYM    DATA     BYTE      P4M0
      00000090H   SFRSYM    DATA     BYTE      P1
      00000095H   SFRSYM    DATA     BYTE      P2M1
      000000B2H   SFRSYM    DATA     BYTE      P3M0
      00000080H   SFRSYM    DATA     BYTE      P0
      00000091H   SFRSYM    DATA     BYTE      P1M1
      00000096H   SFRSYM    DATA     BYTE      P2M0
      00000092H   SFRSYM    DATA     BYTE      P1M0
      00000093H   SFRSYM    DATA     BYTE      P0M1

      00FFD96AH   BLOCK     ECODE    ---       LVL=0
      00FFD96AH   LINE      ECODE    ---       #43
      00FFD96AH   LINE      ECODE    ---       #46
      00FFD96DH   LINE      ECODE    ---       #48
      00FFD983H   LINE      ECODE    ---       #51
      00FFD990H   LINE      ECODE    ---       #52
      00FFD994H   LINE      ECODE    ---       #53
      00FFD994H   LINE      ECODE    ---       #54
      00FFD994H   LINE      ECODE    ---       #55
      00FFD994H   LINE      ECODE    ---       #56
      00FFD996H   LINE      ECODE    ---       #57
      00FFD9A2H   LINE      ECODE    ---       #60
      00FFD9AFH   LINE      ECODE    ---       #61
      00FFD9B3H   LINE      ECODE    ---       #62
L251 LINKER/LOCATER V4.66.93.0                                                        06/26/2023  14:53:20  PAGE 28


      00FFD9B3H   LINE      ECODE    ---       #63
      00FFD9B3H   LINE      ECODE    ---       #64
      00FFD9B3H   LINE      ECODE    ---       #65
      00FFD9B5H   LINE      ECODE    ---       #66
      00FFD9C1H   LINE      ECODE    ---       #69
      00FFD9CEH   LINE      ECODE    ---       #70
      00FFD9D2H   LINE      ECODE    ---       #71
      00FFD9D2H   LINE      ECODE    ---       #72
      00FFD9D2H   LINE      ECODE    ---       #73
      00FFD9D2H   LINE      ECODE    ---       #74
      00FFD9D4H   LINE      ECODE    ---       #75
      00FFD9E0H   LINE      ECODE    ---       #79
      00FFD9EDH   LINE      ECODE    ---       #80
      00FFD9F1H   LINE      ECODE    ---       #81
      00FFD9F1H   LINE      ECODE    ---       #82
      00FFD9F1H   LINE      ECODE    ---       #83
      00FFD9F1H   LINE      ECODE    ---       #84
      00FFD9F3H   LINE      ECODE    ---       #85
      00FFD9FFH   LINE      ECODE    ---       #88
      00FFDA0CH   LINE      ECODE    ---       #89
      00FFDA19H   LINE      ECODE    ---       #90
      00FFDA22H   LINE      ECODE    ---       #91
      00FFDA25H   LINE      ECODE    ---       #92
      00FFDA25H   LINE      ECODE    ---       #93
      00FFDA27H   LINE      ECODE    ---       #94
      00FFDA33H   LINE      ECODE    ---       #97
      00FFDA40H   LINE      ECODE    ---       #98
      00FFDA4DH   LINE      ECODE    ---       #99
      00FFDA56H   LINE      ECODE    ---       #100
      00FFDA59H   LINE      ECODE    ---       #101
      00FFDA5DH   LINE      ECODE    ---       #102
      00FFDA5FH   LINE      ECODE    ---       #105
      00FFDA69H   LINE      ECODE    ---       #107
      00FFDA76H   LINE      ECODE    ---       #108
      00FFDA83H   LINE      ECODE    ---       #109
      00FFDA8CH   LINE      ECODE    ---       #110
      00FFDA8FH   LINE      ECODE    ---       #111
      00FFDA93H   LINE      ECODE    ---       #112
      00FFDA93H   LINE      ECODE    ---       #114
      00FFDA9DH   LINE      ECODE    ---       #115
      ---         BLOCKEND  ---      ---       LVL=0

      00FFDA9EH   BLOCK     ECODE    ---       LVL=0
      00FFDA9EH   LINE      ECODE    ---       #121
      00FFDA9EH   LINE      ECODE    ---       #123
      00FFDAA1H   LINE      ECODE    ---       #124
      00FFDAA4H   LINE      ECODE    ---       #125
      00FFDAA7H   LINE      ECODE    ---       #126
      00FFDAAAH   LINE      ECODE    ---       #127
      00FFDAADH   LINE      ECODE    ---       #137
      00FFDABBH   LINE      ECODE    ---       #143
      00FFDABFH   LINE      ECODE    ---       #145
      00FFDAC2H   LINE      ECODE    ---       #146
      00FFDAC5H   LINE      ECODE    ---       #147
      00FFDAD1H   LINE      ECODE    ---       #149
      00FFDAD4H   LINE      ECODE    ---       #150
      00FFDAD7H   LINE      ECODE    ---       #151
      00FFDADAH   LINE      ECODE    ---       #152
      00FFDADDH   LINE      ECODE    ---       #153
      00FFDAE0H   LINE      ECODE    ---       #154
      00FFDAE3H   LINE      ECODE    ---       #155
      00FFDAE6H   LINE      ECODE    ---       #156
      00FFDAE9H   LINE      ECODE    ---       #157
      00FFDAECH   LINE      ECODE    ---       #158
      00FFDAEFH   LINE      ECODE    ---       #159
L251 LINKER/LOCATER V4.66.93.0                                                        06/26/2023  14:53:20  PAGE 29


      00FFDAF2H   LINE      ECODE    ---       #160
      00FFDAF5H   LINE      ECODE    ---       #161
      00FFDAF8H   LINE      ECODE    ---       #162
      00FFDAFBH   LINE      ECODE    ---       #163
      00FFDAFEH   LINE      ECODE    ---       #164
      00FFDB01H   LINE      ECODE    ---       #166
      00FFDB04H   LINE      ECODE    ---       #167
      00FFDB07H   LINE      ECODE    ---       #168
      00FFDB0AH   LINE      ECODE    ---       #169
      00FFDB0DH   LINE      ECODE    ---       #170
      00FFDB10H   LINE      ECODE    ---       #171
      00FFDB13H   LINE      ECODE    ---       #172
      00FFDB16H   LINE      ECODE    ---       #173
      00FFDB19H   LINE      ECODE    ---       #174
      00FFDB1CH   LINE      ECODE    ---       #176
      00FFDB3EH   LINE      ECODE    ---       #177
      ---         BLOCKEND  ---      ---       LVL=0

      00FFDB42H   BLOCK     ECODE    ---       LVL=0
      R15         REGSYM    ---      CHAR      c
      00FFDB42H   LINE      ECODE    ---       #183
      00FFDB46H   LINE      ECODE    ---       #185
      00FFDB4CH   LINE      ECODE    ---       #187
      00FFDB4EH   LINE      ECODE    ---       #188
      ---         BLOCKEND  ---      ---       LVL=0

      00FFDB51H   BLOCK     ECODE    ---       LVL=0
      00FFDB51H   LINE      ECODE    ---       #191
      00FFDB51H   LINE      ECODE    ---       #193
      00FFDB53H   LINE      ECODE    ---       #194
      ---         BLOCKEND  ---      ---       LVL=0

      00FFDB54H   BLOCK     ECODE    ---       LVL=0
      00FFDB54H   LINE      ECODE    ---       #197
      00FFDB54H   LINE      ECODE    ---       #199
      00FFDB56H   LINE      ECODE    ---       #200
      ---         BLOCKEND  ---      ---       LVL=0

      ---         MODULE    ---      ---       common
      000108E6H   PUBLIC    XDATA    INT       wireless_type
      000000D0H   SFRSYM    DATA     BYTE      PSW
      0000009DH   SFRSYM    DATA     BYTE      IRCBAND
      00000097H   SFRSYM    DATA     BYTE      AUXR2
      000000EFH   SFRSYM    DATA     BYTE      AUXINTIF
      000000FDH   SFRSYM    DATA     BYTE      S4CON
      000000ACH   SFRSYM    DATA     BYTE      S3CON
      0000009AH   SFRSYM    DATA     BYTE      S2CON
      000000B7H   SFRSYM    DATA     BYTE      IPH
      000000CDH   SFRSYM    DATA     BYTE      SPSTAT
      000000DDH   SFRSYM    DATA     BYTE      T4T3M
      000000C1H   SFRSYM    DATA     BYTE      WDT_CONTR
      000000DFH   SFRSYM    DATA     BYTE      IP3
      000000F4H   SFRSYM    DATA     BYTE      USBCON
      000000B5H   SFRSYM    DATA     BYTE      IP2
      000000FFH   SFRSYM    DATA     BYTE      RSTCFG
      000000F9H   SFRSYM    DATA     BYTE      LINICR
      0000008EH   SFRSYM    DATA     BYTE      AUXR
      000000AFH   SFRSYM    DATA     BYTE      IE2
      00000088H   SFRSYM    DATA     BYTE      TCON
      00000098H   SFRSYM    DATA     BYTE      SCON
      000000F1H   SFRSYM    DATA     BYTE      CANICR
      00000087H   SFRSYM    DATA     BYTE      PCON
      000000BCH   SFRSYM    DATA     BYTE      ADC_CONTR
      000000E7H   SFRSYM    DATA     BYTE      CMPCR2
      000000E6H   SFRSYM    DATA     BYTE      CMPCR1
L251 LINKER/LOCATER V4.66.93.0                                                        06/26/2023  14:53:20  PAGE 30


      000000B8H   SFRSYM    DATA     BYTE      IP
      0000008FH   SFRSYM    DATA     BYTE      INTCLKO
      000000EEH   SFRSYM    DATA     BYTE      IP3H
      000000B6H   SFRSYM    DATA     BYTE      IP2H
      000000A8H   SFRSYM    DATA     BYTE      IE
      000000BBH   SFRSYM    DATA     BYTE      P_SW3
      000000BAH   SFRSYM    DATA     BYTE      P_SW2
      000000A2H   SFRSYM    DATA     BYTE      P_SW1
      000000CEH   SFRSYM    DATA     BYTE      SPCTL
      000000F8H   SFRSYM    DATA     BYTE      P7
      000000E8H   SFRSYM    DATA     BYTE      P6
      000000C8H   SFRSYM    DATA     BYTE      P5
      000000C0H   SFRSYM    DATA     BYTE      P4
      000000B0H   SFRSYM    DATA     BYTE      P3
      000000A0H   SFRSYM    DATA     BYTE      P2
      00000090H   SFRSYM    DATA     BYTE      P1
      00000080H   SFRSYM    DATA     BYTE      P0

      ---         MODULE    ---      ---       zf_adc
      00FFE8F8H   PUBLIC    ECODE    ---       adc_once?
      00FFE89AH   PUBLIC    ECODE    ---       adc_init?
      00000094H   SFRSYM    DATA     BYTE      P0M0
      000000D0H   SFRSYM    DATA     BYTE      PSW
      0000009DH   SFRSYM    DATA     BYTE      IRCBAND
      00000097H   SFRSYM    DATA     BYTE      AUXR2
      000000EFH   SFRSYM    DATA     BYTE      AUXINTIF
      000000FDH   SFRSYM    DATA     BYTE      S4CON
      000000ACH   SFRSYM    DATA     BYTE      S3CON
      0000009AH   SFRSYM    DATA     BYTE      S2CON
      000000B7H   SFRSYM    DATA     BYTE      IPH
      000000CDH   SFRSYM    DATA     BYTE      SPSTAT
      000000BEH   SFRSYM    DATA     BYTE      ADC_RESL
      000000DDH   SFRSYM    DATA     BYTE      T4T3M
      000000C1H   SFRSYM    DATA     BYTE      WDT_CONTR
      000000DFH   SFRSYM    DATA     BYTE      IP3
      000000F4H   SFRSYM    DATA     BYTE      USBCON
      000000B5H   SFRSYM    DATA     BYTE      IP2
      000000FFH   SFRSYM    DATA     BYTE      RSTCFG
      000000F9H   SFRSYM    DATA     BYTE      LINICR
      0000008EH   SFRSYM    DATA     BYTE      AUXR
      000000AFH   SFRSYM    DATA     BYTE      IE2
      00000088H   SFRSYM    DATA     BYTE      TCON
      00000098H   SFRSYM    DATA     BYTE      SCON
      000000F1H   SFRSYM    DATA     BYTE      CANICR
      00000087H   SFRSYM    DATA     BYTE      PCON
      000000BCH   SFRSYM    DATA     BYTE      ADC_CONTR
      000000E7H   SFRSYM    DATA     BYTE      CMPCR2
      000000E6H   SFRSYM    DATA     BYTE      CMPCR1
      000000DEH   SFRSYM    DATA     BYTE      ADCCFG
      000000B8H   SFRSYM    DATA     BYTE      IP
      0000008FH   SFRSYM    DATA     BYTE      INTCLKO
      000000EEH   SFRSYM    DATA     BYTE      IP3H
      000000B6H   SFRSYM    DATA     BYTE      IP2H
      000000BDH   SFRSYM    DATA     BYTE      ADC_RES
      000000A8H   SFRSYM    DATA     BYTE      IE
      000000BBH   SFRSYM    DATA     BYTE      P_SW3
      000000BAH   SFRSYM    DATA     BYTE      P_SW2
      000000A2H   SFRSYM    DATA     BYTE      P_SW1
      000000CEH   SFRSYM    DATA     BYTE      SPCTL
      000000F8H   SFRSYM    DATA     BYTE      P7
      000000E8H   SFRSYM    DATA     BYTE      P6
      000000C8H   SFRSYM    DATA     BYTE      P5
      000000C0H   SFRSYM    DATA     BYTE      P4
      000000B0H   SFRSYM    DATA     BYTE      P3
      000000A0H   SFRSYM    DATA     BYTE      P2
L251 LINKER/LOCATER V4.66.93.0                                                        06/26/2023  14:53:20  PAGE 31


      00000090H   SFRSYM    DATA     BYTE      P1
      00000080H   SFRSYM    DATA     BYTE      P0
      00000091H   SFRSYM    DATA     BYTE      P1M1
      00000092H   SFRSYM    DATA     BYTE      P1M0
      00000093H   SFRSYM    DATA     BYTE      P0M1

      00FFE89AH   BLOCK     ECODE    ---       LVL=0
      WR4         REGSYM    ---      INT       adcn
      WR2         REGSYM    ---      INT       speed
      00FFE89AH   LINE      ECODE    ---       #32
      00FFE89EH   LINE      ECODE    ---       #34
      00FFE8A1H   LINE      ECODE    ---       #36
      00FFE8A4H   LINE      ECODE    ---       #37
      00FFE8AAH   LINE      ECODE    ---       #39
      00FFE8B6H   LINE      ECODE    ---       #42
      00FFE8CBH   LINE      ECODE    ---       #43
      00FFE8CFH   LINE      ECODE    ---       #44
      00FFE8D1H   LINE      ECODE    ---       #45
      00FFE8D5H   LINE      ECODE    ---       #48
      00FFE8EAH   LINE      ECODE    ---       #49
      00FFE8EEH   LINE      ECODE    ---       #50
      00FFE8EEH   LINE      ECODE    ---       #52
      00FFE8F4H   LINE      ECODE    ---       #54
      00FFE8F7H   LINE      ECODE    ---       #55
      ---         BLOCKEND  ---      ---       LVL=0

      00FFE8F8H   BLOCK     ECODE    ---       LVL=0
      WR0         REGSYM    ---      INT       adcn
      WR2         REGSYM    ---      INT       resolution
      00FFE8FCH   BLOCK     ECODE    NEAR LAB  LVL=1
      WR6         REGSYM    ---      WORD      adc_value
      ---         BLOCKEND  ---      ---       LVL=1
      00FFE8F8H   LINE      ECODE    ---       #66
      00FFE8FCH   LINE      ECODE    ---       #67
      00FFE8FCH   LINE      ECODE    ---       #70
      00FFE8FFH   LINE      ECODE    ---       #71
      00FFE903H   LINE      ECODE    ---       #73
      00FFE906H   LINE      ECODE    ---       #74
      00FFE90BH   LINE      ECODE    ---       #75
      00FFE90EH   LINE      ECODE    ---       #77
      00FFE910H   LINE      ECODE    ---       #78
      00FFE914H   LINE      ECODE    ---       #79
      00FFE91AH   LINE      ECODE    ---       #81
      00FFE91DH   LINE      ECODE    ---       #82
      00FFE920H   LINE      ECODE    ---       #84
      00FFE929H   LINE      ECODE    ---       #87
      00FFE929H   LINE      ECODE    ---       #88
      ---         BLOCKEND  ---      ---       LVL=0

      ---         MODULE    ---      ---       zf_delay
      00FFE9A7H   PUBLIC    ECODE    ---       delay_init?
      00FFE9EDH   PUBLIC    ECODE    ---       delay_ms?
      00FFEA06H   PUBLIC    ECODE    ---       delay_us?
      000108ACH   PUBLIC    XDATA    WORD      zf_delay_ms
      000108AEH   PUBLIC    XDATA    WORD      zf_delay_us
      000000D0H   SFRSYM    DATA     BYTE      PSW
      0000009DH   SFRSYM    DATA     BYTE      IRCBAND
      00000097H   SFRSYM    DATA     BYTE      AUXR2
      000000EFH   SFRSYM    DATA     BYTE      AUXINTIF
      000000FDH   SFRSYM    DATA     BYTE      S4CON
      000000ACH   SFRSYM    DATA     BYTE      S3CON
      0000009AH   SFRSYM    DATA     BYTE      S2CON
      000000B7H   SFRSYM    DATA     BYTE      IPH
      000000CDH   SFRSYM    DATA     BYTE      SPSTAT
      000000DDH   SFRSYM    DATA     BYTE      T4T3M
L251 LINKER/LOCATER V4.66.93.0                                                        06/26/2023  14:53:20  PAGE 32


      000000C1H   SFRSYM    DATA     BYTE      WDT_CONTR
      000000DFH   SFRSYM    DATA     BYTE      IP3
      000000F4H   SFRSYM    DATA     BYTE      USBCON
      000000B5H   SFRSYM    DATA     BYTE      IP2
      000000FFH   SFRSYM    DATA     BYTE      RSTCFG
      000000F9H   SFRSYM    DATA     BYTE      LINICR
      0000008EH   SFRSYM    DATA     BYTE      AUXR
      000000AFH   SFRSYM    DATA     BYTE      IE2
      00000088H   SFRSYM    DATA     BYTE      TCON
      00000098H   SFRSYM    DATA     BYTE      SCON
      000000F1H   SFRSYM    DATA     BYTE      CANICR
      00000087H   SFRSYM    DATA     BYTE      PCON
      000000BCH   SFRSYM    DATA     BYTE      ADC_CONTR
      000000E7H   SFRSYM    DATA     BYTE      CMPCR2
      000000E6H   SFRSYM    DATA     BYTE      CMPCR1
      000000B8H   SFRSYM    DATA     BYTE      IP
      0000008FH   SFRSYM    DATA     BYTE      INTCLKO
      000000EEH   SFRSYM    DATA     BYTE      IP3H
      000000B6H   SFRSYM    DATA     BYTE      IP2H
      000000A8H   SFRSYM    DATA     BYTE      IE
      000000BBH   SFRSYM    DATA     BYTE      P_SW3
      000000BAH   SFRSYM    DATA     BYTE      P_SW2
      000000A2H   SFRSYM    DATA     BYTE      P_SW1
      000000CEH   SFRSYM    DATA     BYTE      SPCTL
      000000F8H   SFRSYM    DATA     BYTE      P7
      000000E8H   SFRSYM    DATA     BYTE      P6
      000000C8H   SFRSYM    DATA     BYTE      P5
      000000C0H   SFRSYM    DATA     BYTE      P4
      000000B0H   SFRSYM    DATA     BYTE      P3
      000000A0H   SFRSYM    DATA     BYTE      P2
      00000090H   SFRSYM    DATA     BYTE      P1
      00000080H   SFRSYM    DATA     BYTE      P0

      00FFE9A7H   BLOCK     ECODE    ---       LVL=0
      00FFE9A7H   LINE      ECODE    ---       #34
      00FFE9A7H   LINE      ECODE    ---       #36
      00FFE9C1H   LINE      ECODE    ---       #37
      00FFE9D5H   LINE      ECODE    ---       #38
      00FFE9ECH   LINE      ECODE    ---       #40
      ---         BLOCKEND  ---      ---       LVL=0

      00FFE9EDH   BLOCK     ECODE    ---       LVL=0
      WR4         REGSYM    ---      WORD      ms
      00FFE9EFH   BLOCK     ECODE    NEAR LAB  LVL=1
      WR6         REGSYM    ---      WORD      i
      ---         BLOCKEND  ---      ---       LVL=1
      00FFE9EDH   LINE      ECODE    ---       #48
      00FFE9EFH   LINE      ECODE    ---       #49
      00FFE9EFH   LINE      ECODE    ---       #51
      00FFE9EFH   LINE      ECODE    ---       #52
      00FFE9F5H   LINE      ECODE    ---       #54
      00FFE9FDH   LINE      ECODE    ---       #55
      00FFEA05H   LINE      ECODE    ---       #56
      ---         BLOCKEND  ---      ---       LVL=0

      00FFEA06H   BLOCK     ECODE    ---       LVL=0
      DR0         REGSYM    ---      DWORD     us
      00FFEA08H   BLOCK     ECODE    NEAR LAB  LVL=1
      WR6         REGSYM    ---      WORD      i
      ---         BLOCKEND  ---      ---       LVL=1
      00FFEA06H   LINE      ECODE    ---       #64
      00FFEA08H   LINE      ECODE    ---       #65
      00FFEA08H   LINE      ECODE    ---       #67
      00FFEA08H   LINE      ECODE    ---       #68
      00FFEA0EH   LINE      ECODE    ---       #70
L251 LINKER/LOCATER V4.66.93.0                                                        06/26/2023  14:53:20  PAGE 33


      00FFEA16H   LINE      ECODE    ---       #71
      00FFEA20H   LINE      ECODE    ---       #72
      ---         BLOCKEND  ---      ---       LVL=0

      ---         MODULE    ---      ---       zf_eeprom
      00FFDD51H   PUBLIC    ECODE    ---       iap_set_tps?
      00FFDD25H   PUBLIC    ECODE    ---       eeprom_trig?
      00FFDE0EH   PUBLIC    ECODE    ---       iap_erase_page?
      00FFDD41H   PUBLIC    ECODE    ---       iap_idle?
      00FFDD6EH   PUBLIC    ECODE    ---       iap_read_bytes?
      00FFDE1DH   PUBLIC    ECODE    ---       extern_iap_write_bytes?
      00FFDD3AH   PUBLIC    ECODE    ---       iap_init?
      00FFDDBEH   PUBLIC    ECODE    ---       iap_write_bytes?
      00FFDD45H   PUBLIC    ECODE    ---       iap_get_cmd_state?
      000000D0H   SFRSYM    DATA     BYTE      PSW
      0000009DH   SFRSYM    DATA     BYTE      IRCBAND
      000000D0H.5 SFRSYM    DATA     BIT       F0
      00000097H   SFRSYM    DATA     BYTE      AUXR2
      000000C6H   SFRSYM    DATA     BYTE      IAP_TRIG
      000000EFH   SFRSYM    DATA     BYTE      AUXINTIF
      000000FDH   SFRSYM    DATA     BYTE      S4CON
      000000ACH   SFRSYM    DATA     BYTE      S3CON
      0000009AH   SFRSYM    DATA     BYTE      S2CON
      000000B7H   SFRSYM    DATA     BYTE      IPH
      000000CDH   SFRSYM    DATA     BYTE      SPSTAT
      000000DDH   SFRSYM    DATA     BYTE      T4T3M
      000000C1H   SFRSYM    DATA     BYTE      WDT_CONTR
      000000C2H   SFRSYM    DATA     BYTE      IAP_DATA
      000000DFH   SFRSYM    DATA     BYTE      IP3
      000000F4H   SFRSYM    DATA     BYTE      USBCON
      000000B5H   SFRSYM    DATA     BYTE      IP2
      000000FFH   SFRSYM    DATA     BYTE      RSTCFG
      000000C7H   SFRSYM    DATA     BYTE      IAP_CONTR
      000000F9H   SFRSYM    DATA     BYTE      LINICR
      0000008EH   SFRSYM    DATA     BYTE      AUXR
      000000AFH   SFRSYM    DATA     BYTE      IE2
      00000088H   SFRSYM    DATA     BYTE      TCON
      00000098H   SFRSYM    DATA     BYTE      SCON
      000000F5H   SFRSYM    DATA     BYTE      IAP_TPS
      000000F1H   SFRSYM    DATA     BYTE      CANICR
      00000087H   SFRSYM    DATA     BYTE      PCON
      000000BCH   SFRSYM    DATA     BYTE      ADC_CONTR
      000000E7H   SFRSYM    DATA     BYTE      CMPCR2
      000000E6H   SFRSYM    DATA     BYTE      CMPCR1
      000000C4H   SFRSYM    DATA     BYTE      IAP_ADDRL
      000000C3H   SFRSYM    DATA     BYTE      IAP_ADDRH
      000000F6H   SFRSYM    DATA     BYTE      IAP_ADDRE
      000000B8H   SFRSYM    DATA     BYTE      IP
      0000008FH   SFRSYM    DATA     BYTE      INTCLKO
      000000EEH   SFRSYM    DATA     BYTE      IP3H
      000000B6H   SFRSYM    DATA     BYTE      IP2H
      000000C5H   SFRSYM    DATA     BYTE      IAP_CMD
      000000A8H   SFRSYM    DATA     BYTE      IE
      000000BBH   SFRSYM    DATA     BYTE      P_SW3
      000000BAH   SFRSYM    DATA     BYTE      P_SW2
      000000A2H   SFRSYM    DATA     BYTE      P_SW1
      000000CEH   SFRSYM    DATA     BYTE      SPCTL
      000000F8H   SFRSYM    DATA     BYTE      P7
      000000A8H.7 SFRSYM    DATA     BIT       EA
      000000E8H   SFRSYM    DATA     BYTE      P6
      000000C8H   SFRSYM    DATA     BYTE      P5
      000000C0H   SFRSYM    DATA     BYTE      P4
      000000B0H   SFRSYM    DATA     BYTE      P3
      000000A0H   SFRSYM    DATA     BYTE      P2
      00000090H   SFRSYM    DATA     BYTE      P1
L251 LINKER/LOCATER V4.66.93.0                                                        06/26/2023  14:53:20  PAGE 34


      00000080H   SFRSYM    DATA     BYTE      P0

      00FFDD25H   BLOCK     ECODE    ---       LVL=0
      00FFDD25H   LINE      ECODE    ---       #30
      00FFDD25H   LINE      ECODE    ---       #32
      00FFDD29H   LINE      ECODE    ---       #33
      00FFDD2BH   LINE      ECODE    ---       #34
      00FFDD2EH   LINE      ECODE    ---       #35
      00FFDD31H   LINE      ECODE    ---       #38
      00FFDD32H   LINE      ECODE    ---       #39
      00FFDD33H   LINE      ECODE    ---       #40
      00FFDD34H   LINE      ECODE    ---       #41
      00FFDD35H   LINE      ECODE    ---       #42
      00FFDD39H   LINE      ECODE    ---       #43
      ---         BLOCKEND  ---      ---       LVL=0

      00FFDD3AH   BLOCK     ECODE    ---       LVL=0
      00FFDD3AH   LINE      ECODE    ---       #52
      00FFDD3AH   LINE      ECODE    ---       #54
      00FFDD3DH   LINE      ECODE    ---       #55
      ---         BLOCKEND  ---      ---       LVL=0

      00FFDD41H   BLOCK     ECODE    ---       LVL=0
      00FFDD41H   LINE      ECODE    ---       #64
      00FFDD41H   LINE      ECODE    ---       #66
      00FFDD44H   LINE      ECODE    ---       #67
      ---         BLOCKEND  ---      ---       LVL=0

      00FFDD45H   BLOCK     ECODE    ---       LVL=0
      00FFDD45H   LINE      ECODE    ---       #77
      00FFDD45H   LINE      ECODE    ---       #79
      00FFDD50H   LINE      ECODE    ---       #80
      ---         BLOCKEND  ---      ---       LVL=0

      00FFDD51H   BLOCK     ECODE    ---       LVL=0
      R11         REGSYM    ---      BYTE      write_time
      00FFDD51H   LINE      ECODE    ---       #89
      00FFDD51H   LINE      ECODE    ---       #90
      00FFDD51H   LINE      ECODE    ---       #92
      00FFDD6BH   LINE      ECODE    ---       #93
      00FFDD6DH   LINE      ECODE    ---       #94
      ---         BLOCKEND  ---      ---       LVL=0

      00FFDD6EH   BLOCK     ECODE    ---       LVL=0
      000102BBH   SYMBOL    XDATA    WORD      addr
      REG=3       REGSYM    ---      ---       buf
      000102BDH   SYMBOL    XDATA    WORD      len
      00FFDD6EH   LINE      ECODE    ---       #107
      00FFDD7EH   LINE      ECODE    ---       #109
      00FFDD81H   LINE      ECODE    ---       #111
      00FFDD83H   LINE      ECODE    ---       #113
      00FFDD86H   LINE      ECODE    ---       #114
      00FFDD90H   LINE      ECODE    ---       #115
      00FFDD94H   LINE      ECODE    ---       #116
      00FFDD98H   LINE      ECODE    ---       #117
      00FFDD9FH   LINE      ECODE    ---       #118
      00FFDDAAH   LINE      ECODE    ---       #120
      00FFDDBBH   LINE      ECODE    ---       #121
      ---         BLOCKEND  ---      ---       LVL=0

      00FFDDBEH   BLOCK     ECODE    ---       LVL=0
      000102BBH   SYMBOL    XDATA    WORD      addr
      REG=3       REGSYM    ---      ---       buf
      000102BDH   SYMBOL    XDATA    WORD      len
      00FFDDBEH   LINE      ECODE    ---       #133
L251 LINKER/LOCATER V4.66.93.0                                                        06/26/2023  14:53:20  PAGE 35


      00FFDDCEH   LINE      ECODE    ---       #135
      00FFDDD1H   LINE      ECODE    ---       #137
      00FFDDD3H   LINE      ECODE    ---       #139
      00FFDDD6H   LINE      ECODE    ---       #140
      00FFDDE0H   LINE      ECODE    ---       #141
      00FFDDE4H   LINE      ECODE    ---       #142
      00FFDDEBH   LINE      ECODE    ---       #143
      00FFDDF6H   LINE      ECODE    ---       #145
      00FFDDFAH   LINE      ECODE    ---       #146
      00FFDE0BH   LINE      ECODE    ---       #147
      ---         BLOCKEND  ---      ---       LVL=0

      00FFDE0EH   BLOCK     ECODE    ---       LVL=0
      WR6         REGSYM    ---      WORD      addr
      00FFDE0EH   LINE      ECODE    ---       #158
      00FFDE0EH   LINE      ECODE    ---       #160
      00FFDE11H   LINE      ECODE    ---       #161
      00FFDE15H   LINE      ECODE    ---       #162
      00FFDE19H   LINE      ECODE    ---       #163
      ---         BLOCKEND  ---      ---       LVL=0

      00FFDE1DH   BLOCK     ECODE    ---       LVL=0
      000100B5H   SYMBOL    XDATA    WORD      addr
      REG=3       REGSYM    ---      ---       buf
      000100B7H   SYMBOL    XDATA    WORD      len
      00FFDE2DH   BLOCK     ECODE    NEAR LAB  LVL=1
      000100B9H   SYMBOL    XDATA    ---       temp
      000102B9H   SYMBOL    XDATA    WORD      i
      ---         BLOCKEND  ---      ---       LVL=1
      00FFDE1DH   LINE      ECODE    ---       #180
      00FFDE2DH   LINE      ECODE    ---       #181
      00FFDE2DH   LINE      ECODE    ---       #185
      00FFDE5DH   LINE      ECODE    ---       #186
      00FFDE77H   LINE      ECODE    ---       #187
      00FFDEB9H   LINE      ECODE    ---       #188
      00FFDEC3H   LINE      ECODE    ---       #189
      00FFDEDDH   LINE      ECODE    ---       #190
      ---         BLOCKEND  ---      ---       LVL=0

      ---         MODULE    ---      ---       zf_exti
      000000D0H   SFRSYM    DATA     BYTE      PSW
      0000009DH   SFRSYM    DATA     BYTE      IRCBAND
      00000097H   SFRSYM    DATA     BYTE      AUXR2
      000000EFH   SFRSYM    DATA     BYTE      AUXINTIF
      000000FDH   SFRSYM    DATA     BYTE      S4CON
      000000ACH   SFRSYM    DATA     BYTE      S3CON
      0000009AH   SFRSYM    DATA     BYTE      S2CON
      000000B7H   SFRSYM    DATA     BYTE      IPH
      000000CDH   SFRSYM    DATA     BYTE      SPSTAT
      000000DDH   SFRSYM    DATA     BYTE      T4T3M
      000000C1H   SFRSYM    DATA     BYTE      WDT_CONTR
      00000088H.2 SFRSYM    DATA     BIT       IT1
      000000A8H.2 SFRSYM    DATA     BIT       EX1
      00000088H.0 SFRSYM    DATA     BIT       IT0
      000000A8H.0 SFRSYM    DATA     BIT       EX0
      000000DFH   SFRSYM    DATA     BYTE      IP3
      000000F4H   SFRSYM    DATA     BYTE      USBCON
      000000B5H   SFRSYM    DATA     BYTE      IP2
      000000FFH   SFRSYM    DATA     BYTE      RSTCFG
      000000F9H   SFRSYM    DATA     BYTE      LINICR
      0000008EH   SFRSYM    DATA     BYTE      AUXR
      000000AFH   SFRSYM    DATA     BYTE      IE2
      00000088H   SFRSYM    DATA     BYTE      TCON
      00000098H   SFRSYM    DATA     BYTE      SCON
      000000F1H   SFRSYM    DATA     BYTE      CANICR
L251 LINKER/LOCATER V4.66.93.0                                                        06/26/2023  14:53:20  PAGE 36


      00000087H   SFRSYM    DATA     BYTE      PCON
      000000BCH   SFRSYM    DATA     BYTE      ADC_CONTR
      000000E7H   SFRSYM    DATA     BYTE      CMPCR2
      000000E6H   SFRSYM    DATA     BYTE      CMPCR1
      000000B8H   SFRSYM    DATA     BYTE      IP
      0000008FH   SFRSYM    DATA     BYTE      INTCLKO
      000000EEH   SFRSYM    DATA     BYTE      IP3H
      000000B6H   SFRSYM    DATA     BYTE      IP2H
      000000A8H   SFRSYM    DATA     BYTE      IE
      000000BBH   SFRSYM    DATA     BYTE      P_SW3
      000000BAH   SFRSYM    DATA     BYTE      P_SW2
      000000A2H   SFRSYM    DATA     BYTE      P_SW1
      000000CEH   SFRSYM    DATA     BYTE      SPCTL
      000000F8H   SFRSYM    DATA     BYTE      P7
      000000E8H   SFRSYM    DATA     BYTE      P6
      000000C8H   SFRSYM    DATA     BYTE      P5
      000000C0H   SFRSYM    DATA     BYTE      P4
      000000B0H   SFRSYM    DATA     BYTE      P3
      000000A0H   SFRSYM    DATA     BYTE      P2
      00000090H   SFRSYM    DATA     BYTE      P1
      00000080H   SFRSYM    DATA     BYTE      P0
      WR4         REGSYM    ---      INT       int_n
      WR2         REGSYM    ---      INT       mode

      ---         MODULE    ---      ---       zf_gpio
      00FFB45DH   PUBLIC    ECODE    ---       gpio_pull_set?
      00FFB4CBH   PUBLIC    ECODE    ---       gpio_mode?
      00000094H   SFRSYM    DATA     BYTE      P0M0
      000000D0H   SFRSYM    DATA     BYTE      PSW
      0000009DH   SFRSYM    DATA     BYTE      IRCBAND
      00000097H   SFRSYM    DATA     BYTE      AUXR2
      000000EFH   SFRSYM    DATA     BYTE      AUXINTIF
      000000FDH   SFRSYM    DATA     BYTE      S4CON
      000000ACH   SFRSYM    DATA     BYTE      S3CON
      0000009AH   SFRSYM    DATA     BYTE      S2CON
      000000B7H   SFRSYM    DATA     BYTE      IPH
      000000CDH   SFRSYM    DATA     BYTE      SPSTAT
      000000DDH   SFRSYM    DATA     BYTE      T4T3M
      000000C1H   SFRSYM    DATA     BYTE      WDT_CONTR
      000000DFH   SFRSYM    DATA     BYTE      IP3
      000000F4H   SFRSYM    DATA     BYTE      USBCON
      000000B5H   SFRSYM    DATA     BYTE      IP2
      000000FFH   SFRSYM    DATA     BYTE      RSTCFG
      000000F9H   SFRSYM    DATA     BYTE      LINICR
      0000008EH   SFRSYM    DATA     BYTE      AUXR
      000000AFH   SFRSYM    DATA     BYTE      IE2
      00000088H   SFRSYM    DATA     BYTE      TCON
      00000098H   SFRSYM    DATA     BYTE      SCON
      000000F1H   SFRSYM    DATA     BYTE      CANICR
      00000087H   SFRSYM    DATA     BYTE      PCON
      000000BCH   SFRSYM    DATA     BYTE      ADC_CONTR
      000000E7H   SFRSYM    DATA     BYTE      CMPCR2
      000000E6H   SFRSYM    DATA     BYTE      CMPCR1
      000000B8H   SFRSYM    DATA     BYTE      IP
      0000008FH   SFRSYM    DATA     BYTE      INTCLKO
      000000EEH   SFRSYM    DATA     BYTE      IP3H
      000000B6H   SFRSYM    DATA     BYTE      IP2H
      000000A8H   SFRSYM    DATA     BYTE      IE
      000000BBH   SFRSYM    DATA     BYTE      P_SW3
      000000BAH   SFRSYM    DATA     BYTE      P_SW2
      000000A2H   SFRSYM    DATA     BYTE      P_SW1
      000000CEH   SFRSYM    DATA     BYTE      SPCTL
      000000F8H   SFRSYM    DATA     BYTE      P7
      000000E1H   SFRSYM    DATA     BYTE      P7M1
      000000E8H   SFRSYM    DATA     BYTE      P6
L251 LINKER/LOCATER V4.66.93.0                                                        06/26/2023  14:53:20  PAGE 37


      000000C8H   SFRSYM    DATA     BYTE      P5
      000000CBH   SFRSYM    DATA     BYTE      P6M1
      000000E2H   SFRSYM    DATA     BYTE      P7M0
      000000C0H   SFRSYM    DATA     BYTE      P4
      000000C9H   SFRSYM    DATA     BYTE      P5M1
      000000CCH   SFRSYM    DATA     BYTE      P6M0
      000000B0H   SFRSYM    DATA     BYTE      P3
      000000B3H   SFRSYM    DATA     BYTE      P4M1
      000000CAH   SFRSYM    DATA     BYTE      P5M0
      000000A0H   SFRSYM    DATA     BYTE      P2
      000000B1H   SFRSYM    DATA     BYTE      P3M1
      000000B4H   SFRSYM    DATA     BYTE      P4M0
      00000090H   SFRSYM    DATA     BYTE      P1
      00000095H   SFRSYM    DATA     BYTE      P2M1
      000000B2H   SFRSYM    DATA     BYTE      P3M0
      00000080H   SFRSYM    DATA     BYTE      P0
      00000091H   SFRSYM    DATA     BYTE      P1M1
      00000096H   SFRSYM    DATA     BYTE      P2M0
      00000092H   SFRSYM    DATA     BYTE      P1M0
      00000093H   SFRSYM    DATA     BYTE      P0M1

      00FFB45DH   BLOCK     ECODE    ---       LVL=0
      WR4         REGSYM    ---      INT       pin
      WR2         REGSYM    ---      INT       pull
      00FFB45DH   LINE      ECODE    ---       #33
      00FFB461H   LINE      ECODE    ---       #35
      00FFB467H   LINE      ECODE    ---       #37
      00FFB493H   LINE      ECODE    ---       #38
      00FFB495H   LINE      ECODE    ---       #39
      00FFB499H   LINE      ECODE    ---       #41
      00FFB4CAH   LINE      ECODE    ---       #42
      ---         BLOCKEND  ---      ---       LVL=0

      00FFB4CBH   BLOCK     ECODE    ---       LVL=0
      WR4         REGSYM    ---      INT       pin
      WR2         REGSYM    ---      INT       mode
      00FFB4CBH   LINE      ECODE    ---       #54
      00FFB4CFH   LINE      ECODE    ---       #56
      00FFB4D6H   LINE      ECODE    ---       #58
      00FFB4DEH   LINE      ECODE    ---       #60
      00FFB4F6H   LINE      ECODE    ---       #61
      00FFB4F8H   LINE      ECODE    ---       #62
      00FFB4F8H   LINE      ECODE    ---       #63
      00FFB4FEH   LINE      ECODE    ---       #65
      00FFB516H   LINE      ECODE    ---       #66
      00FFB518H   LINE      ECODE    ---       #67
      00FFB518H   LINE      ECODE    ---       #68
      00FFB51EH   LINE      ECODE    ---       #70
      00FFB536H   LINE      ECODE    ---       #71
      00FFB538H   LINE      ECODE    ---       #72
      00FFB538H   LINE      ECODE    ---       #74
      00FFB53EH   LINE      ECODE    ---       #76
      00FFB556H   LINE      ECODE    ---       #77
      00FFB558H   LINE      ECODE    ---       #78
      00FFB558H   LINE      ECODE    ---       #79
      00FFB55EH   LINE      ECODE    ---       #81
      00FFB576H   LINE      ECODE    ---       #82
      00FFB578H   LINE      ECODE    ---       #83
      00FFB578H   LINE      ECODE    ---       #84
      00FFB57EH   LINE      ECODE    ---       #86
      00FFB596H   LINE      ECODE    ---       #87
      00FFB598H   LINE      ECODE    ---       #88
      00FFB598H   LINE      ECODE    ---       #89
      00FFB59EH   LINE      ECODE    ---       #91
      00FFB5B6H   LINE      ECODE    ---       #92
L251 LINKER/LOCATER V4.66.93.0                                                        06/26/2023  14:53:20  PAGE 38


      00FFB5B8H   LINE      ECODE    ---       #93
      00FFB5B8H   LINE      ECODE    ---       #94
      00FFB5C1H   LINE      ECODE    ---       #96
      00FFB5D9H   LINE      ECODE    ---       #97
      00FFB5DBH   LINE      ECODE    ---       #98
      00FFB5DCH   LINE      ECODE    ---       #100
      00FFB5E5H   LINE      ECODE    ---       #102
      00FFB5EDH   LINE      ECODE    ---       #104
      00FFB602H   LINE      ECODE    ---       #105
      00FFB606H   LINE      ECODE    ---       #106
      00FFB606H   LINE      ECODE    ---       #107
      00FFB60CH   LINE      ECODE    ---       #109
      00FFB621H   LINE      ECODE    ---       #110
      00FFB625H   LINE      ECODE    ---       #111
      00FFB625H   LINE      ECODE    ---       #112
      00FFB62BH   LINE      ECODE    ---       #114
      00FFB640H   LINE      ECODE    ---       #115
      00FFB644H   LINE      ECODE    ---       #116
      00FFB644H   LINE      ECODE    ---       #118
      00FFB64AH   LINE      ECODE    ---       #120
      00FFB65FH   LINE      ECODE    ---       #121
      00FFB663H   LINE      ECODE    ---       #122
      00FFB663H   LINE      ECODE    ---       #123
      00FFB669H   LINE      ECODE    ---       #125
      00FFB67EH   LINE      ECODE    ---       #126
      00FFB682H   LINE      ECODE    ---       #127
      00FFB682H   LINE      ECODE    ---       #128
      00FFB688H   LINE      ECODE    ---       #130
      00FFB69DH   LINE      ECODE    ---       #131
      00FFB6A1H   LINE      ECODE    ---       #132
      00FFB6A1H   LINE      ECODE    ---       #133
      00FFB6A7H   LINE      ECODE    ---       #135
      00FFB6BCH   LINE      ECODE    ---       #136
      00FFB6C0H   LINE      ECODE    ---       #137
      00FFB6C0H   LINE      ECODE    ---       #138
      00FFB6C9H   LINE      ECODE    ---       #140
      00FFB6E0H   LINE      ECODE    ---       #141
      00FFB6E0H   LINE      ECODE    ---       #142
      00FFB6E3H   LINE      ECODE    ---       #145
      00FFB6ECH   LINE      ECODE    ---       #147
      00FFB6F4H   LINE      ECODE    ---       #149
      00FFB707H   LINE      ECODE    ---       #150
      00FFB70BH   LINE      ECODE    ---       #151
      00FFB70BH   LINE      ECODE    ---       #152
      00FFB711H   LINE      ECODE    ---       #154
      00FFB724H   LINE      ECODE    ---       #155
      00FFB728H   LINE      ECODE    ---       #156
      00FFB728H   LINE      ECODE    ---       #157
      00FFB72EH   LINE      ECODE    ---       #159
      00FFB741H   LINE      ECODE    ---       #160
      00FFB745H   LINE      ECODE    ---       #161
      00FFB745H   LINE      ECODE    ---       #163
      00FFB74BH   LINE      ECODE    ---       #165
      00FFB75EH   LINE      ECODE    ---       #166
      00FFB762H   LINE      ECODE    ---       #167
      00FFB762H   LINE      ECODE    ---       #168
      00FFB768H   LINE      ECODE    ---       #170
      00FFB77BH   LINE      ECODE    ---       #171
      00FFB77FH   LINE      ECODE    ---       #172
      00FFB77FH   LINE      ECODE    ---       #173
      00FFB785H   LINE      ECODE    ---       #175
      00FFB798H   LINE      ECODE    ---       #176
      00FFB79CH   LINE      ECODE    ---       #177
      00FFB79CH   LINE      ECODE    ---       #178
      00FFB7A2H   LINE      ECODE    ---       #180
L251 LINKER/LOCATER V4.66.93.0                                                        06/26/2023  14:53:20  PAGE 39


      00FFB7B5H   LINE      ECODE    ---       #181
      00FFB7B9H   LINE      ECODE    ---       #182
      00FFB7B9H   LINE      ECODE    ---       #183
      00FFB7C2H   LINE      ECODE    ---       #185
      00FFB7D5H   LINE      ECODE    ---       #186
      00FFB7D9H   LINE      ECODE    ---       #187
      00FFB7DAH   LINE      ECODE    ---       #189
      00FFB7E3H   LINE      ECODE    ---       #191
      00FFB7EBH   LINE      ECODE    ---       #193
      00FFB7FEH   LINE      ECODE    ---       #194
      00FFB800H   LINE      ECODE    ---       #195
      00FFB800H   LINE      ECODE    ---       #196
      00FFB806H   LINE      ECODE    ---       #198
      00FFB819H   LINE      ECODE    ---       #199
      00FFB81BH   LINE      ECODE    ---       #200
      00FFB81BH   LINE      ECODE    ---       #201
      00FFB821H   LINE      ECODE    ---       #203
      00FFB834H   LINE      ECODE    ---       #204
      00FFB836H   LINE      ECODE    ---       #205
      00FFB836H   LINE      ECODE    ---       #207
      00FFB83CH   LINE      ECODE    ---       #209
      00FFB84FH   LINE      ECODE    ---       #210
      00FFB851H   LINE      ECODE    ---       #211
      00FFB851H   LINE      ECODE    ---       #212
      00FFB857H   LINE      ECODE    ---       #214
      00FFB86AH   LINE      ECODE    ---       #215
      00FFB86CH   LINE      ECODE    ---       #216
      00FFB86CH   LINE      ECODE    ---       #217
      00FFB872H   LINE      ECODE    ---       #219
      00FFB885H   LINE      ECODE    ---       #220
      00FFB887H   LINE      ECODE    ---       #221
      00FFB887H   LINE      ECODE    ---       #222
      00FFB88DH   LINE      ECODE    ---       #224
      00FFB8A0H   LINE      ECODE    ---       #225
      00FFB8A2H   LINE      ECODE    ---       #226
      00FFB8A2H   LINE      ECODE    ---       #227
      00FFB8A8H   LINE      ECODE    ---       #229
      00FFB8BDH   LINE      ECODE    ---       #230
      00FFB8C1H   LINE      ECODE    ---       #231
      00FFB8C1H   LINE      ECODE    ---       #233
      ---         BLOCKEND  ---      ---       LVL=0

      ---         MODULE    ---      ---       zf_iic
      00FFC54BH   PUBLIC    ECODE    ---       send_data?
      00FFC7D2H   PUBLIC    ECODE    ---       iic_change_pin?
      00FFC574H   PUBLIC    ECODE    ---       recv_data?
      00FFC53AH   PUBLIC    ECODE    ---       start?
      00FFC4F4H   PUBLIC    ECODE    ---       wait?
      00FFC591H   PUBLIC    ECODE    ---       send_ack?
      00FFC563H   PUBLIC    ECODE    ---       recv_ack?
      00FFC5C4H   PUBLIC    ECODE    ---       stop?
      00FFC5AAH   PUBLIC    ECODE    ---       send_nak?
      00FFC5D5H   PUBLIC    ECODE    ---       iic_init?
      00FFC69EH   PUBLIC    ECODE    ---       iic_read_reg?
      00FFC729H   PUBLIC    ECODE    ---       iic_read_reg_bytes?
      00FFC636H   PUBLIC    ECODE    ---       iic_write_reg?
      00FFC4DFH   PUBLIC    ECODE    ---       iic_delay_us?
      000000D0H   SFRSYM    DATA     BYTE      PSW
      0000009DH   SFRSYM    DATA     BYTE      IRCBAND
      00000097H   SFRSYM    DATA     BYTE      AUXR2
      000000EFH   SFRSYM    DATA     BYTE      AUXINTIF
      000000FDH   SFRSYM    DATA     BYTE      S4CON
      000000ACH   SFRSYM    DATA     BYTE      S3CON
      0000009AH   SFRSYM    DATA     BYTE      S2CON
      000000B7H   SFRSYM    DATA     BYTE      IPH
L251 LINKER/LOCATER V4.66.93.0                                                        06/26/2023  14:53:20  PAGE 40


      000000CDH   SFRSYM    DATA     BYTE      SPSTAT
      000000DDH   SFRSYM    DATA     BYTE      T4T3M
      000000C1H   SFRSYM    DATA     BYTE      WDT_CONTR
      000000DFH   SFRSYM    DATA     BYTE      IP3
      000000F4H   SFRSYM    DATA     BYTE      USBCON
      000000B5H   SFRSYM    DATA     BYTE      IP2
      000000FFH   SFRSYM    DATA     BYTE      RSTCFG
      000000F9H   SFRSYM    DATA     BYTE      LINICR
      0000008EH   SFRSYM    DATA     BYTE      AUXR
      000000AFH   SFRSYM    DATA     BYTE      IE2
      00000088H   SFRSYM    DATA     BYTE      TCON
      00000098H   SFRSYM    DATA     BYTE      SCON
      000000F1H   SFRSYM    DATA     BYTE      CANICR
      00000087H   SFRSYM    DATA     BYTE      PCON
      000000BCH   SFRSYM    DATA     BYTE      ADC_CONTR
      000000E7H   SFRSYM    DATA     BYTE      CMPCR2
      000000E6H   SFRSYM    DATA     BYTE      CMPCR1
      000000B8H   SFRSYM    DATA     BYTE      IP
      0000008FH   SFRSYM    DATA     BYTE      INTCLKO
      000000EEH   SFRSYM    DATA     BYTE      IP3H
      000000B6H   SFRSYM    DATA     BYTE      IP2H
      000000A8H   SFRSYM    DATA     BYTE      IE
      000000BBH   SFRSYM    DATA     BYTE      P_SW3
      000000BAH   SFRSYM    DATA     BYTE      P_SW2
      000000A2H   SFRSYM    DATA     BYTE      P_SW1
      000000CEH   SFRSYM    DATA     BYTE      SPCTL
      000000F8H   SFRSYM    DATA     BYTE      P7
      000000E8H   SFRSYM    DATA     BYTE      P6
      000000C8H   SFRSYM    DATA     BYTE      P5
      000000C0H   SFRSYM    DATA     BYTE      P4
      000000B0H   SFRSYM    DATA     BYTE      P3
      000000A0H   SFRSYM    DATA     BYTE      P2
      00000090H   SFRSYM    DATA     BYTE      P1
      00000080H   SFRSYM    DATA     BYTE      P0

      00FFC4DFH   BLOCK     ECODE    ---       LVL=0
      WR6         REGSYM    ---      WORD      x
      R10         REGSYM    ---      BYTE      i
      00FFC4DFH   LINE      ECODE    ---       #30
      00FFC4DFH   LINE      ECODE    ---       #31
      00FFC4DFH   LINE      ECODE    ---       #33
      00FFC4E1H   LINE      ECODE    ---       #35
      00FFC4E4H   LINE      ECODE    ---       #36
      00FFC4EBH   LINE      ECODE    ---       #37
      00FFC4F3H   LINE      ECODE    ---       #38
      ---         BLOCKEND  ---      ---       LVL=0

      00FFC4F4H   BLOCK     ECODE    ---       LVL=0
      00FFC4F8H   BLOCK     ECODE    NEAR LAB  LVL=1
      WR12        REGSYM    ---      WORD      count
      R15         REGSYM    ---      BYTE      ret
      ---         BLOCKEND  ---      ---       LVL=1
      00FFC4F4H   LINE      ECODE    ---       #47
      00FFC4F8H   LINE      ECODE    ---       #48
      00FFC4F8H   LINE      ECODE    ---       #49
      00FFC4FAH   LINE      ECODE    ---       #50
      00FFC4FCH   LINE      ECODE    ---       #51
      00FFC4FEH   LINE      ECODE    ---       #53
      00FFC506H   LINE      ECODE    ---       #54
      00FFC510H   LINE      ECODE    ---       #56
      00FFC513H   LINE      ECODE    ---       #57
      00FFC515H   LINE      ECODE    ---       #58
      00FFC523H   LINE      ECODE    ---       #60
      00FFC533H   LINE      ECODE    ---       #61
      00FFC535H   LINE      ECODE    ---       #62
L251 LINKER/LOCATER V4.66.93.0                                                        06/26/2023  14:53:20  PAGE 41


      ---         BLOCKEND  ---      ---       LVL=0

      00FFC53AH   BLOCK     ECODE    ---       LVL=0
      R11         REGSYM    ---      BYTE      ret
      00FFC53AH   LINE      ECODE    ---       #70
      00FFC53AH   LINE      ECODE    ---       #71
      00FFC53AH   LINE      ECODE    ---       #73
      00FFC547H   LINE      ECODE    ---       #74
      00FFC54BH   LINE      ECODE    ---       #75
      00FFC54BH   LINE      ECODE    ---       #76
      ---         BLOCKEND  ---      ---       LVL=0

      00FFC54BH   BLOCK     ECODE    ---       LVL=0
      R11         REGSYM    ---      CHAR      dat
      R11         REGSYM    ---      BYTE      ret
      00FFC54BH   LINE      ECODE    ---       #84
      00FFC54BH   LINE      ECODE    ---       #85
      00FFC54BH   LINE      ECODE    ---       #87
      00FFC556H   LINE      ECODE    ---       #88
      00FFC55FH   LINE      ECODE    ---       #89
      00FFC563H   LINE      ECODE    ---       #90
      00FFC563H   LINE      ECODE    ---       #91
      ---         BLOCKEND  ---      ---       LVL=0

      00FFC563H   BLOCK     ECODE    ---       LVL=0
      R11         REGSYM    ---      BYTE      ret
      00FFC563H   LINE      ECODE    ---       #99
      00FFC563H   LINE      ECODE    ---       #100
      00FFC563H   LINE      ECODE    ---       #102
      00FFC570H   LINE      ECODE    ---       #103
      00FFC574H   LINE      ECODE    ---       #104
      00FFC574H   LINE      ECODE    ---       #105
      ---         BLOCKEND  ---      ---       LVL=0

      00FFC574H   BLOCK     ECODE    ---       LVL=0
      00FFC574H   LINE      ECODE    ---       #113
      00FFC574H   LINE      ECODE    ---       #115
      00FFC581H   LINE      ECODE    ---       #116
      00FFC585H   LINE      ECODE    ---       #117
      00FFC590H   LINE      ECODE    ---       #118
      ---         BLOCKEND  ---      ---       LVL=0

      00FFC591H   BLOCK     ECODE    ---       LVL=0
      R11         REGSYM    ---      BYTE      ret
      00FFC591H   LINE      ECODE    ---       #126
      00FFC591H   LINE      ECODE    ---       #127
      00FFC591H   LINE      ECODE    ---       #129
      00FFC59DH   LINE      ECODE    ---       #130
      00FFC5A6H   LINE      ECODE    ---       #131
      00FFC5AAH   LINE      ECODE    ---       #132
      00FFC5AAH   LINE      ECODE    ---       #133
      ---         BLOCKEND  ---      ---       LVL=0

      00FFC5AAH   BLOCK     ECODE    ---       LVL=0
      00FFC5AAH   LINE      ECODE    ---       #141
      00FFC5AAH   LINE      ECODE    ---       #143
      00FFC5B7H   LINE      ECODE    ---       #144
      00FFC5C0H   LINE      ECODE    ---       #145
      ---         BLOCKEND  ---      ---       LVL=0

      00FFC5C4H   BLOCK     ECODE    ---       LVL=0
      R11         REGSYM    ---      BYTE      ret
      00FFC5C4H   LINE      ECODE    ---       #154
      00FFC5C4H   LINE      ECODE    ---       #155
      00FFC5C4H   LINE      ECODE    ---       #157
L251 LINKER/LOCATER V4.66.93.0                                                        06/26/2023  14:53:20  PAGE 42


      00FFC5D1H   LINE      ECODE    ---       #158
      00FFC5D5H   LINE      ECODE    ---       #159
      00FFC5D5H   LINE      ECODE    ---       #160
      ---         BLOCKEND  ---      ---       LVL=0

      00FFC5D5H   BLOCK     ECODE    ---       LVL=0
      WR6         REGSYM    ---      INT       iic_n
      00FFC5D5H   LINE      ECODE    ---       #173
      00FFC5D5H   LINE      ECODE    ---       #179
      00FFC5D8H   LINE      ECODE    ---       #180
      00FFC5DBH   LINE      ECODE    ---       #181
      00FFC5EDH   LINE      ECODE    ---       #183
      00FFC5EDH   LINE      ECODE    ---       #184
      00FFC5F1H   LINE      ECODE    ---       #185
      00FFC5F3H   LINE      ECODE    ---       #186
      00FFC5F3H   LINE      ECODE    ---       #187
      00FFC5F6H   LINE      ECODE    ---       #188
      00FFC5F8H   LINE      ECODE    ---       #189
      00FFC5F8H   LINE      ECODE    ---       #190
      00FFC5FBH   LINE      ECODE    ---       #191
      00FFC5FDH   LINE      ECODE    ---       #192
      00FFC5FDH   LINE      ECODE    ---       #193
      00FFC600H   LINE      ECODE    ---       #194
      00FFC600H   LINE      ECODE    ---       #195
      00FFC600H   LINE      ECODE    ---       #197
      00FFC610H   LINE      ECODE    ---       #198
      00FFC618H   LINE      ECODE    ---       #199
      00FFC629H   LINE      ECODE    ---       #200
      00FFC635H   LINE      ECODE    ---       #202
      ---         BLOCKEND  ---      ---       LVL=0

      00FFC636H   BLOCK     ECODE    ---       LVL=0
      R13         REGSYM    ---      BYTE      dev_add
      R14         REGSYM    ---      BYTE      reg
      R15         REGSYM    ---      BYTE      dat
      00FFC636H   LINE      ECODE    ---       #214
      00FFC640H   LINE      ECODE    ---       #216
      00FFC646H   LINE      ECODE    ---       #217
      00FFC64AH   LINE      ECODE    ---       #218
      00FFC654H   LINE      ECODE    ---       #219
      00FFC658H   LINE      ECODE    ---       #220
      00FFC65EH   LINE      ECODE    ---       #221
      00FFC662H   LINE      ECODE    ---       #222
      00FFC66AH   LINE      ECODE    ---       #223
      00FFC66EH   LINE      ECODE    ---       #224
      00FFC674H   LINE      ECODE    ---       #225
      00FFC678H   LINE      ECODE    ---       #226
      00FFC680H   LINE      ECODE    ---       #227
      00FFC684H   LINE      ECODE    ---       #228
      00FFC68AH   LINE      ECODE    ---       #229
      00FFC68EH   LINE      ECODE    ---       #230
      00FFC694H   LINE      ECODE    ---       #231
      00FFC698H   LINE      ECODE    ---       #234
      00FFC699H   LINE      ECODE    ---       #235
      ---         BLOCKEND  ---      ---       LVL=0

      00FFC69EH   BLOCK     ECODE    ---       LVL=0
      R15         REGSYM    ---      BYTE      dev_add
      R14         REGSYM    ---      BYTE      reg
      00FFC69EH   LINE      ECODE    ---       #247
      00FFC6AEH   LINE      ECODE    ---       #249
      00FFC6B4H   LINE      ECODE    ---       #250
      00FFC6B8H   LINE      ECODE    ---       #252
      00FFC6C2H   LINE      ECODE    ---       #253
      00FFC6C6H   LINE      ECODE    ---       #254
L251 LINKER/LOCATER V4.66.93.0                                                        06/26/2023  14:53:20  PAGE 43


      00FFC6CCH   LINE      ECODE    ---       #255
      00FFC6D0H   LINE      ECODE    ---       #257
      00FFC6D8H   LINE      ECODE    ---       #258
      00FFC6DCH   LINE      ECODE    ---       #259
      00FFC6E2H   LINE      ECODE    ---       #260
      00FFC6E6H   LINE      ECODE    ---       #266
      00FFC6F2H   LINE      ECODE    ---       #267
      00FFC6F6H   LINE      ECODE    ---       #269
      00FFC6FCH   LINE      ECODE    ---       #270
      00FFC700H   LINE      ECODE    ---       #273
      00FFC711H   LINE      ECODE    ---       #276
      00FFC717H   LINE      ECODE    ---       #277
      00FFC71BH   LINE      ECODE    ---       #279
      00FFC721H   LINE      ECODE    ---       #280
      00FFC725H   LINE      ECODE    ---       #282
      00FFC726H   LINE      ECODE    ---       #283
      ---         BLOCKEND  ---      ---       LVL=0

      00FFC729H   BLOCK     ECODE    ---       LVL=0
      REG=3       REGSYM    ---      ---       dat
      00FFC729H   LINE      ECODE    ---       #296
      00FFC73DH   LINE      ECODE    ---       #300
      00FFC743H   LINE      ECODE    ---       #301
      00FFC748H   LINE      ECODE    ---       #303
      00FFC754H   LINE      ECODE    ---       #304
      00FFC758H   LINE      ECODE    ---       #305
      00FFC75EH   LINE      ECODE    ---       #306
      00FFC762H   LINE      ECODE    ---       #308
      00FFC76CH   LINE      ECODE    ---       #309
      00FFC770H   LINE      ECODE    ---       #310
      00FFC776H   LINE      ECODE    ---       #311
      00FFC77AH   LINE      ECODE    ---       #313
      00FFC788H   LINE      ECODE    ---       #314
      00FFC78CH   LINE      ECODE    ---       #315
      00FFC792H   LINE      ECODE    ---       #316
      00FFC796H   LINE      ECODE    ---       #318
      00FFC798H   LINE      ECODE    ---       #320
      00FFC79FH   LINE      ECODE    ---       #321
      00FFC7A5H   LINE      ECODE    ---       #323
      00FFC7A9H   LINE      ECODE    ---       #324
      00FFC7A9H   LINE      ECODE    ---       #325
      00FFC7ABH   LINE      ECODE    ---       #326
      00FFC7B3H   LINE      ECODE    ---       #328
      00FFC7BAH   LINE      ECODE    ---       #330
      00FFC7C0H   LINE      ECODE    ---       #331
      00FFC7C4H   LINE      ECODE    ---       #333
      00FFC7CAH   LINE      ECODE    ---       #334
      00FFC7CEH   LINE      ECODE    ---       #336
      00FFC7CFH   LINE      ECODE    ---       #337
      ---         BLOCKEND  ---      ---       LVL=0

      00FFC7D2H   BLOCK     ECODE    ---       LVL=0
      WR6         REGSYM    ---      INT       iic_n
      00FFC7D2H   LINE      ECODE    ---       #347
      00FFC7D2H   LINE      ECODE    ---       #349
      00FFC7D5H   LINE      ECODE    ---       #351
      00FFC7D8H   LINE      ECODE    ---       #352
      00FFC7EAH   LINE      ECODE    ---       #354
      00FFC7EAH   LINE      ECODE    ---       #355
      00FFC7EEH   LINE      ECODE    ---       #356
      00FFC7F0H   LINE      ECODE    ---       #357
      00FFC7F0H   LINE      ECODE    ---       #358
      00FFC7F3H   LINE      ECODE    ---       #359
      00FFC7F5H   LINE      ECODE    ---       #360
      00FFC7F5H   LINE      ECODE    ---       #361
L251 LINKER/LOCATER V4.66.93.0                                                        06/26/2023  14:53:20  PAGE 44


      00FFC7F8H   LINE      ECODE    ---       #362
      00FFC7FAH   LINE      ECODE    ---       #363
      00FFC7FAH   LINE      ECODE    ---       #364
      00FFC7FDH   LINE      ECODE    ---       #365
      00FFC7FDH   LINE      ECODE    ---       #366
      00FFC7FDH   LINE      ECODE    ---       #368
      00FFC800H   LINE      ECODE    ---       #370
      ---         BLOCKEND  ---      ---       LVL=0

      ---         MODULE    ---      ---       zf_nvic
      000000D0H   SFRSYM    DATA     BYTE      PSW
      0000009DH   SFRSYM    DATA     BYTE      IRCBAND
      00000097H   SFRSYM    DATA     BYTE      AUXR2
      000000EFH   SFRSYM    DATA     BYTE      AUXINTIF
      000000FDH   SFRSYM    DATA     BYTE      S4CON
      000000ACH   SFRSYM    DATA     BYTE      S3CON
      0000009AH   SFRSYM    DATA     BYTE      S2CON
      000000B7H   SFRSYM    DATA     BYTE      IPH
      000000CDH   SFRSYM    DATA     BYTE      SPSTAT
      000000DDH   SFRSYM    DATA     BYTE      T4T3M
      000000C1H   SFRSYM    DATA     BYTE      WDT_CONTR
      000000DFH   SFRSYM    DATA     BYTE      IP3
      000000F4H   SFRSYM    DATA     BYTE      USBCON
      000000B5H   SFRSYM    DATA     BYTE      IP2
      000000FFH   SFRSYM    DATA     BYTE      RSTCFG
      000000F9H   SFRSYM    DATA     BYTE      LINICR
      0000008EH   SFRSYM    DATA     BYTE      AUXR
      000000AFH   SFRSYM    DATA     BYTE      IE2
      00000088H   SFRSYM    DATA     BYTE      TCON
      00000098H   SFRSYM    DATA     BYTE      SCON
      000000F1H   SFRSYM    DATA     BYTE      CANICR
      00000087H   SFRSYM    DATA     BYTE      PCON
      000000BCH   SFRSYM    DATA     BYTE      ADC_CONTR
      000000E7H   SFRSYM    DATA     BYTE      CMPCR2
      000000E6H   SFRSYM    DATA     BYTE      CMPCR1
      000000B8H   SFRSYM    DATA     BYTE      IP
      0000008FH   SFRSYM    DATA     BYTE      INTCLKO
      000000EEH   SFRSYM    DATA     BYTE      IP3H
      000000B6H   SFRSYM    DATA     BYTE      IP2H
      000000A8H   SFRSYM    DATA     BYTE      IE
      000000BBH   SFRSYM    DATA     BYTE      P_SW3
      000000BAH   SFRSYM    DATA     BYTE      P_SW2
      000000A2H   SFRSYM    DATA     BYTE      P_SW1
      000000CEH   SFRSYM    DATA     BYTE      SPCTL
      000000F8H   SFRSYM    DATA     BYTE      P7
      000000E8H   SFRSYM    DATA     BYTE      P6
      000000C8H   SFRSYM    DATA     BYTE      P5
      000000C0H   SFRSYM    DATA     BYTE      P4
      000000B0H   SFRSYM    DATA     BYTE      P3
      000000A0H   SFRSYM    DATA     BYTE      P2
      00000090H   SFRSYM    DATA     BYTE      P1
      00000080H   SFRSYM    DATA     BYTE      P0
      WR4         REGSYM    ---      INT       irqn
      R3          REGSYM    ---      BYTE      priority

      ---         MODULE    ---      ---       zf_pwm
      00FFA364H   PUBLIC    ECODE    ---       pwm_duty?
      00FF9DAAH   PUBLIC    ECODE    ---       pwm_set_gpio?
      00FFA431H   PUBLIC    ECODE    ---       pwm_freq?
      00FFA04CH   PUBLIC    ECODE    ---       pwm_init?
      00FFEE55H   PUBLIC    HCONST   ---       PWM_CCR_ADDR
      00FFEE75H   PUBLIC    HCONST   ---       PWM_ARR_ADDR
      00FFEE7DH   PUBLIC    HCONST   ---       PWM_CCER_ADDR
      00FFEE8DH   PUBLIC    HCONST   ---       PWM_CCMR_ADDR
      000100ACH   PUBLIC    XDATA    BYTE      ?pwm_init??BYTE
L251 LINKER/LOCATER V4.66.93.0                                                        06/26/2023  14:53:20  PAGE 45


      000000D0H   SFRSYM    DATA     BYTE      PSW
      0000009DH   SFRSYM    DATA     BYTE      IRCBAND
      00000097H   SFRSYM    DATA     BYTE      AUXR2
      000000EFH   SFRSYM    DATA     BYTE      AUXINTIF
      000000FDH   SFRSYM    DATA     BYTE      S4CON
      000000ACH   SFRSYM    DATA     BYTE      S3CON
      0000009AH   SFRSYM    DATA     BYTE      S2CON
      000000B7H   SFRSYM    DATA     BYTE      IPH
      000000CDH   SFRSYM    DATA     BYTE      SPSTAT
      000000DDH   SFRSYM    DATA     BYTE      T4T3M
      000000C1H   SFRSYM    DATA     BYTE      WDT_CONTR
      000000DFH   SFRSYM    DATA     BYTE      IP3
      000000F4H   SFRSYM    DATA     BYTE      USBCON
      000000B5H   SFRSYM    DATA     BYTE      IP2
      000000FFH   SFRSYM    DATA     BYTE      RSTCFG
      000000F9H   SFRSYM    DATA     BYTE      LINICR
      0000008EH   SFRSYM    DATA     BYTE      AUXR
      000000AFH   SFRSYM    DATA     BYTE      IE2
      00000088H   SFRSYM    DATA     BYTE      TCON
      00000098H   SFRSYM    DATA     BYTE      SCON
      000000F1H   SFRSYM    DATA     BYTE      CANICR
      00000087H   SFRSYM    DATA     BYTE      PCON
      000000BCH   SFRSYM    DATA     BYTE      ADC_CONTR
      000000E7H   SFRSYM    DATA     BYTE      CMPCR2
      000000E6H   SFRSYM    DATA     BYTE      CMPCR1
      000000B8H   SFRSYM    DATA     BYTE      IP
      0000008FH   SFRSYM    DATA     BYTE      INTCLKO
      000000EEH   SFRSYM    DATA     BYTE      IP3H
      000000B6H   SFRSYM    DATA     BYTE      IP2H
      000000A8H   SFRSYM    DATA     BYTE      IE
      000000BBH   SFRSYM    DATA     BYTE      P_SW3
      000000BAH   SFRSYM    DATA     BYTE      P_SW2
      000000A2H   SFRSYM    DATA     BYTE      P_SW1
      000000CEH   SFRSYM    DATA     BYTE      SPCTL
      000000F8H   SFRSYM    DATA     BYTE      P7
      000000E8H   SFRSYM    DATA     BYTE      P6
      000000C8H   SFRSYM    DATA     BYTE      P5
      000000C0H   SFRSYM    DATA     BYTE      P4
      000000B0H   SFRSYM    DATA     BYTE      P3
      000000A0H   SFRSYM    DATA     BYTE      P2
      00000090H   SFRSYM    DATA     BYTE      P1
      00000080H   SFRSYM    DATA     BYTE      P0

      00FF9DAAH   BLOCK     ECODE    ---       LVL=0
      WR6         REGSYM    ---      INT       pwmch
      00FF9DAAH   LINE      ECODE    ---       #49
      00FF9DAAH   LINE      ECODE    ---       #51
      00FF9F1DH   LINE      ECODE    ---       #53
      00FF9F1DH   LINE      ECODE    ---       #55
      00FF9F21H   LINE      ECODE    ---       #56
      00FF9F24H   LINE      ECODE    ---       #58
      00FF9F24H   LINE      ECODE    ---       #60
      00FF9F28H   LINE      ECODE    ---       #61
      00FF9F2BH   LINE      ECODE    ---       #63
      00FF9F2BH   LINE      ECODE    ---       #65
      00FF9F2FH   LINE      ECODE    ---       #66
      00FF9F32H   LINE      ECODE    ---       #68
      00FF9F32H   LINE      ECODE    ---       #70
      00FF9F36H   LINE      ECODE    ---       #71
      00FF9F39H   LINE      ECODE    ---       #73
      00FF9F39H   LINE      ECODE    ---       #75
      00FF9F3DH   LINE      ECODE    ---       #76
      00FF9F40H   LINE      ECODE    ---       #78
      00FF9F40H   LINE      ECODE    ---       #80
      00FF9F44H   LINE      ECODE    ---       #81
L251 LINKER/LOCATER V4.66.93.0                                                        06/26/2023  14:53:20  PAGE 46


      00FF9F47H   LINE      ECODE    ---       #84
      00FF9F47H   LINE      ECODE    ---       #86
      00FF9F4BH   LINE      ECODE    ---       #87
      00FF9F4EH   LINE      ECODE    ---       #89
      00FF9F4EH   LINE      ECODE    ---       #91
      00FF9F52H   LINE      ECODE    ---       #92
      00FF9F55H   LINE      ECODE    ---       #94
      00FF9F55H   LINE      ECODE    ---       #96
      00FF9F59H   LINE      ECODE    ---       #97
      00FF9F5CH   LINE      ECODE    ---       #99
      00FF9F5CH   LINE      ECODE    ---       #101
      00FF9F60H   LINE      ECODE    ---       #102
      00FF9F63H   LINE      ECODE    ---       #104
      00FF9F63H   LINE      ECODE    ---       #106
      00FF9F67H   LINE      ECODE    ---       #107
      00FF9F6AH   LINE      ECODE    ---       #109
      00FF9F6AH   LINE      ECODE    ---       #111
      00FF9F6EH   LINE      ECODE    ---       #112
      00FF9F71H   LINE      ECODE    ---       #115
      00FF9F71H   LINE      ECODE    ---       #117
      00FF9F75H   LINE      ECODE    ---       #118
      00FF9F77H   LINE      ECODE    ---       #120
      00FF9F77H   LINE      ECODE    ---       #122
      00FF9F7BH   LINE      ECODE    ---       #123
      00FF9F7DH   LINE      ECODE    ---       #125
      00FF9F7DH   LINE      ECODE    ---       #127
      00FF9F81H   LINE      ECODE    ---       #128
      00FF9F83H   LINE      ECODE    ---       #130
      00FF9F83H   LINE      ECODE    ---       #132
      00FF9F87H   LINE      ECODE    ---       #133
      00FF9F89H   LINE      ECODE    ---       #135
      00FF9F89H   LINE      ECODE    ---       #137
      00FF9F8DH   LINE      ECODE    ---       #138
      00FF9F8FH   LINE      ECODE    ---       #140
      00FF9F8FH   LINE      ECODE    ---       #142
      00FF9F93H   LINE      ECODE    ---       #143
      00FF9F95H   LINE      ECODE    ---       #147
      00FF9F95H   LINE      ECODE    ---       #149
      00FF9F99H   LINE      ECODE    ---       #150
      00FF9F9BH   LINE      ECODE    ---       #152
      00FF9F9BH   LINE      ECODE    ---       #154
      00FF9F9FH   LINE      ECODE    ---       #155
      00FF9FA1H   LINE      ECODE    ---       #157
      00FF9FA1H   LINE      ECODE    ---       #159
      00FF9FA5H   LINE      ECODE    ---       #160
      00FF9FA7H   LINE      ECODE    ---       #162
      00FF9FA7H   LINE      ECODE    ---       #164
      00FF9FABH   LINE      ECODE    ---       #165
      00FF9FADH   LINE      ECODE    ---       #167
      00FF9FADH   LINE      ECODE    ---       #169
      00FF9FB1H   LINE      ECODE    ---       #170
      00FF9FB3H   LINE      ECODE    ---       #172
      00FF9FB3H   LINE      ECODE    ---       #174
      00FF9FB7H   LINE      ECODE    ---       #175
      00FF9FB9H   LINE      ECODE    ---       #177
      00FF9FB9H   LINE      ECODE    ---       #179
      00FF9FBDH   LINE      ECODE    ---       #180
      00FF9FBFH   LINE      ECODE    ---       #182
      00FF9FBFH   LINE      ECODE    ---       #184
      00FF9FC3H   LINE      ECODE    ---       #185
      00FF9FC5H   LINE      ECODE    ---       #189
      00FF9FC5H   LINE      ECODE    ---       #191
      00FF9FC9H   LINE      ECODE    ---       #192
      00FF9FCBH   LINE      ECODE    ---       #194
      00FF9FCBH   LINE      ECODE    ---       #196
L251 LINKER/LOCATER V4.66.93.0                                                        06/26/2023  14:53:20  PAGE 47


      00FF9FCFH   LINE      ECODE    ---       #197
      00FF9FD1H   LINE      ECODE    ---       #199
      00FF9FD1H   LINE      ECODE    ---       #201
      00FF9FD3H   LINE      ECODE    ---       #202
      00FF9FD5H   LINE      ECODE    ---       #204
      00FF9FD5H   LINE      ECODE    ---       #206
      00FF9FD9H   LINE      ECODE    ---       #207
      00FF9FDBH   LINE      ECODE    ---       #210
      00FF9FDBH   LINE      ECODE    ---       #212
      00FF9FDFH   LINE      ECODE    ---       #213
      00FF9FE1H   LINE      ECODE    ---       #215
      00FF9FE1H   LINE      ECODE    ---       #217
      00FF9FE5H   LINE      ECODE    ---       #218
      00FF9FE7H   LINE      ECODE    ---       #220
      00FF9FE7H   LINE      ECODE    ---       #222
      00FF9FEDH   LINE      ECODE    ---       #223
      00FF9FEFH   LINE      ECODE    ---       #225
      00FF9FEFH   LINE      ECODE    ---       #227
      00FF9FF7H   LINE      ECODE    ---       #228
      00FF9FF9H   LINE      ECODE    ---       #232
      00FF9FF9H   LINE      ECODE    ---       #234
      00FFA001H   LINE      ECODE    ---       #235
      00FFA003H   LINE      ECODE    ---       #237
      00FFA003H   LINE      ECODE    ---       #239
      00FFA00BH   LINE      ECODE    ---       #240
      00FFA00DH   LINE      ECODE    ---       #242
      00FFA00DH   LINE      ECODE    ---       #244
      00FFA015H   LINE      ECODE    ---       #245
      00FFA017H   LINE      ECODE    ---       #247
      00FFA017H   LINE      ECODE    ---       #249
      00FFA01FH   LINE      ECODE    ---       #250
      00FFA021H   LINE      ECODE    ---       #254
      00FFA021H   LINE      ECODE    ---       #256
      00FFA029H   LINE      ECODE    ---       #257
      00FFA02BH   LINE      ECODE    ---       #259
      00FFA02BH   LINE      ECODE    ---       #261
      00FFA033H   LINE      ECODE    ---       #262
      00FFA035H   LINE      ECODE    ---       #264
      00FFA035H   LINE      ECODE    ---       #266
      00FFA03DH   LINE      ECODE    ---       #267
      00FFA03FH   LINE      ECODE    ---       #269
      00FFA03FH   LINE      ECODE    ---       #271
      00FFA04BH   LINE      ECODE    ---       #272
      00FFA04BH   LINE      ECODE    ---       #275
      00FFA04BH   LINE      ECODE    ---       #277
      ---         BLOCKEND  ---      ---       LVL=0

      00FFA04CH   BLOCK     ECODE    ---       LVL=0
      WR14        REGSYM    ---      INT       pwmch
      000100AEH   SYMBOL    XDATA    DWORD     freq
      000100B2H   SYMBOL    XDATA    DWORD     duty
      00FFA05AH   BLOCK     ECODE    NEAR LAB  LVL=1
      000100B6H   SYMBOL    XDATA    DWORD     match_temp
      DR28        REGSYM    ---      DWORD     period_temp
      WR12        REGSYM    ---      WORD      freq_div
      ---         BLOCKEND  ---      ---       LVL=1
      00FFA04CH   LINE      ECODE    ---       #290
      00FFA05AH   LINE      ECODE    ---       #291
      00FFA05AH   LINE      ECODE    ---       #295
      00FFA05AH   LINE      ECODE    ---       #298
      00FFA05DH   LINE      ECODE    ---       #301
      00FFA061H   LINE      ECODE    ---       #305
      00FFA07FH   LINE      ECODE    ---       #306
      00FFA07FH   LINE      ECODE    ---       #307
      00FFA089H   LINE      ECODE    ---       #309
L251 LINKER/LOCATER V4.66.93.0                                                        06/26/2023  14:53:20  PAGE 48


      00FFA099H   LINE      ECODE    ---       #311
      00FFA0BBH   LINE      ECODE    ---       #312
      00FFA0BDH   LINE      ECODE    ---       #315
      00FFA0CBH   LINE      ECODE    ---       #316
      00FFA0CBH   LINE      ECODE    ---       #319
      00FFA0D4H   LINE      ECODE    ---       #322
      00FFA0FFH   LINE      ECODE    ---       #323
      00FFA120H   LINE      ECODE    ---       #326
      00FFA16CH   LINE      ECODE    ---       #329
      00FFA177H   LINE      ECODE    ---       #330
      00FFA17EH   LINE      ECODE    ---       #332
      00FFA187H   LINE      ECODE    ---       #333
      00FFA18DH   LINE      ECODE    ---       #334
      00FFA190H   LINE      ECODE    ---       #337
      00FFA1C8H   LINE      ECODE    ---       #338
      00FFA1EBH   LINE      ECODE    ---       #341
      00FFA23DH   LINE      ECODE    ---       #345
      00FFA248H   LINE      ECODE    ---       #346
      00FFA24FH   LINE      ECODE    ---       #348
      00FFA258H   LINE      ECODE    ---       #349
      00FFA265H   LINE      ECODE    ---       #350
      00FFA265H   LINE      ECODE    ---       #353
      00FFA291H   LINE      ECODE    ---       #354
      00FFA2BFH   LINE      ECODE    ---       #357
      00FFA2EEH   LINE      ECODE    ---       #358
      00FFA31FH   LINE      ECODE    ---       #361
      00FFA336H   LINE      ECODE    ---       #362
      00FFA361H   LINE      ECODE    ---       #367
      ---         BLOCKEND  ---      ---       LVL=0

      00FFA364H   BLOCK     ECODE    ---       LVL=0
      WR30        REGSYM    ---      INT       pwmch
      DR24        REGSYM    ---      DWORD     duty
      00FFA368H   BLOCK     ECODE    NEAR LAB  LVL=1
      DR20        REGSYM    ---      DWORD     match_temp
      DR16        REGSYM    ---      DWORD     arr
      ---         BLOCKEND  ---      ---       LVL=1
      00FFA364H   LINE      ECODE    ---       #377
      00FFA368H   LINE      ECODE    ---       #378
      00FFA368H   LINE      ECODE    ---       #380
      00FFA3ACH   LINE      ECODE    ---       #384
      00FFA3B2H   LINE      ECODE    ---       #386
      00FFA3D8H   LINE      ECODE    ---       #387
      00FFA3DAH   LINE      ECODE    ---       #390
      00FFA3DEH   LINE      ECODE    ---       #391
      00FFA3DEH   LINE      ECODE    ---       #396
      00FFA406H   LINE      ECODE    ---       #397
      00FFA430H   LINE      ECODE    ---       #401
      ---         BLOCKEND  ---      ---       LVL=0

      00FFA431H   BLOCK     ECODE    ---       LVL=0
      WR30        REGSYM    ---      INT       pwmch
      DR24        REGSYM    ---      DWORD     freq
      00FFA433H   BLOCK     ECODE    NEAR LAB  LVL=1
      DR20        REGSYM    ---      DWORD     match_temp
      DR24        REGSYM    ---      DWORD     period_temp
      WR28        REGSYM    ---      WORD      freq_div
      ---         BLOCKEND  ---      ---       LVL=1
      00FFA431H   LINE      ECODE    ---       #412
      00FFA433H   LINE      ECODE    ---       #413
      00FFA433H   LINE      ECODE    ---       #416
      00FFA433H   LINE      ECODE    ---       #421
      00FFA447H   LINE      ECODE    ---       #422
      00FFA447H   LINE      ECODE    ---       #423
      00FFA451H   LINE      ECODE    ---       #425
L251 LINKER/LOCATER V4.66.93.0                                                        06/26/2023  14:53:20  PAGE 49


      00FFA461H   LINE      ECODE    ---       #427
      00FFA485H   LINE      ECODE    ---       #428
      00FFA487H   LINE      ECODE    ---       #431
      00FFA48BH   LINE      ECODE    ---       #432
      00FFA48BH   LINE      ECODE    ---       #439
      00FFA491H   LINE      ECODE    ---       #442
      00FFA4A0H   LINE      ECODE    ---       #443
      00FFA4A8H   LINE      ECODE    ---       #444
      00FFA4AAH   LINE      ECODE    ---       #448
      00FFA4B9H   LINE      ECODE    ---       #449
      00FFA4C8H   LINE      ECODE    ---       #450
      00FFA4C8H   LINE      ECODE    ---       #453
      00FFA4F4H   LINE      ECODE    ---       #454
      00FFA522H   LINE      ECODE    ---       #457
      00FFA54AH   LINE      ECODE    ---       #458
      00FFA574H   LINE      ECODE    ---       #461
      ---         BLOCKEND  ---      ---       LVL=0

      ---         MODULE    ---      ---       zf_spi
      00FFDD08H   PUBLIC    ECODE    ---       spi_change_mode?
      00FFDC51H   PUBLIC    ECODE    ---       spi_change_pin?
      00FFDB57H   PUBLIC    ECODE    ---       spi_init?
      00FFDC43H   PUBLIC    ECODE    ---       spi_mosi?
      000100A5H   PUBLIC    XDATA    BYTE      ?spi_init??BYTE
      000000CFH   SFRSYM    DATA     BYTE      SPDAT
      000000D0H   SFRSYM    DATA     BYTE      PSW
      0000009DH   SFRSYM    DATA     BYTE      IRCBAND
      00000097H   SFRSYM    DATA     BYTE      AUXR2
      000000EFH   SFRSYM    DATA     BYTE      AUXINTIF
      000000FDH   SFRSYM    DATA     BYTE      S4CON
      000000ACH   SFRSYM    DATA     BYTE      S3CON
      0000009AH   SFRSYM    DATA     BYTE      S2CON
      000000B7H   SFRSYM    DATA     BYTE      IPH
      000000CDH   SFRSYM    DATA     BYTE      SPSTAT
      000000DDH   SFRSYM    DATA     BYTE      T4T3M
      000000C1H   SFRSYM    DATA     BYTE      WDT_CONTR
      000000DFH   SFRSYM    DATA     BYTE      IP3
      000000F4H   SFRSYM    DATA     BYTE      USBCON
      000000B5H   SFRSYM    DATA     BYTE      IP2
      000000FFH   SFRSYM    DATA     BYTE      RSTCFG
      000000F9H   SFRSYM    DATA     BYTE      LINICR
      0000008EH   SFRSYM    DATA     BYTE      AUXR
      000000AFH   SFRSYM    DATA     BYTE      IE2
      00000088H   SFRSYM    DATA     BYTE      TCON
      00000098H   SFRSYM    DATA     BYTE      SCON
      000000F1H   SFRSYM    DATA     BYTE      CANICR
      00000087H   SFRSYM    DATA     BYTE      PCON
      000000BCH   SFRSYM    DATA     BYTE      ADC_CONTR
      000000E7H   SFRSYM    DATA     BYTE      CMPCR2
      000000E6H   SFRSYM    DATA     BYTE      CMPCR1
      000000B8H   SFRSYM    DATA     BYTE      IP
      0000008FH   SFRSYM    DATA     BYTE      INTCLKO
      000000EEH   SFRSYM    DATA     BYTE      IP3H
      000000B6H   SFRSYM    DATA     BYTE      IP2H
      000000A8H   SFRSYM    DATA     BYTE      IE
      000000BBH   SFRSYM    DATA     BYTE      P_SW3
      000000BAH   SFRSYM    DATA     BYTE      P_SW2
      000000A2H   SFRSYM    DATA     BYTE      P_SW1
      000000CEH   SFRSYM    DATA     BYTE      SPCTL
      000000F8H   SFRSYM    DATA     BYTE      P7
      000000E8H   SFRSYM    DATA     BYTE      P6
      000000C8H   SFRSYM    DATA     BYTE      P5
      000000C0H   SFRSYM    DATA     BYTE      P4
      000000B0H   SFRSYM    DATA     BYTE      P3
      000000A0H   SFRSYM    DATA     BYTE      P2
L251 LINKER/LOCATER V4.66.93.0                                                        06/26/2023  14:53:20  PAGE 50


      00000090H   SFRSYM    DATA     BYTE      P1
      00000080H   SFRSYM    DATA     BYTE      P0

      00FFDB57H   BLOCK     ECODE    ---       LVL=0
      WR14        REGSYM    ---      INT       spi_n
      R13         REGSYM    ---      BYTE      mode
      000100AEH   SYMBOL    XDATA    INT       mstr
      000100B0H   SYMBOL    XDATA    INT       baud
      00FFDB57H   LINE      ECODE    ---       #39
      00FFDB5FH   LINE      ECODE    ---       #47
      00FFDB71H   LINE      ECODE    ---       #50
      00FFDB71H   LINE      ECODE    ---       #51
      00FFDB7BH   LINE      ECODE    ---       #52
      00FFDB85H   LINE      ECODE    ---       #53
      00FFDB89H   LINE      ECODE    ---       #54
      00FFDB8BH   LINE      ECODE    ---       #55
      00FFDB8BH   LINE      ECODE    ---       #56
      00FFDB95H   LINE      ECODE    ---       #57
      00FFDB9FH   LINE      ECODE    ---       #58
      00FFDBA3H   LINE      ECODE    ---       #59
      00FFDBA5H   LINE      ECODE    ---       #60
      00FFDBA5H   LINE      ECODE    ---       #61
      00FFDBAFH   LINE      ECODE    ---       #62
      00FFDBB9H   LINE      ECODE    ---       #63
      00FFDBBDH   LINE      ECODE    ---       #64
      00FFDBBFH   LINE      ECODE    ---       #65
      00FFDBBFH   LINE      ECODE    ---       #66
      00FFDBC9H   LINE      ECODE    ---       #67
      00FFDBD3H   LINE      ECODE    ---       #68
      00FFDBDDH   LINE      ECODE    ---       #69
      00FFDBDDH   LINE      ECODE    ---       #70
      00FFDBDDH   LINE      ECODE    ---       #72
      00FFDBE0H   LINE      ECODE    ---       #73
      00FFDBF2H   LINE      ECODE    ---       #75
      00FFDBF2H   LINE      ECODE    ---       #76
      00FFDBF6H   LINE      ECODE    ---       #77
      00FFDBF8H   LINE      ECODE    ---       #78
      00FFDBF8H   LINE      ECODE    ---       #79
      00FFDBFBH   LINE      ECODE    ---       #80
      00FFDBFDH   LINE      ECODE    ---       #81
      00FFDBFDH   LINE      ECODE    ---       #82
      00FFDC00H   LINE      ECODE    ---       #83
      00FFDC02H   LINE      ECODE    ---       #84
      00FFDC02H   LINE      ECODE    ---       #85
      00FFDC05H   LINE      ECODE    ---       #86
      00FFDC05H   LINE      ECODE    ---       #87
      00FFDC05H   LINE      ECODE    ---       #89
      00FFDC08H   LINE      ECODE    ---       #90
      00FFDC14H   LINE      ECODE    ---       #92
      00FFDC14H   LINE      ECODE    ---       #94
      00FFDC14H   LINE      ECODE    ---       #95
      00FFDC14H   LINE      ECODE    ---       #96
      00FFDC17H   LINE      ECODE    ---       #97
      00FFDC19H   LINE      ECODE    ---       #98
      00FFDC19H   LINE      ECODE    ---       #99
      00FFDC1CH   LINE      ECODE    ---       #100
      00FFDC1EH   LINE      ECODE    ---       #101
      00FFDC1EH   LINE      ECODE    ---       #102
      00FFDC21H   LINE      ECODE    ---       #103
      00FFDC21H   LINE      ECODE    ---       #104
      00FFDC21H   LINE      ECODE    ---       #107
      00FFDC2BH   LINE      ECODE    ---       #109
      00FFDC35H   LINE      ECODE    ---       #111
      00FFDC38H   LINE      ECODE    ---       #112
      00FFDC3BH   LINE      ECODE    ---       #113
L251 LINKER/LOCATER V4.66.93.0                                                        06/26/2023  14:53:20  PAGE 51


      00FFDC3BH   LINE      ECODE    ---       #117
      00FFDC3BH   LINE      ECODE    ---       #118
      00FFDC3EH   LINE      ECODE    ---       #119
      ---         BLOCKEND  ---      ---       LVL=0

      00FFDC43H   BLOCK     ECODE    ---       LVL=0
      R11         REGSYM    ---      BYTE      dat
      00FFDC43H   LINE      ECODE    ---       #129
      00FFDC43H   LINE      ECODE    ---       #131
      00FFDC46H   LINE      ECODE    ---       #132
      00FFDC4BH   LINE      ECODE    ---       #133
      00FFDC4EH   LINE      ECODE    ---       #134
      00FFDC50H   LINE      ECODE    ---       #135
      ---         BLOCKEND  ---      ---       LVL=0

      00FFDC51H   BLOCK     ECODE    ---       LVL=0
      WR14        REGSYM    ---      INT       spi_n
      00FFDC51H   LINE      ECODE    ---       #147
      00FFDC55H   LINE      ECODE    ---       #149
      00FFDC58H   LINE      ECODE    ---       #150
      00FFDC6AH   LINE      ECODE    ---       #153
      00FFDC6AH   LINE      ECODE    ---       #154
      00FFDC76H   LINE      ECODE    ---       #155
      00FFDC80H   LINE      ECODE    ---       #156
      00FFDC84H   LINE      ECODE    ---       #157
      00FFDC86H   LINE      ECODE    ---       #158
      00FFDC86H   LINE      ECODE    ---       #159
      00FFDC92H   LINE      ECODE    ---       #160
      00FFDC9CH   LINE      ECODE    ---       #161
      00FFDCA0H   LINE      ECODE    ---       #162
      00FFDCA2H   LINE      ECODE    ---       #163
      00FFDCA2H   LINE      ECODE    ---       #164
      00FFDCAEH   LINE      ECODE    ---       #165
      00FFDCB8H   LINE      ECODE    ---       #166
      00FFDCBCH   LINE      ECODE    ---       #167
      00FFDCBEH   LINE      ECODE    ---       #168
      00FFDCBEH   LINE      ECODE    ---       #169
      00FFDCCAH   LINE      ECODE    ---       #170
      00FFDCD4H   LINE      ECODE    ---       #171
      00FFDCE0H   LINE      ECODE    ---       #172
      00FFDCE0H   LINE      ECODE    ---       #173
      00FFDCE0H   LINE      ECODE    ---       #176
      00FFDCF2H   LINE      ECODE    ---       #178
      00FFDCF2H   LINE      ECODE    ---       #179
      00FFDCF6H   LINE      ECODE    ---       #180
      00FFDCF8H   LINE      ECODE    ---       #181
      00FFDCF8H   LINE      ECODE    ---       #182
      00FFDCFBH   LINE      ECODE    ---       #183
      00FFDCFDH   LINE      ECODE    ---       #184
      00FFDCFDH   LINE      ECODE    ---       #185
      00FFDD00H   LINE      ECODE    ---       #186
      00FFDD02H   LINE      ECODE    ---       #187
      00FFDD02H   LINE      ECODE    ---       #188
      00FFDD05H   LINE      ECODE    ---       #189
      00FFDD05H   LINE      ECODE    ---       #190
      00FFDD05H   LINE      ECODE    ---       #191
      ---         BLOCKEND  ---      ---       LVL=0

      00FFDD08H   BLOCK     ECODE    ---       LVL=0
      R7          REGSYM    ---      BYTE      mode
      00FFDD08H   LINE      ECODE    ---       #200
      00FFDD0AH   LINE      ECODE    ---       #202
      00FFDD0DH   LINE      ECODE    ---       #203
      00FFDD19H   LINE      ECODE    ---       #205
      00FFDD19H   LINE      ECODE    ---       #207
L251 LINKER/LOCATER V4.66.93.0                                                        06/26/2023  14:53:20  PAGE 52


      00FFDD19H   LINE      ECODE    ---       #208
      00FFDD19H   LINE      ECODE    ---       #209
      00FFDD1CH   LINE      ECODE    ---       #210
      00FFDD1DH   LINE      ECODE    ---       #211
      00FFDD1DH   LINE      ECODE    ---       #212
      00FFDD20H   LINE      ECODE    ---       #213
      00FFDD21H   LINE      ECODE    ---       #214
      00FFDD21H   LINE      ECODE    ---       #215
      00FFDD24H   LINE      ECODE    ---       #216
      00FFDD24H   LINE      ECODE    ---       #217
      00FFDD24H   LINE      ECODE    ---       #218
      ---         BLOCKEND  ---      ---       LVL=0

      ---         MODULE    ---      ---       zf_tim
      00FFE25CH   PUBLIC    ECODE    ---       ctimer_count_read?
      00FFE2FAH   PUBLIC    ECODE    ---       pit_timer_ms?
      00FFE212H   PUBLIC    ECODE    ---       ctimer_count_init?
      00FFE2A9H   PUBLIC    ECODE    ---       ctimer_count_clean?
      000000D0H   SFRSYM    DATA     BYTE      PSW
      0000009DH   SFRSYM    DATA     BYTE      IRCBAND
      00000097H   SFRSYM    DATA     BYTE      AUXR2
      000000EFH   SFRSYM    DATA     BYTE      AUXINTIF
      000000FDH   SFRSYM    DATA     BYTE      S4CON
      000000ACH   SFRSYM    DATA     BYTE      S3CON
      0000009AH   SFRSYM    DATA     BYTE      S2CON
      000000B7H   SFRSYM    DATA     BYTE      IPH
      000000CDH   SFRSYM    DATA     BYTE      SPSTAT
      000000DDH   SFRSYM    DATA     BYTE      T4T3M
      000000C1H   SFRSYM    DATA     BYTE      WDT_CONTR
      00000088H.6 SFRSYM    DATA     BIT       TR1
      00000088H.4 SFRSYM    DATA     BIT       TR0
      000000D3H   SFRSYM    DATA     BYTE      T4L
      000000D5H   SFRSYM    DATA     BYTE      T3L
      000000D7H   SFRSYM    DATA     BYTE      T2L
      0000008BH   SFRSYM    DATA     BYTE      TL1
      0000008AH   SFRSYM    DATA     BYTE      TL0
      000000D2H   SFRSYM    DATA     BYTE      T4H
      000000D4H   SFRSYM    DATA     BYTE      T3H
      000000D6H   SFRSYM    DATA     BYTE      T2H
      0000008DH   SFRSYM    DATA     BYTE      TH1
      0000008CH   SFRSYM    DATA     BYTE      TH0
      000000DFH   SFRSYM    DATA     BYTE      IP3
      000000F4H   SFRSYM    DATA     BYTE      USBCON
      000000B5H   SFRSYM    DATA     BYTE      IP2
      000000FFH   SFRSYM    DATA     BYTE      RSTCFG
      000000A8H.3 SFRSYM    DATA     BIT       ET1
      000000A8H.1 SFRSYM    DATA     BIT       ET0
      000000F9H   SFRSYM    DATA     BYTE      LINICR
      0000008EH   SFRSYM    DATA     BYTE      AUXR
      000000AFH   SFRSYM    DATA     BYTE      IE2
      00000088H   SFRSYM    DATA     BYTE      TCON
      00000089H   SFRSYM    DATA     BYTE      TMOD
      00000098H   SFRSYM    DATA     BYTE      SCON
      000000F1H   SFRSYM    DATA     BYTE      CANICR
      00000087H   SFRSYM    DATA     BYTE      PCON
      000000BCH   SFRSYM    DATA     BYTE      ADC_CONTR
      000000E7H   SFRSYM    DATA     BYTE      CMPCR2
      000000E6H   SFRSYM    DATA     BYTE      CMPCR1
      000000B8H   SFRSYM    DATA     BYTE      IP
      0000008FH   SFRSYM    DATA     BYTE      INTCLKO
      000000EEH   SFRSYM    DATA     BYTE      IP3H
      000000B6H   SFRSYM    DATA     BYTE      IP2H
      000000A8H   SFRSYM    DATA     BYTE      IE
      000000BBH   SFRSYM    DATA     BYTE      P_SW3
      000000BAH   SFRSYM    DATA     BYTE      P_SW2
L251 LINKER/LOCATER V4.66.93.0                                                        06/26/2023  14:53:20  PAGE 53


      000000A2H   SFRSYM    DATA     BYTE      P_SW1
      000000CEH   SFRSYM    DATA     BYTE      SPCTL
      000000F8H   SFRSYM    DATA     BYTE      P7
      000000E8H   SFRSYM    DATA     BYTE      P6
      000000C8H   SFRSYM    DATA     BYTE      P5
      000000C0H   SFRSYM    DATA     BYTE      P4
      000000B0H   SFRSYM    DATA     BYTE      P3
      000000A0H   SFRSYM    DATA     BYTE      P2
      00000090H   SFRSYM    DATA     BYTE      P1
      00000080H   SFRSYM    DATA     BYTE      P0

      00FFE212H   BLOCK     ECODE    ---       LVL=0
      WR6         REGSYM    ---      INT       tim_n
      00FFE212H   LINE      ECODE    ---       #39
      00FFE212H   LINE      ECODE    ---       #42
      00FFE226H   LINE      ECODE    ---       #44
      00FFE226H   LINE      ECODE    ---       #46
      00FFE229H   LINE      ECODE    ---       #47
      00FFE22CH   LINE      ECODE    ---       #48
      00FFE22FH   LINE      ECODE    ---       #49
      00FFE231H   LINE      ECODE    ---       #50
      00FFE232H   LINE      ECODE    ---       #53
      00FFE232H   LINE      ECODE    ---       #55
      00FFE235H   LINE      ECODE    ---       #56
      00FFE238H   LINE      ECODE    ---       #57
      00FFE23BH   LINE      ECODE    ---       #58
      00FFE23DH   LINE      ECODE    ---       #59
      00FFE23EH   LINE      ECODE    ---       #62
      00FFE23EH   LINE      ECODE    ---       #64
      00FFE241H   LINE      ECODE    ---       #65
      00FFE244H   LINE      ECODE    ---       #66
      00FFE247H   LINE      ECODE    ---       #67
      00FFE248H   LINE      ECODE    ---       #70
      00FFE248H   LINE      ECODE    ---       #72
      00FFE24BH   LINE      ECODE    ---       #73
      00FFE24EH   LINE      ECODE    ---       #74
      00FFE251H   LINE      ECODE    ---       #75
      00FFE252H   LINE      ECODE    ---       #78
      00FFE252H   LINE      ECODE    ---       #80
      00FFE255H   LINE      ECODE    ---       #81
      00FFE258H   LINE      ECODE    ---       #82
      00FFE25BH   LINE      ECODE    ---       #83
      00FFE25BH   LINE      ECODE    ---       #86
      00FFE25BH   LINE      ECODE    ---       #87
      ---         BLOCKEND  ---      ---       LVL=0

      00FFE25CH   BLOCK     ECODE    ---       LVL=0
      WR4         REGSYM    ---      INT       tim_n
      00FFE25EH   BLOCK     ECODE    NEAR LAB  LVL=1
      WR6         REGSYM    ---      WORD      dat
      ---         BLOCKEND  ---      ---       LVL=1
      00FFE25CH   LINE      ECODE    ---       #95
      00FFE25EH   LINE      ECODE    ---       #96
      00FFE25EH   LINE      ECODE    ---       #97
      00FFE260H   LINE      ECODE    ---       #99
      00FFE274H   LINE      ECODE    ---       #101
      00FFE274H   LINE      ECODE    ---       #103
      00FFE27AH   LINE      ECODE    ---       #104
      00FFE27CH   LINE      ECODE    ---       #105
      00FFE27EH   LINE      ECODE    ---       #107
      00FFE27EH   LINE      ECODE    ---       #109
      00FFE284H   LINE      ECODE    ---       #110
      00FFE286H   LINE      ECODE    ---       #111
      00FFE288H   LINE      ECODE    ---       #113
      00FFE288H   LINE      ECODE    ---       #115
L251 LINKER/LOCATER V4.66.93.0                                                        06/26/2023  14:53:20  PAGE 54


      00FFE28EH   LINE      ECODE    ---       #116
      00FFE290H   LINE      ECODE    ---       #117
      00FFE292H   LINE      ECODE    ---       #119
      00FFE292H   LINE      ECODE    ---       #121
      00FFE298H   LINE      ECODE    ---       #122
      00FFE29AH   LINE      ECODE    ---       #123
      00FFE29CH   LINE      ECODE    ---       #125
      00FFE29CH   LINE      ECODE    ---       #127
      00FFE2A2H   LINE      ECODE    ---       #128
      00FFE2A8H   LINE      ECODE    ---       #129
      00FFE2A8H   LINE      ECODE    ---       #132
      00FFE2A8H   LINE      ECODE    ---       #133
      00FFE2A8H   LINE      ECODE    ---       #134
      ---         BLOCKEND  ---      ---       LVL=0

      00FFE2A9H   BLOCK     ECODE    ---       LVL=0
      WR6         REGSYM    ---      INT       tim_n
      00FFE2A9H   LINE      ECODE    ---       #143
      00FFE2A9H   LINE      ECODE    ---       #145
      00FFE2BDH   LINE      ECODE    ---       #147
      00FFE2BDH   LINE      ECODE    ---       #149
      00FFE2BFH   LINE      ECODE    ---       #150
      00FFE2C2H   LINE      ECODE    ---       #151
      00FFE2C5H   LINE      ECODE    ---       #152
      00FFE2C7H   LINE      ECODE    ---       #153
      00FFE2C8H   LINE      ECODE    ---       #155
      00FFE2C8H   LINE      ECODE    ---       #157
      00FFE2CAH   LINE      ECODE    ---       #158
      00FFE2CDH   LINE      ECODE    ---       #159
      00FFE2D0H   LINE      ECODE    ---       #160
      00FFE2D2H   LINE      ECODE    ---       #161
      00FFE2D3H   LINE      ECODE    ---       #163
      00FFE2D3H   LINE      ECODE    ---       #165
      00FFE2D6H   LINE      ECODE    ---       #166
      00FFE2D9H   LINE      ECODE    ---       #167
      00FFE2DCH   LINE      ECODE    ---       #168
      00FFE2DFH   LINE      ECODE    ---       #169
      00FFE2E0H   LINE      ECODE    ---       #171
      00FFE2E0H   LINE      ECODE    ---       #173
      00FFE2E3H   LINE      ECODE    ---       #174
      00FFE2E6H   LINE      ECODE    ---       #175
      00FFE2E9H   LINE      ECODE    ---       #176
      00FFE2ECH   LINE      ECODE    ---       #177
      00FFE2EDH   LINE      ECODE    ---       #179
      00FFE2EDH   LINE      ECODE    ---       #181
      00FFE2F0H   LINE      ECODE    ---       #182
      00FFE2F3H   LINE      ECODE    ---       #183
      00FFE2F6H   LINE      ECODE    ---       #184
      00FFE2F9H   LINE      ECODE    ---       #185
      00FFE2F9H   LINE      ECODE    ---       #187
      00FFE2F9H   LINE      ECODE    ---       #188
      ---         BLOCKEND  ---      ---       LVL=0

      00FFE2FAH   BLOCK     ECODE    ---       LVL=0
      WR30        REGSYM    ---      INT       tim_n
      WR28        REGSYM    ---      WORD      time_ms
      00FFE2FCH   BLOCK     ECODE    NEAR LAB  LVL=1
      WR28        REGSYM    ---      WORD      temp
      ---         BLOCKEND  ---      ---       LVL=1
      00FFE2FAH   LINE      ECODE    ---       #198
      00FFE2FCH   LINE      ECODE    ---       #199
      00FFE2FCH   LINE      ECODE    ---       #201
      00FFE320H   LINE      ECODE    ---       #203
      00FFE324H   LINE      ECODE    ---       #205
      00FFE328H   LINE      ECODE    ---       #206
L251 LINKER/LOCATER V4.66.93.0                                                        06/26/2023  14:53:20  PAGE 55


      00FFE32EH   LINE      ECODE    ---       #207
      00FFE332H   LINE      ECODE    ---       #208
      00FFE334H   LINE      ECODE    ---       #209
      00FFE336H   LINE      ECODE    ---       #210
      00FFE337H   LINE      ECODE    ---       #211
      00FFE33DH   LINE      ECODE    ---       #213
      00FFE341H   LINE      ECODE    ---       #214
      00FFE347H   LINE      ECODE    ---       #215
      00FFE34BH   LINE      ECODE    ---       #216
      00FFE34DH   LINE      ECODE    ---       #217
      00FFE34FH   LINE      ECODE    ---       #218
      00FFE350H   LINE      ECODE    ---       #219
      00FFE356H   LINE      ECODE    ---       #221
      00FFE35CH   LINE      ECODE    ---       #222
      00FFE360H   LINE      ECODE    ---       #223
      00FFE363H   LINE      ECODE    ---       #224
      00FFE366H   LINE      ECODE    ---       #225
      00FFE367H   LINE      ECODE    ---       #226
      00FFE36DH   LINE      ECODE    ---       #228
      00FFE373H   LINE      ECODE    ---       #229
      00FFE377H   LINE      ECODE    ---       #230
      00FFE37AH   LINE      ECODE    ---       #231
      00FFE37DH   LINE      ECODE    ---       #232
      00FFE37EH   LINE      ECODE    ---       #233
      00FFE384H   LINE      ECODE    ---       #235
      00FFE38AH   LINE      ECODE    ---       #236
      00FFE38EH   LINE      ECODE    ---       #237
      00FFE391H   LINE      ECODE    ---       #238
      00FFE394H   LINE      ECODE    ---       #239
      ---         BLOCKEND  ---      ---       LVL=0

      ---         MODULE    ---      ---       zf_uart
      00FFD476H   PUBLIC    ECODE    ---       uart_putchar?
      00FFD4CAH   PUBLIC    ECODE    ---       uart_putbuff?
      00FFD4FFH   PUBLIC    ECODE    ---       uart_putstr?
      00FFD2AAH   PUBLIC    ECODE    ---       uart_init?
      00010504H   PUBLIC    XDATA    ---       uart1_rx_buff
      00010568H   PUBLIC    XDATA    ---       uart1_tx_buff
      000105CCH   PUBLIC    XDATA    ---       busy
      000100A8H   PUBLIC    XDATA    BYTE      ?uart_init??BYTE
      000000D0H   SFRSYM    DATA     BYTE      PSW
      0000009DH   SFRSYM    DATA     BYTE      IRCBAND
      00000097H   SFRSYM    DATA     BYTE      AUXR2
      000000EFH   SFRSYM    DATA     BYTE      AUXINTIF
      000000FDH   SFRSYM    DATA     BYTE      S4CON
      000000ACH   SFRSYM    DATA     BYTE      S3CON
      0000009AH   SFRSYM    DATA     BYTE      S2CON
      000000FEH   SFRSYM    DATA     BYTE      S4BUF
      000000ADH   SFRSYM    DATA     BYTE      S3BUF
      0000009BH   SFRSYM    DATA     BYTE      S2BUF
      000000B7H   SFRSYM    DATA     BYTE      IPH
      000000CDH   SFRSYM    DATA     BYTE      SPSTAT
      000000DDH   SFRSYM    DATA     BYTE      T4T3M
      000000C1H   SFRSYM    DATA     BYTE      WDT_CONTR
      00000088H.6 SFRSYM    DATA     BIT       TR1
      000000D3H   SFRSYM    DATA     BYTE      T4L
      000000D5H   SFRSYM    DATA     BYTE      T3L
      000000D7H   SFRSYM    DATA     BYTE      T2L
      0000008BH   SFRSYM    DATA     BYTE      TL1
      000000D2H   SFRSYM    DATA     BYTE      T4H
      000000D4H   SFRSYM    DATA     BYTE      T3H
      000000D6H   SFRSYM    DATA     BYTE      T2H
      0000008DH   SFRSYM    DATA     BYTE      TH1
      000000DFH   SFRSYM    DATA     BYTE      IP3
      000000F4H   SFRSYM    DATA     BYTE      USBCON
L251 LINKER/LOCATER V4.66.93.0                                                        06/26/2023  14:53:20  PAGE 56


      000000B5H   SFRSYM    DATA     BYTE      IP2
      000000FFH   SFRSYM    DATA     BYTE      RSTCFG
      000000F9H   SFRSYM    DATA     BYTE      LINICR
      0000008EH   SFRSYM    DATA     BYTE      AUXR
      000000AFH   SFRSYM    DATA     BYTE      IE2
      00000088H   SFRSYM    DATA     BYTE      TCON
      00000089H   SFRSYM    DATA     BYTE      TMOD
      00000098H   SFRSYM    DATA     BYTE      SCON
      000000F1H   SFRSYM    DATA     BYTE      CANICR
      00000087H   SFRSYM    DATA     BYTE      PCON
      00000099H   SFRSYM    DATA     BYTE      SBUF
      000000BCH   SFRSYM    DATA     BYTE      ADC_CONTR
      000000E7H   SFRSYM    DATA     BYTE      CMPCR2
      000000E6H   SFRSYM    DATA     BYTE      CMPCR1
      000000B8H   SFRSYM    DATA     BYTE      IP
      000000A8H.4 SFRSYM    DATA     BIT       ES
      0000008FH   SFRSYM    DATA     BYTE      INTCLKO
      000000EEH   SFRSYM    DATA     BYTE      IP3H
      000000B6H   SFRSYM    DATA     BYTE      IP2H
      000000A8H   SFRSYM    DATA     BYTE      IE
      000000BBH   SFRSYM    DATA     BYTE      P_SW3
      000000BAH   SFRSYM    DATA     BYTE      P_SW2
      000000A2H   SFRSYM    DATA     BYTE      P_SW1
      000000CEH   SFRSYM    DATA     BYTE      SPCTL
      000000F8H   SFRSYM    DATA     BYTE      P7
      000000E8H   SFRSYM    DATA     BYTE      P6
      000000C8H   SFRSYM    DATA     BYTE      P5
      000000C0H   SFRSYM    DATA     BYTE      P4
      000000C9H   SFRSYM    DATA     BYTE      P5M1
      000000B0H   SFRSYM    DATA     BYTE      P3
      000000CAH   SFRSYM    DATA     BYTE      P5M0
      000000A0H   SFRSYM    DATA     BYTE      P2
      00000090H   SFRSYM    DATA     BYTE      P1
      00000080H   SFRSYM    DATA     BYTE      P0

      00FFD2AAH   BLOCK     ECODE    ---       LVL=0
      WR24        REGSYM    ---      INT       uart_n
      WR28        REGSYM    ---      INT       uart_rx_pin
      WR30        REGSYM    ---      INT       uart_tx_pin
      000100AEH   SYMBOL    XDATA    DWORD     baud
      WR26        REGSYM    ---      INT       tim_n
      00FFD2B2H   BLOCK     ECODE    NEAR LAB  LVL=1
      WR6         REGSYM    ---      WORD      brt
      ---         BLOCKEND  ---      ---       LVL=1
      00FFD2AAH   LINE      ECODE    ---       #48
      00FFD2B2H   LINE      ECODE    ---       #49
      00FFD2B2H   LINE      ECODE    ---       #52
      00FFD2E2H   LINE      ECODE    ---       #55
      00FFD300H   LINE      ECODE    ---       #57
      00FFD300H   LINE      ECODE    ---       #59
      00FFD306H   LINE      ECODE    ---       #61
      00FFD309H   LINE      ECODE    ---       #62
      00FFD30DH   LINE      ECODE    ---       #63
      00FFD311H   LINE      ECODE    ---       #64
      00FFD315H   LINE      ECODE    ---       #65
      00FFD318H   LINE      ECODE    ---       #66
      00FFD31AH   LINE      ECODE    ---       #67
      00FFD31FH   LINE      ECODE    ---       #68
      00FFD321H   LINE      ECODE    ---       #69
      00FFD327H   LINE      ECODE    ---       #71
      00FFD32AH   LINE      ECODE    ---       #72
      00FFD32EH   LINE      ECODE    ---       #73
      00FFD332H   LINE      ECODE    ---       #74
      00FFD335H   LINE      ECODE    ---       #75
      00FFD335H   LINE      ECODE    ---       #76
L251 LINKER/LOCATER V4.66.93.0                                                        06/26/2023  14:53:20  PAGE 57


      00FFD338H   LINE      ECODE    ---       #77
      00FFD342H   LINE      ECODE    ---       #79
      00FFD346H   LINE      ECODE    ---       #80
      00FFD348H   LINE      ECODE    ---       #81
      00FFD354H   LINE      ECODE    ---       #83
      00FFD357H   LINE      ECODE    ---       #84
      00FFD359H   LINE      ECODE    ---       #85
      00FFD365H   LINE      ECODE    ---       #87
      00FFD368H   LINE      ECODE    ---       #88
      00FFD36AH   LINE      ECODE    ---       #89
      00FFD376H   LINE      ECODE    ---       #91
      00FFD379H   LINE      ECODE    ---       #92
      00FFD379H   LINE      ECODE    ---       #93
      00FFD37EH   LINE      ECODE    ---       #94
      00FFD380H   LINE      ECODE    ---       #95
      00FFD381H   LINE      ECODE    ---       #98
      00FFD381H   LINE      ECODE    ---       #100
      00FFD387H   LINE      ECODE    ---       #102
      00FFD38AH   LINE      ECODE    ---       #103
      00FFD38EH   LINE      ECODE    ---       #104
      00FFD392H   LINE      ECODE    ---       #105
      00FFD395H   LINE      ECODE    ---       #106
      00FFD395H   LINE      ECODE    ---       #108
      00FFD398H   LINE      ECODE    ---       #109
      00FFD3A4H   LINE      ECODE    ---       #111
      00FFD3A8H   LINE      ECODE    ---       #112
      00FFD3AAH   LINE      ECODE    ---       #113
      00FFD3B6H   LINE      ECODE    ---       #115
      00FFD3B9H   LINE      ECODE    ---       #116
      00FFD3B9H   LINE      ECODE    ---       #118
      00FFD3BCH   LINE      ECODE    ---       #119
      00FFD3C1H   LINE      ECODE    ---       #120
      00FFD3C2H   LINE      ECODE    ---       #123
      00FFD3C2H   LINE      ECODE    ---       #125
      00FFD3C8H   LINE      ECODE    ---       #127
      00FFD3CBH   LINE      ECODE    ---       #128
      00FFD3CFH   LINE      ECODE    ---       #129
      00FFD3D3H   LINE      ECODE    ---       #130
      00FFD3D6H   LINE      ECODE    ---       #131
      00FFD3D8H   LINE      ECODE    ---       #132
      00FFD3DEH   LINE      ECODE    ---       #134
      00FFD3E1H   LINE      ECODE    ---       #135
      00FFD3E5H   LINE      ECODE    ---       #136
      00FFD3E9H   LINE      ECODE    ---       #137
      00FFD3ECH   LINE      ECODE    ---       #138
      00FFD3ECH   LINE      ECODE    ---       #140
      00FFD3EFH   LINE      ECODE    ---       #141
      00FFD3FBH   LINE      ECODE    ---       #143
      00FFD3FFH   LINE      ECODE    ---       #144
      00FFD401H   LINE      ECODE    ---       #145
      00FFD40DH   LINE      ECODE    ---       #147
      00FFD410H   LINE      ECODE    ---       #148
      00FFD410H   LINE      ECODE    ---       #150
      00FFD413H   LINE      ECODE    ---       #151
      00FFD418H   LINE      ECODE    ---       #152
      00FFD419H   LINE      ECODE    ---       #155
      00FFD419H   LINE      ECODE    ---       #157
      00FFD41FH   LINE      ECODE    ---       #159
      00FFD422H   LINE      ECODE    ---       #160
      00FFD426H   LINE      ECODE    ---       #161
      00FFD42AH   LINE      ECODE    ---       #162
      00FFD42DH   LINE      ECODE    ---       #163
      00FFD42FH   LINE      ECODE    ---       #164
      00FFD435H   LINE      ECODE    ---       #166
      00FFD438H   LINE      ECODE    ---       #167
L251 LINKER/LOCATER V4.66.93.0                                                        06/26/2023  14:53:20  PAGE 58


      00FFD43CH   LINE      ECODE    ---       #168
      00FFD440H   LINE      ECODE    ---       #169
      00FFD443H   LINE      ECODE    ---       #170
      00FFD443H   LINE      ECODE    ---       #172
      00FFD446H   LINE      ECODE    ---       #173
      00FFD452H   LINE      ECODE    ---       #175
      00FFD456H   LINE      ECODE    ---       #176
      00FFD458H   LINE      ECODE    ---       #177
      00FFD464H   LINE      ECODE    ---       #179
      00FFD467H   LINE      ECODE    ---       #180
      00FFD46AH   LINE      ECODE    ---       #181
      00FFD46DH   LINE      ECODE    ---       #182
      00FFD46DH   LINE      ECODE    ---       #183
      00FFD470H   LINE      ECODE    ---       #184
      00FFD475H   LINE      ECODE    ---       #185
      00FFD475H   LINE      ECODE    ---       #188
      00FFD475H   LINE      ECODE    ---       #190
      ---         BLOCKEND  ---      ---       LVL=0

      00FFD476H   BLOCK     ECODE    ---       LVL=0
      WR6         REGSYM    ---      INT       uart_n
      R10         REGSYM    ---      BYTE      dat
      00FFD476H   LINE      ECODE    ---       #199
      00FFD478H   LINE      ECODE    ---       #201
      00FFD48AH   LINE      ECODE    ---       #203
      00FFD48AH   LINE      ECODE    ---       #204
      00FFD490H   LINE      ECODE    ---       #205
      00FFD496H   LINE      ECODE    ---       #206
      00FFD499H   LINE      ECODE    ---       #207
      00FFD49AH   LINE      ECODE    ---       #208
      00FFD49AH   LINE      ECODE    ---       #209
      00FFD4A0H   LINE      ECODE    ---       #210
      00FFD4A6H   LINE      ECODE    ---       #211
      00FFD4A9H   LINE      ECODE    ---       #212
      00FFD4AAH   LINE      ECODE    ---       #213
      00FFD4AAH   LINE      ECODE    ---       #214
      00FFD4B0H   LINE      ECODE    ---       #215
      00FFD4B6H   LINE      ECODE    ---       #216
      00FFD4B9H   LINE      ECODE    ---       #217
      00FFD4BAH   LINE      ECODE    ---       #218
      00FFD4BAH   LINE      ECODE    ---       #219
      00FFD4C0H   LINE      ECODE    ---       #220
      00FFD4C6H   LINE      ECODE    ---       #221
      00FFD4C9H   LINE      ECODE    ---       #222
      00FFD4C9H   LINE      ECODE    ---       #223
      00FFD4C9H   LINE      ECODE    ---       #224
      ---         BLOCKEND  ---      ---       LVL=0

      00FFD4CAH   BLOCK     ECODE    ---       LVL=0
      000108B0H   SYMBOL    XDATA    INT       uart_n
      REG=3       REGSYM    ---      ---       p
      000108B2H   SYMBOL    XDATA    WORD      len
      00FFD4CAH   LINE      ECODE    ---       #235
      00FFD4DAH   LINE      ECODE    ---       #237
      00FFD4FCH   LINE      ECODE    ---       #239
      ---         BLOCKEND  ---      ---       LVL=0

      00FFD4FFH   BLOCK     ECODE    ---       LVL=0
      REG=3       REGSYM    ---      ---       str
      00FFD4FFH   LINE      ECODE    ---       #249
      00FFD509H   LINE      ECODE    ---       #251
      00FFD50BH   LINE      ECODE    ---       #253
      00FFD51AH   LINE      ECODE    ---       #254
      00FFD51FH   LINE      ECODE    ---       #255
      ---         BLOCKEND  ---      ---       LVL=0
L251 LINKER/LOCATER V4.66.93.0                                                        06/26/2023  14:53:20  PAGE 59



      ---         MODULE    ---      ---       zf_fifo
      00FFC384H   PUBLIC    ECODE    ---       fifo_read_buffer?
      00FFC180H   PUBLIC    ECODE    ---       fifo_head_offset?
      00FFC208H   PUBLIC    ECODE    ---       fifo_clear?
      00FFC242H   PUBLIC    ECODE    ---       fifo_write_buffer?
      00FFC1C2H   PUBLIC    ECODE    ---       fifo_end_offset?
      00FFC22DH   PUBLIC    ECODE    ---       fifo_used?
      00FFC131H   PUBLIC    ECODE    ---       fifo_init?
      000108ACH   PUBLIC    XDATA    BYTE      ?fifo_init??BYTE
      0000FFFCH   PUBLIC    XDATA    BYTE      ?fifo_write_buffer??BYTE
      0001081BH   PUBLIC    XDATA    BYTE      ?fifo_read_buffer??BYTE
      000000D0H   SFRSYM    DATA     BYTE      PSW
      0000009DH   SFRSYM    DATA     BYTE      IRCBAND
      00000097H   SFRSYM    DATA     BYTE      AUXR2
      000000EFH   SFRSYM    DATA     BYTE      AUXINTIF
      000000FDH   SFRSYM    DATA     BYTE      S4CON
      000000ACH   SFRSYM    DATA     BYTE      S3CON
      0000009AH   SFRSYM    DATA     BYTE      S2CON
      000000B7H   SFRSYM    DATA     BYTE      IPH
      000000CDH   SFRSYM    DATA     BYTE      SPSTAT
      000000DDH   SFRSYM    DATA     BYTE      T4T3M
      000000C1H   SFRSYM    DATA     BYTE      WDT_CONTR
      000000DFH   SFRSYM    DATA     BYTE      IP3
      000000F4H   SFRSYM    DATA     BYTE      USBCON
      000000B5H   SFRSYM    DATA     BYTE      IP2
      000000FFH   SFRSYM    DATA     BYTE      RSTCFG
      000000F9H   SFRSYM    DATA     BYTE      LINICR
      0000008EH   SFRSYM    DATA     BYTE      AUXR
      000000AFH   SFRSYM    DATA     BYTE      IE2
      00000088H   SFRSYM    DATA     BYTE      TCON
      00000098H   SFRSYM    DATA     BYTE      SCON
      000000F1H   SFRSYM    DATA     BYTE      CANICR
      00000087H   SFRSYM    DATA     BYTE      PCON
      000000BCH   SFRSYM    DATA     BYTE      ADC_CONTR
      000000E7H   SFRSYM    DATA     BYTE      CMPCR2
      000000E6H   SFRSYM    DATA     BYTE      CMPCR1
      000000B8H   SFRSYM    DATA     BYTE      IP
      0000008FH   SFRSYM    DATA     BYTE      INTCLKO
      000000EEH   SFRSYM    DATA     BYTE      IP3H
      000000B6H   SFRSYM    DATA     BYTE      IP2H
      000000A8H   SFRSYM    DATA     BYTE      IE
      000000BBH   SFRSYM    DATA     BYTE      P_SW3
      000000BAH   SFRSYM    DATA     BYTE      P_SW2
      000000A2H   SFRSYM    DATA     BYTE      P_SW1
      000000CEH   SFRSYM    DATA     BYTE      SPCTL
      000000F8H   SFRSYM    DATA     BYTE      P7
      000000E8H   SFRSYM    DATA     BYTE      P6
      000000C8H   SFRSYM    DATA     BYTE      P5
      000000C0H   SFRSYM    DATA     BYTE      P4
      000000B0H   SFRSYM    DATA     BYTE      P3
      000000A0H   SFRSYM    DATA     BYTE      P2
      00000090H   SFRSYM    DATA     BYTE      P1
      00000080H   SFRSYM    DATA     BYTE      P0

      00FFC131H   BLOCK     ECODE    ---       LVL=0
      REG=2       REGSYM    ---      ---       fifo
      REG=7       REGSYM    ---      ---       buffer_addr
      000108B4H   SYMBOL    XDATA    DWORD     size
      00FFC131H   LINE      ECODE    ---       #42
      00FFC135H   LINE      ECODE    ---       #44
      00FFC13BH   LINE      ECODE    ---       #45
      00FFC140H   LINE      ECODE    ---       #46
      00FFC147H   LINE      ECODE    ---       #47
      00FFC151H   LINE      ECODE    ---       #48
L251 LINKER/LOCATER V4.66.93.0                                                        06/26/2023  14:53:20  PAGE 60


      00FFC159H   LINE      ECODE    ---       #49
      00FFC16BH   LINE      ECODE    ---       #50
      00FFC17DH   LINE      ECODE    ---       #51
      00FFC17FH   LINE      ECODE    ---       #52
      ---         BLOCKEND  ---      ---       LVL=0

      00FFC180H   BLOCK     ECODE    ---       LVL=0
      REG=7       REGSYM    ---      ---       fifo
      DR24        REGSYM    ---      DWORD     offset
      00FFC180H   LINE      ECODE    ---       #61
      00FFC184H   LINE      ECODE    ---       #63
      00FFC18FH   LINE      ECODE    ---       #65
      00FFC191H   LINE      ECODE    ---       #67
      00FFC1ADH   LINE      ECODE    ---       #68
      00FFC1C1H   LINE      ECODE    ---       #69
      ---         BLOCKEND  ---      ---       LVL=0

      00FFC1C2H   BLOCK     ECODE    ---       LVL=0
      REG=7       REGSYM    ---      ---       fifo
      DR24        REGSYM    ---      DWORD     offset
      00FFC1C2H   LINE      ECODE    ---       #78
      00FFC1C6H   LINE      ECODE    ---       #80
      00FFC1D3H   LINE      ECODE    ---       #82
      00FFC1D5H   LINE      ECODE    ---       #84
      00FFC1F3H   LINE      ECODE    ---       #85
      00FFC207H   LINE      ECODE    ---       #86
      ---         BLOCKEND  ---      ---       LVL=0

      00FFC208H   BLOCK     ECODE    ---       LVL=0
      REG=2       REGSYM    ---      ---       fifo
      00FFC208H   LINE      ECODE    ---       #94
      00FFC20AH   LINE      ECODE    ---       #96
      00FFC214H   LINE      ECODE    ---       #97
      00FFC21CH   LINE      ECODE    ---       #98
      00FFC22CH   LINE      ECODE    ---       #99
      ---         BLOCKEND  ---      ---       LVL=0

      00FFC22DH   BLOCK     ECODE    ---       LVL=0
      REG=7       REGSYM    ---      ---       fifo
      00FFC22DH   LINE      ECODE    ---       #107
      00FFC22FH   LINE      ECODE    ---       #109
      00FFC241H   LINE      ECODE    ---       #110
      ---         BLOCKEND  ---      ---       LVL=0

      00FFC242H   BLOCK     ECODE    ---       LVL=0
      REG=3       REGSYM    ---      ---       fifo
      00010000H   SYMBOL    XDATA    ---       dat
      00010004H   SYMBOL    XDATA    DWORD     length
      00FFC250H   BLOCK     ECODE    NEAR LAB  LVL=1
      00010008H   SYMBOL    XDATA    DWORD     temp_length
      ---         BLOCKEND  ---      ---       LVL=1
      00FFC242H   LINE      ECODE    ---       #120
      00FFC250H   LINE      ECODE    ---       #121
      00FFC250H   LINE      ECODE    ---       #124
      00FFC269H   LINE      ECODE    ---       #126
      00FFC285H   LINE      ECODE    ---       #128
      00FFC28CH   LINE      ECODE    ---       #130
      00FFC2AEH   LINE      ECODE    ---       #131
      00FFC2BEH   LINE      ECODE    ---       #132
      00FFC2DDH   LINE      ECODE    ---       #133
      00FFC307H   LINE      ECODE    ---       #134
      00FFC31FH   LINE      ECODE    ---       #135
      00FFC321H   LINE      ECODE    ---       #138
      00FFC347H   LINE      ECODE    ---       #139
      00FFC357H   LINE      ECODE    ---       #140
L251 LINKER/LOCATER V4.66.93.0                                                        06/26/2023  14:53:20  PAGE 61


      00FFC357H   LINE      ECODE    ---       #142
      00FFC377H   LINE      ECODE    ---       #143
      00FFC379H   LINE      ECODE    ---       #146
      00FFC37FH   LINE      ECODE    ---       #147
      00FFC37FH   LINE      ECODE    ---       #149
      00FFC381H   LINE      ECODE    ---       #150
      ---         BLOCKEND  ---      ---       LVL=0

      00FFC384H   BLOCK     ECODE    ---       LVL=0
      REG=3       REGSYM    ---      ---       fifo
      0001081FH   SYMBOL    XDATA    ---       dat
      00010823H   SYMBOL    XDATA    ---       length
      00010827H   SYMBOL    XDATA    INT       flag
      00FFC392H   BLOCK     ECODE    NEAR LAB  LVL=1
      00010829H   SYMBOL    XDATA    BYTE      data_check
      0001082AH   SYMBOL    XDATA    DWORD     temp_length
      ---         BLOCKEND  ---      ---       LVL=1
      00FFC384H   LINE      ECODE    ---       #161
      00FFC392H   LINE      ECODE    ---       #162
      00FFC392H   LINE      ECODE    ---       #163
      00FFC397H   LINE      ECODE    ---       #166
      00FFC3B2H   LINE      ECODE    ---       #168
      00FFC3CBH   LINE      ECODE    ---       #169
      00FFC3D1H   LINE      ECODE    ---       #170
      00FFC3D1H   LINE      ECODE    ---       #172
      00FFC3EDH   LINE      ECODE    ---       #173
      00FFC402H   LINE      ECODE    ---       #175
      00FFC41FH   LINE      ECODE    ---       #176
      00FFC421H   LINE      ECODE    ---       #179
      00FFC431H   LINE      ECODE    ---       #181
      00FFC44FH   LINE      ECODE    ---       #182
      00FFC486H   LINE      ECODE    ---       #183
      00FFC486H   LINE      ECODE    ---       #186
      00FFC490H   LINE      ECODE    ---       #188
      00FFC4A7H   LINE      ECODE    ---       #189
      00FFC4CEH   LINE      ECODE    ---       #190
      00FFC4CEH   LINE      ECODE    ---       #192
      00FFC4DCH   LINE      ECODE    ---       #193
      ---         BLOCKEND  ---      ---       LVL=0

      ---         MODULE    ---      ---       SEEKFREE_18TFT
      00FF5365H   PUBLIC    ECODE    ---       lcd_showuint16?
      00FF4AF8H   PUBLIC    ECODE    ---       lcd_showint32_simspi?
      00FF495CH   PUBLIC    ECODE    ---       lcd_showint16_simspi?
      00FF53FDH   PUBLIC    ECODE    ---       lcd_showint32?
      00FF5261H   PUBLIC    ECODE    ---       lcd_showint16?
      00FF448EH   PUBLIC    ECODE    ---       lcd_clear_simspi?
      00FF4D92H   PUBLIC    ECODE    ---       lcd_clear?
      00FF47A7H   PUBLIC    ECODE    ---       lcd_showstr_simspi?
      00FF50ACH   PUBLIC    ECODE    ---       lcd_showstr?
      00FF43B1H   PUBLIC    ECODE    ---       lcd_writeIndex_simspi?
      00FF43DAH   PUBLIC    ECODE    ---       lcd_writeData_simspi?
      00FF4CF6H   PUBLIC    ECODE    ---       lcd_writeIndex?
      00FF4D01H   PUBLIC    ECODE    ---       lcd_writeData?
      00FF4403H   PUBLIC    ECODE    ---       lcd_writeData_16bit_simspi?
      00FF442FH   PUBLIC    ECODE    ---       lcd_set_region_simspi?
      00FF44BBH   PUBLIC    ECODE    ---       lcd_init_simspi?
      00FF55FBH   PUBLIC    ECODE    ---       showimage?
      00FF4D2FH   PUBLIC    ECODE    ---       lcd_set_region?
      00FF4DBFH   PUBLIC    ECODE    ---       lcd_init?
      00FF48D6H   PUBLIC    ECODE    ---       lcd_showuint8_simspi?
      00FF51DBH   PUBLIC    ECODE    ---       lcd_showuint8?
      00FF480AH   PUBLIC    ECODE    ---       lcd_showint8_simspi?
      00FF510FH   PUBLIC    ECODE    ---       lcd_showint8?
      00FF4D0CH   PUBLIC    ECODE    ---       lcd_writedata_16bit?
L251 LINKER/LOCATER V4.66.93.0                                                        06/26/2023  14:53:20  PAGE 62


      00FF4BBBH   PUBLIC    ECODE    ---       lcd_showfloat_simspi?
      00FF4708H   PUBLIC    ECODE    ---       lcd_drawpoint_simspi?
      00FF54C0H   PUBLIC    ECODE    ---       lcd_showfloat?
      00FF500DH   PUBLIC    ECODE    ---       lcd_drawpoint?
      00FF471DH   PUBLIC    ECODE    ---       lcd_showchar_simspi?
      00FF5022H   PUBLIC    ECODE    ---       lcd_showchar?
      00FF4A60H   PUBLIC    ECODE    ---       lcd_showuint16_simspi?
      000100ADH   PUBLIC    XDATA    BYTE      ?lcd_showfloat??BYTE
      000000D0H   SFRSYM    DATA     BYTE      PSW
      0000009DH   SFRSYM    DATA     BYTE      IRCBAND
      00000097H   SFRSYM    DATA     BYTE      AUXR2
      000000EFH   SFRSYM    DATA     BYTE      AUXINTIF
      000000FDH   SFRSYM    DATA     BYTE      S4CON
      000000ACH   SFRSYM    DATA     BYTE      S3CON
      0000009AH   SFRSYM    DATA     BYTE      S2CON
      000000B7H   SFRSYM    DATA     BYTE      IPH
      000000CDH   SFRSYM    DATA     BYTE      SPSTAT
      000000DDH   SFRSYM    DATA     BYTE      T4T3M
      000000C1H   SFRSYM    DATA     BYTE      WDT_CONTR
      000000DFH   SFRSYM    DATA     BYTE      IP3
      000000F4H   SFRSYM    DATA     BYTE      USBCON
      000000B5H   SFRSYM    DATA     BYTE      IP2
      000000FFH   SFRSYM    DATA     BYTE      RSTCFG
      000000F9H   SFRSYM    DATA     BYTE      LINICR
      0000008EH   SFRSYM    DATA     BYTE      AUXR
      000000AFH   SFRSYM    DATA     BYTE      IE2
      000000E8H.7 SFRSYM    DATA     BIT       P67
      000000E8H.5 SFRSYM    DATA     BIT       P65
      000000A0H.5 SFRSYM    DATA     BIT       P25
      00000088H   SFRSYM    DATA     BYTE      TCON
      000000A0H.3 SFRSYM    DATA     BIT       P23
      00000098H   SFRSYM    DATA     BYTE      SCON
      000000A0H.2 SFRSYM    DATA     BIT       P22
      000000A0H.1 SFRSYM    DATA     BIT       P21
      000000A0H.0 SFRSYM    DATA     BIT       P20
      000000F1H   SFRSYM    DATA     BYTE      CANICR
      00000087H   SFRSYM    DATA     BYTE      PCON
      000000BCH   SFRSYM    DATA     BYTE      ADC_CONTR
      000000E7H   SFRSYM    DATA     BYTE      CMPCR2
      000000E6H   SFRSYM    DATA     BYTE      CMPCR1
      000000B8H   SFRSYM    DATA     BYTE      IP
      0000008FH   SFRSYM    DATA     BYTE      INTCLKO
      000000EEH   SFRSYM    DATA     BYTE      IP3H
      000000B6H   SFRSYM    DATA     BYTE      IP2H
      000000A8H   SFRSYM    DATA     BYTE      IE
      000000BBH   SFRSYM    DATA     BYTE      P_SW3
      000000BAH   SFRSYM    DATA     BYTE      P_SW2
      000000A2H   SFRSYM    DATA     BYTE      P_SW1
      000000CEH   SFRSYM    DATA     BYTE      SPCTL
      000000F8H   SFRSYM    DATA     BYTE      P7
      000000E8H   SFRSYM    DATA     BYTE      P6
      000000C8H   SFRSYM    DATA     BYTE      P5
      000000C0H   SFRSYM    DATA     BYTE      P4
      000000B0H   SFRSYM    DATA     BYTE      P3
      000000A0H   SFRSYM    DATA     BYTE      P2
      00000090H   SFRSYM    DATA     BYTE      P1
      00000080H   SFRSYM    DATA     BYTE      P0

      00FF43B1H   BLOCK     ECODE    ---       LVL=0
      R7          REGSYM    ---      BYTE      dat
      00FF43B3H   BLOCK     ECODE    NEAR LAB  LVL=1
      R6          REGSYM    ---      BYTE      i
      ---         BLOCKEND  ---      ---       LVL=1
      00FF43B1H   LINE      ECODE    ---       #60
      00FF43B3H   LINE      ECODE    ---       #61
L251 LINKER/LOCATER V4.66.93.0                                                        06/26/2023  14:53:20  PAGE 63


      00FF43B3H   LINE      ECODE    ---       #62
      00FF43B6H   LINE      ECODE    ---       #64
      00FF43B8H   LINE      ECODE    ---       #65
      00FF43BAH   LINE      ECODE    ---       #66
      00FF43BCH   LINE      ECODE    ---       #68
      00FF43BEH   LINE      ECODE    ---       #70
      00FF43C7H   LINE      ECODE    ---       #71
      00FF43C9H   LINE      ECODE    ---       #72
      00FF43CBH   LINE      ECODE    ---       #74
      00FF43CDH   LINE      ECODE    ---       #75
      00FF43CFH   LINE      ECODE    ---       #76
      00FF43D7H   LINE      ECODE    ---       #77
      00FF43D9H   LINE      ECODE    ---       #78
      ---         BLOCKEND  ---      ---       LVL=0

      00FF43DAH   BLOCK     ECODE    ---       LVL=0
      R7          REGSYM    ---      BYTE      dat
      00FF43DCH   BLOCK     ECODE    NEAR LAB  LVL=1
      R6          REGSYM    ---      BYTE      i
      ---         BLOCKEND  ---      ---       LVL=1
      00FF43DAH   LINE      ECODE    ---       #87
      00FF43DCH   LINE      ECODE    ---       #88
      00FF43DCH   LINE      ECODE    ---       #89
      00FF43DFH   LINE      ECODE    ---       #91
      00FF43E1H   LINE      ECODE    ---       #92
      00FF43E3H   LINE      ECODE    ---       #93
      00FF43E5H   LINE      ECODE    ---       #94
      00FF43E7H   LINE      ECODE    ---       #96
      00FF43F0H   LINE      ECODE    ---       #97
      00FF43F2H   LINE      ECODE    ---       #98
      00FF43F4H   LINE      ECODE    ---       #100
      00FF43F6H   LINE      ECODE    ---       #101
      00FF43F8H   LINE      ECODE    ---       #102
      00FF4400H   LINE      ECODE    ---       #103
      00FF4402H   LINE      ECODE    ---       #104
      ---         BLOCKEND  ---      ---       LVL=0

      00FF4403H   BLOCK     ECODE    ---       LVL=0
      WR4         REGSYM    ---      WORD      dat
      00FF4405H   BLOCK     ECODE    NEAR LAB  LVL=1
      R10         REGSYM    ---      BYTE      i
      ---         BLOCKEND  ---      ---       LVL=1
      00FF4403H   LINE      ECODE    ---       #113
      00FF4405H   LINE      ECODE    ---       #114
      00FF4405H   LINE      ECODE    ---       #115
      00FF4408H   LINE      ECODE    ---       #117
      00FF440AH   LINE      ECODE    ---       #118
      00FF440CH   LINE      ECODE    ---       #119
      00FF440EH   LINE      ECODE    ---       #121
      00FF4410H   LINE      ECODE    ---       #123
      00FF441CH   LINE      ECODE    ---       #124
      00FF441EH   LINE      ECODE    ---       #125
      00FF4420H   LINE      ECODE    ---       #127
      00FF4422H   LINE      ECODE    ---       #128
      00FF4424H   LINE      ECODE    ---       #129
      00FF442CH   LINE      ECODE    ---       #131
      00FF442EH   LINE      ECODE    ---       #133
      ---         BLOCKEND  ---      ---       LVL=0

      00FF442FH   BLOCK     ECODE    ---       LVL=0
      000108B8H   SYMBOL    XDATA    WORD      x_start
      000108BAH   SYMBOL    XDATA    WORD      y_start
      WR12        REGSYM    ---      WORD      x_end
      WR14        REGSYM    ---      WORD      y_end
      00FF442FH   LINE      ECODE    ---       #145
L251 LINKER/LOCATER V4.66.93.0                                                        06/26/2023  14:53:20  PAGE 64


      00FF443DH   LINE      ECODE    ---       #150
      00FF4443H   LINE      ECODE    ---       #151
      00FF4448H   LINE      ECODE    ---       #152
      00FF4454H   LINE      ECODE    ---       #153
      00FF4459H   LINE      ECODE    ---       #154
      00FF4461H   LINE      ECODE    ---       #156
      00FF4467H   LINE      ECODE    ---       #157
      00FF446CH   LINE      ECODE    ---       #158
      00FF4478H   LINE      ECODE    ---       #159
      00FF447DH   LINE      ECODE    ---       #160
      00FF4485H   LINE      ECODE    ---       #177
      00FF448BH   LINE      ECODE    ---       #178
      ---         BLOCKEND  ---      ---       LVL=0

      00FF448EH   BLOCK     ECODE    ---       LVL=0
      WR14        REGSYM    ---      INT       color
      00FF4492H   BLOCK     ECODE    NEAR LAB  LVL=1
      R13         REGSYM    ---      BYTE      i
      R12         REGSYM    ---      BYTE      j
      ---         BLOCKEND  ---      ---       LVL=1
      00FF448EH   LINE      ECODE    ---       #187
      00FF4492H   LINE      ECODE    ---       #188
      00FF4492H   LINE      ECODE    ---       #190
      00FF44A2H   LINE      ECODE    ---       #191
      00FF44A5H   LINE      ECODE    ---       #192
      00FF44A7H   LINE      ECODE    ---       #193
      00FF44B8H   LINE      ECODE    ---       #194
      ---         BLOCKEND  ---      ---       LVL=0

      00FF44BBH   BLOCK     ECODE    ---       LVL=0
      00FF44BBH   LINE      ECODE    ---       #203
      00FF44BBH   LINE      ECODE    ---       #207
      00FF44BDH   LINE      ECODE    ---       #208
      00FF44C5H   LINE      ECODE    ---       #209
      00FF44C7H   LINE      ECODE    ---       #210
      00FF44CFH   LINE      ECODE    ---       #211
      00FF44D5H   LINE      ECODE    ---       #212
      00FF44DDH   LINE      ECODE    ---       #214
      00FF44E3H   LINE      ECODE    ---       #215
      00FF44E9H   LINE      ECODE    ---       #216
      00FF44EFH   LINE      ECODE    ---       #217
      00FF44F5H   LINE      ECODE    ---       #219
      00FF44FBH   LINE      ECODE    ---       #220
      00FF4501H   LINE      ECODE    ---       #221
      00FF4507H   LINE      ECODE    ---       #222
      00FF450DH   LINE      ECODE    ---       #224
      00FF4513H   LINE      ECODE    ---       #225
      00FF4519H   LINE      ECODE    ---       #226
      00FF451FH   LINE      ECODE    ---       #227
      00FF4525H   LINE      ECODE    ---       #228
      00FF452BH   LINE      ECODE    ---       #229
      00FF4531H   LINE      ECODE    ---       #230
      00FF4537H   LINE      ECODE    ---       #232
      00FF453DH   LINE      ECODE    ---       #233
      00FF4543H   LINE      ECODE    ---       #235
      00FF4549H   LINE      ECODE    ---       #236
      00FF454FH   LINE      ECODE    ---       #237
      00FF4555H   LINE      ECODE    ---       #238
      00FF455BH   LINE      ECODE    ---       #239
      00FF4561H   LINE      ECODE    ---       #240
      00FF4567H   LINE      ECODE    ---       #242
      00FF456DH   LINE      ECODE    ---       #243
      00FF4573H   LINE      ECODE    ---       #244
      00FF4578H   LINE      ECODE    ---       #246
      00FF457EH   LINE      ECODE    ---       #247
L251 LINKER/LOCATER V4.66.93.0                                                        06/26/2023  14:53:20  PAGE 65


      00FF4584H   LINE      ECODE    ---       #248
      00FF458AH   LINE      ECODE    ---       #249
      00FF4590H   LINE      ECODE    ---       #250
      00FF4596H   LINE      ECODE    ---       #251
      00FF459CH   LINE      ECODE    ---       #253
      00FF45A2H   LINE      ECODE    ---       #254
      00FF45A8H   LINE      ECODE    ---       #256
      00FF45AEH   LINE      ECODE    ---       #257
      00FF45C4H   LINE      ECODE    ---       #259
      00FF45C8H   LINE      ECODE    ---       #260
      00FF45CBH   LINE      ECODE    ---       #261
      00FF45CFH   LINE      ECODE    ---       #262
      00FF45D5H   LINE      ECODE    ---       #263
      00FF45D5H   LINE      ECODE    ---       #265
      00FF45DBH   LINE      ECODE    ---       #266
      00FF45E1H   LINE      ECODE    ---       #267
      00FF45E7H   LINE      ECODE    ---       #268
      00FF45EDH   LINE      ECODE    ---       #269
      00FF45F3H   LINE      ECODE    ---       #270
      00FF45F9H   LINE      ECODE    ---       #271
      00FF45FFH   LINE      ECODE    ---       #272
      00FF4605H   LINE      ECODE    ---       #273
      00FF460BH   LINE      ECODE    ---       #274
      00FF4611H   LINE      ECODE    ---       #275
      00FF4617H   LINE      ECODE    ---       #276
      00FF461DH   LINE      ECODE    ---       #277
      00FF4623H   LINE      ECODE    ---       #278
      00FF4628H   LINE      ECODE    ---       #279
      00FF462EH   LINE      ECODE    ---       #280
      00FF4634H   LINE      ECODE    ---       #281
      00FF463AH   LINE      ECODE    ---       #283
      00FF4640H   LINE      ECODE    ---       #284
      00FF4646H   LINE      ECODE    ---       #285
      00FF464CH   LINE      ECODE    ---       #286
      00FF4652H   LINE      ECODE    ---       #287
      00FF4658H   LINE      ECODE    ---       #288
      00FF465EH   LINE      ECODE    ---       #289
      00FF4664H   LINE      ECODE    ---       #290
      00FF466AH   LINE      ECODE    ---       #291
      00FF4670H   LINE      ECODE    ---       #292
      00FF4676H   LINE      ECODE    ---       #293
      00FF467CH   LINE      ECODE    ---       #294
      00FF4682H   LINE      ECODE    ---       #295
      00FF4688H   LINE      ECODE    ---       #296
      00FF468DH   LINE      ECODE    ---       #297
      00FF4693H   LINE      ECODE    ---       #298
      00FF4699H   LINE      ECODE    ---       #299
      00FF469FH   LINE      ECODE    ---       #301
      00FF46A5H   LINE      ECODE    ---       #302
      00FF46AAH   LINE      ECODE    ---       #303
      00FF46B0H   LINE      ECODE    ---       #304
      00FF46B5H   LINE      ECODE    ---       #305
      00FF46BBH   LINE      ECODE    ---       #307
      00FF46C1H   LINE      ECODE    ---       #308
      00FF46C6H   LINE      ECODE    ---       #309
      00FF46CCH   LINE      ECODE    ---       #310
      00FF46D1H   LINE      ECODE    ---       #311
      00FF46D7H   LINE      ECODE    ---       #313
      00FF46DDH   LINE      ECODE    ---       #314
      00FF46E3H   LINE      ECODE    ---       #315
      00FF46E9H   LINE      ECODE    ---       #316
      00FF46EEH   LINE      ECODE    ---       #318
      00FF46F4H   LINE      ECODE    ---       #319
      00FF46FAH   LINE      ECODE    ---       #320
      00FF4700H   LINE      ECODE    ---       #322
L251 LINKER/LOCATER V4.66.93.0                                                        06/26/2023  14:53:20  PAGE 66


      ---         BLOCKEND  ---      ---       LVL=0

      00FF4708H   BLOCK     ECODE    ---       LVL=0
      WR2         REGSYM    ---      WORD      x
      WR0         REGSYM    ---      WORD      y
      WR14        REGSYM    ---      WORD      color
      00FF4708H   LINE      ECODE    ---       #334
      00FF4710H   LINE      ECODE    ---       #336
      00FF4714H   LINE      ECODE    ---       #337
      00FF471AH   LINE      ECODE    ---       #338
      ---         BLOCKEND  ---      ---       LVL=0

      00FF471DH   BLOCK     ECODE    ---       LVL=0
      WR12        REGSYM    ---      WORD      x
      WR14        REGSYM    ---      WORD      y
      000108BCH   SYMBOL    XDATA    CHAR      dat
      00FF4727H   BLOCK     ECODE    NEAR LAB  LVL=1
      000108BDH   SYMBOL    XDATA    BYTE      i
      000108BEH   SYMBOL    XDATA    BYTE      j
      000108BFH   SYMBOL    XDATA    BYTE      temp
      ---         BLOCKEND  ---      ---       LVL=1
      00FF471DH   LINE      ECODE    ---       #351
      00FF4727H   LINE      ECODE    ---       #352
      00FF4727H   LINE      ECODE    ---       #356
      00FF472CH   LINE      ECODE    ---       #358
      00FF4742H   LINE      ECODE    ---       #359
      00FF4767H   LINE      ECODE    ---       #360
      00FF476CH   LINE      ECODE    ---       #362
      00FF4779H   LINE      ECODE    ---       #363
      00FF4781H   LINE      ECODE    ---       #364
      00FF4788H   LINE      ECODE    ---       #365
      00FF4795H   LINE      ECODE    ---       #366
      00FF47A4H   LINE      ECODE    ---       #367
      ---         BLOCKEND  ---      ---       LVL=0

      00FF47A7H   BLOCK     ECODE    ---       LVL=0
      00010887H   SYMBOL    XDATA    WORD      x
      00010889H   SYMBOL    XDATA    WORD      y
      REG=3       REGSYM    ---      ---       dat
      00FF47B7H   BLOCK     ECODE    NEAR LAB  LVL=1
      0001088BH   SYMBOL    XDATA    WORD      j
      ---         BLOCKEND  ---      ---       LVL=1
      00FF47A7H   LINE      ECODE    ---       #378
      00FF47B7H   LINE      ECODE    ---       #379
      00FF47B7H   LINE      ECODE    ---       #382
      00FF47BCH   LINE      ECODE    ---       #383
      00FF47BEH   LINE      ECODE    ---       #385
      00FF47EDH   LINE      ECODE    ---       #386
      00FF47F8H   LINE      ECODE    ---       #387
      00FF4807H   LINE      ECODE    ---       #388
      ---         BLOCKEND  ---      ---       LVL=0

      00FF480AH   BLOCK     ECODE    ---       LVL=0
      WR12        REGSYM    ---      WORD      x
      WR14        REGSYM    ---      WORD      y
      00FF4814H   BLOCK     ECODE    NEAR LAB  LVL=1
      ---         BLOCKEND  ---      ---       LVL=1
      00FF480AH   LINE      ECODE    ---       #399
      00FF4814H   LINE      ECODE    ---       #400
      00FF4814H   LINE      ECODE    ---       #403
      00FF481DH   LINE      ECODE    ---       #405
      00FF482FH   LINE      ECODE    ---       #406
      00FF483AH   LINE      ECODE    ---       #407
      00FF483CH   LINE      ECODE    ---       #408
      00FF484EH   LINE      ECODE    ---       #410
L251 LINKER/LOCATER V4.66.93.0                                                        06/26/2023  14:53:20  PAGE 67


      00FF4864H   LINE      ECODE    ---       #411
      00FF487CH   LINE      ECODE    ---       #412
      00FF488AH   LINE      ECODE    ---       #413
      00FF488FH   LINE      ECODE    ---       #414
      00FF488FH   LINE      ECODE    ---       #416
      00FF48C4H   LINE      ECODE    ---       #417
      00FF48CAH   LINE      ECODE    ---       #418
      00FF48D3H   LINE      ECODE    ---       #419
      ---         BLOCKEND  ---      ---       LVL=0

      00FF48D6H   BLOCK     ECODE    ---       LVL=0
      WR12        REGSYM    ---      WORD      x
      WR14        REGSYM    ---      WORD      y
      R3          REGSYM    ---      BYTE      dat
      00FF48DEH   BLOCK     ECODE    NEAR LAB  LVL=1
      ---         BLOCKEND  ---      ---       LVL=1
      00FF48D6H   LINE      ECODE    ---       #430
      00FF48DEH   LINE      ECODE    ---       #431
      00FF48DEH   LINE      ECODE    ---       #435
      00FF48ECH   LINE      ECODE    ---       #436
      00FF4902H   LINE      ECODE    ---       #437
      00FF4910H   LINE      ECODE    ---       #438
      00FF4915H   LINE      ECODE    ---       #439
      00FF4915H   LINE      ECODE    ---       #441
      00FF494AH   LINE      ECODE    ---       #442
      00FF4950H   LINE      ECODE    ---       #443
      00FF4959H   LINE      ECODE    ---       #445
      ---         BLOCKEND  ---      ---       LVL=0

      00FF495CH   BLOCK     ECODE    ---       LVL=0
      WR12        REGSYM    ---      WORD      x
      WR14        REGSYM    ---      WORD      y
      00FF4968H   BLOCK     ECODE    NEAR LAB  LVL=1
      ---         BLOCKEND  ---      ---       LVL=1
      00FF495CH   LINE      ECODE    ---       #456
      00FF4968H   LINE      ECODE    ---       #457
      00FF4968H   LINE      ECODE    ---       #460
      00FF4974H   LINE      ECODE    ---       #462
      00FF4986H   LINE      ECODE    ---       #463
      00FF4998H   LINE      ECODE    ---       #464
      00FF499AH   LINE      ECODE    ---       #465
      00FF49ACH   LINE      ECODE    ---       #467
      00FF49C2H   LINE      ECODE    ---       #468
      00FF49DCH   LINE      ECODE    ---       #469
      00FF49F2H   LINE      ECODE    ---       #470
      00FF4A06H   LINE      ECODE    ---       #471
      00FF4A14H   LINE      ECODE    ---       #473
      00FF4A19H   LINE      ECODE    ---       #474
      00FF4A19H   LINE      ECODE    ---       #476
      00FF4A4EH   LINE      ECODE    ---       #477
      00FF4A54H   LINE      ECODE    ---       #478
      00FF4A5DH   LINE      ECODE    ---       #479
      ---         BLOCKEND  ---      ---       LVL=0

      00FF4A60H   BLOCK     ECODE    ---       LVL=0
      WR12        REGSYM    ---      WORD      x
      WR14        REGSYM    ---      WORD      y
      WR2         REGSYM    ---      WORD      dat
      00FF4A66H   BLOCK     ECODE    NEAR LAB  LVL=1
      ---         BLOCKEND  ---      ---       LVL=1
      00FF4A60H   LINE      ECODE    ---       #490
      00FF4A66H   LINE      ECODE    ---       #491
      00FF4A66H   LINE      ECODE    ---       #495
      00FF4A72H   LINE      ECODE    ---       #496
      00FF4A86H   LINE      ECODE    ---       #497
L251 LINKER/LOCATER V4.66.93.0                                                        06/26/2023  14:53:20  PAGE 68


      00FF4A96H   LINE      ECODE    ---       #498
      00FF4AA2H   LINE      ECODE    ---       #499
      00FF4AACH   LINE      ECODE    ---       #501
      00FF4AB1H   LINE      ECODE    ---       #502
      00FF4AB1H   LINE      ECODE    ---       #504
      00FF4AE6H   LINE      ECODE    ---       #505
      00FF4AECH   LINE      ECODE    ---       #506
      00FF4AF5H   LINE      ECODE    ---       #507
      ---         BLOCKEND  ---      ---       LVL=0

      00FF4AF8H   BLOCK     ECODE    ---       LVL=0
      WR12        REGSYM    ---      WORD      y
      R15         REGSYM    ---      BYTE      num
      00FF4B0EH   BLOCK     ECODE    NEAR LAB  LVL=1
      R14         REGSYM    ---      BYTE      length
      ---         BLOCKEND  ---      ---       LVL=1
      00FF4AF8H   LINE      ECODE    ---       #520
      00FF4B0EH   LINE      ECODE    ---       #521
      00FF4B0EH   LINE      ECODE    ---       #525
      00FF4B16H   LINE      ECODE    ---       #527
      00FF4B18H   LINE      ECODE    ---       #528
      00FF4B4AH   LINE      ECODE    ---       #531
      00FF4B50H   LINE      ECODE    ---       #532
      00FF4B7AH   LINE      ECODE    ---       #533
      00FF4B7CH   LINE      ECODE    ---       #534
      00FF4B7CH   LINE      ECODE    ---       #535
      00FF4B81H   LINE      ECODE    ---       #537
      00FF4B90H   LINE      ECODE    ---       #538
      00FF4B92H   LINE      ECODE    ---       #539
      00FF4B96H   LINE      ECODE    ---       #540
      00FF4BA4H   LINE      ECODE    ---       #542
      00FF4BB8H   LINE      ECODE    ---       #543
      ---         BLOCKEND  ---      ---       LVL=0

      00FF4BBBH   BLOCK     ECODE    ---       LVL=0
      DR12        REGSYM    ---      FLOAT     dat
      00FF4BCFH   BLOCK     ECODE    NEAR LAB  LVL=1
      R10         REGSYM    ---      CHAR      point
      ---         BLOCKEND  ---      ---       LVL=1
      00FF4BBBH   LINE      ECODE    ---       #561
      00FF4BCFH   LINE      ECODE    ---       #562
      00FF4BCFH   LINE      ECODE    ---       #567
      00FF4BDEH   LINE      ECODE    ---       #568
      00FF4BEDH   LINE      ECODE    ---       #570
      00FF4C1DH   LINE      ECODE    ---       #573
      00FF4C41H   LINE      ECODE    ---       #574
      00FF4C46H   LINE      ECODE    ---       #575
      00FF4C46H   LINE      ECODE    ---       #576
      00FF4C52H   LINE      ECODE    ---       #577
      00FF4C64H   LINE      ECODE    ---       #578
      00FF4C74H   LINE      ECODE    ---       #579
      00FF4C79H   LINE      ECODE    ---       #581
      00FF4C8CH   LINE      ECODE    ---       #582
      00FF4C92H   LINE      ECODE    ---       #583
      00FF4C98H   LINE      ECODE    ---       #584
      00FF4CA1H   LINE      ECODE    ---       #586
      00FF4CB0H   LINE      ECODE    ---       #587
      00FF4CC6H   LINE      ECODE    ---       #589
      00FF4CDBH   LINE      ECODE    ---       #591
      00FF4CF3H   LINE      ECODE    ---       #592
      ---         BLOCKEND  ---      ---       LVL=0

      00FF4CF6H   BLOCK     ECODE    ---       LVL=0
      R7          REGSYM    ---      BYTE      dat
      00FF4CF6H   LINE      ECODE    ---       #607
L251 LINKER/LOCATER V4.66.93.0                                                        06/26/2023  14:53:20  PAGE 69


      00FF4CF6H   LINE      ECODE    ---       #610
      00FF4CF8H   LINE      ECODE    ---       #611
      00FF4CFAH   LINE      ECODE    ---       #612
      00FF4CFEH   LINE      ECODE    ---       #613
      00FF4D00H   LINE      ECODE    ---       #614
      ---         BLOCKEND  ---      ---       LVL=0

      00FF4D01H   BLOCK     ECODE    ---       LVL=0
      R7          REGSYM    ---      BYTE      dat
      00FF4D01H   LINE      ECODE    ---       #623
      00FF4D01H   LINE      ECODE    ---       #625
      00FF4D03H   LINE      ECODE    ---       #626
      00FF4D05H   LINE      ECODE    ---       #627
      00FF4D09H   LINE      ECODE    ---       #628
      00FF4D0BH   LINE      ECODE    ---       #629
      ---         BLOCKEND  ---      ---       LVL=0

      00FF4D0CH   BLOCK     ECODE    ---       LVL=0
      WR8         REGSYM    ---      WORD      dat
      000100E6H   SYMBOL    XDATA    ---       dat1
      00FF4D0CH   LINE      ECODE    ---       #638
      00FF4D0CH   LINE      ECODE    ---       #639
      00FF4D0CH   LINE      ECODE    ---       #642
      00FF4D12H   LINE      ECODE    ---       #643
      00FF4D18H   LINE      ECODE    ---       #645
      00FF4D1AH   LINE      ECODE    ---       #646
      00FF4D1CH   LINE      ECODE    ---       #647
      00FF4D24H   LINE      ECODE    ---       #648
      00FF4D2CH   LINE      ECODE    ---       #649
      00FF4D2EH   LINE      ECODE    ---       #651
      ---         BLOCKEND  ---      ---       LVL=0

      00FF4D2FH   BLOCK     ECODE    ---       LVL=0
      000100E6H   SYMBOL    XDATA    WORD      x_start
      000100E8H   SYMBOL    XDATA    WORD      y_start
      WR12        REGSYM    ---      WORD      x_end
      WR14        REGSYM    ---      WORD      y_end
      00FF4D2FH   LINE      ECODE    ---       #663
      00FF4D41H   LINE      ECODE    ---       #668
      00FF4D47H   LINE      ECODE    ---       #669
      00FF4D4CH   LINE      ECODE    ---       #670
      00FF4D58H   LINE      ECODE    ---       #671
      00FF4D5DH   LINE      ECODE    ---       #672
      00FF4D65H   LINE      ECODE    ---       #674
      00FF4D6BH   LINE      ECODE    ---       #675
      00FF4D70H   LINE      ECODE    ---       #676
      00FF4D7CH   LINE      ECODE    ---       #677
      00FF4D81H   LINE      ECODE    ---       #678
      00FF4D89H   LINE      ECODE    ---       #695
      00FF4D8FH   LINE      ECODE    ---       #696
      ---         BLOCKEND  ---      ---       LVL=0

      00FF4D92H   BLOCK     ECODE    ---       LVL=0
      WR14        REGSYM    ---      INT       color
      00FF4D96H   BLOCK     ECODE    NEAR LAB  LVL=1
      R13         REGSYM    ---      BYTE      i
      R12         REGSYM    ---      BYTE      j
      ---         BLOCKEND  ---      ---       LVL=1
      00FF4D92H   LINE      ECODE    ---       #705
      00FF4D96H   LINE      ECODE    ---       #706
      00FF4D96H   LINE      ECODE    ---       #708
      00FF4DA6H   LINE      ECODE    ---       #709
      00FF4DA9H   LINE      ECODE    ---       #710
      00FF4DABH   LINE      ECODE    ---       #711
      00FF4DBCH   LINE      ECODE    ---       #712
L251 LINKER/LOCATER V4.66.93.0                                                        06/26/2023  14:53:20  PAGE 70


      ---         BLOCKEND  ---      ---       LVL=0

      00FF4DBFH   BLOCK     ECODE    ---       LVL=0
      00FF4DBFH   LINE      ECODE    ---       #721
      00FF4DBFH   LINE      ECODE    ---       #723
      00FF4DE2H   LINE      ECODE    ---       #725
      00FF4DE4H   LINE      ECODE    ---       #726
      00FF4DECH   LINE      ECODE    ---       #727
      00FF4DEEH   LINE      ECODE    ---       #728
      00FF4DF6H   LINE      ECODE    ---       #729
      00FF4DFCH   LINE      ECODE    ---       #730
      00FF4E04H   LINE      ECODE    ---       #732
      00FF4E0AH   LINE      ECODE    ---       #733
      00FF4E10H   LINE      ECODE    ---       #734
      00FF4E16H   LINE      ECODE    ---       #735
      00FF4E1CH   LINE      ECODE    ---       #737
      00FF4E22H   LINE      ECODE    ---       #738
      00FF4E28H   LINE      ECODE    ---       #739
      00FF4E2EH   LINE      ECODE    ---       #740
      00FF4E34H   LINE      ECODE    ---       #742
      00FF4E3AH   LINE      ECODE    ---       #743
      00FF4E40H   LINE      ECODE    ---       #744
      00FF4E46H   LINE      ECODE    ---       #745
      00FF4E4CH   LINE      ECODE    ---       #746
      00FF4E52H   LINE      ECODE    ---       #747
      00FF4E58H   LINE      ECODE    ---       #748
      00FF4E5EH   LINE      ECODE    ---       #750
      00FF4E64H   LINE      ECODE    ---       #751
      00FF4E6AH   LINE      ECODE    ---       #753
      00FF4E70H   LINE      ECODE    ---       #754
      00FF4E76H   LINE      ECODE    ---       #755
      00FF4E7CH   LINE      ECODE    ---       #756
      00FF4E82H   LINE      ECODE    ---       #757
      00FF4E88H   LINE      ECODE    ---       #758
      00FF4E8EH   LINE      ECODE    ---       #760
      00FF4E94H   LINE      ECODE    ---       #761
      00FF4E9AH   LINE      ECODE    ---       #762
      00FF4E9FH   LINE      ECODE    ---       #764
      00FF4EA5H   LINE      ECODE    ---       #765
      00FF4EABH   LINE      ECODE    ---       #766
      00FF4EB1H   LINE      ECODE    ---       #767
      00FF4EB7H   LINE      ECODE    ---       #768
      00FF4EBDH   LINE      ECODE    ---       #769
      00FF4EC3H   LINE      ECODE    ---       #771
      00FF4EC9H   LINE      ECODE    ---       #772
      00FF4ECFH   LINE      ECODE    ---       #774
      00FF4ED5H   LINE      ECODE    ---       #779
      00FF4EDAH   LINE      ECODE    ---       #786
      00FF4EE0H   LINE      ECODE    ---       #787
      00FF4EE6H   LINE      ECODE    ---       #788
      00FF4EECH   LINE      ECODE    ---       #789
      00FF4EF2H   LINE      ECODE    ---       #790
      00FF4EF8H   LINE      ECODE    ---       #791
      00FF4EFEH   LINE      ECODE    ---       #792
      00FF4F04H   LINE      ECODE    ---       #793
      00FF4F0AH   LINE      ECODE    ---       #794
      00FF4F10H   LINE      ECODE    ---       #795
      00FF4F16H   LINE      ECODE    ---       #796
      00FF4F1CH   LINE      ECODE    ---       #797
      00FF4F22H   LINE      ECODE    ---       #798
      00FF4F28H   LINE      ECODE    ---       #799
      00FF4F2DH   LINE      ECODE    ---       #800
      00FF4F33H   LINE      ECODE    ---       #801
      00FF4F39H   LINE      ECODE    ---       #802
      00FF4F3FH   LINE      ECODE    ---       #804
L251 LINKER/LOCATER V4.66.93.0                                                        06/26/2023  14:53:20  PAGE 71


      00FF4F45H   LINE      ECODE    ---       #805
      00FF4F4BH   LINE      ECODE    ---       #806
      00FF4F51H   LINE      ECODE    ---       #807
      00FF4F57H   LINE      ECODE    ---       #808
      00FF4F5DH   LINE      ECODE    ---       #809
      00FF4F63H   LINE      ECODE    ---       #810
      00FF4F69H   LINE      ECODE    ---       #811
      00FF4F6FH   LINE      ECODE    ---       #812
      00FF4F75H   LINE      ECODE    ---       #813
      00FF4F7BH   LINE      ECODE    ---       #814
      00FF4F81H   LINE      ECODE    ---       #815
      00FF4F87H   LINE      ECODE    ---       #816
      00FF4F8DH   LINE      ECODE    ---       #817
      00FF4F92H   LINE      ECODE    ---       #818
      00FF4F98H   LINE      ECODE    ---       #819
      00FF4F9EH   LINE      ECODE    ---       #820
      00FF4FA4H   LINE      ECODE    ---       #822
      00FF4FAAH   LINE      ECODE    ---       #823
      00FF4FAFH   LINE      ECODE    ---       #824
      00FF4FB5H   LINE      ECODE    ---       #825
      00FF4FBAH   LINE      ECODE    ---       #826
      00FF4FC0H   LINE      ECODE    ---       #828
      00FF4FC6H   LINE      ECODE    ---       #829
      00FF4FCBH   LINE      ECODE    ---       #830
      00FF4FD1H   LINE      ECODE    ---       #831
      00FF4FD6H   LINE      ECODE    ---       #832
      00FF4FDCH   LINE      ECODE    ---       #834
      00FF4FE2H   LINE      ECODE    ---       #835
      00FF4FE8H   LINE      ECODE    ---       #836
      00FF4FEEH   LINE      ECODE    ---       #837
      00FF4FF3H   LINE      ECODE    ---       #839
      00FF4FF9H   LINE      ECODE    ---       #840
      00FF4FFFH   LINE      ECODE    ---       #841
      00FF5005H   LINE      ECODE    ---       #843
      ---         BLOCKEND  ---      ---       LVL=0

      00FF500DH   BLOCK     ECODE    ---       LVL=0
      WR2         REGSYM    ---      WORD      x
      WR0         REGSYM    ---      WORD      y
      WR14        REGSYM    ---      WORD      color
      00FF500DH   LINE      ECODE    ---       #855
      00FF5015H   LINE      ECODE    ---       #857
      00FF5019H   LINE      ECODE    ---       #858
      00FF501FH   LINE      ECODE    ---       #859
      ---         BLOCKEND  ---      ---       LVL=0

      00FF5022H   BLOCK     ECODE    ---       LVL=0
      WR12        REGSYM    ---      WORD      x
      WR14        REGSYM    ---      WORD      y
      000100E2H   SYMBOL    XDATA    CHAR      dat
      00FF502CH   BLOCK     ECODE    NEAR LAB  LVL=1
      000100E3H   SYMBOL    XDATA    BYTE      i
      000100E4H   SYMBOL    XDATA    BYTE      j
      000100E5H   SYMBOL    XDATA    BYTE      temp
      ---         BLOCKEND  ---      ---       LVL=1
      00FF5022H   LINE      ECODE    ---       #872
      00FF502CH   LINE      ECODE    ---       #873
      00FF502CH   LINE      ECODE    ---       #877
      00FF5031H   LINE      ECODE    ---       #879
      00FF5047H   LINE      ECODE    ---       #880
      00FF506CH   LINE      ECODE    ---       #881
      00FF5071H   LINE      ECODE    ---       #883
      00FF507EH   LINE      ECODE    ---       #884
      00FF5086H   LINE      ECODE    ---       #885
      00FF508DH   LINE      ECODE    ---       #886
L251 LINKER/LOCATER V4.66.93.0                                                        06/26/2023  14:53:20  PAGE 72


      00FF509AH   LINE      ECODE    ---       #887
      00FF50A9H   LINE      ECODE    ---       #888
      ---         BLOCKEND  ---      ---       LVL=0

      00FF50ACH   BLOCK     ECODE    ---       LVL=0
      000100DCH   SYMBOL    XDATA    WORD      x
      000100DEH   SYMBOL    XDATA    WORD      y
      REG=3       REGSYM    ---      ---       dat
      00FF50BCH   BLOCK     ECODE    NEAR LAB  LVL=1
      000100E0H   SYMBOL    XDATA    WORD      j
      ---         BLOCKEND  ---      ---       LVL=1
      00FF50ACH   LINE      ECODE    ---       #899
      00FF50BCH   LINE      ECODE    ---       #900
      00FF50BCH   LINE      ECODE    ---       #903
      00FF50C1H   LINE      ECODE    ---       #904
      00FF50C3H   LINE      ECODE    ---       #906
      00FF50F2H   LINE      ECODE    ---       #907
      00FF50FDH   LINE      ECODE    ---       #908
      00FF510CH   LINE      ECODE    ---       #909
      ---         BLOCKEND  ---      ---       LVL=0

      00FF510FH   BLOCK     ECODE    ---       LVL=0
      WR12        REGSYM    ---      WORD      x
      WR14        REGSYM    ---      WORD      y
      00FF5119H   BLOCK     ECODE    NEAR LAB  LVL=1
      ---         BLOCKEND  ---      ---       LVL=1
      00FF510FH   LINE      ECODE    ---       #920
      00FF5119H   LINE      ECODE    ---       #921
      00FF5119H   LINE      ECODE    ---       #924
      00FF5122H   LINE      ECODE    ---       #926
      00FF5134H   LINE      ECODE    ---       #927
      00FF513FH   LINE      ECODE    ---       #928
      00FF5141H   LINE      ECODE    ---       #929
      00FF5153H   LINE      ECODE    ---       #931
      00FF5169H   LINE      ECODE    ---       #932
      00FF5181H   LINE      ECODE    ---       #933
      00FF518FH   LINE      ECODE    ---       #934
      00FF5194H   LINE      ECODE    ---       #935
      00FF5194H   LINE      ECODE    ---       #937
      00FF51C9H   LINE      ECODE    ---       #938
      00FF51CFH   LINE      ECODE    ---       #939
      00FF51D8H   LINE      ECODE    ---       #940
      ---         BLOCKEND  ---      ---       LVL=0

      00FF51DBH   BLOCK     ECODE    ---       LVL=0
      WR12        REGSYM    ---      WORD      x
      WR14        REGSYM    ---      WORD      y
      R3          REGSYM    ---      BYTE      dat
      00FF51E3H   BLOCK     ECODE    NEAR LAB  LVL=1
      ---         BLOCKEND  ---      ---       LVL=1
      00FF51DBH   LINE      ECODE    ---       #951
      00FF51E3H   LINE      ECODE    ---       #952
      00FF51E3H   LINE      ECODE    ---       #956
      00FF51F1H   LINE      ECODE    ---       #957
      00FF5207H   LINE      ECODE    ---       #958
      00FF5215H   LINE      ECODE    ---       #959
      00FF521AH   LINE      ECODE    ---       #960
      00FF521AH   LINE      ECODE    ---       #962
      00FF524FH   LINE      ECODE    ---       #963
      00FF5255H   LINE      ECODE    ---       #964
      00FF525EH   LINE      ECODE    ---       #966
      ---         BLOCKEND  ---      ---       LVL=0

      00FF5261H   BLOCK     ECODE    ---       LVL=0
      WR12        REGSYM    ---      WORD      x
L251 LINKER/LOCATER V4.66.93.0                                                        06/26/2023  14:53:20  PAGE 73


      WR14        REGSYM    ---      WORD      y
      00FF526DH   BLOCK     ECODE    NEAR LAB  LVL=1
      ---         BLOCKEND  ---      ---       LVL=1
      00FF5261H   LINE      ECODE    ---       #977
      00FF526DH   LINE      ECODE    ---       #978
      00FF526DH   LINE      ECODE    ---       #981
      00FF5279H   LINE      ECODE    ---       #983
      00FF528BH   LINE      ECODE    ---       #984
      00FF529DH   LINE      ECODE    ---       #985
      00FF529FH   LINE      ECODE    ---       #986
      00FF52B1H   LINE      ECODE    ---       #988
      00FF52C7H   LINE      ECODE    ---       #989
      00FF52E1H   LINE      ECODE    ---       #990
      00FF52F7H   LINE      ECODE    ---       #991
      00FF530BH   LINE      ECODE    ---       #992
      00FF5319H   LINE      ECODE    ---       #994
      00FF531EH   LINE      ECODE    ---       #995
      00FF531EH   LINE      ECODE    ---       #997
      00FF5353H   LINE      ECODE    ---       #998
      00FF5359H   LINE      ECODE    ---       #999
      00FF5362H   LINE      ECODE    ---       #1000
      ---         BLOCKEND  ---      ---       LVL=0

      00FF5365H   BLOCK     ECODE    ---       LVL=0
      WR12        REGSYM    ---      WORD      x
      WR14        REGSYM    ---      WORD      y
      WR2         REGSYM    ---      WORD      dat
      00FF536BH   BLOCK     ECODE    NEAR LAB  LVL=1
      ---         BLOCKEND  ---      ---       LVL=1
      00FF5365H   LINE      ECODE    ---       #1011
      00FF536BH   LINE      ECODE    ---       #1012
      00FF536BH   LINE      ECODE    ---       #1016
      00FF5377H   LINE      ECODE    ---       #1017
      00FF538BH   LINE      ECODE    ---       #1018
      00FF539BH   LINE      ECODE    ---       #1019
      00FF53A7H   LINE      ECODE    ---       #1020
      00FF53B1H   LINE      ECODE    ---       #1022
      00FF53B6H   LINE      ECODE    ---       #1023
      00FF53B6H   LINE      ECODE    ---       #1025
      00FF53EBH   LINE      ECODE    ---       #1026
      00FF53F1H   LINE      ECODE    ---       #1027
      00FF53FAH   LINE      ECODE    ---       #1028
      ---         BLOCKEND  ---      ---       LVL=0

      00FF53FDH   BLOCK     ECODE    ---       LVL=0
      WR12        REGSYM    ---      WORD      y
      R15         REGSYM    ---      BYTE      num
      00FF5413H   BLOCK     ECODE    NEAR LAB  LVL=1
      R14         REGSYM    ---      BYTE      length
      ---         BLOCKEND  ---      ---       LVL=1
      00FF53FDH   LINE      ECODE    ---       #1041
      00FF5413H   LINE      ECODE    ---       #1042
      00FF5413H   LINE      ECODE    ---       #1046
      00FF541BH   LINE      ECODE    ---       #1048
      00FF541DH   LINE      ECODE    ---       #1049
      00FF544FH   LINE      ECODE    ---       #1052
      00FF5455H   LINE      ECODE    ---       #1053
      00FF547FH   LINE      ECODE    ---       #1054
      00FF5481H   LINE      ECODE    ---       #1055
      00FF5481H   LINE      ECODE    ---       #1056
      00FF5486H   LINE      ECODE    ---       #1058
      00FF5495H   LINE      ECODE    ---       #1059
      00FF5497H   LINE      ECODE    ---       #1060
      00FF549BH   LINE      ECODE    ---       #1061
      00FF54A9H   LINE      ECODE    ---       #1063
L251 LINKER/LOCATER V4.66.93.0                                                        06/26/2023  14:53:20  PAGE 74


      00FF54BDH   LINE      ECODE    ---       #1064
      ---         BLOCKEND  ---      ---       LVL=0

      00FF54C0H   BLOCK     ECODE    ---       LVL=0
      000100B1H   SYMBOL    XDATA    WORD      x
      000100B3H   SYMBOL    XDATA    WORD      y
      DR12        REGSYM    ---      FLOAT     dat
      000100B5H   SYMBOL    XDATA    BYTE      num
      000100B6H   SYMBOL    XDATA    BYTE      pointnum
      00FF54D4H   BLOCK     ECODE    NEAR LAB  LVL=1
      000100B7H   SYMBOL    XDATA    BYTE      length
      000100B8H   SYMBOL    XDATA    ---       buff
      000100DAH   SYMBOL    XDATA    CHAR      start
      000100DBH   SYMBOL    XDATA    CHAR      end
      R10         REGSYM    ---      CHAR      point
      ---         BLOCKEND  ---      ---       LVL=1
      00FF54C0H   LINE      ECODE    ---       #1082
      00FF54D4H   LINE      ECODE    ---       #1083
      00FF54D4H   LINE      ECODE    ---       #1088
      00FF54E3H   LINE      ECODE    ---       #1089
      00FF54F2H   LINE      ECODE    ---       #1091
      00FF5522H   LINE      ECODE    ---       #1094
      00FF5546H   LINE      ECODE    ---       #1095
      00FF554BH   LINE      ECODE    ---       #1096
      00FF554BH   LINE      ECODE    ---       #1097
      00FF5557H   LINE      ECODE    ---       #1098
      00FF5569H   LINE      ECODE    ---       #1099
      00FF5579H   LINE      ECODE    ---       #1100
      00FF557EH   LINE      ECODE    ---       #1102
      00FF5591H   LINE      ECODE    ---       #1103
      00FF5597H   LINE      ECODE    ---       #1104
      00FF559DH   LINE      ECODE    ---       #1105
      00FF55A6H   LINE      ECODE    ---       #1107
      00FF55B5H   LINE      ECODE    ---       #1108
      00FF55CBH   LINE      ECODE    ---       #1110
      00FF55E0H   LINE      ECODE    ---       #1112
      00FF55F8H   LINE      ECODE    ---       #1113
      ---         BLOCKEND  ---      ---       LVL=0

      00FF55FBH   BLOCK     ECODE    ---       LVL=0
      REG=3       REGSYM    ---      ---       p
      00FF55FFH   BLOCK     ECODE    NEAR LAB  LVL=1
      ---         BLOCKEND  ---      ---       LVL=1
      00FF55FBH   LINE      ECODE    ---       #1124
      00FF55FFH   LINE      ECODE    ---       #1125
      00FF55FFH   LINE      ECODE    ---       #1128
      00FF5607H   LINE      ECODE    ---       #1130
      00FF560FH   LINE      ECODE    ---       #1132
      00FF5617H   LINE      ECODE    ---       #1134
      00FF5647H   LINE      ECODE    ---       #1135
      00FF564FH   LINE      ECODE    ---       #1137
      00FF5664H   LINE      ECODE    ---       #1138
      00FF566CH   LINE      ECODE    ---       #1139
      00FF5678H   LINE      ECODE    ---       #1140
      00FF568FH   LINE      ECODE    ---       #1141
      00FF56A9H   LINE      ECODE    ---       #1142
      00FF56C3H   LINE      ECODE    ---       #1143
      ---         BLOCKEND  ---      ---       LVL=0

      ---         MODULE    ---      ---       SEEKFREE_ABSOLUTE_ENCODER
      00FFD13CH   PUBLIC    ECODE    ---       encoder_self4_check?
      00FFD263H   PUBLIC    ECODE    ---       encoder_self5_check?
      00FFD1E4H   PUBLIC    ECODE    ---       encoder_spi_r_reg_byte?
      00FFD021H   PUBLIC    ECODE    ---       encoder_delay_us?
      00FFD1A7H   PUBLIC    ECODE    ---       encoder_spi_w_reg_byte?
L251 LINKER/LOCATER V4.66.93.0                                                        06/26/2023  14:53:20  PAGE 75


      00FFD062H   PUBLIC    ECODE    ---       simspi_r_reg_byte?
      00FFD046H   PUBLIC    ECODE    ---       simspi_w_reg_byte?
      00FFD279H   PUBLIC    ECODE    ---       encoder_init_spi?
      00FFD164H   PUBLIC    ECODE    ---       spi_wr_byte?
      00FFD0F1H   PUBLIC    ECODE    ---       set_zero_position_simspi?
      00FFD117H   PUBLIC    ECODE    ---       encoder_angle_simspi?
      00FFD189H   PUBLIC    ECODE    ---       spi_r_reg_byte?
      00FFD16DH   PUBLIC    ECODE    ---       spi_w_reg_byte?
      00FFD0BDH   PUBLIC    ECODE    ---       encoder_simspi_r_reg_byte?
      00FFD080H   PUBLIC    ECODE    ---       encoder_simspi_w_reg_byte?
      00FFD152H   PUBLIC    ECODE    ---       encoder_init_simspi?
      00FFD218H   PUBLIC    ECODE    ---       set_zero_position_spi?
      00FFD027H   PUBLIC    ECODE    ---       simspi_wr_byte?
      00FFD23EH   PUBLIC    ECODE    ---       encoder_angle_spi?
      000000D0H   SFRSYM    DATA     BYTE      PSW
      0000009DH   SFRSYM    DATA     BYTE      IRCBAND
      00000097H   SFRSYM    DATA     BYTE      AUXR2
      000000EFH   SFRSYM    DATA     BYTE      AUXINTIF
      000000FDH   SFRSYM    DATA     BYTE      S4CON
      000000ACH   SFRSYM    DATA     BYTE      S3CON
      0000009AH   SFRSYM    DATA     BYTE      S2CON
      000000B7H   SFRSYM    DATA     BYTE      IPH
      000000CDH   SFRSYM    DATA     BYTE      SPSTAT
      000000DDH   SFRSYM    DATA     BYTE      T4T3M
      000000C1H   SFRSYM    DATA     BYTE      WDT_CONTR
      000000DFH   SFRSYM    DATA     BYTE      IP3
      000000F4H   SFRSYM    DATA     BYTE      USBCON
      000000B5H   SFRSYM    DATA     BYTE      IP2
      000000FFH   SFRSYM    DATA     BYTE      RSTCFG
      000000F9H   SFRSYM    DATA     BYTE      LINICR
      0000008EH   SFRSYM    DATA     BYTE      AUXR
      000000AFH   SFRSYM    DATA     BYTE      IE2
      000000A0H.7 SFRSYM    DATA     BIT       P27
      000000A0H.6 SFRSYM    DATA     BIT       P26
      000000A0H.5 SFRSYM    DATA     BIT       P25
      000000A0H.4 SFRSYM    DATA     BIT       P24
      00000088H   SFRSYM    DATA     BYTE      TCON
      00000098H   SFRSYM    DATA     BYTE      SCON
      000000A0H.2 SFRSYM    DATA     BIT       P22
      000000F1H   SFRSYM    DATA     BYTE      CANICR
      00000087H   SFRSYM    DATA     BYTE      PCON
      000000BCH   SFRSYM    DATA     BYTE      ADC_CONTR
      000000E7H   SFRSYM    DATA     BYTE      CMPCR2
      000000E6H   SFRSYM    DATA     BYTE      CMPCR1
      000000B8H   SFRSYM    DATA     BYTE      IP
      0000008FH   SFRSYM    DATA     BYTE      INTCLKO
      000000EEH   SFRSYM    DATA     BYTE      IP3H
      000000B6H   SFRSYM    DATA     BYTE      IP2H
      000000A8H   SFRSYM    DATA     BYTE      IE
      000000BBH   SFRSYM    DATA     BYTE      P_SW3
      000000BAH   SFRSYM    DATA     BYTE      P_SW2
      000000A2H   SFRSYM    DATA     BYTE      P_SW1
      000000CEH   SFRSYM    DATA     BYTE      SPCTL
      000000F8H   SFRSYM    DATA     BYTE      P7
      000000E8H   SFRSYM    DATA     BYTE      P6
      000000C8H   SFRSYM    DATA     BYTE      P5
      000000C0H   SFRSYM    DATA     BYTE      P4
      000000B0H   SFRSYM    DATA     BYTE      P3
      000000A0H   SFRSYM    DATA     BYTE      P2
      00000090H   SFRSYM    DATA     BYTE      P1
      00000080H   SFRSYM    DATA     BYTE      P0

      00FFD021H   BLOCK     ECODE    ---       LVL=0
      WR6         REGSYM    ---      WORD      x
      00FFD021H   LINE      ECODE    ---       #43
L251 LINKER/LOCATER V4.66.93.0                                                        06/26/2023  14:53:20  PAGE 76


      00FFD021H   LINE      ECODE    ---       #45
      ---         BLOCKEND  ---      ---       LVL=0

      00FFD027H   BLOCK     ECODE    ---       LVL=0
      R7          REGSYM    ---      BYTE      byte
      00FFD029H   BLOCK     ECODE    NEAR LAB  LVL=1
      R6          REGSYM    ---      BYTE      i
      ---         BLOCKEND  ---      ---       LVL=1
      00FFD027H   LINE      ECODE    ---       #56
      00FFD029H   LINE      ECODE    ---       #57
      00FFD029H   LINE      ECODE    ---       #59
      00FFD02BH   LINE      ECODE    ---       #61
      00FFD030H   LINE      ECODE    ---       #62
      00FFD032H   LINE      ECODE    ---       #63
      00FFD034H   LINE      ECODE    ---       #65
      00FFD036H   LINE      ECODE    ---       #66
      00FFD03CH   LINE      ECODE    ---       #67
      00FFD043H   LINE      ECODE    ---       #68
      00FFD045H   LINE      ECODE    ---       #69
      ---         BLOCKEND  ---      ---       LVL=0

      00FFD046H   BLOCK     ECODE    ---       LVL=0
      R7          REGSYM    ---      BYTE      cmd
      R15         REGSYM    ---      BYTE      val
      00FFD046H   LINE      ECODE    ---       #78
      00FFD04CH   LINE      ECODE    ---       #80
      00FFD04EH   LINE      ECODE    ---       #81
      00FFD051H   LINE      ECODE    ---       #82
      00FFD057H   LINE      ECODE    ---       #83
      00FFD05DH   LINE      ECODE    ---       #84
      00FFD05FH   LINE      ECODE    ---       #85
      ---         BLOCKEND  ---      ---       LVL=0

      00FFD062H   BLOCK     ECODE    ---       LVL=0
      R7          REGSYM    ---      BYTE      cmd
      REG=3       REGSYM    ---      ---       val
      00FFD062H   LINE      ECODE    ---       #94
      00FFD068H   LINE      ECODE    ---       #96
      00FFD06AH   LINE      ECODE    ---       #97
      00FFD06DH   LINE      ECODE    ---       #98
      00FFD073H   LINE      ECODE    ---       #99
      00FFD07BH   LINE      ECODE    ---       #100
      00FFD07DH   LINE      ECODE    ---       #101
      ---         BLOCKEND  ---      ---       LVL=0

      00FFD080H   BLOCK     ECODE    ---       LVL=0
      R7          REGSYM    ---      BYTE      cmd
      R15         REGSYM    ---      BYTE      val
      00FFD086H   BLOCK     ECODE    NEAR LAB  LVL=1
      R14         REGSYM    ---      BYTE      dat
      ---         BLOCKEND  ---      ---       LVL=1
      00FFD080H   LINE      ECODE    ---       #112
      00FFD086H   LINE      ECODE    ---       #113
      00FFD086H   LINE      ECODE    ---       #116
      00FFD088H   LINE      ECODE    ---       #117
      00FFD08BH   LINE      ECODE    ---       #118
      00FFD091H   LINE      ECODE    ---       #119
      00FFD097H   LINE      ECODE    ---       #120
      00FFD099H   LINE      ECODE    ---       #121
      00FFD0A1H   LINE      ECODE    ---       #122
      00FFD0A3H   LINE      ECODE    ---       #123
      00FFD0AAH   LINE      ECODE    ---       #124
      00FFD0AFH   LINE      ECODE    ---       #125
      00FFD0B1H   LINE      ECODE    ---       #127
      00FFD0B9H   LINE      ECODE    ---       #128
L251 LINKER/LOCATER V4.66.93.0                                                        06/26/2023  14:53:20  PAGE 77


      00FFD0BAH   LINE      ECODE    ---       #129
      ---         BLOCKEND  ---      ---       LVL=0

      00FFD0BDH   BLOCK     ECODE    ---       LVL=0
      R7          REGSYM    ---      BYTE      cmd
      REG=3       REGSYM    ---      ---       val
      00FFD0BDH   LINE      ECODE    ---       #139
      00FFD0C3H   LINE      ECODE    ---       #141
      00FFD0C5H   LINE      ECODE    ---       #142
      00FFD0C8H   LINE      ECODE    ---       #143
      00FFD0CEH   LINE      ECODE    ---       #144
      00FFD0D3H   LINE      ECODE    ---       #145
      00FFD0D5H   LINE      ECODE    ---       #146
      00FFD0DDH   LINE      ECODE    ---       #147
      00FFD0DFH   LINE      ECODE    ---       #148
      00FFD0E7H   LINE      ECODE    ---       #149
      00FFD0ECH   LINE      ECODE    ---       #150
      00FFD0EEH   LINE      ECODE    ---       #151
      ---         BLOCKEND  ---      ---       LVL=0

      00FFD0F1H   BLOCK     ECODE    ---       LVL=0
      WR14        REGSYM    ---      WORD      zero_position
      00FFD0F1H   LINE      ECODE    ---       #160
      00FFD0F5H   LINE      ECODE    ---       #162
      00FFD0FDH   LINE      ECODE    ---       #163
      00FFD105H   LINE      ECODE    ---       #164
      00FFD10CH   LINE      ECODE    ---       #165
      00FFD114H   LINE      ECODE    ---       #166
      ---         BLOCKEND  ---      ---       LVL=0

      00FFD117H   BLOCK     ECODE    ---       LVL=0
      00FFD119H   BLOCK     ECODE    NEAR LAB  LVL=1
      WR14        REGSYM    ---      WORD      angle
      ---         BLOCKEND  ---      ---       LVL=1
      00FFD117H   LINE      ECODE    ---       #175
      00FFD119H   LINE      ECODE    ---       #176
      00FFD119H   LINE      ECODE    ---       #179
      00FFD11BH   LINE      ECODE    ---       #180
      00FFD120H   LINE      ECODE    ---       #181
      00FFD124H   LINE      ECODE    ---       #182
      00FFD12DH   LINE      ECODE    ---       #183
      00FFD12FH   LINE      ECODE    ---       #185
      00FFD139H   LINE      ECODE    ---       #186
      ---         BLOCKEND  ---      ---       LVL=0

      00FFD13CH   BLOCK     ECODE    ---       LVL=0
      000108F0H   SYMBOL    XDATA    BYTE      val
      00FFD13CH   LINE      ECODE    ---       #197
      00FFD13CH   LINE      ECODE    ---       #198
      00FFD13CH   LINE      ECODE    ---       #200
      00FFD13CH   LINE      ECODE    ---       #202
      00FFD14AH   LINE      ECODE    ---       #207
      00FFD151H   LINE      ECODE    ---       #208
      ---         BLOCKEND  ---      ---       LVL=0

      00FFD152H   BLOCK     ECODE    ---       LVL=0
      00FFD152H   LINE      ECODE    ---       #217
      00FFD152H   LINE      ECODE    ---       #219
      00FFD156H   LINE      ECODE    ---       #221
      00FFD15EH   LINE      ECODE    ---       #223
      ---         BLOCKEND  ---      ---       LVL=0

      00FFD164H   BLOCK     ECODE    ---       LVL=0
      R15         REGSYM    ---      BYTE      byte
      00FFD164H   LINE      ECODE    ---       #243
L251 LINKER/LOCATER V4.66.93.0                                                        06/26/2023  14:53:20  PAGE 78


      00FFD166H   LINE      ECODE    ---       #245
      00FFD16AH   LINE      ECODE    ---       #246
      00FFD16AH   LINE      ECODE    ---       #247
      ---         BLOCKEND  ---      ---       LVL=0

      00FFD16DH   BLOCK     ECODE    ---       LVL=0
      R7          REGSYM    ---      BYTE      cmd
      R15         REGSYM    ---      BYTE      val
      00FFD16DH   LINE      ECODE    ---       #256
      00FFD173H   LINE      ECODE    ---       #258
      00FFD175H   LINE      ECODE    ---       #259
      00FFD178H   LINE      ECODE    ---       #260
      00FFD17EH   LINE      ECODE    ---       #261
      00FFD184H   LINE      ECODE    ---       #262
      00FFD186H   LINE      ECODE    ---       #263
      ---         BLOCKEND  ---      ---       LVL=0

      00FFD189H   BLOCK     ECODE    ---       LVL=0
      R7          REGSYM    ---      BYTE      cmd
      REG=3       REGSYM    ---      ---       val
      00FFD189H   LINE      ECODE    ---       #272
      00FFD18FH   LINE      ECODE    ---       #274
      00FFD191H   LINE      ECODE    ---       #275
      00FFD194H   LINE      ECODE    ---       #276
      00FFD19AH   LINE      ECODE    ---       #277
      00FFD1A2H   LINE      ECODE    ---       #278
      00FFD1A4H   LINE      ECODE    ---       #279
      ---         BLOCKEND  ---      ---       LVL=0

      00FFD1A7H   BLOCK     ECODE    ---       LVL=0
      R7          REGSYM    ---      BYTE      cmd
      R15         REGSYM    ---      BYTE      val
      00FFD1ADH   BLOCK     ECODE    NEAR LAB  LVL=1
      R14         REGSYM    ---      BYTE      dat
      ---         BLOCKEND  ---      ---       LVL=1
      00FFD1A7H   LINE      ECODE    ---       #290
      00FFD1ADH   LINE      ECODE    ---       #291
      00FFD1ADH   LINE      ECODE    ---       #293
      00FFD1AFH   LINE      ECODE    ---       #294
      00FFD1B2H   LINE      ECODE    ---       #295
      00FFD1B8H   LINE      ECODE    ---       #296
      00FFD1BEH   LINE      ECODE    ---       #297
      00FFD1C0H   LINE      ECODE    ---       #298
      00FFD1C8H   LINE      ECODE    ---       #299
      00FFD1CAH   LINE      ECODE    ---       #300
      00FFD1D1H   LINE      ECODE    ---       #301
      00FFD1D6H   LINE      ECODE    ---       #302
      00FFD1D8H   LINE      ECODE    ---       #304
      00FFD1E0H   LINE      ECODE    ---       #305
      00FFD1E1H   LINE      ECODE    ---       #306
      ---         BLOCKEND  ---      ---       LVL=0

      00FFD1E4H   BLOCK     ECODE    ---       LVL=0
      R7          REGSYM    ---      BYTE      cmd
      REG=3       REGSYM    ---      ---       val
      00FFD1E4H   LINE      ECODE    ---       #316
      00FFD1EAH   LINE      ECODE    ---       #318
      00FFD1ECH   LINE      ECODE    ---       #319
      00FFD1EFH   LINE      ECODE    ---       #320
      00FFD1F5H   LINE      ECODE    ---       #321
      00FFD1FAH   LINE      ECODE    ---       #323
      00FFD1FCH   LINE      ECODE    ---       #324
      00FFD204H   LINE      ECODE    ---       #325
      00FFD206H   LINE      ECODE    ---       #326
      00FFD20EH   LINE      ECODE    ---       #327
L251 LINKER/LOCATER V4.66.93.0                                                        06/26/2023  14:53:20  PAGE 79


      00FFD213H   LINE      ECODE    ---       #328
      00FFD215H   LINE      ECODE    ---       #329
      ---         BLOCKEND  ---      ---       LVL=0

      00FFD218H   BLOCK     ECODE    ---       LVL=0
      WR14        REGSYM    ---      WORD      zero_position
      00FFD218H   LINE      ECODE    ---       #338
      00FFD21CH   LINE      ECODE    ---       #340
      00FFD224H   LINE      ECODE    ---       #341
      00FFD22CH   LINE      ECODE    ---       #342
      00FFD233H   LINE      ECODE    ---       #343
      00FFD23BH   LINE      ECODE    ---       #344
      ---         BLOCKEND  ---      ---       LVL=0

      00FFD23EH   BLOCK     ECODE    ---       LVL=0
      00FFD240H   BLOCK     ECODE    NEAR LAB  LVL=1
      WR14        REGSYM    ---      WORD      angle
      ---         BLOCKEND  ---      ---       LVL=1
      00FFD23EH   LINE      ECODE    ---       #353
      00FFD240H   LINE      ECODE    ---       #354
      00FFD240H   LINE      ECODE    ---       #356
      00FFD242H   LINE      ECODE    ---       #357
      00FFD247H   LINE      ECODE    ---       #358
      00FFD24BH   LINE      ECODE    ---       #359
      00FFD254H   LINE      ECODE    ---       #360
      00FFD256H   LINE      ECODE    ---       #362
      00FFD260H   LINE      ECODE    ---       #363
      ---         BLOCKEND  ---      ---       LVL=0

      00FFD263H   BLOCK     ECODE    ---       LVL=0
      000108F1H   SYMBOL    XDATA    BYTE      val
      00FFD263H   LINE      ECODE    ---       #373
      00FFD263H   LINE      ECODE    ---       #374
      00FFD263H   LINE      ECODE    ---       #376
      00FFD263H   LINE      ECODE    ---       #378
      00FFD271H   LINE      ECODE    ---       #382
      00FFD278H   LINE      ECODE    ---       #383
      ---         BLOCKEND  ---      ---       LVL=0

      00FFD279H   BLOCK     ECODE    ---       LVL=0
      00FFD279H   LINE      ECODE    ---       #392
      00FFD279H   LINE      ECODE    ---       #394
      00FFD298H   LINE      ECODE    ---       #396
      00FFD29CH   LINE      ECODE    ---       #397
      00FFD2A4H   LINE      ECODE    ---       #398
      ---         BLOCKEND  ---      ---       LVL=0

      ---         MODULE    ---      ---       SEEKFREE_AT24C02
      00FFD90EH   PUBLIC    ECODE    ---       at24c02_read_bytes?
      00FFD8A0H   PUBLIC    ECODE    ---       at24c02_read_byte?
      00FFD8B6H   PUBLIC    ECODE    ---       at24c02_write_bytes?
      00FFD886H   PUBLIC    ECODE    ---       at24c02_write_byte?
      000000D0H   SFRSYM    DATA     BYTE      PSW
      0000009DH   SFRSYM    DATA     BYTE      IRCBAND
      00000097H   SFRSYM    DATA     BYTE      AUXR2
      000000EFH   SFRSYM    DATA     BYTE      AUXINTIF
      000000FDH   SFRSYM    DATA     BYTE      S4CON
      000000ACH   SFRSYM    DATA     BYTE      S3CON
      0000009AH   SFRSYM    DATA     BYTE      S2CON
      000000B7H   SFRSYM    DATA     BYTE      IPH
      000000CDH   SFRSYM    DATA     BYTE      SPSTAT
      000000DDH   SFRSYM    DATA     BYTE      T4T3M
      000000C1H   SFRSYM    DATA     BYTE      WDT_CONTR
      000000DFH   SFRSYM    DATA     BYTE      IP3
      000000F4H   SFRSYM    DATA     BYTE      USBCON
L251 LINKER/LOCATER V4.66.93.0                                                        06/26/2023  14:53:20  PAGE 80


      000000B5H   SFRSYM    DATA     BYTE      IP2
      000000FFH   SFRSYM    DATA     BYTE      RSTCFG
      000000F9H   SFRSYM    DATA     BYTE      LINICR
      0000008EH   SFRSYM    DATA     BYTE      AUXR
      000000AFH   SFRSYM    DATA     BYTE      IE2
      00000088H   SFRSYM    DATA     BYTE      TCON
      000000A0H.3 SFRSYM    DATA     BIT       P23
      00000098H   SFRSYM    DATA     BYTE      SCON
      000000A0H.2 SFRSYM    DATA     BIT       P22
      000000F1H   SFRSYM    DATA     BYTE      CANICR
      00000087H   SFRSYM    DATA     BYTE      PCON
      000000BCH   SFRSYM    DATA     BYTE      ADC_CONTR
      000000E7H   SFRSYM    DATA     BYTE      CMPCR2
      000000E6H   SFRSYM    DATA     BYTE      CMPCR1
      000000B8H   SFRSYM    DATA     BYTE      IP
      0000008FH   SFRSYM    DATA     BYTE      INTCLKO
      000000EEH   SFRSYM    DATA     BYTE      IP3H
      000000B6H   SFRSYM    DATA     BYTE      IP2H
      000000A8H   SFRSYM    DATA     BYTE      IE
      000000BBH   SFRSYM    DATA     BYTE      P_SW3
      000000BAH   SFRSYM    DATA     BYTE      P_SW2
      000000A2H   SFRSYM    DATA     BYTE      P_SW1
      000000CEH   SFRSYM    DATA     BYTE      SPCTL
      000000F8H   SFRSYM    DATA     BYTE      P7
      000000E8H   SFRSYM    DATA     BYTE      P6
      000000C8H   SFRSYM    DATA     BYTE      P5
      000000C0H   SFRSYM    DATA     BYTE      P4
      000000B0H   SFRSYM    DATA     BYTE      P3
      000000A0H   SFRSYM    DATA     BYTE      P2
      00000090H   SFRSYM    DATA     BYTE      P1
      00000080H   SFRSYM    DATA     BYTE      P0
      00FFD85DH   SYMBOL    ECODE    ---       at24c02_simiic_read_reg
      00FFD785H   SYMBOL    ECODE    ---       at24c02_simiic_stop
      00FFD83BH   SYMBOL    ECODE    ---       at24c02_simiic_write_reg
      00FFD796H   SYMBOL    ECODE    ---       at24c02_simiic_sendack
      00FFD800H   SYMBOL    ECODE    ---       at24c02_read_ch
      00FFD7D2H   SYMBOL    ECODE    ---       at24c02_send_ch
      00FFD7B6H   SYMBOL    ECODE    ---       at24c02_sccb_waitack
      00FFD769H   SYMBOL    ECODE    ---       at24c02_simiic_delay
      00FFD776H   SYMBOL    ECODE    ---       at24c02_simiic_start

      00FFD769H   BLOCK     ECODE    ---       LVL=0
      WR6         REGSYM    ---      WORD      j
      00FFD769H   LINE      ECODE    ---       #45
      00FFD769H   LINE      ECODE    ---       #46
      00FFD769H   LINE      ECODE    ---       #47
      00FFD76DH   LINE      ECODE    ---       #48
      00FFD775H   LINE      ECODE    ---       #49
      ---         BLOCKEND  ---      ---       LVL=0

      00FFD776H   BLOCK     ECODE    ---       LVL=0
      00FFD776H   LINE      ECODE    ---       #52
      00FFD776H   LINE      ECODE    ---       #54
      00FFD778H   LINE      ECODE    ---       #55
      00FFD77AH   LINE      ECODE    ---       #56
      00FFD77DH   LINE      ECODE    ---       #57
      00FFD77FH   LINE      ECODE    ---       #58
      00FFD782H   LINE      ECODE    ---       #59
      00FFD784H   LINE      ECODE    ---       #60
      ---         BLOCKEND  ---      ---       LVL=0

      00FFD785H   BLOCK     ECODE    ---       LVL=0
      00FFD785H   LINE      ECODE    ---       #63
      00FFD785H   LINE      ECODE    ---       #65
      00FFD787H   LINE      ECODE    ---       #66
L251 LINKER/LOCATER V4.66.93.0                                                        06/26/2023  14:53:20  PAGE 81


      00FFD789H   LINE      ECODE    ---       #67
      00FFD78CH   LINE      ECODE    ---       #68
      00FFD78EH   LINE      ECODE    ---       #69
      00FFD791H   LINE      ECODE    ---       #70
      00FFD793H   LINE      ECODE    ---       #71
      ---         BLOCKEND  ---      ---       LVL=0

      00FFD796H   BLOCK     ECODE    ---       LVL=0
      R15         REGSYM    ---      BYTE      ack_dat
      00FFD796H   LINE      ECODE    ---       #76
      00FFD79AH   LINE      ECODE    ---       #78
      00FFD79CH   LINE      ECODE    ---       #79
      00FFD79FH   LINE      ECODE    ---       #80
      00FFD7A7H   LINE      ECODE    ---       #81
      00FFD7A9H   LINE      ECODE    ---       #83
      00FFD7ABH   LINE      ECODE    ---       #84
      00FFD7AEH   LINE      ECODE    ---       #85
      00FFD7B0H   LINE      ECODE    ---       #86
      00FFD7B3H   LINE      ECODE    ---       #87
      ---         BLOCKEND  ---      ---       LVL=0

      00FFD7B6H   BLOCK     ECODE    ---       LVL=0
      00FFD7B6H   LINE      ECODE    ---       #90
      00FFD7B6H   LINE      ECODE    ---       #92
      00FFD7B8H   LINE      ECODE    ---       #94
      00FFD7BBH   LINE      ECODE    ---       #96
      00FFD7BDH   LINE      ECODE    ---       #97
      00FFD7C0H   LINE      ECODE    ---       #99
      00FFD7C3H   LINE      ECODE    ---       #102
      00FFD7C5H   LINE      ECODE    ---       #103
      00FFD7C8H   LINE      ECODE    ---       #104
      00FFD7C8H   LINE      ECODE    ---       #106
      00FFD7CAH   LINE      ECODE    ---       #107
      00FFD7CDH   LINE      ECODE    ---       #108
      00FFD7D1H   LINE      ECODE    ---       #109
      ---         BLOCKEND  ---      ---       LVL=0

      00FFD7D2H   BLOCK     ECODE    ---       LVL=0
      R15         REGSYM    ---      BYTE      c
      00FFD7D6H   BLOCK     ECODE    NEAR LAB  LVL=1
      R14         REGSYM    ---      BYTE      i
      ---         BLOCKEND  ---      ---       LVL=1
      00FFD7D2H   LINE      ECODE    ---       #115
      00FFD7D6H   LINE      ECODE    ---       #116
      00FFD7D6H   LINE      ECODE    ---       #117
      00FFD7D9H   LINE      ECODE    ---       #118
      00FFD7DBH   LINE      ECODE    ---       #120
      00FFD7E4H   LINE      ECODE    ---       #121
      00FFD7E6H   LINE      ECODE    ---       #122
      00FFD7E8H   LINE      ECODE    ---       #123
      00FFD7EBH   LINE      ECODE    ---       #124
      00FFD7EDH   LINE      ECODE    ---       #125
      00FFD7F0H   LINE      ECODE    ---       #126
      00FFD7F2H   LINE      ECODE    ---       #127
      00FFD7FAH   LINE      ECODE    ---       #128
      00FFD7FDH   LINE      ECODE    ---       #129
      ---         BLOCKEND  ---      ---       LVL=0

      00FFD800H   BLOCK     ECODE    ---       LVL=0
      R15         REGSYM    ---      BYTE      ack_x
      00FFD806H   BLOCK     ECODE    NEAR LAB  LVL=1
      R13         REGSYM    ---      BYTE      i
      R14         REGSYM    ---      BYTE      c
      ---         BLOCKEND  ---      ---       LVL=1
      00FFD800H   LINE      ECODE    ---       #135
L251 LINKER/LOCATER V4.66.93.0                                                        06/26/2023  14:53:20  PAGE 82


      00FFD806H   LINE      ECODE    ---       #136
      00FFD806H   LINE      ECODE    ---       #139
      00FFD808H   LINE      ECODE    ---       #140
      00FFD80AH   LINE      ECODE    ---       #141
      00FFD80DH   LINE      ECODE    ---       #142
      00FFD80FH   LINE      ECODE    ---       #144
      00FFD812H   LINE      ECODE    ---       #146
      00FFD815H   LINE      ECODE    ---       #147
      00FFD817H   LINE      ECODE    ---       #148
      00FFD81AH   LINE      ECODE    ---       #149
      00FFD81CH   LINE      ECODE    ---       #150
      00FFD81FH   LINE      ECODE    ---       #151
      00FFD821H   LINE      ECODE    ---       #152
      00FFD824H   LINE      ECODE    ---       #154
      00FFD826H   LINE      ECODE    ---       #155
      00FFD82AH   LINE      ECODE    ---       #158
      00FFD82CH   LINE      ECODE    ---       #159
      00FFD82FH   LINE      ECODE    ---       #160
      00FFD834H   LINE      ECODE    ---       #162
      00FFD836H   LINE      ECODE    ---       #163
      ---         BLOCKEND  ---      ---       LVL=0

      00FFD83BH   BLOCK     ECODE    ---       LVL=0
      R13         REGSYM    ---      BYTE      dev_add
      R14         REGSYM    ---      BYTE      reg
      R15         REGSYM    ---      BYTE      dat
      00FFD83BH   LINE      ECODE    ---       #175
      00FFD843H   LINE      ECODE    ---       #177
      00FFD846H   LINE      ECODE    ---       #178
      00FFD84BH   LINE      ECODE    ---       #179
      00FFD850H   LINE      ECODE    ---       #180
      00FFD855H   LINE      ECODE    ---       #181
      00FFD858H   LINE      ECODE    ---       #182
      ---         BLOCKEND  ---      ---       LVL=0

      00FFD85DH   BLOCK     ECODE    ---       LVL=0
      R15         REGSYM    ---      BYTE      dev_add
      R14         REGSYM    ---      BYTE      reg
      00FFD863H   BLOCK     ECODE    NEAR LAB  LVL=1
      R15         REGSYM    ---      BYTE      dat
      ---         BLOCKEND  ---      ---       LVL=1
      00FFD85DH   LINE      ECODE    ---       #217
      00FFD863H   LINE      ECODE    ---       #218
      00FFD863H   LINE      ECODE    ---       #220
      00FFD866H   LINE      ECODE    ---       #221
      00FFD86BH   LINE      ECODE    ---       #222
      00FFD870H   LINE      ECODE    ---       #224
      00FFD873H   LINE      ECODE    ---       #225
      00FFD87CH   LINE      ECODE    ---       #226
      00FFD880H   LINE      ECODE    ---       #227
      00FFD883H   LINE      ECODE    ---       #229
      00FFD883H   LINE      ECODE    ---       #230
      ---         BLOCKEND  ---      ---       LVL=0

      00FFD886H   BLOCK     ECODE    ---       LVL=0
      R14         REGSYM    ---      BYTE      byte_reg
      R15         REGSYM    ---      BYTE      dat
      00FFD886H   LINE      ECODE    ---       #271
      00FFD88CH   LINE      ECODE    ---       #273
      00FFD894H   LINE      ECODE    ---       #274
      00FFD89DH   LINE      ECODE    ---       #275
      ---         BLOCKEND  ---      ---       LVL=0

      00FFD8A0H   BLOCK     ECODE    ---       LVL=0
      R15         REGSYM    ---      BYTE      byte_reg
L251 LINKER/LOCATER V4.66.93.0                                                        06/26/2023  14:53:20  PAGE 83


      00FFD8A0H   LINE      ECODE    ---       #285
      00FFD8A4H   LINE      ECODE    ---       #287
      00FFD8ACH   LINE      ECODE    ---       #288
      00FFD8B3H   LINE      ECODE    ---       #289
      ---         BLOCKEND  ---      ---       LVL=0

      00FFD8B6H   BLOCK     ECODE    ---       LVL=0
      REG=3       REGSYM    ---      ---       dat_add
      00FFD8B6H   LINE      ECODE    ---       #301
      00FFD8C4H   LINE      ECODE    ---       #303
      00FFD8C4H   LINE      ECODE    ---       #304
      00FFD8C4H   LINE      ECODE    ---       #305
      00FFD8C4H   LINE      ECODE    ---       #306
      00FFD8C4H   LINE      ECODE    ---       #308
      00FFD8C6H   LINE      ECODE    ---       #310
      00FFD8CEH   LINE      ECODE    ---       #311
      00FFD8D4H   LINE      ECODE    ---       #312
      00FFD8E0H   LINE      ECODE    ---       #314
      00FFD8E3H   LINE      ECODE    ---       #315
      00FFD8EBH   LINE      ECODE    ---       #316
      00FFD8EEH   LINE      ECODE    ---       #317
      00FFD8F3H   LINE      ECODE    ---       #318
      00FFD8FAH   LINE      ECODE    ---       #319
      00FFD902H   LINE      ECODE    ---       #321
      00FFD908H   LINE      ECODE    ---       #322
      00FFD90BH   LINE      ECODE    ---       #323
      ---         BLOCKEND  ---      ---       LVL=0

      00FFD90EH   BLOCK     ECODE    ---       LVL=0
      REG=3       REGSYM    ---      ---       dat_add
      00FFD90EH   LINE      ECODE    ---       #335
      00FFD91CH   LINE      ECODE    ---       #337
      00FFD924H   LINE      ECODE    ---       #338
      00FFD927H   LINE      ECODE    ---       #339
      00FFD92CH   LINE      ECODE    ---       #340
      00FFD933H   LINE      ECODE    ---       #341
      00FFD93BH   LINE      ECODE    ---       #342
      00FFD93EH   LINE      ECODE    ---       #343
      00FFD943H   LINE      ECODE    ---       #344
      00FFD945H   LINE      ECODE    ---       #346
      00FFD94FH   LINE      ECODE    ---       #347
      00FFD955H   LINE      ECODE    ---       #348
      00FFD95DH   LINE      ECODE    ---       #349
      00FFD964H   LINE      ECODE    ---       #350
      00FFD967H   LINE      ECODE    ---       #351
      ---         BLOCKEND  ---      ---       LVL=0

      ---         MODULE    ---      ---       SEEKFREE_BLUETOOTH_CH9141
      00FFE080H   PUBLIC    ECODE    ---       bluetooth_ch9141_uart_callback?
      00FFE1D3H   PUBLIC    ECODE    ---       bluetooth_ch9141_read_buff?
      00FFE0FCH   PUBLIC    ECODE    ---       bluetooth_ch9141_send_buff?
      00FFE0A8H   PUBLIC    ECODE    ---       bluetooth_ch9141_init?
      000000D0H   SFRSYM    DATA     BYTE      PSW
      0000009DH   SFRSYM    DATA     BYTE      IRCBAND
      00000097H   SFRSYM    DATA     BYTE      AUXR2
      000000EFH   SFRSYM    DATA     BYTE      AUXINTIF
      000000FDH   SFRSYM    DATA     BYTE      S4CON
      000000ACH   SFRSYM    DATA     BYTE      S3CON
      0000009AH   SFRSYM    DATA     BYTE      S2CON
      000000FEH   SFRSYM    DATA     BYTE      S4BUF
      000000B7H   SFRSYM    DATA     BYTE      IPH
      000000CDH   SFRSYM    DATA     BYTE      SPSTAT
      000000DDH   SFRSYM    DATA     BYTE      T4T3M
      000000C1H   SFRSYM    DATA     BYTE      WDT_CONTR
      000000DFH   SFRSYM    DATA     BYTE      IP3
L251 LINKER/LOCATER V4.66.93.0                                                        06/26/2023  14:53:20  PAGE 84


      000000F4H   SFRSYM    DATA     BYTE      USBCON
      000000B5H   SFRSYM    DATA     BYTE      IP2
      000000FFH   SFRSYM    DATA     BYTE      RSTCFG
      000000F9H   SFRSYM    DATA     BYTE      LINICR
      0000008EH   SFRSYM    DATA     BYTE      AUXR
      000000AFH   SFRSYM    DATA     BYTE      IE2
      00000080H.7 SFRSYM    DATA     BIT       P07
      00000088H   SFRSYM    DATA     BYTE      TCON
      00000098H   SFRSYM    DATA     BYTE      SCON
      000000F1H   SFRSYM    DATA     BYTE      CANICR
      00000087H   SFRSYM    DATA     BYTE      PCON
      000000BCH   SFRSYM    DATA     BYTE      ADC_CONTR
      000000E7H   SFRSYM    DATA     BYTE      CMPCR2
      000000E6H   SFRSYM    DATA     BYTE      CMPCR1
      000000B8H   SFRSYM    DATA     BYTE      IP
      0000008FH   SFRSYM    DATA     BYTE      INTCLKO
      000000EEH   SFRSYM    DATA     BYTE      IP3H
      000000B6H   SFRSYM    DATA     BYTE      IP2H
      000000A8H   SFRSYM    DATA     BYTE      IE
      000000BBH   SFRSYM    DATA     BYTE      P_SW3
      000000BAH   SFRSYM    DATA     BYTE      P_SW2
      000000A2H   SFRSYM    DATA     BYTE      P_SW1
      000000CEH   SFRSYM    DATA     BYTE      SPCTL
      000000F8H   SFRSYM    DATA     BYTE      P7
      000000E8H   SFRSYM    DATA     BYTE      P6
      000000C8H   SFRSYM    DATA     BYTE      P5
      000000C0H   SFRSYM    DATA     BYTE      P4
      000000B0H   SFRSYM    DATA     BYTE      P3
      000000A0H   SFRSYM    DATA     BYTE      P2
      00000090H   SFRSYM    DATA     BYTE      P1
      00000080H   SFRSYM    DATA     BYTE      P0
      00010635H   SYMBOL    XDATA    ---       bluetooth_ch9141_buffer
      00010675H   SYMBOL    XDATA    BYTE      bluetooth_ch9141_data
      00010676H   SYMBOL    XDATA    ---       bluetooth_ch9141_fifo

      00FFE080H   BLOCK     ECODE    ---       LVL=0
      00FFE080H   LINE      ECODE    ---       #67
      00FFE080H   LINE      ECODE    ---       #70
      00FFE086H   LINE      ECODE    ---       #71
      ---         BLOCKEND  ---      ---       LVL=0

      00FFE0A8H   BLOCK     ECODE    ---       LVL=0
      00FFE0A8H   LINE      ECODE    ---       #80
      00FFE0A8H   LINE      ECODE    ---       #82
      00FFE0B2H   LINE      ECODE    ---       #84
      00FFE0D4H   LINE      ECODE    ---       #85
      00FFE0FAH   LINE      ECODE    ---       #86
      00FFE0FBH   LINE      ECODE    ---       #87
      ---         BLOCKEND  ---      ---       LVL=0

      00FFE0FCH   BLOCK     ECODE    ---       LVL=0
      DR12        REGSYM    ---      DWORD     len
      00FFE10AH   BLOCK     ECODE    NEAR LAB  LVL=1
      ---         BLOCKEND  ---      ---       LVL=1
      00FFE0FCH   LINE      ECODE    ---       #98
      00FFE10AH   LINE      ECODE    ---       #99
      00FFE10AH   LINE      ECODE    ---       #100
      00FFE112H   LINE      ECODE    ---       #101
      00FFE114H   LINE      ECODE    ---       #103
      00FFE11CH   LINE      ECODE    ---       #104
      00FFE13CH   LINE      ECODE    ---       #106
      00FFE148H   LINE      ECODE    ---       #107
      00FFE14DH   LINE      ECODE    ---       #108
      00FFE163H   LINE      ECODE    ---       #110
      00FFE178H   LINE      ECODE    ---       #111
L251 LINKER/LOCATER V4.66.93.0                                                        06/26/2023  14:53:20  PAGE 85


      00FFE17CH   LINE      ECODE    ---       #112
      00FFE182H   LINE      ECODE    ---       #114
      00FFE18AH   LINE      ECODE    ---       #115
      00FFE1AAH   LINE      ECODE    ---       #117
      00FFE1B6H   LINE      ECODE    ---       #118
      00FFE1BAH   LINE      ECODE    ---       #119
      00FFE1CEH   LINE      ECODE    ---       #121
      00FFE1D0H   LINE      ECODE    ---       #122
      ---         BLOCKEND  ---      ---       LVL=0

      00FFE1D3H   BLOCK     ECODE    ---       LVL=0
      REG=7       REGSYM    ---      ---       buff
      DR8         REGSYM    ---      DWORD     len
      00FFE1D5H   BLOCK     ECODE    NEAR LAB  LVL=1
      ---         BLOCKEND  ---      ---       LVL=1
      00FFE1D3H   LINE      ECODE    ---       #131
      00FFE1D5H   LINE      ECODE    ---       #132
      00FFE1D5H   LINE      ECODE    ---       #133
      00FFE1DFH   LINE      ECODE    ---       #134
      00FFE207H   LINE      ECODE    ---       #135
      00FFE211H   LINE      ECODE    ---       #136
      ---         BLOCKEND  ---      ---       LVL=0

      ---         MODULE    ---      ---       SEEKFREE_DL1A
      00FF81EDH   PUBLIC    ECODE    ---       dl1a_get_distance?
      00FF8262H   PUBLIC    ECODE    ---       dl1a_init?
      000108E0H   PUBLIC    XDATA    WORD      dl1a_distance_mm
      000108E2H   PUBLIC    XDATA    BYTE      dl1a_finsh_flag
      000000D0H   SFRSYM    DATA     BYTE      PSW
      0000009DH   SFRSYM    DATA     BYTE      IRCBAND
      00000097H   SFRSYM    DATA     BYTE      AUXR2
      000000EFH   SFRSYM    DATA     BYTE      AUXINTIF
      000000FDH   SFRSYM    DATA     BYTE      S4CON
      000000ACH   SFRSYM    DATA     BYTE      S3CON
      0000009AH   SFRSYM    DATA     BYTE      S2CON
      000000B7H   SFRSYM    DATA     BYTE      IPH
      000000CDH   SFRSYM    DATA     BYTE      SPSTAT
      000000DDH   SFRSYM    DATA     BYTE      T4T3M
      000000C1H   SFRSYM    DATA     BYTE      WDT_CONTR
      000000DFH   SFRSYM    DATA     BYTE      IP3
      000000F4H   SFRSYM    DATA     BYTE      USBCON
      000000B5H   SFRSYM    DATA     BYTE      IP2
      000000FFH   SFRSYM    DATA     BYTE      RSTCFG
      000000F9H   SFRSYM    DATA     BYTE      LINICR
      0000008EH   SFRSYM    DATA     BYTE      AUXR
      000000AFH   SFRSYM    DATA     BYTE      IE2
      000000C0H.7 SFRSYM    DATA     BIT       P47
      000000E8H.5 SFRSYM    DATA     BIT       P65
      000000E8H.3 SFRSYM    DATA     BIT       P63
      00000088H   SFRSYM    DATA     BYTE      TCON
      00000098H   SFRSYM    DATA     BYTE      SCON
      000000F1H   SFRSYM    DATA     BYTE      CANICR
      00000087H   SFRSYM    DATA     BYTE      PCON
      000000BCH   SFRSYM    DATA     BYTE      ADC_CONTR
      000000E7H   SFRSYM    DATA     BYTE      CMPCR2
      000000E6H   SFRSYM    DATA     BYTE      CMPCR1
      000000B8H   SFRSYM    DATA     BYTE      IP
      0000008FH   SFRSYM    DATA     BYTE      INTCLKO
      000000EEH   SFRSYM    DATA     BYTE      IP3H
      000000B6H   SFRSYM    DATA     BYTE      IP2H
      000000A8H   SFRSYM    DATA     BYTE      IE
      000000BBH   SFRSYM    DATA     BYTE      P_SW3
      000000BAH   SFRSYM    DATA     BYTE      P_SW2
      000000A2H   SFRSYM    DATA     BYTE      P_SW1
      000000CEH   SFRSYM    DATA     BYTE      SPCTL
L251 LINKER/LOCATER V4.66.93.0                                                        06/26/2023  14:53:20  PAGE 86


      000000F8H   SFRSYM    DATA     BYTE      P7
      000000E8H   SFRSYM    DATA     BYTE      P6
      000000C8H   SFRSYM    DATA     BYTE      P5
      000000C0H   SFRSYM    DATA     BYTE      P4
      000000B0H   SFRSYM    DATA     BYTE      P3
      000000A0H   SFRSYM    DATA     BYTE      P2
      00000090H   SFRSYM    DATA     BYTE      P1
      00000080H   SFRSYM    DATA     BYTE      P0
      00FF78FAH   SYMBOL    ECODE    ---       dl1a_simiic_sendack
      00FF7CE9H   SYMBOL    ECODE    ---       dl1a_timeout_microseconds_to_mclks
      00FF7CA5H   SYMBOL    ECODE    ---       dl1a_timeout_mclks_to_microseconds
      00FF81BCH   SYMBOL    ECODE    ---       dl1a_set_signal_rate_limit
      00FF7964H   SYMBOL    ECODE    ---       dl1a_read_ch
      00FF7D2BH   SYMBOL    ECODE    ---       dl1a_decode_timeout
      00FF7936H   SYMBOL    ECODE    ---       dl1a_send_ch
      00FF7AECH   SYMBOL    ECODE    ---       dl1a_get_spad_info
      00FF7D3BH   SYMBOL    ECODE    ---       dl1a_encode_timeout
      00FF7D6FH   SYMBOL    ECODE    ---       dl1a_get_sequence_step_enables
      00FF791AH   SYMBOL    ECODE    ---       dl1a_sccb_waitack
      00FF78CDH   SYMBOL    ECODE    ---       dl1a_simiic_delay
      00FF7F58H   SYMBOL    ECODE    ---       dl1a_perform_single_ref_calibration
      00FF7E3FH   SYMBOL    ECODE    ---       dl1a_get_sequence_step_timeouts
      00FF78DAH   SYMBOL    ECODE    ---       dl1a_simiic_start
      00FF7A2EH   SYMBOL    ECODE    ---       dl1a_simiic_read_regs
      00FF811FH   SYMBOL    ECODE    ---       dl1a_get_measurement_timing_budget
      00FF799FH   SYMBOL    ECODE    ---       dl1a_simiic_write_dats
      00FF7A05H   SYMBOL    ECODE    ---       dl1a_simiic_read_reg
      00FF7A8DH   SYMBOL    ECODE    ---       dl1a_simiic_read_regs_1
      00FF7FDEH   SYMBOL    ECODE    ---       dl1a_set_measurement_timing_budget
      00FF78E9H   SYMBOL    ECODE    ---       dl1a_simiic_stop
      00FF79E3H   SYMBOL    ECODE    ---       dl1a_simiic_write_reg
      00FF7DD1H   SYMBOL    ECODE    ---       dl1a_get_vcsel_pulse_period

      00FF78CDH   BLOCK     ECODE    ---       LVL=0
      WR6         REGSYM    ---      WORD      j
      00FF78CDH   LINE      ECODE    ---       #75
      00FF78CDH   LINE      ECODE    ---       #76
      00FF78CDH   LINE      ECODE    ---       #77
      00FF78D1H   LINE      ECODE    ---       #78
      00FF78D9H   LINE      ECODE    ---       #79
      ---         BLOCKEND  ---      ---       LVL=0

      00FF78DAH   BLOCK     ECODE    ---       LVL=0
      00FF78DAH   LINE      ECODE    ---       #82
      00FF78DAH   LINE      ECODE    ---       #84
      00FF78DCH   LINE      ECODE    ---       #85
      00FF78DEH   LINE      ECODE    ---       #86
      00FF78E1H   LINE      ECODE    ---       #87
      00FF78E3H   LINE      ECODE    ---       #88
      00FF78E6H   LINE      ECODE    ---       #89
      00FF78E8H   LINE      ECODE    ---       #90
      ---         BLOCKEND  ---      ---       LVL=0

      00FF78E9H   BLOCK     ECODE    ---       LVL=0
      00FF78E9H   LINE      ECODE    ---       #93
      00FF78E9H   LINE      ECODE    ---       #95
      00FF78EBH   LINE      ECODE    ---       #96
      00FF78EDH   LINE      ECODE    ---       #97
      00FF78F0H   LINE      ECODE    ---       #98
      00FF78F2H   LINE      ECODE    ---       #99
      00FF78F5H   LINE      ECODE    ---       #100
      00FF78F7H   LINE      ECODE    ---       #101
      ---         BLOCKEND  ---      ---       LVL=0

      00FF78FAH   BLOCK     ECODE    ---       LVL=0
L251 LINKER/LOCATER V4.66.93.0                                                        06/26/2023  14:53:20  PAGE 87


      R15         REGSYM    ---      BYTE      ack_dat
      00FF78FAH   LINE      ECODE    ---       #106
      00FF78FEH   LINE      ECODE    ---       #108
      00FF7900H   LINE      ECODE    ---       #109
      00FF7903H   LINE      ECODE    ---       #110
      00FF790BH   LINE      ECODE    ---       #111
      00FF790DH   LINE      ECODE    ---       #113
      00FF790FH   LINE      ECODE    ---       #114
      00FF7912H   LINE      ECODE    ---       #115
      00FF7914H   LINE      ECODE    ---       #116
      00FF7917H   LINE      ECODE    ---       #117
      ---         BLOCKEND  ---      ---       LVL=0

      00FF791AH   BLOCK     ECODE    ---       LVL=0
      00FF791AH   LINE      ECODE    ---       #120
      00FF791AH   LINE      ECODE    ---       #122
      00FF791CH   LINE      ECODE    ---       #124
      00FF791FH   LINE      ECODE    ---       #126
      00FF7921H   LINE      ECODE    ---       #127
      00FF7924H   LINE      ECODE    ---       #129
      00FF7927H   LINE      ECODE    ---       #132
      00FF7929H   LINE      ECODE    ---       #133
      00FF792CH   LINE      ECODE    ---       #134
      00FF792CH   LINE      ECODE    ---       #136
      00FF792EH   LINE      ECODE    ---       #137
      00FF7931H   LINE      ECODE    ---       #138
      00FF7935H   LINE      ECODE    ---       #139
      ---         BLOCKEND  ---      ---       LVL=0

      00FF7936H   BLOCK     ECODE    ---       LVL=0
      R15         REGSYM    ---      BYTE      c
      00FF793AH   BLOCK     ECODE    NEAR LAB  LVL=1
      R14         REGSYM    ---      BYTE      i
      ---         BLOCKEND  ---      ---       LVL=1
      00FF7936H   LINE      ECODE    ---       #145
      00FF793AH   LINE      ECODE    ---       #146
      00FF793AH   LINE      ECODE    ---       #147
      00FF793DH   LINE      ECODE    ---       #148
      00FF793FH   LINE      ECODE    ---       #150
      00FF7948H   LINE      ECODE    ---       #151
      00FF794AH   LINE      ECODE    ---       #152
      00FF794CH   LINE      ECODE    ---       #153
      00FF794FH   LINE      ECODE    ---       #154
      00FF7951H   LINE      ECODE    ---       #155
      00FF7954H   LINE      ECODE    ---       #156
      00FF7956H   LINE      ECODE    ---       #157
      00FF795EH   LINE      ECODE    ---       #158
      00FF7961H   LINE      ECODE    ---       #159
      ---         BLOCKEND  ---      ---       LVL=0

      00FF7964H   BLOCK     ECODE    ---       LVL=0
      R15         REGSYM    ---      BYTE      ack_x
      00FF796AH   BLOCK     ECODE    NEAR LAB  LVL=1
      R13         REGSYM    ---      BYTE      i
      R14         REGSYM    ---      BYTE      c
      ---         BLOCKEND  ---      ---       LVL=1
      00FF7964H   LINE      ECODE    ---       #165
      00FF796AH   LINE      ECODE    ---       #166
      00FF796AH   LINE      ECODE    ---       #169
      00FF796CH   LINE      ECODE    ---       #170
      00FF796EH   LINE      ECODE    ---       #171
      00FF7971H   LINE      ECODE    ---       #172
      00FF7973H   LINE      ECODE    ---       #174
      00FF7976H   LINE      ECODE    ---       #176
      00FF7979H   LINE      ECODE    ---       #177
L251 LINKER/LOCATER V4.66.93.0                                                        06/26/2023  14:53:20  PAGE 88


      00FF797BH   LINE      ECODE    ---       #178
      00FF797EH   LINE      ECODE    ---       #179
      00FF7980H   LINE      ECODE    ---       #180
      00FF7983H   LINE      ECODE    ---       #181
      00FF7985H   LINE      ECODE    ---       #182
      00FF7988H   LINE      ECODE    ---       #184
      00FF798AH   LINE      ECODE    ---       #185
      00FF798EH   LINE      ECODE    ---       #188
      00FF7990H   LINE      ECODE    ---       #189
      00FF7993H   LINE      ECODE    ---       #190
      00FF7998H   LINE      ECODE    ---       #192
      00FF799AH   LINE      ECODE    ---       #193
      ---         BLOCKEND  ---      ---       LVL=0

      00FF799FH   BLOCK     ECODE    ---       LVL=0
      000100E3H   SYMBOL    XDATA    BYTE      dev_add
      000100E4H   SYMBOL    XDATA    ---       dat
      DR12        REGSYM    ---      DWORD     len
      00FF799FH   LINE      ECODE    ---       #205
      00FF79B1H   LINE      ECODE    ---       #207
      00FF79B4H   LINE      ECODE    ---       #208
      00FF79BAH   LINE      ECODE    ---       #209
      00FF79BCH   LINE      ECODE    ---       #211
      00FF79D5H   LINE      ECODE    ---       #212
      00FF79DDH   LINE      ECODE    ---       #215
      00FF79E0H   LINE      ECODE    ---       #216
      ---         BLOCKEND  ---      ---       LVL=0

      00FF79E3H   BLOCK     ECODE    ---       LVL=0
      R13         REGSYM    ---      BYTE      dev_add
      R14         REGSYM    ---      BYTE      reg
      R15         REGSYM    ---      BYTE      dat
      00FF79E3H   LINE      ECODE    ---       #228
      00FF79EBH   LINE      ECODE    ---       #230
      00FF79EEH   LINE      ECODE    ---       #231
      00FF79F3H   LINE      ECODE    ---       #232
      00FF79F8H   LINE      ECODE    ---       #233
      00FF79FDH   LINE      ECODE    ---       #234
      00FF7A00H   LINE      ECODE    ---       #235
      ---         BLOCKEND  ---      ---       LVL=0

      00FF7A05H   BLOCK     ECODE    ---       LVL=0
      R15         REGSYM    ---      BYTE      dev_add
      R14         REGSYM    ---      BYTE      reg
      00FF7A0BH   BLOCK     ECODE    NEAR LAB  LVL=1
      R15         REGSYM    ---      BYTE      dat
      ---         BLOCKEND  ---      ---       LVL=1
      00FF7A05H   LINE      ECODE    ---       #246
      00FF7A0BH   LINE      ECODE    ---       #247
      00FF7A0BH   LINE      ECODE    ---       #249
      00FF7A0EH   LINE      ECODE    ---       #250
      00FF7A13H   LINE      ECODE    ---       #251
      00FF7A18H   LINE      ECODE    ---       #254
      00FF7A1BH   LINE      ECODE    ---       #255
      00FF7A24H   LINE      ECODE    ---       #256
      00FF7A28H   LINE      ECODE    ---       #257
      00FF7A2BH   LINE      ECODE    ---       #259
      00FF7A2BH   LINE      ECODE    ---       #260
      ---         BLOCKEND  ---      ---       LVL=0

      00FF7A2EH   BLOCK     ECODE    ---       LVL=0
      000100ECH   SYMBOL    XDATA    BYTE      dev_add
      000100EDH   SYMBOL    XDATA    BYTE      reg
      REG=3       REGSYM    ---      ---       dat_add
      000100EEH   SYMBOL    XDATA    DWORD     num
L251 LINKER/LOCATER V4.66.93.0                                                        06/26/2023  14:53:20  PAGE 89


      00FF7A2EH   LINE      ECODE    ---       #273
      00FF7A3CH   LINE      ECODE    ---       #275
      00FF7A3FH   LINE      ECODE    ---       #276
      00FF7A48H   LINE      ECODE    ---       #277
      00FF7A4FH   LINE      ECODE    ---       #280
      00FF7A52H   LINE      ECODE    ---       #281
      00FF7A5DH   LINE      ECODE    ---       #282
      00FF7A5FH   LINE      ECODE    ---       #284
      00FF7A67H   LINE      ECODE    ---       #285
      00FF7A69H   LINE      ECODE    ---       #286
      00FF7A80H   LINE      ECODE    ---       #287
      00FF7A87H   LINE      ECODE    ---       #288
      00FF7A8AH   LINE      ECODE    ---       #289
      ---         BLOCKEND  ---      ---       LVL=0

      00FF7A8DH   BLOCK     ECODE    ---       LVL=0
      0001000FH   SYMBOL    XDATA    BYTE      dev_add
      00010010H   SYMBOL    XDATA    BYTE      reg
      REG=3       REGSYM    ---      ---       dat_add
      00010011H   SYMBOL    XDATA    DWORD     num
      00FF7A8DH   LINE      ECODE    ---       #302
      00FF7A9BH   LINE      ECODE    ---       #304
      00FF7A9EH   LINE      ECODE    ---       #305
      00FF7AA7H   LINE      ECODE    ---       #306
      00FF7AAEH   LINE      ECODE    ---       #309
      00FF7AB1H   LINE      ECODE    ---       #310
      00FF7ABCH   LINE      ECODE    ---       #311
      00FF7ABEH   LINE      ECODE    ---       #313
      00FF7AC6H   LINE      ECODE    ---       #314
      00FF7AC8H   LINE      ECODE    ---       #315
      00FF7ADFH   LINE      ECODE    ---       #316
      00FF7AE6H   LINE      ECODE    ---       #317
      00FF7AE9H   LINE      ECODE    ---       #318
      ---         BLOCKEND  ---      ---       LVL=0

      00FF7AECH   BLOCK     ECODE    ---       LVL=0
      000100C0H   SYMBOL    XDATA    ---       index
      REG=3       REGSYM    ---      ---       type_is_aperture
      00FF7AFAH   BLOCK     ECODE    NEAR LAB  LVL=1
      000100C4H   SYMBOL    XDATA    BYTE      tmp
      000100C5H   SYMBOL    XDATA    BYTE      return_state
      000100C6H   SYMBOL    XDATA    WORD      loop_count
      ---         BLOCKEND  ---      ---       LVL=1
      00FF7AECH   LINE      ECODE    ---       #350
      00FF7AFAH   LINE      ECODE    ---       #351
      00FF7AFAH   LINE      ECODE    ---       #352
      00FF7AFFH   LINE      ECODE    ---       #353
      00FF7B03H   LINE      ECODE    ---       #354
      00FF7B0BH   LINE      ECODE    ---       #356
      00FF7B0BH   LINE      ECODE    ---       #358
      00FF7B16H   LINE      ECODE    ---       #359
      00FF7B21H   LINE      ECODE    ---       #360
      00FF7B2AH   LINE      ECODE    ---       #362
      00FF7B35H   LINE      ECODE    ---       #363
      00FF7B53H   LINE      ECODE    ---       #364
      00FF7B64H   LINE      ECODE    ---       #365
      00FF7B6FH   LINE      ECODE    ---       #366
      00FF7B7AH   LINE      ECODE    ---       #368
      00FF7B85H   LINE      ECODE    ---       #370
      00FF7B90H   LINE      ECODE    ---       #371
      00FF7B9AH   LINE      ECODE    ---       #373
      00FF7B9FH   LINE      ECODE    ---       #374
      00FF7BA1H   LINE      ECODE    ---       #376
      00FF7BBFH   LINE      ECODE    ---       #377
      00FF7BCAH   LINE      ECODE    ---       #378
L251 LINKER/LOCATER V4.66.93.0                                                        06/26/2023  14:53:20  PAGE 90


      00FF7BD6H   LINE      ECODE    ---       #380
      00FF7BDCH   LINE      ECODE    ---       #381
      00FF7BDEH   LINE      ECODE    ---       #382
      00FF7BE5H   LINE      ECODE    ---       #385
      00FF7BEEH   LINE      ECODE    ---       #387
      00FF7BEEH   LINE      ECODE    ---       #388
      00FF7BEEH   LINE      ECODE    ---       #389
      00FF7BF9H   LINE      ECODE    ---       #390
      00FF7C17H   LINE      ECODE    ---       #392
      00FF7C2AH   LINE      ECODE    ---       #393
      00FF7C34H   LINE      ECODE    ---       #395
      00FF7C3EH   LINE      ECODE    ---       #396
      00FF7C49H   LINE      ECODE    ---       #397
      00FF7C67H   LINE      ECODE    ---       #398
      00FF7C75H   LINE      ECODE    ---       #399
      00FF7C80H   LINE      ECODE    ---       #400
      00FF7C8AH   LINE      ECODE    ---       #402
      00FF7C94H   LINE      ECODE    ---       #403
      00FF7C9EH   LINE      ECODE    ---       #404
      00FF7C9EH   LINE      ECODE    ---       #406
      00FF7CA2H   LINE      ECODE    ---       #407
      ---         BLOCKEND  ---      ---       LVL=0

      00FF7CA5H   BLOCK     ECODE    ---       LVL=0
      WR30        REGSYM    ---      WORD      timeout_period_mclks
      R5          REGSYM    ---      BYTE      vcsel_period_pclks
      00FF7CA7H   BLOCK     ECODE    NEAR LAB  LVL=1
      DR24        REGSYM    ---      DWORD     macro_period_ns
      ---         BLOCKEND  ---      ---       LVL=1
      00FF7CA5H   LINE      ECODE    ---       #417
      00FF7CA7H   LINE      ECODE    ---       #418
      00FF7CA7H   LINE      ECODE    ---       #419
      00FF7CCBH   LINE      ECODE    ---       #421
      00FF7CE8H   LINE      ECODE    ---       #422
      ---         BLOCKEND  ---      ---       LVL=0

      00FF7CE9H   BLOCK     ECODE    ---       LVL=0
      DR28        REGSYM    ---      DWORD     timeout_period_us
      R3          REGSYM    ---      BYTE      vcsel_period_pclks
      00FF7CEBH   BLOCK     ECODE    NEAR LAB  LVL=1
      DR8         REGSYM    ---      DWORD     macro_period_ns
      ---         BLOCKEND  ---      ---       LVL=1
      00FF7CE9H   LINE      ECODE    ---       #432
      00FF7CEBH   LINE      ECODE    ---       #433
      00FF7CEBH   LINE      ECODE    ---       #434
      00FF7D0FH   LINE      ECODE    ---       #436
      00FF7D2AH   LINE      ECODE    ---       #437
      ---         BLOCKEND  ---      ---       LVL=0

      00FF7D2BH   BLOCK     ECODE    ---       LVL=0
      WR4         REGSYM    ---      WORD      reg_val
      00FF7D2BH   LINE      ECODE    ---       #446
      00FF7D2DH   LINE      ECODE    ---       #449
      00FF7D3AH   LINE      ECODE    ---       #451
      ---         BLOCKEND  ---      ---       LVL=0

      00FF7D3BH   BLOCK     ECODE    ---       LVL=0
      WR2         REGSYM    ---      WORD      timeout_mclks
      00FF7D3DH   BLOCK     ECODE    NEAR LAB  LVL=1
      DR8         REGSYM    ---      DWORD     ls_byte
      WR4         REGSYM    ---      WORD      ms_byte
      WR6         REGSYM    ---      WORD      return_data
      ---         BLOCKEND  ---      ---       LVL=1
      00FF7D3BH   LINE      ECODE    ---       #460
      00FF7D3DH   LINE      ECODE    ---       #461
L251 LINKER/LOCATER V4.66.93.0                                                        06/26/2023  14:53:20  PAGE 91


      00FF7D3DH   LINE      ECODE    ---       #462
      00FF7D3DH   LINE      ECODE    ---       #463
      00FF7D41H   LINE      ECODE    ---       #464
      00FF7D41H   LINE      ECODE    ---       #466
      00FF7D47H   LINE      ECODE    ---       #469
      00FF7D4DH   LINE      ECODE    ---       #470
      00FF7D4FH   LINE      ECODE    ---       #472
      00FF7D58H   LINE      ECODE    ---       #473
      00FF7D5AH   LINE      ECODE    ---       #474
      00FF7D64H   LINE      ECODE    ---       #475
      00FF7D6EH   LINE      ECODE    ---       #476
      00FF7D6EH   LINE      ECODE    ---       #477
      00FF7D6EH   LINE      ECODE    ---       #478
      ---         BLOCKEND  ---      ---       LVL=0

      00FF7D6FH   BLOCK     ECODE    ---       LVL=0
      REG=3       REGSYM    ---      ---       enables
      00FF7D73H   BLOCK     ECODE    NEAR LAB  LVL=1
      000100E3H   SYMBOL    XDATA    BYTE      sequence_config
      ---         BLOCKEND  ---      ---       LVL=1
      00FF7D6FH   LINE      ECODE    ---       #487
      00FF7D73H   LINE      ECODE    ---       #488
      00FF7D73H   LINE      ECODE    ---       #489
      00FF7D78H   LINE      ECODE    ---       #490
      00FF7D93H   LINE      ECODE    ---       #492
      00FF7D9DH   LINE      ECODE    ---       #493
      00FF7DA9H   LINE      ECODE    ---       #494
      00FF7DB7H   LINE      ECODE    ---       #495
      00FF7DC3H   LINE      ECODE    ---       #496
      00FF7DCEH   LINE      ECODE    ---       #497
      ---         BLOCKEND  ---      ---       LVL=0

      00FF7DD1H   BLOCK     ECODE    ---       LVL=0
      WR6         REGSYM    ---      INT       type
      000100EBH   SYMBOL    XDATA    BYTE      data_buffer
      00FF7DD1H   LINE      ECODE    ---       #506
      00FF7DD1H   LINE      ECODE    ---       #507
      00FF7DD1H   LINE      ECODE    ---       #508
      00FF7DD6H   LINE      ECODE    ---       #509
      00FF7DDAH   LINE      ECODE    ---       #511
      00FF7DF8H   LINE      ECODE    ---       #512
      00FF7E02H   LINE      ECODE    ---       #513
      00FF7E04H   LINE      ECODE    ---       #514
      00FF7E0AH   LINE      ECODE    ---       #516
      00FF7E28H   LINE      ECODE    ---       #517
      00FF7E32H   LINE      ECODE    ---       #518
      00FF7E34H   LINE      ECODE    ---       #521
      00FF7E3AH   LINE      ECODE    ---       #522
      00FF7E3AH   LINE      ECODE    ---       #523
      00FF7E3EH   LINE      ECODE    ---       #524
      ---         BLOCKEND  ---      ---       LVL=0

      00FF7E3FH   BLOCK     ECODE    ---       LVL=0
      000100E3H   SYMBOL    XDATA    ---       enables
      REG=3       REGSYM    ---      ---       timeouts
      00FF7E4DH   BLOCK     ECODE    NEAR LAB  LVL=1
      000100E7H   SYMBOL    XDATA    ---       reg_buffer
      000100E9H   SYMBOL    XDATA    WORD      reg16_buffer
      ---         BLOCKEND  ---      ---       LVL=1
      00FF7E3FH   LINE      ECODE    ---       #534
      00FF7E4DH   LINE      ECODE    ---       #535
      00FF7E4DH   LINE      ECODE    ---       #537
      00FF7E4DH   LINE      ECODE    ---       #539
      00FF7E57H   LINE      ECODE    ---       #541
      00FF7E75H   LINE      ECODE    ---       #542
L251 LINKER/LOCATER V4.66.93.0                                                        06/26/2023  14:53:20  PAGE 92


      00FF7E81H   LINE      ECODE    ---       #543
      00FF7E8FH   LINE      ECODE    ---       #545
      00FF7EADH   LINE      ECODE    ---       #546
      00FF7EC3H   LINE      ECODE    ---       #547
      00FF7ECAH   LINE      ECODE    ---       #548
      00FF7ED8H   LINE      ECODE    ---       #550
      00FF7EE5H   LINE      ECODE    ---       #552
      00FF7F03H   LINE      ECODE    ---       #553
      00FF7F19H   LINE      ECODE    ---       #554
      00FF7F20H   LINE      ECODE    ---       #556
      00FF7F30H   LINE      ECODE    ---       #558
      00FF7F42H   LINE      ECODE    ---       #559
      00FF7F42H   LINE      ECODE    ---       #561
      00FF7F55H   LINE      ECODE    ---       #562
      ---         BLOCKEND  ---      ---       LVL=0

      00FF7F58H   BLOCK     ECODE    ---       LVL=0
      R10         REGSYM    ---      BYTE      vhv_init_byte
      00FF7F5CH   BLOCK     ECODE    NEAR LAB  LVL=1
      R15         REGSYM    ---      BYTE      return_state
      000100C0H   SYMBOL    XDATA    BYTE      data_buffer
      000100C1H   SYMBOL    XDATA    WORD      loop_count
      ---         BLOCKEND  ---      ---       LVL=1
      00FF7F58H   LINE      ECODE    ---       #571
      00FF7F5CH   LINE      ECODE    ---       #572
      00FF7F5CH   LINE      ECODE    ---       #573
      00FF7F5EH   LINE      ECODE    ---       #574
      00FF7F63H   LINE      ECODE    ---       #575
      00FF7F6BH   LINE      ECODE    ---       #576
      00FF7F6BH   LINE      ECODE    ---       #578
      00FF7F75H   LINE      ECODE    ---       #579
      00FF7F75H   LINE      ECODE    ---       #580
      00FF7F77H   LINE      ECODE    ---       #582
      00FF7F83H   LINE      ECODE    ---       #584
      00FF7F86H   LINE      ECODE    ---       #585
      00FF7F88H   LINE      ECODE    ---       #586
      00FF7F88H   LINE      ECODE    ---       #587
      00FF7F9BH   LINE      ECODE    ---       #589
      00FF7FB9H   LINE      ECODE    ---       #590
      00FF7FC1H   LINE      ECODE    ---       #592
      00FF7FC5H   LINE      ECODE    ---       #594
      00FF7FC5H   LINE      ECODE    ---       #595
      00FF7FC5H   LINE      ECODE    ---       #596
      00FF7FD0H   LINE      ECODE    ---       #597
      00FF7FD9H   LINE      ECODE    ---       #598
      00FF7FD9H   LINE      ECODE    ---       #600
      00FF7FDBH   LINE      ECODE    ---       #601
      ---         BLOCKEND  ---      ---       LVL=0

      00FF7FDEH   BLOCK     ECODE    ---       LVL=0
      DR12        REGSYM    ---      DWORD     budget_us
      00FF7FE2H   BLOCK     ECODE    NEAR LAB  LVL=1
      000100C0H   SYMBOL    XDATA    BYTE      return_state
      000100C1H   SYMBOL    XDATA    ---       data_buffer
      WR6         REGSYM    ---      WORD      dat
      000100C4H   SYMBOL    XDATA    DWORD     used_budget_us
      DR4         REGSYM    ---      DWORD     final_range_timeout_us
      WR6         REGSYM    ---      WORD      final_range_timeout_mclks
      000100C8H   SYMBOL    XDATA    ---       enables
      000100CDH   SYMBOL    XDATA    ---       timeouts
      ---         BLOCKEND  ---      ---       LVL=1
      00FF7FDEH   LINE      ECODE    ---       #614
      00FF7FE2H   LINE      ECODE    ---       #615
      00FF7FE2H   LINE      ECODE    ---       #616
      00FF7FE7H   LINE      ECODE    ---       #618
L251 LINKER/LOCATER V4.66.93.0                                                        06/26/2023  14:53:20  PAGE 93


      00FF7FE7H   LINE      ECODE    ---       #626
      00FF7FE7H   LINE      ECODE    ---       #628
      00FF7FEDH   LINE      ECODE    ---       #630
      00FF7FEDH   LINE      ECODE    ---       #631
      00FF7FF0H   LINE      ECODE    ---       #632
      00FF7FF0H   LINE      ECODE    ---       #634
      00FF7FFEH   LINE      ECODE    ---       #635
      00FF8009H   LINE      ECODE    ---       #636
      00FF801CH   LINE      ECODE    ---       #638
      00FF8022H   LINE      ECODE    ---       #640
      00FF803EH   LINE      ECODE    ---       #641
      00FF803EH   LINE      ECODE    ---       #643
      00FF8044H   LINE      ECODE    ---       #645
      00FF8056H   LINE      ECODE    ---       #646
      00FF8058H   LINE      ECODE    ---       #647
      00FF805EH   LINE      ECODE    ---       #649
      00FF807FH   LINE      ECODE    ---       #650
      00FF807FH   LINE      ECODE    ---       #652
      00FF8085H   LINE      ECODE    ---       #654
      00FF80A6H   LINE      ECODE    ---       #655
      00FF80A6H   LINE      ECODE    ---       #657
      00FF80ACH   LINE      ECODE    ---       #662
      00FF80C1H   LINE      ECODE    ---       #663
      00FF80CFH   LINE      ECODE    ---       #666
      00FF80D5H   LINE      ECODE    ---       #667
      00FF80D7H   LINE      ECODE    ---       #668
      00FF80D7H   LINE      ECODE    ---       #673
      00FF80DBH   LINE      ECODE    ---       #674
      00FF80E4H   LINE      ECODE    ---       #678
      00FF80EAH   LINE      ECODE    ---       #680
      00FF80F2H   LINE      ECODE    ---       #681
      00FF80F2H   LINE      ECODE    ---       #683
      00FF80F5H   LINE      ECODE    ---       #684
      00FF80FBH   LINE      ECODE    ---       #685
      00FF8101H   LINE      ECODE    ---       #686
      00FF8107H   LINE      ECODE    ---       #687
      00FF8118H   LINE      ECODE    ---       #688
      00FF8118H   LINE      ECODE    ---       #690
      00FF811CH   LINE      ECODE    ---       #691
      ---         BLOCKEND  ---      ---       LVL=0

      00FF811FH   BLOCK     ECODE    ---       LVL=0
      00FF8121H   BLOCK     ECODE    NEAR LAB  LVL=1
      000100C0H   SYMBOL    XDATA    ---       enables
      000100C5H   SYMBOL    XDATA    ---       timeouts
      DR12        REGSYM    ---      DWORD     budget_us
      ---         BLOCKEND  ---      ---       LVL=1
      00FF811FH   LINE      ECODE    ---       #700
      00FF8121H   LINE      ECODE    ---       #701
      00FF8121H   LINE      ECODE    ---       #706
      00FF8125H   LINE      ECODE    ---       #708
      00FF8130H   LINE      ECODE    ---       #709
      00FF8143H   LINE      ECODE    ---       #711
      00FF8149H   LINE      ECODE    ---       #713
      00FF815BH   LINE      ECODE    ---       #714
      00FF815BH   LINE      ECODE    ---       #716
      00FF8161H   LINE      ECODE    ---       #718
      00FF8173H   LINE      ECODE    ---       #719
      00FF8175H   LINE      ECODE    ---       #720
      00FF817BH   LINE      ECODE    ---       #722
      00FF818BH   LINE      ECODE    ---       #723
      00FF818BH   LINE      ECODE    ---       #725
      00FF8191H   LINE      ECODE    ---       #727
      00FF81A1H   LINE      ECODE    ---       #728
      00FF81A1H   LINE      ECODE    ---       #730
L251 LINKER/LOCATER V4.66.93.0                                                        06/26/2023  14:53:20  PAGE 94


      00FF81A7H   LINE      ECODE    ---       #732
      00FF81B7H   LINE      ECODE    ---       #733
      00FF81B7H   LINE      ECODE    ---       #735
      00FF81B9H   LINE      ECODE    ---       #736
      ---         BLOCKEND  ---      ---       LVL=0

      00FF81BCH   BLOCK     ECODE    ---       LVL=0
      DR4         REGSYM    ---      FLOAT     limit_mcps
      000100C0H   SYMBOL    XDATA    ---       data_buffer
      WR6         REGSYM    ---      WORD      limit_mcps_16bit
      00FF81BCH   LINE      ECODE    ---       #749
      00FF81BCH   LINE      ECODE    ---       #750
      00FF81BCH   LINE      ECODE    ---       #752
      00FF81CAH   LINE      ECODE    ---       #756
      00FF81D0H   LINE      ECODE    ---       #757
      00FF81D6H   LINE      ECODE    ---       #758
      00FF81DCH   LINE      ECODE    ---       #760
      ---         BLOCKEND  ---      ---       LVL=0

      00FF81EDH   BLOCK     ECODE    ---       LVL=0
      0001000CH   SYMBOL    XDATA    ---       reg_databuffer
      00FF81EDH   LINE      ECODE    ---       #770
      00FF81EDH   LINE      ECODE    ---       #771
      00FF81EDH   LINE      ECODE    ---       #774
      00FF820BH   LINE      ECODE    ---       #775
      00FF8213H   LINE      ECODE    ---       #777
      00FF8214H   LINE      ECODE    ---       #778
      00FF8216H   LINE      ECODE    ---       #782
      00FF8234H   LINE      ECODE    ---       #783
      00FF8242H   LINE      ECODE    ---       #784
      00FF8250H   LINE      ECODE    ---       #786
      00FF825BH   LINE      ECODE    ---       #787
      00FF8261H   LINE      ECODE    ---       #788
      00FF8261H   LINE      ECODE    ---       #789
      ---         BLOCKEND  ---      ---       LVL=0

      00FF8262H   BLOCK     ECODE    ---       LVL=0
      00FF8266H   BLOCK     ECODE    NEAR LAB  LVL=1
      000100AEH   SYMBOL    XDATA    DWORD     measurement_timing_budget_us
      000100B2H   SYMBOL    XDATA    BYTE      stop_variable
      R15         REGSYM    ---      BYTE      return_state
      R14         REGSYM    ---      BYTE      reg_data_buffer
      000100B3H   SYMBOL    XDATA    ---       ref_spad_map
      000100B9H   SYMBOL    XDATA    ---       data_buffer
      R13         REGSYM    ---      BYTE      i
      ---         BLOCKEND  ---      ---       LVL=1
      00FF8262H   LINE      ECODE    ---       #798
      00FF8266H   LINE      ECODE    ---       #799
      00FF8266H   LINE      ECODE    ---       #800
      00FF8266H   LINE      ECODE    ---       #801
      00FF826BH   LINE      ECODE    ---       #802
      00FF826DH   LINE      ECODE    ---       #803
      00FF826DH   LINE      ECODE    ---       #806
      00FF826DH   LINE      ECODE    ---       #808
      00FF827DH   LINE      ECODE    ---       #809
      00FF828EH   LINE      ECODE    ---       #813
      00FF828EH   LINE      ECODE    ---       #815
      00FF8296H   LINE      ECODE    ---       #816
      00FF8298H   LINE      ECODE    ---       #817
      00FF82A0H   LINE      ECODE    ---       #818
      00FF82A2H   LINE      ECODE    ---       #819
      00FF82AAH   LINE      ECODE    ---       #822
      00FF82B4H   LINE      ECODE    ---       #823
      00FF82C1H   LINE      ECODE    ---       #825
      00FF82CBH   LINE      ECODE    ---       #827
L251 LINKER/LOCATER V4.66.93.0                                                        06/26/2023  14:53:20  PAGE 95


      00FF82D6H   LINE      ECODE    ---       #828
      00FF82E1H   LINE      ECODE    ---       #829
      00FF82EAH   LINE      ECODE    ---       #831
      00FF8308H   LINE      ECODE    ---       #833
      00FF8312H   LINE      ECODE    ---       #834
      00FF831CH   LINE      ECODE    ---       #835
      00FF8326H   LINE      ECODE    ---       #838
      00FF8330H   LINE      ECODE    ---       #839
      00FF833DH   LINE      ECODE    ---       #841
      00FF8346H   LINE      ECODE    ---       #842
      00FF8351H   LINE      ECODE    ---       #846
      00FF8366H   LINE      ECODE    ---       #848
      00FF8369H   LINE      ECODE    ---       #853
      00FF8375H   LINE      ECODE    ---       #854
      00FF8378H   LINE      ECODE    ---       #855
      00FF8378H   LINE      ECODE    ---       #858
      00FF8396H   LINE      ECODE    ---       #860
      00FF83A1H   LINE      ECODE    ---       #861
      00FF83ABH   LINE      ECODE    ---       #862
      00FF83B6H   LINE      ECODE    ---       #863
      00FF83C0H   LINE      ECODE    ---       #864
      00FF83CBH   LINE      ECODE    ---       #866
      00FF83DAH   LINE      ECODE    ---       #867
      00FF83DCH   LINE      ECODE    ---       #869
      00FF83F2H   LINE      ECODE    ---       #874
      00FF842AH   LINE      ECODE    ---       #875
      00FF842CH   LINE      ECODE    ---       #876
      00FF845BH   LINE      ECODE    ---       #878
      00FF8462H   LINE      ECODE    ---       #879
      00FF846CH   LINE      ECODE    ---       #882
      00FF8472H   LINE      ECODE    ---       #883
      00FF8475H   LINE      ECODE    ---       #885
      00FF8486H   LINE      ECODE    ---       #886
      00FF848DH   LINE      ECODE    ---       #887
      00FF849EH   LINE      ECODE    ---       #890
      00FF84A9H   LINE      ECODE    ---       #891
      00FF84B2H   LINE      ECODE    ---       #892
      00FF84BCH   LINE      ECODE    ---       #893
      00FF84C6H   LINE      ECODE    ---       #894
      00FF84D0H   LINE      ECODE    ---       #895
      00FF84DAH   LINE      ECODE    ---       #896
      00FF84E5H   LINE      ECODE    ---       #897
      00FF84F0H   LINE      ECODE    ---       #898
      00FF84FAH   LINE      ECODE    ---       #899
      00FF8505H   LINE      ECODE    ---       #900
      00FF8510H   LINE      ECODE    ---       #901
      00FF851AH   LINE      ECODE    ---       #902
      00FF8525H   LINE      ECODE    ---       #903
      00FF852FH   LINE      ECODE    ---       #904
      00FF853AH   LINE      ECODE    ---       #905
      00FF8544H   LINE      ECODE    ---       #906
      00FF854FH   LINE      ECODE    ---       #907
      00FF855AH   LINE      ECODE    ---       #908
      00FF8565H   LINE      ECODE    ---       #909
      00FF8570H   LINE      ECODE    ---       #910
      00FF857AH   LINE      ECODE    ---       #911
      00FF8584H   LINE      ECODE    ---       #912
      00FF858FH   LINE      ECODE    ---       #913
      00FF8599H   LINE      ECODE    ---       #914
      00FF85A4H   LINE      ECODE    ---       #915
      00FF85AFH   LINE      ECODE    ---       #916
      00FF85BAH   LINE      ECODE    ---       #917
      00FF85C4H   LINE      ECODE    ---       #918
      00FF85CEH   LINE      ECODE    ---       #919
      00FF85D8H   LINE      ECODE    ---       #920
L251 LINKER/LOCATER V4.66.93.0                                                        06/26/2023  14:53:20  PAGE 96


      00FF85E2H   LINE      ECODE    ---       #921
      00FF85EDH   LINE      ECODE    ---       #922
      00FF85F8H   LINE      ECODE    ---       #923
      00FF8603H   LINE      ECODE    ---       #924
      00FF860EH   LINE      ECODE    ---       #925
      00FF8619H   LINE      ECODE    ---       #926
      00FF8623H   LINE      ECODE    ---       #927
      00FF862DH   LINE      ECODE    ---       #928
      00FF8638H   LINE      ECODE    ---       #929
      00FF8642H   LINE      ECODE    ---       #930
      00FF864DH   LINE      ECODE    ---       #931
      00FF8658H   LINE      ECODE    ---       #932
      00FF8663H   LINE      ECODE    ---       #933
      00FF866DH   LINE      ECODE    ---       #934
      00FF8678H   LINE      ECODE    ---       #935
      00FF8683H   LINE      ECODE    ---       #936
      00FF868EH   LINE      ECODE    ---       #937
      00FF8699H   LINE      ECODE    ---       #938
      00FF86A4H   LINE      ECODE    ---       #939
      00FF86AFH   LINE      ECODE    ---       #940
      00FF86BAH   LINE      ECODE    ---       #941
      00FF86C4H   LINE      ECODE    ---       #942
      00FF86CFH   LINE      ECODE    ---       #943
      00FF86DAH   LINE      ECODE    ---       #944
      00FF86E5H   LINE      ECODE    ---       #945
      00FF86F0H   LINE      ECODE    ---       #946
      00FF86FBH   LINE      ECODE    ---       #947
      00FF8706H   LINE      ECODE    ---       #948
      00FF8711H   LINE      ECODE    ---       #949
      00FF871BH   LINE      ECODE    ---       #950
      00FF8725H   LINE      ECODE    ---       #951
      00FF8730H   LINE      ECODE    ---       #952
      00FF873BH   LINE      ECODE    ---       #953
      00FF8746H   LINE      ECODE    ---       #954
      00FF8750H   LINE      ECODE    ---       #955
      00FF875BH   LINE      ECODE    ---       #956
      00FF8766H   LINE      ECODE    ---       #957
      00FF8771H   LINE      ECODE    ---       #958
      00FF877BH   LINE      ECODE    ---       #959
      00FF8785H   LINE      ECODE    ---       #960
      00FF8790H   LINE      ECODE    ---       #961
      00FF879BH   LINE      ECODE    ---       #962
      00FF87A5H   LINE      ECODE    ---       #963
      00FF87B0H   LINE      ECODE    ---       #964
      00FF87BBH   LINE      ECODE    ---       #965
      00FF87C6H   LINE      ECODE    ---       #966
      00FF87D1H   LINE      ECODE    ---       #967
      00FF87DBH   LINE      ECODE    ---       #968
      00FF87E5H   LINE      ECODE    ---       #969
      00FF87EFH   LINE      ECODE    ---       #972
      00FF87FAH   LINE      ECODE    ---       #973
      00FF8804H   LINE      ECODE    ---       #974
      00FF8811H   LINE      ECODE    ---       #975
      00FF881CH   LINE      ECODE    ---       #977
      00FF8829H   LINE      ECODE    ---       #982
      00FF8834H   LINE      ECODE    ---       #983
      00FF8841H   LINE      ECODE    ---       #986
      00FF884CH   LINE      ECODE    ---       #987
      00FF8853H   LINE      ECODE    ---       #989
      00FF8853H   LINE      ECODE    ---       #990
      00FF8855H   LINE      ECODE    ---       #991
      00FF8855H   LINE      ECODE    ---       #992
      00FF8860H   LINE      ECODE    ---       #993
      00FF8866H   LINE      ECODE    ---       #995
      00FF8869H   LINE      ECODE    ---       #996
L251 LINKER/LOCATER V4.66.93.0                                                        06/26/2023  14:53:20  PAGE 97


      00FF886BH   LINE      ECODE    ---       #997
      00FF886BH   LINE      ECODE    ---       #998
      00FF8876H   LINE      ECODE    ---       #1000
      00FF887EH   LINE      ECODE    ---       #1002
      00FF8889H   LINE      ECODE    ---       #1003
      00FF8894H   LINE      ECODE    ---       #1004
      00FF889DH   LINE      ECODE    ---       #1005
      00FF88ABH   LINE      ECODE    ---       #1006
      00FF88B5H   LINE      ECODE    ---       #1007
      00FF88BFH   LINE      ECODE    ---       #1008
      00FF88C9H   LINE      ECODE    ---       #1010
      00FF88D3H   LINE      ECODE    ---       #1011
      00FF88D3H   LINE      ECODE    ---       #1013
      00FF88D5H   LINE      ECODE    ---       #1014
      ---         BLOCKEND  ---      ---       LVL=0

      ---         MODULE    ---      ---       SEEKFREE_FONT
      00FF20A7H   PUBLIC    CODE     ---       oled_8x16
      00FF2697H   PUBLIC    CODE     ---       tft_ascii
      00FF2C87H   PUBLIC    CODE     ---       oled_6x8
      000000D0H   SFRSYM    DATA     BYTE      PSW
      0000009DH   SFRSYM    DATA     BYTE      IRCBAND
      00000097H   SFRSYM    DATA     BYTE      AUXR2
      000000EFH   SFRSYM    DATA     BYTE      AUXINTIF
      000000FDH   SFRSYM    DATA     BYTE      S4CON
      000000ACH   SFRSYM    DATA     BYTE      S3CON
      0000009AH   SFRSYM    DATA     BYTE      S2CON
      000000B7H   SFRSYM    DATA     BYTE      IPH
      000000CDH   SFRSYM    DATA     BYTE      SPSTAT
      000000DDH   SFRSYM    DATA     BYTE      T4T3M
      000000C1H   SFRSYM    DATA     BYTE      WDT_CONTR
      000000DFH   SFRSYM    DATA     BYTE      IP3
      000000F4H   SFRSYM    DATA     BYTE      USBCON
      000000B5H   SFRSYM    DATA     BYTE      IP2
      000000FFH   SFRSYM    DATA     BYTE      RSTCFG
      000000F9H   SFRSYM    DATA     BYTE      LINICR
      0000008EH   SFRSYM    DATA     BYTE      AUXR
      000000AFH   SFRSYM    DATA     BYTE      IE2
      00000088H   SFRSYM    DATA     BYTE      TCON
      00000098H   SFRSYM    DATA     BYTE      SCON
      000000F1H   SFRSYM    DATA     BYTE      CANICR
      00000087H   SFRSYM    DATA     BYTE      PCON
      000000BCH   SFRSYM    DATA     BYTE      ADC_CONTR
      000000E7H   SFRSYM    DATA     BYTE      CMPCR2
      000000E6H   SFRSYM    DATA     BYTE      CMPCR1
      000000B8H   SFRSYM    DATA     BYTE      IP
      0000008FH   SFRSYM    DATA     BYTE      INTCLKO
      000000EEH   SFRSYM    DATA     BYTE      IP3H
      000000B6H   SFRSYM    DATA     BYTE      IP2H
      000000A8H   SFRSYM    DATA     BYTE      IE
      000000BBH   SFRSYM    DATA     BYTE      P_SW3
      000000BAH   SFRSYM    DATA     BYTE      P_SW2
      000000A2H   SFRSYM    DATA     BYTE      P_SW1
      000000CEH   SFRSYM    DATA     BYTE      SPCTL
      000000F8H   SFRSYM    DATA     BYTE      P7
      000000E8H   SFRSYM    DATA     BYTE      P6
      000000C8H   SFRSYM    DATA     BYTE      P5
      000000C0H   SFRSYM    DATA     BYTE      P4
      000000B0H   SFRSYM    DATA     BYTE      P3
      000000A0H   SFRSYM    DATA     BYTE      P2
      00000090H   SFRSYM    DATA     BYTE      P1
      00000080H   SFRSYM    DATA     BYTE      P0

      ---         MODULE    ---      ---       SEEKFREE_ICM20602
      00FFD6B9H   PUBLIC    ECODE    ---       icm20602_gyro_transition?
L251 LINKER/LOCATER V4.66.93.0                                                        06/26/2023  14:53:20  PAGE 98


      00FFD6CDH   PUBLIC    ECODE    ---       icm20602_init?
      00FFD607H   PUBLIC    ECODE    ---       icm20602_get_acc?
      00FFD6A7H   PUBLIC    ECODE    ---       icm20602_acc_transition?
      00FFD657H   PUBLIC    ECODE    ---       icm20602_get_gyro?
      0001084AH   PUBLIC    XDATA    INT       icm20602_acc_x
      0001084CH   PUBLIC    XDATA    INT       icm20602_acc_y
      0001084EH   PUBLIC    XDATA    INT       icm20602_acc_z
      00010850H   PUBLIC    XDATA    INT       icm20602_gyro_x
      00010852H   PUBLIC    XDATA    INT       icm20602_gyro_y
      00010854H   PUBLIC    XDATA    INT       icm20602_gyro_z
      000000D0H   SFRSYM    DATA     BYTE      PSW
      0000009DH   SFRSYM    DATA     BYTE      IRCBAND
      00000097H   SFRSYM    DATA     BYTE      AUXR2
      000000EFH   SFRSYM    DATA     BYTE      AUXINTIF
      000000FDH   SFRSYM    DATA     BYTE      S4CON
      000000ACH   SFRSYM    DATA     BYTE      S3CON
      0000009AH   SFRSYM    DATA     BYTE      S2CON
      000000B7H   SFRSYM    DATA     BYTE      IPH
      000000CDH   SFRSYM    DATA     BYTE      SPSTAT
      000000DDH   SFRSYM    DATA     BYTE      T4T3M
      000000C1H   SFRSYM    DATA     BYTE      WDT_CONTR
      000000DFH   SFRSYM    DATA     BYTE      IP3
      000000F4H   SFRSYM    DATA     BYTE      USBCON
      000000B5H   SFRSYM    DATA     BYTE      IP2
      000000FFH   SFRSYM    DATA     BYTE      RSTCFG
      000000F9H   SFRSYM    DATA     BYTE      LINICR
      0000008EH   SFRSYM    DATA     BYTE      AUXR
      000000AFH   SFRSYM    DATA     BYTE      IE2
      000000C0H.3 SFRSYM    DATA     BIT       P43
      000000C0H.2 SFRSYM    DATA     BIT       P42
      00000088H   SFRSYM    DATA     BYTE      TCON
      000000C0H.1 SFRSYM    DATA     BIT       P41
      00000098H   SFRSYM    DATA     BYTE      SCON
      000000C0H.0 SFRSYM    DATA     BIT       P40
      000000F1H   SFRSYM    DATA     BYTE      CANICR
      00000087H   SFRSYM    DATA     BYTE      PCON
      000000BCH   SFRSYM    DATA     BYTE      ADC_CONTR
      000000E7H   SFRSYM    DATA     BYTE      CMPCR2
      000000E6H   SFRSYM    DATA     BYTE      CMPCR1
      000000B8H   SFRSYM    DATA     BYTE      IP
      0000008FH   SFRSYM    DATA     BYTE      INTCLKO
      000000EEH   SFRSYM    DATA     BYTE      IP3H
      000000B6H   SFRSYM    DATA     BYTE      IP2H
      000000A8H   SFRSYM    DATA     BYTE      IE
      000000BBH   SFRSYM    DATA     BYTE      P_SW3
      000000BAH   SFRSYM    DATA     BYTE      P_SW2
      000000A2H   SFRSYM    DATA     BYTE      P_SW1
      000000CEH   SFRSYM    DATA     BYTE      SPCTL
      000000F8H   SFRSYM    DATA     BYTE      P7
      000000E8H   SFRSYM    DATA     BYTE      P6
      000000C8H   SFRSYM    DATA     BYTE      P5
      000000C0H   SFRSYM    DATA     BYTE      P4
      000000B0H   SFRSYM    DATA     BYTE      P3
      000000A0H   SFRSYM    DATA     BYTE      P2
      00000090H   SFRSYM    DATA     BYTE      P1
      00000080H   SFRSYM    DATA     BYTE      P0
      00FFD5B3H   SYMBOL    ECODE    ---       icm20602_read_register
      00FFD5ABH   SYMBOL    ECODE    ---       icm20602_write_register
      00FFD522H   SYMBOL    ECODE    ---       icm20602_simspi_wr_byte
      00FFD5D9H   SYMBOL    ECODE    ---       icm20602_self_check
      00FFD56CH   SYMBOL    ECODE    ---       icm20602_simspi_r_reg_bytes
      00FFD554H   SYMBOL    ECODE    ---       icm20602_simspi_r_reg_byte
      00FFD545H   SYMBOL    ECODE    ---       icm20602_simspi_w_reg_byte
      00FFD5C9H   SYMBOL    ECODE    ---       icm20602_read_registers

L251 LINKER/LOCATER V4.66.93.0                                                        06/26/2023  14:53:20  PAGE 99


      00FFD522H   BLOCK     ECODE    ---       LVL=0
      R7          REGSYM    ---      BYTE      byte
      00FFD524H   BLOCK     ECODE    NEAR LAB  LVL=1
      R6          REGSYM    ---      BYTE      i
      ---         BLOCKEND  ---      ---       LVL=1
      00FFD522H   LINE      ECODE    ---       #270
      00FFD524H   LINE      ECODE    ---       #271
      00FFD524H   LINE      ECODE    ---       #274
      00FFD526H   LINE      ECODE    ---       #276
      00FFD52BH   LINE      ECODE    ---       #277
      00FFD52DH   LINE      ECODE    ---       #278
      00FFD52FH   LINE      ECODE    ---       #279
      00FFD531H   LINE      ECODE    ---       #281
      00FFD533H   LINE      ECODE    ---       #282
      00FFD535H   LINE      ECODE    ---       #283
      00FFD53BH   LINE      ECODE    ---       #284
      00FFD542H   LINE      ECODE    ---       #285
      00FFD544H   LINE      ECODE    ---       #286
      ---         BLOCKEND  ---      ---       LVL=0

      00FFD545H   BLOCK     ECODE    ---       LVL=0
      R7          REGSYM    ---      BYTE      cmd
      R15         REGSYM    ---      BYTE      val
      00FFD545H   LINE      ECODE    ---       #294
      00FFD549H   LINE      ECODE    ---       #297
      00FFD549H   LINE      ECODE    ---       #298
      00FFD54CH   LINE      ECODE    ---       #299
      00FFD551H   LINE      ECODE    ---       #301
      ---         BLOCKEND  ---      ---       LVL=0

      00FFD554H   BLOCK     ECODE    ---       LVL=0
      R7          REGSYM    ---      BYTE      cmd
      REG=3       REGSYM    ---      ---       val
      00FFD554H   LINE      ECODE    ---       #332
      00FFD55AH   LINE      ECODE    ---       #335
      00FFD55DH   LINE      ECODE    ---       #336
      00FFD562H   LINE      ECODE    ---       #337
      00FFD569H   LINE      ECODE    ---       #339
      ---         BLOCKEND  ---      ---       LVL=0

      00FFD56CH   BLOCK     ECODE    ---       LVL=0
      R7          REGSYM    ---      BYTE      cmd
      REG=3       REGSYM    ---      ---       val
      000108C0H   SYMBOL    XDATA    DWORD     num
      00FFD57CH   BLOCK     ECODE    NEAR LAB  LVL=1
      ---         BLOCKEND  ---      ---       LVL=1
      00FFD56CH   LINE      ECODE    ---       #349
      00FFD57CH   LINE      ECODE    ---       #350
      00FFD57CH   LINE      ECODE    ---       #351
      00FFD57CH   LINE      ECODE    ---       #352
      00FFD57FH   LINE      ECODE    ---       #353
      00FFD584H   LINE      ECODE    ---       #355
      00FFD586H   LINE      ECODE    ---       #357
      00FFD58FH   LINE      ECODE    ---       #358
      00FFD5A8H   LINE      ECODE    ---       #359
      ---         BLOCKEND  ---      ---       LVL=0

      00FFD5ABH   BLOCK     ECODE    ---       LVL=0
      R11         REGSYM    ---      BYTE      reg
      R7          REGSYM    ---      BYTE      dat
      00FFD5ABH   LINE      ECODE    ---       #370
      00FFD5ABH   LINE      ECODE    ---       #372
      00FFD5ADH   LINE      ECODE    ---       #373
      00FFD5B0H   LINE      ECODE    ---       #374
      00FFD5B2H   LINE      ECODE    ---       #375
L251 LINKER/LOCATER V4.66.93.0                                                        06/26/2023  14:53:20  PAGE 100


      ---         BLOCKEND  ---      ---       LVL=0

      00FFD5B3H   BLOCK     ECODE    ---       LVL=0
      R7          REGSYM    ---      BYTE      reg
      000108F2H   SYMBOL    XDATA    BYTE      dat
      00FFD5B3H   LINE      ECODE    ---       #399
      00FFD5B3H   LINE      ECODE    ---       #400
      00FFD5B3H   LINE      ECODE    ---       #402
      00FFD5B5H   LINE      ECODE    ---       #403
      00FFD5C2H   LINE      ECODE    ---       #404
      00FFD5C4H   LINE      ECODE    ---       #405
      00FFD5C8H   LINE      ECODE    ---       #406
      ---         BLOCKEND  ---      ---       LVL=0

      00FFD5C9H   BLOCK     ECODE    ---       LVL=0
      R3          REGSYM    ---      BYTE      reg
      REG=1       REGSYM    ---      ---       dat
      DR28        REGSYM    ---      DWORD     len
      00FFD5C9H   LINE      ECODE    ---       #417
      00FFD5CDH   LINE      ECODE    ---       #419
      00FFD5CFH   LINE      ECODE    ---       #420
      00FFD5D6H   LINE      ECODE    ---       #421
      00FFD5D8H   LINE      ECODE    ---       #422
      ---         BLOCKEND  ---      ---       LVL=0

      00FFD5D9H   BLOCK     ECODE    ---       LVL=0
      00FFD5DBH   BLOCK     ECODE    NEAR LAB  LVL=1
      R14         REGSYM    ---      BYTE      dat
      R15         REGSYM    ---      BYTE      return_state
      WR12        REGSYM    ---      WORD      timeout_count
      ---         BLOCKEND  ---      ---       LVL=1
      00FFD5D9H   LINE      ECODE    ---       #434
      00FFD5DBH   LINE      ECODE    ---       #435
      00FFD5DBH   LINE      ECODE    ---       #436
      00FFD5DDH   LINE      ECODE    ---       #437
      00FFD5DFH   LINE      ECODE    ---       #439
      00FFD5DFH   LINE      ECODE    ---       #441
      00FFD5E9H   LINE      ECODE    ---       #443
      00FFD5ECH   LINE      ECODE    ---       #444
      00FFD5EEH   LINE      ECODE    ---       #445
      00FFD5EEH   LINE      ECODE    ---       #446
      00FFD5F5H   LINE      ECODE    ---       #448
      00FFD5FDH   LINE      ECODE    ---       #449
      00FFD602H   LINE      ECODE    ---       #450
      00FFD604H   LINE      ECODE    ---       #451
      ---         BLOCKEND  ---      ---       LVL=0

      00FFD607H   BLOCK     ECODE    ---       LVL=0
      00FFD607H   LINE      ECODE    ---       #460
      00FFD607H   LINE      ECODE    ---       #461
      00FFD607H   LINE      ECODE    ---       #464
      00FFD618H   LINE      ECODE    ---       #465
      00FFD62EH   LINE      ECODE    ---       #466
      00FFD642H   LINE      ECODE    ---       #467
      00FFD656H   LINE      ECODE    ---       #468
      ---         BLOCKEND  ---      ---       LVL=0

      00FFD657H   BLOCK     ECODE    ---       LVL=0
      00FFD657H   LINE      ECODE    ---       #477
      00FFD657H   LINE      ECODE    ---       #478
      00FFD657H   LINE      ECODE    ---       #481
      00FFD668H   LINE      ECODE    ---       #482
      00FFD67EH   LINE      ECODE    ---       #483
      00FFD692H   LINE      ECODE    ---       #484
      00FFD6A6H   LINE      ECODE    ---       #485
L251 LINKER/LOCATER V4.66.93.0                                                        06/26/2023  14:53:20  PAGE 101


      ---         BLOCKEND  ---      ---       LVL=0

      00FFD6A7H   BLOCK     ECODE    ---       LVL=0
      WR8         REGSYM    ---      INT       acc_value
      DR4         REGSYM    ---      FLOAT     acc_data
      00FFD6A7H   LINE      ECODE    ---       #494
      00FFD6A7H   LINE      ECODE    ---       #495
      00FFD6A7H   LINE      ECODE    ---       #496
      00FFD6A7H   LINE      ECODE    ---       #497
      00FFD6A7H   LINE      ECODE    ---       #499
      00FFD6A7H   LINE      ECODE    ---       #500
      00FFD6A7H   LINE      ECODE    ---       #501
      00FFD6B9H   LINE      ECODE    ---       #502
      00FFD6B9H   LINE      ECODE    ---       #503
      00FFD6B9H   LINE      ECODE    ---       #504
      00FFD6B9H   LINE      ECODE    ---       #505
      00FFD6B9H   LINE      ECODE    ---       #506
      ---         BLOCKEND  ---      ---       LVL=0

      00FFD6B9H   BLOCK     ECODE    ---       LVL=0
      WR8         REGSYM    ---      INT       gyro_value
      DR4         REGSYM    ---      FLOAT     gyro_data
      00FFD6B9H   LINE      ECODE    ---       #515
      00FFD6B9H   LINE      ECODE    ---       #516
      00FFD6B9H   LINE      ECODE    ---       #517
      00FFD6B9H   LINE      ECODE    ---       #518
      00FFD6B9H   LINE      ECODE    ---       #520
      00FFD6B9H   LINE      ECODE    ---       #521
      00FFD6B9H   LINE      ECODE    ---       #522
      00FFD6B9H   LINE      ECODE    ---       #523
      00FFD6CDH   LINE      ECODE    ---       #524
      00FFD6CDH   LINE      ECODE    ---       #525
      00FFD6CDH   LINE      ECODE    ---       #526
      00FFD6CDH   LINE      ECODE    ---       #527
      ---         BLOCKEND  ---      ---       LVL=0

      00FFD6CDH   BLOCK     ECODE    ---       LVL=0
      00FFD6CFH   BLOCK     ECODE    NEAR LAB  LVL=1
      R14         REGSYM    ---      BYTE      val
      R15         REGSYM    ---      BYTE      return_state
      WR12        REGSYM    ---      WORD      timeout_count
      ---         BLOCKEND  ---      ---       LVL=1
      00FFD6CDH   LINE      ECODE    ---       #536
      00FFD6CFH   LINE      ECODE    ---       #537
      00FFD6CFH   LINE      ECODE    ---       #538
      00FFD6D1H   LINE      ECODE    ---       #539
      00FFD6D3H   LINE      ECODE    ---       #541
      00FFD6DBH   LINE      ECODE    ---       #550
      00FFD6DBH   LINE      ECODE    ---       #552
      00FFD6E0H   LINE      ECODE    ---       #560
      00FFD6ECH   LINE      ECODE    ---       #563
      00FFD6EFH   LINE      ECODE    ---       #564
      00FFD6F1H   LINE      ECODE    ---       #565
      00FFD6F1H   LINE      ECODE    ---       #567
      00FFD6F9H   LINE      ECODE    ---       #568
      00FFD701H   LINE      ECODE    ---       #570
      00FFD701H   LINE      ECODE    ---       #572
      00FFD708H   LINE      ECODE    ---       #573
      00FFD712H   LINE      ECODE    ---       #580
      00FFD71EH   LINE      ECODE    ---       #583
      00FFD721H   LINE      ECODE    ---       #584
      00FFD723H   LINE      ECODE    ---       #585
      00FFD728H   LINE      ECODE    ---       #587
      00FFD72DH   LINE      ECODE    ---       #589
      00FFD72DH   LINE      ECODE    ---       #590
L251 LINKER/LOCATER V4.66.93.0                                                        06/26/2023  14:53:20  PAGE 102


      00FFD72DH   LINE      ECODE    ---       #592
      00FFD735H   LINE      ECODE    ---       #593
      00FFD73CH   LINE      ECODE    ---       #594
      00FFD744H   LINE      ECODE    ---       #595
      00FFD74CH   LINE      ECODE    ---       #597
      00FFD754H   LINE      ECODE    ---       #604
      00FFD75CH   LINE      ECODE    ---       #611
      00FFD764H   LINE      ECODE    ---       #614
      00FFD764H   LINE      ECODE    ---       #615
      00FFD766H   LINE      ECODE    ---       #616
      ---         BLOCKEND  ---      ---       LVL=0

      ---         MODULE    ---      ---       SEEKFREE_IMU660RA
      00FFCC33H   PUBLIC    ECODE    ---       imu660ra_get_gyro?
      00FFCC95H   PUBLIC    ECODE    ---       imu660ra_gyro_transition?
      00FFCCA9H   PUBLIC    ECODE    ---       imu660ra_init?
      00FFCBE3H   PUBLIC    ECODE    ---       imu660ra_get_acc?
      00FFCC83H   PUBLIC    ECODE    ---       imu660ra_acc_transition?
      00010856H   PUBLIC    XDATA    INT       imu660ra_acc_x
      00010858H   PUBLIC    XDATA    INT       imu660ra_acc_y
      0001085AH   PUBLIC    XDATA    INT       imu660ra_acc_z
      0001085CH   PUBLIC    XDATA    INT       imu660ra_gyro_x
      0001085EH   PUBLIC    XDATA    INT       imu660ra_gyro_y
      00010860H   PUBLIC    XDATA    INT       imu660ra_gyro_z
      000000D0H   SFRSYM    DATA     BYTE      PSW
      0000009DH   SFRSYM    DATA     BYTE      IRCBAND
      00000097H   SFRSYM    DATA     BYTE      AUXR2
      000000EFH   SFRSYM    DATA     BYTE      AUXINTIF
      000000FDH   SFRSYM    DATA     BYTE      S4CON
      000000ACH   SFRSYM    DATA     BYTE      S3CON
      0000009AH   SFRSYM    DATA     BYTE      S2CON
      000000B7H   SFRSYM    DATA     BYTE      IPH
      000000CDH   SFRSYM    DATA     BYTE      SPSTAT
      000000DDH   SFRSYM    DATA     BYTE      T4T3M
      000000C1H   SFRSYM    DATA     BYTE      WDT_CONTR
      000000DFH   SFRSYM    DATA     BYTE      IP3
      000000F4H   SFRSYM    DATA     BYTE      USBCON
      000000B5H   SFRSYM    DATA     BYTE      IP2
      000000FFH   SFRSYM    DATA     BYTE      RSTCFG
      000000F9H   SFRSYM    DATA     BYTE      LINICR
      0000008EH   SFRSYM    DATA     BYTE      AUXR
      000000AFH   SFRSYM    DATA     BYTE      IE2
      000000C0H.3 SFRSYM    DATA     BIT       P43
      000000C0H.2 SFRSYM    DATA     BIT       P42
      00000088H   SFRSYM    DATA     BYTE      TCON
      000000C0H.1 SFRSYM    DATA     BIT       P41
      00000098H   SFRSYM    DATA     BYTE      SCON
      000000C0H.0 SFRSYM    DATA     BIT       P40
      000000F1H   SFRSYM    DATA     BYTE      CANICR
      00000087H   SFRSYM    DATA     BYTE      PCON
      000000BCH   SFRSYM    DATA     BYTE      ADC_CONTR
      000000E7H   SFRSYM    DATA     BYTE      CMPCR2
      000000E6H   SFRSYM    DATA     BYTE      CMPCR1
      000000B8H   SFRSYM    DATA     BYTE      IP
      0000008FH   SFRSYM    DATA     BYTE      INTCLKO
      000000EEH   SFRSYM    DATA     BYTE      IP3H
      000000B6H   SFRSYM    DATA     BYTE      IP2H
      000000A8H   SFRSYM    DATA     BYTE      IE
      000000BBH   SFRSYM    DATA     BYTE      P_SW3
      000000BAH   SFRSYM    DATA     BYTE      P_SW2
      000000A2H   SFRSYM    DATA     BYTE      P_SW1
      000000CEH   SFRSYM    DATA     BYTE      SPCTL
      000000F8H   SFRSYM    DATA     BYTE      P7
      000000E8H   SFRSYM    DATA     BYTE      P6
      000000C8H   SFRSYM    DATA     BYTE      P5
L251 LINKER/LOCATER V4.66.93.0                                                        06/26/2023  14:53:20  PAGE 103


      000000C0H   SFRSYM    DATA     BYTE      P4
      000000B0H   SFRSYM    DATA     BYTE      P3
      000000A0H   SFRSYM    DATA     BYTE      P2
      00000090H   SFRSYM    DATA     BYTE      P1
      00000080H   SFRSYM    DATA     BYTE      P0
      00FFCB8CH   SYMBOL    ECODE    ---       imu660ra_read_register
      00FFCB7EH   SYMBOL    ECODE    ---       imu660ra_write_registers
      00FFCB76H   SYMBOL    ECODE    ---       imu660ra_write_register
      00FFCAD1H   SYMBOL    ECODE    ---       imu660ra_simspi_wr_byte
      00FFCBB6H   SYMBOL    ECODE    ---       imu660ra_self_check
      00FFCB37H   SYMBOL    ECODE    ---       imu660ra_simspi_r_reg_bytes
      00FFCB03H   SYMBOL    ECODE    ---       imu660ra_simspi_w_reg_bytes
      00FFCAF4H   SYMBOL    ECODE    ---       imu660ra_simspi_w_reg_byte
      00FFCBA6H   SYMBOL    ECODE    ---       imu660ra_read_registers

      00FFCAD1H   BLOCK     ECODE    ---       LVL=0
      R7          REGSYM    ---      BYTE      byte
      00FFCAD3H   BLOCK     ECODE    NEAR LAB  LVL=1
      R6          REGSYM    ---      BYTE      i
      ---         BLOCKEND  ---      ---       LVL=1
      00FFCAD1H   LINE      ECODE    ---       #309
      00FFCAD3H   LINE      ECODE    ---       #310
      00FFCAD3H   LINE      ECODE    ---       #313
      00FFCAD5H   LINE      ECODE    ---       #315
      00FFCADAH   LINE      ECODE    ---       #316
      00FFCADCH   LINE      ECODE    ---       #317
      00FFCADEH   LINE      ECODE    ---       #318
      00FFCAE0H   LINE      ECODE    ---       #319
      00FFCAE2H   LINE      ECODE    ---       #320
      00FFCAE4H   LINE      ECODE    ---       #322
      00FFCAEAH   LINE      ECODE    ---       #323
      00FFCAF1H   LINE      ECODE    ---       #324
      00FFCAF3H   LINE      ECODE    ---       #325
      ---         BLOCKEND  ---      ---       LVL=0

      00FFCAF4H   BLOCK     ECODE    ---       LVL=0
      R7          REGSYM    ---      BYTE      cmd
      R15         REGSYM    ---      BYTE      val
      00FFCAF4H   LINE      ECODE    ---       #333
      00FFCAF8H   LINE      ECODE    ---       #335
      00FFCAF8H   LINE      ECODE    ---       #336
      00FFCAFBH   LINE      ECODE    ---       #337
      00FFCB00H   LINE      ECODE    ---       #338
      ---         BLOCKEND  ---      ---       LVL=0

      00FFCB03H   BLOCK     ECODE    ---       LVL=0
      R11         REGSYM    ---      BYTE      cmd
      000108C4H   SYMBOL    XDATA    ---       dat_addr
      DR12        REGSYM    ---      DWORD     len
      00FFCB03H   LINE      ECODE    ---       #348
      00FFCB11H   LINE      ECODE    ---       #350
      00FFCB11H   LINE      ECODE    ---       #351
      00FFCB11H   LINE      ECODE    ---       #352
      00FFCB13H   LINE      ECODE    ---       #354
      00FFCB2CH   LINE      ECODE    ---       #355
      00FFCB34H   LINE      ECODE    ---       #356
      ---         BLOCKEND  ---      ---       LVL=0

      00FFCB37H   BLOCK     ECODE    ---       LVL=0
      R7          REGSYM    ---      BYTE      cmd
      REG=3       REGSYM    ---      ---       val
      00010013H   SYMBOL    XDATA    DWORD     num
      00FFCB37H   LINE      ECODE    ---       #382
      00FFCB47H   LINE      ECODE    ---       #384
      00FFCB4AH   LINE      ECODE    ---       #385
L251 LINKER/LOCATER V4.66.93.0                                                        06/26/2023  14:53:20  PAGE 104


      00FFCB4FH   LINE      ECODE    ---       #387
      00FFCB51H   LINE      ECODE    ---       #389
      00FFCB5AH   LINE      ECODE    ---       #390
      00FFCB73H   LINE      ECODE    ---       #391
      ---         BLOCKEND  ---      ---       LVL=0

      00FFCB76H   BLOCK     ECODE    ---       LVL=0
      R11         REGSYM    ---      BYTE      reg
      R7          REGSYM    ---      BYTE      dat
      00FFCB76H   LINE      ECODE    ---       #402
      00FFCB76H   LINE      ECODE    ---       #404
      00FFCB78H   LINE      ECODE    ---       #405
      00FFCB7BH   LINE      ECODE    ---       #406
      00FFCB7DH   LINE      ECODE    ---       #407
      ---         BLOCKEND  ---      ---       LVL=0

      00FFCB7EH   BLOCK     ECODE    ---       LVL=0
      R3          REGSYM    ---      BYTE      reg
      REG=1       REGSYM    ---      ---       dat
      DR28        REGSYM    ---      DWORD     len
      00FFCB7EH   LINE      ECODE    ---       #417
      00FFCB82H   LINE      ECODE    ---       #419
      00FFCB84H   LINE      ECODE    ---       #421
      00FFCB89H   LINE      ECODE    ---       #422
      00FFCB8BH   LINE      ECODE    ---       #423
      ---         BLOCKEND  ---      ---       LVL=0

      00FFCB8CH   BLOCK     ECODE    ---       LVL=0
      R7          REGSYM    ---      BYTE      reg
      000108E8H   SYMBOL    XDATA    ---       dat
      00FFCB8CH   LINE      ECODE    ---       #432
      00FFCB8CH   LINE      ECODE    ---       #433
      00FFCB8CH   LINE      ECODE    ---       #435
      00FFCB8EH   LINE      ECODE    ---       #436
      00FFCB9FH   LINE      ECODE    ---       #437
      00FFCBA1H   LINE      ECODE    ---       #438
      00FFCBA5H   LINE      ECODE    ---       #439
      ---         BLOCKEND  ---      ---       LVL=0

      00FFCBA6H   BLOCK     ECODE    ---       LVL=0
      R3          REGSYM    ---      BYTE      reg
      REG=1       REGSYM    ---      ---       dat
      DR28        REGSYM    ---      DWORD     len
      00FFCBA6H   LINE      ECODE    ---       #450
      00FFCBAAH   LINE      ECODE    ---       #452
      00FFCBACH   LINE      ECODE    ---       #453
      00FFCBB3H   LINE      ECODE    ---       #454
      00FFCBB5H   LINE      ECODE    ---       #455
      ---         BLOCKEND  ---      ---       LVL=0

      00FFCBB6H   BLOCK     ECODE    ---       LVL=0
      00FFCBB8H   BLOCK     ECODE    NEAR LAB  LVL=1
      R14         REGSYM    ---      BYTE      dat
      R15         REGSYM    ---      BYTE      return_state
      WR12        REGSYM    ---      WORD      timeout_count
      ---         BLOCKEND  ---      ---       LVL=1
      00FFCBB6H   LINE      ECODE    ---       #465
      00FFCBB8H   LINE      ECODE    ---       #466
      00FFCBB8H   LINE      ECODE    ---       #467
      00FFCBBAH   LINE      ECODE    ---       #468
      00FFCBBCH   LINE      ECODE    ---       #469
      00FFCBBCH   LINE      ECODE    ---       #471
      00FFCBC6H   LINE      ECODE    ---       #473
      00FFCBC9H   LINE      ECODE    ---       #474
      00FFCBCBH   LINE      ECODE    ---       #475
L251 LINKER/LOCATER V4.66.93.0                                                        06/26/2023  14:53:20  PAGE 105


      00FFCBCBH   LINE      ECODE    ---       #476
      00FFCBD1H   LINE      ECODE    ---       #477
      00FFCBD9H   LINE      ECODE    ---       #478
      00FFCBDEH   LINE      ECODE    ---       #479
      00FFCBE0H   LINE      ECODE    ---       #480
      ---         BLOCKEND  ---      ---       LVL=0

      00FFCBE3H   BLOCK     ECODE    ---       LVL=0
      00FFCBE3H   LINE      ECODE    ---       #490
      00FFCBE3H   LINE      ECODE    ---       #491
      00FFCBE3H   LINE      ECODE    ---       #501
      00FFCBF4H   LINE      ECODE    ---       #502
      00FFCC0AH   LINE      ECODE    ---       #503
      00FFCC1EH   LINE      ECODE    ---       #504
      00FFCC32H   LINE      ECODE    ---       #506
      ---         BLOCKEND  ---      ---       LVL=0

      00FFCC33H   BLOCK     ECODE    ---       LVL=0
      0001000CH   SYMBOL    XDATA    ---       dat
      00FFCC33H   LINE      ECODE    ---       #515
      00FFCC33H   LINE      ECODE    ---       #516
      00FFCC33H   LINE      ECODE    ---       #526
      00FFCC44H   LINE      ECODE    ---       #527
      00FFCC5AH   LINE      ECODE    ---       #528
      00FFCC6EH   LINE      ECODE    ---       #529
      00FFCC82H   LINE      ECODE    ---       #531
      ---         BLOCKEND  ---      ---       LVL=0

      00FFCC83H   BLOCK     ECODE    ---       LVL=0
      WR8         REGSYM    ---      INT       acc_value
      DR4         REGSYM    ---      FLOAT     acc_dat
      00FFCC83H   LINE      ECODE    ---       #540
      00FFCC83H   LINE      ECODE    ---       #541
      00FFCC83H   LINE      ECODE    ---       #542
      00FFCC83H   LINE      ECODE    ---       #543
      00FFCC83H   LINE      ECODE    ---       #545
      00FFCC83H   LINE      ECODE    ---       #546
      00FFCC83H   LINE      ECODE    ---       #547
      00FFCC95H   LINE      ECODE    ---       #548
      00FFCC95H   LINE      ECODE    ---       #549
      00FFCC95H   LINE      ECODE    ---       #550
      00FFCC95H   LINE      ECODE    ---       #551
      00FFCC95H   LINE      ECODE    ---       #552
      ---         BLOCKEND  ---      ---       LVL=0

      00FFCC95H   BLOCK     ECODE    ---       LVL=0
      WR8         REGSYM    ---      INT       gyro_value
      DR4         REGSYM    ---      FLOAT     gyro_dat
      00FFCC95H   LINE      ECODE    ---       #561
      00FFCC95H   LINE      ECODE    ---       #562
      00FFCC95H   LINE      ECODE    ---       #563
      00FFCC95H   LINE      ECODE    ---       #564
      00FFCC95H   LINE      ECODE    ---       #566
      00FFCCA9H   LINE      ECODE    ---       #567
      00FFCCA9H   LINE      ECODE    ---       #568
      00FFCCA9H   LINE      ECODE    ---       #569
      00FFCCA9H   LINE      ECODE    ---       #570
      00FFCCA9H   LINE      ECODE    ---       #571
      00FFCCA9H   LINE      ECODE    ---       #572
      00FFCCA9H   LINE      ECODE    ---       #573
      00FFCCA9H   LINE      ECODE    ---       #574
      ---         BLOCKEND  ---      ---       LVL=0

      00FFCCA9H   BLOCK     ECODE    ---       LVL=0
      00FFCCABH   BLOCK     ECODE    NEAR LAB  LVL=1
L251 LINKER/LOCATER V4.66.93.0                                                        06/26/2023  14:53:20  PAGE 106


      R15         REGSYM    ---      BYTE      return_state
      ---         BLOCKEND  ---      ---       LVL=1
      00FFCCA9H   LINE      ECODE    ---       #583
      00FFCCABH   LINE      ECODE    ---       #584
      00FFCCABH   LINE      ECODE    ---       #585
      00FFCCADH   LINE      ECODE    ---       #587
      00FFCCB5H   LINE      ECODE    ---       #598
      00FFCCB5H   LINE      ECODE    ---       #599
      00FFCCBAH   LINE      ECODE    ---       #604
      00FFCCBAH   LINE      ECODE    ---       #606
      00FFCCD0H   LINE      ECODE    ---       #607
      00FFCCDCH   LINE      ECODE    ---       #608
      00FFCCE4H   LINE      ECODE    ---       #609
      00FFCCE6H   LINE      ECODE    ---       #612
      00FFCCE6H   LINE      ECODE    ---       #614
      00FFCCEDH   LINE      ECODE    ---       #615
      00FFCCF5H   LINE      ECODE    ---       #616
      00FFCCFCH   LINE      ECODE    ---       #617
      00FFCD0DH   LINE      ECODE    ---       #618
      00FFCD15H   LINE      ECODE    ---       #619
      00FFCD1DH   LINE      ECODE    ---       #620
      00FFCD24H   LINE      ECODE    ---       #627
      00FFCD3EH   LINE      ECODE    ---       #628
      00FFCD4AH   LINE      ECODE    ---       #631
      00FFCD4DH   LINE      ECODE    ---       #633
      00FFCD4DH   LINE      ECODE    ---       #634
      00FFCD55H   LINE      ECODE    ---       #635
      00FFCD5DH   LINE      ECODE    ---       #636
      00FFCD65H   LINE      ECODE    ---       #638
      00FFCD6DH   LINE      ECODE    ---       #646
      00FFCD74H   LINE      ECODE    ---       #653
      00FFCD74H   LINE      ECODE    ---       #654
      00FFCD76H   LINE      ECODE    ---       #655
      ---         BLOCKEND  ---      ---       LVL=0

      ---         MODULE    ---      ---       SEEKFREE_IMU963RA
      00FFBBD4H   PUBLIC    ECODE    ---       imu963ra_acc_transition?
      00FFBB1DH   PUBLIC    ECODE    ---       imu963ra_get_gyro?
      00FFBBDAH   PUBLIC    ECODE    ---       imu963ra_mag_transition?
      00FFBBD7H   PUBLIC    ECODE    ---       imu963ra_gyro_transition?
      00FFBBEEH   PUBLIC    ECODE    ---       imu963ra_init?
      00FFBACDH   PUBLIC    ECODE    ---       imu963ra_get_acc?
      00FFBB6DH   PUBLIC    ECODE    ---       imu963ra_get_mag?
      0001080DH   PUBLIC    XDATA    INT       imu963ra_acc_x
      0001080FH   PUBLIC    XDATA    INT       imu963ra_acc_y
      00010811H   PUBLIC    XDATA    INT       imu963ra_acc_z
      00010813H   PUBLIC    XDATA    INT       imu963ra_mag_x
      00010815H   PUBLIC    XDATA    INT       imu963ra_mag_y
      00010817H   PUBLIC    XDATA    INT       imu963ra_mag_z
      00010819H   PUBLIC    XDATA    INT       imu963ra_gyro_x
      0001081BH   PUBLIC    XDATA    INT       imu963ra_gyro_y
      0001081DH   PUBLIC    XDATA    INT       imu963ra_gyro_z
      000000D0H   SFRSYM    DATA     BYTE      PSW
      0000009DH   SFRSYM    DATA     BYTE      IRCBAND
      00000097H   SFRSYM    DATA     BYTE      AUXR2
      000000EFH   SFRSYM    DATA     BYTE      AUXINTIF
      000000FDH   SFRSYM    DATA     BYTE      S4CON
      000000ACH   SFRSYM    DATA     BYTE      S3CON
      0000009AH   SFRSYM    DATA     BYTE      S2CON
      000000B7H   SFRSYM    DATA     BYTE      IPH
      000000CDH   SFRSYM    DATA     BYTE      SPSTAT
      000000DDH   SFRSYM    DATA     BYTE      T4T3M
      000000C1H   SFRSYM    DATA     BYTE      WDT_CONTR
      000000DFH   SFRSYM    DATA     BYTE      IP3
      000000F4H   SFRSYM    DATA     BYTE      USBCON
L251 LINKER/LOCATER V4.66.93.0                                                        06/26/2023  14:53:20  PAGE 107


      000000B5H   SFRSYM    DATA     BYTE      IP2
      000000FFH   SFRSYM    DATA     BYTE      RSTCFG
      000000F9H   SFRSYM    DATA     BYTE      LINICR
      0000008EH   SFRSYM    DATA     BYTE      AUXR
      000000AFH   SFRSYM    DATA     BYTE      IE2
      000000C0H.3 SFRSYM    DATA     BIT       P43
      000000C0H.2 SFRSYM    DATA     BIT       P42
      00000088H   SFRSYM    DATA     BYTE      TCON
      000000C0H.1 SFRSYM    DATA     BIT       P41
      00000098H   SFRSYM    DATA     BYTE      SCON
      000000C0H.0 SFRSYM    DATA     BIT       P40
      000000F1H   SFRSYM    DATA     BYTE      CANICR
      00000087H   SFRSYM    DATA     BYTE      PCON
      000000BCH   SFRSYM    DATA     BYTE      ADC_CONTR
      000000E7H   SFRSYM    DATA     BYTE      CMPCR2
      000000E6H   SFRSYM    DATA     BYTE      CMPCR1
      000000B8H   SFRSYM    DATA     BYTE      IP
      0000008FH   SFRSYM    DATA     BYTE      INTCLKO
      000000EEH   SFRSYM    DATA     BYTE      IP3H
      000000B6H   SFRSYM    DATA     BYTE      IP2H
      000000A8H   SFRSYM    DATA     BYTE      IE
      000000BBH   SFRSYM    DATA     BYTE      P_SW3
      000000BAH   SFRSYM    DATA     BYTE      P_SW2
      000000A2H   SFRSYM    DATA     BYTE      P_SW1
      000000CEH   SFRSYM    DATA     BYTE      SPCTL
      000000F8H   SFRSYM    DATA     BYTE      P7
      000000E8H   SFRSYM    DATA     BYTE      P6
      000000C8H   SFRSYM    DATA     BYTE      P5
      000000C0H   SFRSYM    DATA     BYTE      P4
      000000B0H   SFRSYM    DATA     BYTE      P3
      000000A0H   SFRSYM    DATA     BYTE      P2
      00000090H   SFRSYM    DATA     BYTE      P1
      00000080H   SFRSYM    DATA     BYTE      P0
      00FFB8C2H   SYMBOL    ECODE    ---       imu963ra_simspi_wr_byte
      00FFB9EFH   SYMBOL    ECODE    ---       imu963ra_read_mag_register
      00FFBA42H   SYMBOL    ECODE    ---       imu963ra_connect_mag
      00FFB97AH   SYMBOL    ECODE    ---       imu963ra_read_acc_gyro_registers
      00FFB98AH   SYMBOL    ECODE    ---       imu963ra_write_mag_register
      00FFB95BH   SYMBOL    ECODE    ---       imu963ra_read_acc_gyro_register
      00FFB914H   SYMBOL    ECODE    ---       imu963ra_simspi_r_reg_bytes
      00FFB8F8H   SYMBOL    ECODE    ---       imu963ra_simspi_r_reg_byte
      00FFBA9CH   SYMBOL    ECODE    ---       imu963ra_mag_self_check
      00FFB953H   SYMBOL    ECODE    ---       imu963ra_write_acc_gyro_register
      00FFB8E5H   SYMBOL    ECODE    ---       imu963ra_simspi_w_reg_byte
      00FFBA6EH   SYMBOL    ECODE    ---       imu963ra_acc_gyro_self_check

      00FFB8C2H   BLOCK     ECODE    ---       LVL=0
      R7          REGSYM    ---      BYTE      byte
      00FFB8C4H   BLOCK     ECODE    NEAR LAB  LVL=1
      R6          REGSYM    ---      BYTE      i
      ---         BLOCKEND  ---      ---       LVL=1
      00FFB8C2H   LINE      ECODE    ---       #361
      00FFB8C4H   LINE      ECODE    ---       #362
      00FFB8C4H   LINE      ECODE    ---       #365
      00FFB8C6H   LINE      ECODE    ---       #367
      00FFB8CBH   LINE      ECODE    ---       #368
      00FFB8CDH   LINE      ECODE    ---       #369
      00FFB8CFH   LINE      ECODE    ---       #370
      00FFB8D1H   LINE      ECODE    ---       #372
      00FFB8D3H   LINE      ECODE    ---       #373
      00FFB8D5H   LINE      ECODE    ---       #374
      00FFB8DBH   LINE      ECODE    ---       #375
      00FFB8E2H   LINE      ECODE    ---       #376
      00FFB8E4H   LINE      ECODE    ---       #377
      ---         BLOCKEND  ---      ---       LVL=0
L251 LINKER/LOCATER V4.66.93.0                                                        06/26/2023  14:53:20  PAGE 108



      00FFB8E5H   BLOCK     ECODE    ---       LVL=0
      R7          REGSYM    ---      BYTE      cmd
      R15         REGSYM    ---      BYTE      val
      00FFB8E5H   LINE      ECODE    ---       #385
      00FFB8E9H   LINE      ECODE    ---       #387
      00FFB8EBH   LINE      ECODE    ---       #388
      00FFB8EBH   LINE      ECODE    ---       #389
      00FFB8EEH   LINE      ECODE    ---       #390
      00FFB8F3H   LINE      ECODE    ---       #391
      00FFB8F5H   LINE      ECODE    ---       #392
      ---         BLOCKEND  ---      ---       LVL=0

      00FFB8F8H   BLOCK     ECODE    ---       LVL=0
      R7          REGSYM    ---      BYTE      cmd
      REG=3       REGSYM    ---      ---       val
      00FFB8F8H   LINE      ECODE    ---       #423
      00FFB8FEH   LINE      ECODE    ---       #425
      00FFB900H   LINE      ECODE    ---       #426
      00FFB903H   LINE      ECODE    ---       #427
      00FFB908H   LINE      ECODE    ---       #428
      00FFB90FH   LINE      ECODE    ---       #429
      00FFB911H   LINE      ECODE    ---       #430
      ---         BLOCKEND  ---      ---       LVL=0

      00FFB914H   BLOCK     ECODE    ---       LVL=0
      R7          REGSYM    ---      BYTE      cmd
      REG=3       REGSYM    ---      ---       val
      000108C8H   SYMBOL    XDATA    DWORD     num
      00FFB914H   LINE      ECODE    ---       #440
      00FFB924H   LINE      ECODE    ---       #443
      00FFB927H   LINE      ECODE    ---       #444
      00FFB92CH   LINE      ECODE    ---       #446
      00FFB92EH   LINE      ECODE    ---       #448
      00FFB937H   LINE      ECODE    ---       #449
      00FFB950H   LINE      ECODE    ---       #450
      ---         BLOCKEND  ---      ---       LVL=0

      00FFB953H   BLOCK     ECODE    ---       LVL=0
      R11         REGSYM    ---      BYTE      reg
      R7          REGSYM    ---      BYTE      dat
      00FFB953H   LINE      ECODE    ---       #462
      00FFB953H   LINE      ECODE    ---       #464
      00FFB955H   LINE      ECODE    ---       #465
      00FFB958H   LINE      ECODE    ---       #467
      00FFB95AH   LINE      ECODE    ---       #468
      ---         BLOCKEND  ---      ---       LVL=0

      00FFB95BH   BLOCK     ECODE    ---       LVL=0
      R10         REGSYM    ---      BYTE      reg
      00FFB95DH   BLOCK     ECODE    NEAR LAB  LVL=1
      000108F3H   SYMBOL    XDATA    BYTE      dat
      ---         BLOCKEND  ---      ---       LVL=1
      00FFB95BH   LINE      ECODE    ---       #477
      00FFB95DH   LINE      ECODE    ---       #478
      00FFB95DH   LINE      ECODE    ---       #479
      00FFB962H   LINE      ECODE    ---       #480
      00FFB964H   LINE      ECODE    ---       #481
      00FFB973H   LINE      ECODE    ---       #482
      00FFB975H   LINE      ECODE    ---       #483
      00FFB979H   LINE      ECODE    ---       #484
      ---         BLOCKEND  ---      ---       LVL=0

      00FFB97AH   BLOCK     ECODE    ---       LVL=0
      R3          REGSYM    ---      BYTE      reg
L251 LINKER/LOCATER V4.66.93.0                                                        06/26/2023  14:53:20  PAGE 109


      REG=1       REGSYM    ---      ---       dat
      DR28        REGSYM    ---      DWORD     len
      00FFB97AH   LINE      ECODE    ---       #495
      00FFB97EH   LINE      ECODE    ---       #497
      00FFB980H   LINE      ECODE    ---       #498
      00FFB987H   LINE      ECODE    ---       #500
      00FFB989H   LINE      ECODE    ---       #501
      ---         BLOCKEND  ---      ---       LVL=0

      00FFB98AH   BLOCK     ECODE    ---       LVL=0
      R15         REGSYM    ---      BYTE      addr
      R13         REGSYM    ---      BYTE      reg
      R14         REGSYM    ---      BYTE      dat
      00FFB992H   BLOCK     ECODE    NEAR LAB  LVL=1
      R12         REGSYM    ---      BYTE      return_state
      000108EAH   SYMBOL    XDATA    WORD      timeout_count
      ---         BLOCKEND  ---      ---       LVL=1
      00FFB98AH   LINE      ECODE    ---       #513
      00FFB992H   LINE      ECODE    ---       #514
      00FFB992H   LINE      ECODE    ---       #515
      00FFB994H   LINE      ECODE    ---       #516
      00FFB99CH   LINE      ECODE    ---       #518
      00FFB99EH   LINE      ECODE    ---       #519
      00FFB9A3H   LINE      ECODE    ---       #520
      00FFB9AAH   LINE      ECODE    ---       #521
      00FFB9B1H   LINE      ECODE    ---       #522
      00FFB9B8H   LINE      ECODE    ---       #523
      00FFB9C0H   LINE      ECODE    ---       #526
      00FFB9C2H   LINE      ECODE    ---       #528
      00FFB9D5H   LINE      ECODE    ---       #530
      00FFB9D8H   LINE      ECODE    ---       #531
      00FFB9DAH   LINE      ECODE    ---       #532
      00FFB9DAH   LINE      ECODE    ---       #533
      00FFB9E2H   LINE      ECODE    ---       #534
      00FFB9EAH   LINE      ECODE    ---       #535
      00FFB9ECH   LINE      ECODE    ---       #536
      ---         BLOCKEND  ---      ---       LVL=0

      00FFB9EFH   BLOCK     ECODE    ---       LVL=0
      R10         REGSYM    ---      BYTE      addr
      R15         REGSYM    ---      BYTE      reg
      00FFB9F7H   BLOCK     ECODE    NEAR LAB  LVL=1
      WR12        REGSYM    ---      WORD      timeout_count
      ---         BLOCKEND  ---      ---       LVL=1
      00FFB9EFH   LINE      ECODE    ---       #546
      00FFB9F7H   LINE      ECODE    ---       #547
      00FFB9F7H   LINE      ECODE    ---       #548
      00FFB9F9H   LINE      ECODE    ---       #550
      00FFB9FBH   LINE      ECODE    ---       #551
      00FFBA05H   LINE      ECODE    ---       #552
      00FFBA0CH   LINE      ECODE    ---       #553
      00FFBA14H   LINE      ECODE    ---       #554
      00FFBA1CH   LINE      ECODE    ---       #557
      00FFBA1EH   LINE      ECODE    ---       #559
      00FFBA28H   LINE      ECODE    ---       #561
      00FFBA28H   LINE      ECODE    ---       #562
      00FFBA28H   LINE      ECODE    ---       #563
      00FFBA30H   LINE      ECODE    ---       #564
      00FFBA38H   LINE      ECODE    ---       #566
      00FFBA3DH   LINE      ECODE    ---       #567
      ---         BLOCKEND  ---      ---       LVL=0

      00FFBA42H   BLOCK     ECODE    ---       LVL=0
      R10         REGSYM    ---      BYTE      addr
      R15         REGSYM    ---      BYTE      reg
L251 LINKER/LOCATER V4.66.93.0                                                        06/26/2023  14:53:20  PAGE 110


      00FFBA42H   LINE      ECODE    ---       #577
      00FFBA48H   LINE      ECODE    ---       #579
      00FFBA4AH   LINE      ECODE    ---       #581
      00FFBA54H   LINE      ECODE    ---       #582
      00FFBA5BH   LINE      ECODE    ---       #583
      00FFBA63H   LINE      ECODE    ---       #584
      00FFBA6BH   LINE      ECODE    ---       #585
      ---         BLOCKEND  ---      ---       LVL=0

      00FFBA6EH   BLOCK     ECODE    ---       LVL=0
      00FFBA70H   BLOCK     ECODE    NEAR LAB  LVL=1
      R15         REGSYM    ---      BYTE      return_state
      R14         REGSYM    ---      BYTE      dat
      WR12        REGSYM    ---      WORD      timeout_count
      ---         BLOCKEND  ---      ---       LVL=1
      00FFBA6EH   LINE      ECODE    ---       #595
      00FFBA70H   LINE      ECODE    ---       #596
      00FFBA70H   LINE      ECODE    ---       #597
      00FFBA72H   LINE      ECODE    ---       #598
      00FFBA72H   LINE      ECODE    ---       #599
      00FFBA74H   LINE      ECODE    ---       #601
      00FFBA74H   LINE      ECODE    ---       #603
      00FFBA7EH   LINE      ECODE    ---       #605
      00FFBA81H   LINE      ECODE    ---       #606
      00FFBA83H   LINE      ECODE    ---       #607
      00FFBA83H   LINE      ECODE    ---       #608
      00FFBA8AH   LINE      ECODE    ---       #609
      00FFBA92H   LINE      ECODE    ---       #610
      00FFBA97H   LINE      ECODE    ---       #611
      00FFBA99H   LINE      ECODE    ---       #612
      ---         BLOCKEND  ---      ---       LVL=0

      00FFBA9CH   BLOCK     ECODE    ---       LVL=0
      00FFBA9EH   BLOCK     ECODE    NEAR LAB  LVL=1
      R15         REGSYM    ---      BYTE      return_state
      R14         REGSYM    ---      BYTE      dat
      WR12        REGSYM    ---      WORD      timeout_count
      ---         BLOCKEND  ---      ---       LVL=1
      00FFBA9CH   LINE      ECODE    ---       #621
      00FFBA9EH   LINE      ECODE    ---       #622
      00FFBA9EH   LINE      ECODE    ---       #623
      00FFBAA0H   LINE      ECODE    ---       #624
      00FFBAA0H   LINE      ECODE    ---       #625
      00FFBAA2H   LINE      ECODE    ---       #627
      00FFBAA2H   LINE      ECODE    ---       #629
      00FFBAACH   LINE      ECODE    ---       #631
      00FFBAAFH   LINE      ECODE    ---       #632
      00FFBAB1H   LINE      ECODE    ---       #633
      00FFBAB1H   LINE      ECODE    ---       #634
      00FFBABBH   LINE      ECODE    ---       #635
      00FFBAC3H   LINE      ECODE    ---       #636
      00FFBAC8H   LINE      ECODE    ---       #637
      00FFBACAH   LINE      ECODE    ---       #638
      ---         BLOCKEND  ---      ---       LVL=0

      00FFBACDH   BLOCK     ECODE    ---       LVL=0
      00FFBACDH   LINE      ECODE    ---       #647
      00FFBACDH   LINE      ECODE    ---       #648
      00FFBACDH   LINE      ECODE    ---       #651
      00FFBADEH   LINE      ECODE    ---       #652
      00FFBAF4H   LINE      ECODE    ---       #653
      00FFBB08H   LINE      ECODE    ---       #654
      00FFBB1CH   LINE      ECODE    ---       #655
      ---         BLOCKEND  ---      ---       LVL=0

L251 LINKER/LOCATER V4.66.93.0                                                        06/26/2023  14:53:20  PAGE 111


      00FFBB1DH   BLOCK     ECODE    ---       LVL=0
      00FFBB1DH   LINE      ECODE    ---       #665
      00FFBB1DH   LINE      ECODE    ---       #666
      00FFBB1DH   LINE      ECODE    ---       #669
      00FFBB2EH   LINE      ECODE    ---       #670
      00FFBB44H   LINE      ECODE    ---       #671
      00FFBB58H   LINE      ECODE    ---       #672
      00FFBB6CH   LINE      ECODE    ---       #673
      ---         BLOCKEND  ---      ---       LVL=0

      00FFBB6DH   BLOCK     ECODE    ---       LVL=0
      R11         REGSYM    ---      BYTE      temp_status
      00FFBB6DH   LINE      ECODE    ---       #683
      00FFBB6DH   LINE      ECODE    ---       #684
      00FFBB6DH   LINE      ECODE    ---       #688
      00FFBB75H   LINE      ECODE    ---       #689
      00FFBB7AH   LINE      ECODE    ---       #690
      00FFBB7DH   LINE      ECODE    ---       #692
      00FFBB8EH   LINE      ECODE    ---       #693
      00FFBBA4H   LINE      ECODE    ---       #694
      00FFBBB8H   LINE      ECODE    ---       #695
      00FFBBCCH   LINE      ECODE    ---       #696
      00FFBBCCH   LINE      ECODE    ---       #697
      00FFBBD3H   LINE      ECODE    ---       #698
      ---         BLOCKEND  ---      ---       LVL=0

      00FFBBD4H   BLOCK     ECODE    ---       LVL=0
      00FFBBD4H   LINE      ECODE    ---       #707
      00FFBBD4H   LINE      ECODE    ---       #708
      00FFBBD4H   LINE      ECODE    ---       #709
      00FFBBD4H   LINE      ECODE    ---       #710
      00FFBBD4H   LINE      ECODE    ---       #712
      00FFBBD4H   LINE      ECODE    ---       #713
      00FFBBD4H   LINE      ECODE    ---       #714
      00FFBBD4H   LINE      ECODE    ---       #715
      00FFBBD4H   LINE      ECODE    ---       #716
      00FFBBD4H   LINE      ECODE    ---       #717
      00FFBBD4H   LINE      ECODE    ---       #718
      00FFBBD6H   LINE      ECODE    ---       #719
      ---         BLOCKEND  ---      ---       LVL=0

      00FFBBD7H   BLOCK     ECODE    ---       LVL=0
      00FFBBD7H   LINE      ECODE    ---       #728
      00FFBBD7H   LINE      ECODE    ---       #729
      00FFBBD7H   LINE      ECODE    ---       #730
      00FFBBD7H   LINE      ECODE    ---       #731
      00FFBBD7H   LINE      ECODE    ---       #733
      00FFBBD7H   LINE      ECODE    ---       #734
      00FFBBD7H   LINE      ECODE    ---       #735
      00FFBBD7H   LINE      ECODE    ---       #736
      00FFBBD7H   LINE      ECODE    ---       #737
      00FFBBD7H   LINE      ECODE    ---       #738
      00FFBBD7H   LINE      ECODE    ---       #739
      00FFBBD7H   LINE      ECODE    ---       #740
      00FFBBD7H   LINE      ECODE    ---       #741
      00FFBBD9H   LINE      ECODE    ---       #742
      ---         BLOCKEND  ---      ---       LVL=0

      00FFBBDAH   BLOCK     ECODE    ---       LVL=0
      WR8         REGSYM    ---      INT       mag_value
      DR4         REGSYM    ---      FLOAT     mag_dat
      00FFBBDAH   LINE      ECODE    ---       #751
      00FFBBDAH   LINE      ECODE    ---       #752
      00FFBBDAH   LINE      ECODE    ---       #753
      00FFBBDAH   LINE      ECODE    ---       #754
L251 LINKER/LOCATER V4.66.93.0                                                        06/26/2023  14:53:20  PAGE 112


      00FFBBDAH   LINE      ECODE    ---       #756
      00FFBBEEH   LINE      ECODE    ---       #757
      00FFBBEEH   LINE      ECODE    ---       #758
      00FFBBEEH   LINE      ECODE    ---       #759
      00FFBBEEH   LINE      ECODE    ---       #760
      00FFBBEEH   LINE      ECODE    ---       #761
      ---         BLOCKEND  ---      ---       LVL=0

      00FFBBEEH   BLOCK     ECODE    ---       LVL=0
      00FFBBF0H   BLOCK     ECODE    NEAR LAB  LVL=1
      R15         REGSYM    ---      BYTE      return_state
      ---         BLOCKEND  ---      ---       LVL=1
      00FFBBEEH   LINE      ECODE    ---       #770
      00FFBBF0H   LINE      ECODE    ---       #771
      00FFBBF0H   LINE      ECODE    ---       #772
      00FFBBF2H   LINE      ECODE    ---       #773
      00FFBBFAH   LINE      ECODE    ---       #782
      00FFBBFAH   LINE      ECODE    ---       #784
      00FFBC01H   LINE      ECODE    ---       #785
      00FFBC09H   LINE      ECODE    ---       #786
      00FFBC11H   LINE      ECODE    ---       #787
      00FFBC18H   LINE      ECODE    ---       #788
      00FFBC1DH   LINE      ECODE    ---       #792
      00FFBC25H   LINE      ECODE    ---       #797
      00FFBC25H   LINE      ECODE    ---       #798
      00FFBC28H   LINE      ECODE    ---       #799
      00FFBC28H   LINE      ECODE    ---       #801
      00FFBC30H   LINE      ECODE    ---       #802
      00FFBC38H   LINE      ECODE    ---       #809
      00FFBC40H   LINE      ECODE    ---       #818
      00FFBC48H   LINE      ECODE    ---       #819
      00FFBC50H   LINE      ECODE    ---       #820
      00FFBC57H   LINE      ECODE    ---       #821
      00FFBC5EH   LINE      ECODE    ---       #822
      00FFBC65H   LINE      ECODE    ---       #823
      00FFBC6DH   LINE      ECODE    ---       #825
      00FFBC75H   LINE      ECODE    ---       #826
      00FFBC7DH   LINE      ECODE    ---       #827
      00FFBC85H   LINE      ECODE    ---       #828
      00FFBC8CH   LINE      ECODE    ---       #829
      00FFBC94H   LINE      ECODE    ---       #831
      00FFBC9FH   LINE      ECODE    ---       #832
      00FFBCA7H   LINE      ECODE    ---       #833
      00FFBCB1H   LINE      ECODE    ---       #834
      00FFBCB9H   LINE      ECODE    ---       #837
      00FFBCBEH   LINE      ECODE    ---       #841
      00FFBCCAH   LINE      ECODE    ---       #846
      00FFBCCDH   LINE      ECODE    ---       #847
      00FFBCCFH   LINE      ECODE    ---       #848
      00FFBCCFH   LINE      ECODE    ---       #850
      00FFBCDAH   LINE      ECODE    ---       #855
      00FFBCE5H   LINE      ECODE    ---       #856
      00FFBCECH   LINE      ECODE    ---       #858
      00FFBCF3H   LINE      ECODE    ---       #860
      00FFBCFBH   LINE      ECODE    ---       #861
      00FFBCFBH   LINE      ECODE    ---       #862
      00FFBCFDH   LINE      ECODE    ---       #863
      ---         BLOCKEND  ---      ---       LVL=0

      ---         MODULE    ---      ---       SEEKFREE_IPS114_SPI
      00FF6C46H   PUBLIC    ECODE    ---       ips114_showuint8_simspi?
      00FF74B5H   PUBLIC    ECODE    ---       ips114_showuint8?
      00FF6B7AH   PUBLIC    ECODE    ---       ips114_showint8_simspi?
      00FF73EDH   PUBLIC    ECODE    ---       ips114_showint8?
      00FF707CH   PUBLIC    ECODE    ---       ips114_writedata_16bit?
L251 LINKER/LOCATER V4.66.93.0                                                        06/26/2023  14:53:20  PAGE 113


      00FF6F2BH   PUBLIC    ECODE    ---       ips114_showfloat_simspi?
      00FF6A7AH   PUBLIC    ECODE    ---       ips114_drawpoint_simspi?
      00FF7792H   PUBLIC    ECODE    ---       ips114_showfloat?
      00FF72EDH   PUBLIC    ECODE    ---       ips114_drawpoint?
      00FF6A8FH   PUBLIC    ECODE    ---       ips114_showchar_simspi?
      00FF7302H   PUBLIC    ECODE    ---       ips114_showchar?
      00FF6DD0H   PUBLIC    ECODE    ---       ips114_showuint16_simspi?
      00FF7637H   PUBLIC    ECODE    ---       ips114_showuint16?
      00FF6E68H   PUBLIC    ECODE    ---       ips114_showint32_simspi?
      00FF6CCCH   PUBLIC    ECODE    ---       ips114_showint16_simspi?
      00FF76CFH   PUBLIC    ECODE    ---       ips114_showint32?
      00FF7537H   PUBLIC    ECODE    ---       ips114_showint16?
      00FF6A33H   PUBLIC    ECODE    ---       ips114_clear_simspi?
      00FF72A6H   PUBLIC    ECODE    ---       ips114_clear?
      00FF6827H   PUBLIC    ECODE    ---       ips114_writeDatai_16bit_simspi?
      00FF6B17H   PUBLIC    ECODE    ---       ips114_showstr_simspi?
      00FF738AH   PUBLIC    ECODE    ---       ips114_showstr?
      00FF67D5H   PUBLIC    ECODE    ---       ips114_writeIndex_simspi?
      00FF67FEH   PUBLIC    ECODE    ---       ips114_writeData_simspi?
      00FF7066H   PUBLIC    ECODE    ---       ips114_writeIndex?
      00FF7071H   PUBLIC    ECODE    ---       ips114_writeData?
      00FF69E0H   PUBLIC    ECODE    ---       ips114_set_region_simspi?
      00FF6853H   PUBLIC    ECODE    ---       ips114_init_simspi?
      00FF724FH   PUBLIC    ECODE    ---       ips114_set_region?
      00FF709FH   PUBLIC    ECODE    ---       ips114_init?
      000000D0H   SFRSYM    DATA     BYTE      PSW
      0000009DH   SFRSYM    DATA     BYTE      IRCBAND
      00000097H   SFRSYM    DATA     BYTE      AUXR2
      000000EFH   SFRSYM    DATA     BYTE      AUXINTIF
      000000FDH   SFRSYM    DATA     BYTE      S4CON
      000000ACH   SFRSYM    DATA     BYTE      S3CON
      0000009AH   SFRSYM    DATA     BYTE      S2CON
      000000B7H   SFRSYM    DATA     BYTE      IPH
      000000CDH   SFRSYM    DATA     BYTE      SPSTAT
      000000DDH   SFRSYM    DATA     BYTE      T4T3M
      000000C1H   SFRSYM    DATA     BYTE      WDT_CONTR
      000000DFH   SFRSYM    DATA     BYTE      IP3
      000000F4H   SFRSYM    DATA     BYTE      USBCON
      000000B5H   SFRSYM    DATA     BYTE      IP2
      000000FFH   SFRSYM    DATA     BYTE      RSTCFG
      000000F9H   SFRSYM    DATA     BYTE      LINICR
      0000008EH   SFRSYM    DATA     BYTE      AUXR
      000000AFH   SFRSYM    DATA     BYTE      IE2
      000000E8H.7 SFRSYM    DATA     BIT       P67
      000000C0H.7 SFRSYM    DATA     BIT       P47
      000000E8H.5 SFRSYM    DATA     BIT       P65
      000000A0H.7 SFRSYM    DATA     BIT       P27
      000000E8H.3 SFRSYM    DATA     BIT       P63
      000000F8H.1 SFRSYM    DATA     BIT       P71
      000000E8H.1 SFRSYM    DATA     BIT       P61
      00000088H   SFRSYM    DATA     BYTE      TCON
      00000098H   SFRSYM    DATA     BYTE      SCON
      000000A0H.2 SFRSYM    DATA     BIT       P22
      000000A0H.1 SFRSYM    DATA     BIT       P21
      000000A0H.0 SFRSYM    DATA     BIT       P20
      000000F1H   SFRSYM    DATA     BYTE      CANICR
      00000087H   SFRSYM    DATA     BYTE      PCON
      000000BCH   SFRSYM    DATA     BYTE      ADC_CONTR
      000000E7H   SFRSYM    DATA     BYTE      CMPCR2
      000000E6H   SFRSYM    DATA     BYTE      CMPCR1
      000000B8H   SFRSYM    DATA     BYTE      IP
      0000008FH   SFRSYM    DATA     BYTE      INTCLKO
      000000EEH   SFRSYM    DATA     BYTE      IP3H
      000000B6H   SFRSYM    DATA     BYTE      IP2H
      000000A8H   SFRSYM    DATA     BYTE      IE
L251 LINKER/LOCATER V4.66.93.0                                                        06/26/2023  14:53:20  PAGE 114


      000000BBH   SFRSYM    DATA     BYTE      P_SW3
      000000BAH   SFRSYM    DATA     BYTE      P_SW2
      000000A2H   SFRSYM    DATA     BYTE      P_SW1
      000000CEH   SFRSYM    DATA     BYTE      SPCTL
      000000F8H   SFRSYM    DATA     BYTE      P7
      000000E8H   SFRSYM    DATA     BYTE      P6
      000000C8H   SFRSYM    DATA     BYTE      P5
      000000C0H   SFRSYM    DATA     BYTE      P4
      000000B0H   SFRSYM    DATA     BYTE      P3
      000000A0H   SFRSYM    DATA     BYTE      P2
      00000090H   SFRSYM    DATA     BYTE      P1
      00000080H   SFRSYM    DATA     BYTE      P0

      00FF67D5H   BLOCK     ECODE    ---       LVL=0
      R7          REGSYM    ---      BYTE      dat
      00FF67D7H   BLOCK     ECODE    NEAR LAB  LVL=1
      R6          REGSYM    ---      BYTE      i
      ---         BLOCKEND  ---      ---       LVL=1
      00FF67D5H   LINE      ECODE    ---       #61
      00FF67D7H   LINE      ECODE    ---       #62
      00FF67D7H   LINE      ECODE    ---       #63
      00FF67DAH   LINE      ECODE    ---       #64
      00FF67DCH   LINE      ECODE    ---       #65
      00FF67DEH   LINE      ECODE    ---       #67
      00FF67E0H   LINE      ECODE    ---       #69
      00FF67E2H   LINE      ECODE    ---       #71
      00FF67EBH   LINE      ECODE    ---       #72
      00FF67EDH   LINE      ECODE    ---       #73
      00FF67EFH   LINE      ECODE    ---       #75
      00FF67F1H   LINE      ECODE    ---       #76
      00FF67F3H   LINE      ECODE    ---       #77
      00FF67FBH   LINE      ECODE    ---       #78
      00FF67FDH   LINE      ECODE    ---       #79
      ---         BLOCKEND  ---      ---       LVL=0

      00FF67FEH   BLOCK     ECODE    ---       LVL=0
      R7          REGSYM    ---      BYTE      dat
      00FF6800H   BLOCK     ECODE    NEAR LAB  LVL=1
      R6          REGSYM    ---      BYTE      i
      ---         BLOCKEND  ---      ---       LVL=1
      00FF67FEH   LINE      ECODE    ---       #88
      00FF6800H   LINE      ECODE    ---       #89
      00FF6800H   LINE      ECODE    ---       #90
      00FF6803H   LINE      ECODE    ---       #91
      00FF6805H   LINE      ECODE    ---       #92
      00FF6807H   LINE      ECODE    ---       #94
      00FF6809H   LINE      ECODE    ---       #96
      00FF680BH   LINE      ECODE    ---       #98
      00FF6814H   LINE      ECODE    ---       #99
      00FF6816H   LINE      ECODE    ---       #100
      00FF6818H   LINE      ECODE    ---       #102
      00FF681AH   LINE      ECODE    ---       #103
      00FF681CH   LINE      ECODE    ---       #104
      00FF6824H   LINE      ECODE    ---       #105
      00FF6826H   LINE      ECODE    ---       #106
      ---         BLOCKEND  ---      ---       LVL=0

      00FF6827H   BLOCK     ECODE    ---       LVL=0
      WR4         REGSYM    ---      WORD      dat
      00FF6829H   BLOCK     ECODE    NEAR LAB  LVL=1
      R10         REGSYM    ---      BYTE      i
      ---         BLOCKEND  ---      ---       LVL=1
      00FF6827H   LINE      ECODE    ---       #115
      00FF6829H   LINE      ECODE    ---       #116
      00FF6829H   LINE      ECODE    ---       #117
L251 LINKER/LOCATER V4.66.93.0                                                        06/26/2023  14:53:20  PAGE 115


      00FF682CH   LINE      ECODE    ---       #118
      00FF682EH   LINE      ECODE    ---       #119
      00FF6830H   LINE      ECODE    ---       #120
      00FF6832H   LINE      ECODE    ---       #121
      00FF6834H   LINE      ECODE    ---       #123
      00FF6840H   LINE      ECODE    ---       #124
      00FF6842H   LINE      ECODE    ---       #125
      00FF6844H   LINE      ECODE    ---       #127
      00FF6846H   LINE      ECODE    ---       #128
      00FF6848H   LINE      ECODE    ---       #129
      00FF6850H   LINE      ECODE    ---       #130
      00FF6852H   LINE      ECODE    ---       #131
      ---         BLOCKEND  ---      ---       LVL=0

      00FF6853H   BLOCK     ECODE    ---       LVL=0
      00FF6853H   LINE      ECODE    ---       #139
      00FF6853H   LINE      ECODE    ---       #142
      00FF6855H   LINE      ECODE    ---       #143
      00FF6857H   LINE      ECODE    ---       #144
      00FF6859H   LINE      ECODE    ---       #146
      00FF6861H   LINE      ECODE    ---       #148
      00FF6863H   LINE      ECODE    ---       #149
      00FF686BH   LINE      ECODE    ---       #151
      00FF6871H   LINE      ECODE    ---       #160
      00FF6877H   LINE      ECODE    ---       #162
      00FF687DH   LINE      ECODE    ---       #163
      00FF6883H   LINE      ECODE    ---       #165
      00FF6889H   LINE      ECODE    ---       #166
      00FF688FH   LINE      ECODE    ---       #167
      00FF6895H   LINE      ECODE    ---       #168
      00FF689AH   LINE      ECODE    ---       #169
      00FF68A0H   LINE      ECODE    ---       #170
      00FF68A6H   LINE      ECODE    ---       #172
      00FF68ACH   LINE      ECODE    ---       #173
      00FF68B2H   LINE      ECODE    ---       #175
      00FF68B8H   LINE      ECODE    ---       #176
      00FF68BEH   LINE      ECODE    ---       #178
      00FF68C4H   LINE      ECODE    ---       #179
      00FF68CAH   LINE      ECODE    ---       #181
      00FF68D0H   LINE      ECODE    ---       #182
      00FF68D6H   LINE      ECODE    ---       #184
      00FF68DCH   LINE      ECODE    ---       #185
      00FF68E2H   LINE      ECODE    ---       #187
      00FF68E8H   LINE      ECODE    ---       #188
      00FF68EEH   LINE      ECODE    ---       #190
      00FF68F4H   LINE      ECODE    ---       #191
      00FF68FAH   LINE      ECODE    ---       #193
      00FF6900H   LINE      ECODE    ---       #194
      00FF6906H   LINE      ECODE    ---       #195
      00FF690CH   LINE      ECODE    ---       #197
      00FF6912H   LINE      ECODE    ---       #198
      00FF6918H   LINE      ECODE    ---       #199
      00FF691EH   LINE      ECODE    ---       #200
      00FF6924H   LINE      ECODE    ---       #201
      00FF692AH   LINE      ECODE    ---       #202
      00FF6930H   LINE      ECODE    ---       #203
      00FF6936H   LINE      ECODE    ---       #204
      00FF693CH   LINE      ECODE    ---       #205
      00FF6942H   LINE      ECODE    ---       #206
      00FF6948H   LINE      ECODE    ---       #207
      00FF694EH   LINE      ECODE    ---       #208
      00FF6954H   LINE      ECODE    ---       #209
      00FF695AH   LINE      ECODE    ---       #210
      00FF6960H   LINE      ECODE    ---       #211
      00FF6966H   LINE      ECODE    ---       #213
L251 LINKER/LOCATER V4.66.93.0                                                        06/26/2023  14:53:20  PAGE 116


      00FF696CH   LINE      ECODE    ---       #214
      00FF6972H   LINE      ECODE    ---       #215
      00FF6978H   LINE      ECODE    ---       #216
      00FF697EH   LINE      ECODE    ---       #217
      00FF6984H   LINE      ECODE    ---       #218
      00FF698AH   LINE      ECODE    ---       #219
      00FF6990H   LINE      ECODE    ---       #220
      00FF6996H   LINE      ECODE    ---       #221
      00FF699CH   LINE      ECODE    ---       #222
      00FF69A2H   LINE      ECODE    ---       #223
      00FF69A8H   LINE      ECODE    ---       #224
      00FF69AEH   LINE      ECODE    ---       #225
      00FF69B4H   LINE      ECODE    ---       #226
      00FF69BAH   LINE      ECODE    ---       #227
      00FF69C0H   LINE      ECODE    ---       #229
      00FF69C6H   LINE      ECODE    ---       #231
      00FF69CCH   LINE      ECODE    ---       #232
      00FF69D4H   LINE      ECODE    ---       #234
      00FF69DAH   LINE      ECODE    ---       #235
      ---         BLOCKEND  ---      ---       LVL=0

      00FF69E0H   BLOCK     ECODE    ---       LVL=0
      000108CCH   SYMBOL    XDATA    WORD      x1
      000108CEH   SYMBOL    XDATA    WORD      y1
      WR12        REGSYM    ---      WORD      x2
      WR14        REGSYM    ---      WORD      y2
      00FF69E0H   LINE      ECODE    ---       #240
      00FF69EEH   LINE      ECODE    ---       #274
      00FF69F4H   LINE      ECODE    ---       #275
      00FF6A02H   LINE      ECODE    ---       #276
      00FF6A0CH   LINE      ECODE    ---       #277
      00FF6A12H   LINE      ECODE    ---       #278
      00FF6A20H   LINE      ECODE    ---       #279
      00FF6A2AH   LINE      ECODE    ---       #280
      00FF6A30H   LINE      ECODE    ---       #283
      ---         BLOCKEND  ---      ---       LVL=0

      00FF6A33H   BLOCK     ECODE    ---       LVL=0
      WR14        REGSYM    ---      WORD      color
      00FF6A39H   BLOCK     ECODE    NEAR LAB  LVL=1
      R13         REGSYM    ---      BYTE      i
      ---         BLOCKEND  ---      ---       LVL=1
      00FF6A33H   LINE      ECODE    ---       #292
      00FF6A39H   LINE      ECODE    ---       #293
      00FF6A39H   LINE      ECODE    ---       #295
      00FF6A49H   LINE      ECODE    ---       #296
      00FF6A4CH   LINE      ECODE    ---       #298
      00FF6A54H   LINE      ECODE    ---       #300
      00FF6A5AH   LINE      ECODE    ---       #301
      00FF6A71H   LINE      ECODE    ---       #302
      00FF6A75H   LINE      ECODE    ---       #303
      ---         BLOCKEND  ---      ---       LVL=0

      00FF6A7AH   BLOCK     ECODE    ---       LVL=0
      WR2         REGSYM    ---      WORD      x
      WR0         REGSYM    ---      WORD      y
      WR14        REGSYM    ---      WORD      color
      00FF6A7AH   LINE      ECODE    ---       #314
      00FF6A82H   LINE      ECODE    ---       #316
      00FF6A86H   LINE      ECODE    ---       #317
      00FF6A8CH   LINE      ECODE    ---       #318
      ---         BLOCKEND  ---      ---       LVL=0

      00FF6A8FH   BLOCK     ECODE    ---       LVL=0
      WR12        REGSYM    ---      WORD      x
L251 LINKER/LOCATER V4.66.93.0                                                        06/26/2023  14:53:20  PAGE 117


      WR14        REGSYM    ---      WORD      y
      000108D0H   SYMBOL    XDATA    CHAR      dat
      00FF6A99H   BLOCK     ECODE    NEAR LAB  LVL=1
      000108D1H   SYMBOL    XDATA    BYTE      i
      000108D2H   SYMBOL    XDATA    BYTE      j
      000108D3H   SYMBOL    XDATA    BYTE      temp
      ---         BLOCKEND  ---      ---       LVL=1
      00FF6A8FH   LINE      ECODE    ---       #331
      00FF6A99H   LINE      ECODE    ---       #332
      00FF6A99H   LINE      ECODE    ---       #336
      00FF6A9EH   LINE      ECODE    ---       #338
      00FF6AB4H   LINE      ECODE    ---       #339
      00FF6AD9H   LINE      ECODE    ---       #340
      00FF6ADEH   LINE      ECODE    ---       #342
      00FF6AE5H   LINE      ECODE    ---       #344
      00FF6AE9H   LINE      ECODE    ---       #345
      00FF6AEBH   LINE      ECODE    ---       #346
      00FF6AF1H   LINE      ECODE    ---       #347
      00FF6AF8H   LINE      ECODE    ---       #348
      00FF6B05H   LINE      ECODE    ---       #349
      00FF6B14H   LINE      ECODE    ---       #350
      ---         BLOCKEND  ---      ---       LVL=0

      00FF6B17H   BLOCK     ECODE    ---       LVL=0
      0001088DH   SYMBOL    XDATA    WORD      x
      0001088FH   SYMBOL    XDATA    WORD      y
      REG=3       REGSYM    ---      ---       dat
      00FF6B27H   BLOCK     ECODE    NEAR LAB  LVL=1
      00010891H   SYMBOL    XDATA    WORD      j
      ---         BLOCKEND  ---      ---       LVL=1
      00FF6B17H   LINE      ECODE    ---       #361
      00FF6B27H   LINE      ECODE    ---       #362
      00FF6B27H   LINE      ECODE    ---       #365
      00FF6B2CH   LINE      ECODE    ---       #366
      00FF6B2EH   LINE      ECODE    ---       #368
      00FF6B5DH   LINE      ECODE    ---       #369
      00FF6B68H   LINE      ECODE    ---       #370
      00FF6B77H   LINE      ECODE    ---       #371
      ---         BLOCKEND  ---      ---       LVL=0

      00FF6B7AH   BLOCK     ECODE    ---       LVL=0
      WR12        REGSYM    ---      WORD      x
      WR14        REGSYM    ---      WORD      y
      00FF6B84H   BLOCK     ECODE    NEAR LAB  LVL=1
      ---         BLOCKEND  ---      ---       LVL=1
      00FF6B7AH   LINE      ECODE    ---       #382
      00FF6B84H   LINE      ECODE    ---       #383
      00FF6B84H   LINE      ECODE    ---       #386
      00FF6B8DH   LINE      ECODE    ---       #388
      00FF6B9FH   LINE      ECODE    ---       #389
      00FF6BAAH   LINE      ECODE    ---       #390
      00FF6BACH   LINE      ECODE    ---       #391
      00FF6BBEH   LINE      ECODE    ---       #393
      00FF6BD4H   LINE      ECODE    ---       #394
      00FF6BECH   LINE      ECODE    ---       #395
      00FF6BFAH   LINE      ECODE    ---       #396
      00FF6BFFH   LINE      ECODE    ---       #397
      00FF6BFFH   LINE      ECODE    ---       #399
      00FF6C34H   LINE      ECODE    ---       #400
      00FF6C3AH   LINE      ECODE    ---       #401
      00FF6C43H   LINE      ECODE    ---       #402
      ---         BLOCKEND  ---      ---       LVL=0

      00FF6C46H   BLOCK     ECODE    ---       LVL=0
      WR12        REGSYM    ---      WORD      x
L251 LINKER/LOCATER V4.66.93.0                                                        06/26/2023  14:53:20  PAGE 118


      WR14        REGSYM    ---      WORD      y
      R3          REGSYM    ---      BYTE      dat
      00FF6C4EH   BLOCK     ECODE    NEAR LAB  LVL=1
      ---         BLOCKEND  ---      ---       LVL=1
      00FF6C46H   LINE      ECODE    ---       #413
      00FF6C4EH   LINE      ECODE    ---       #414
      00FF6C4EH   LINE      ECODE    ---       #418
      00FF6C5CH   LINE      ECODE    ---       #419
      00FF6C72H   LINE      ECODE    ---       #420
      00FF6C80H   LINE      ECODE    ---       #421
      00FF6C85H   LINE      ECODE    ---       #422
      00FF6C85H   LINE      ECODE    ---       #424
      00FF6CBAH   LINE      ECODE    ---       #425
      00FF6CC0H   LINE      ECODE    ---       #426
      00FF6CC9H   LINE      ECODE    ---       #428
      ---         BLOCKEND  ---      ---       LVL=0

      00FF6CCCH   BLOCK     ECODE    ---       LVL=0
      WR12        REGSYM    ---      WORD      x
      WR14        REGSYM    ---      WORD      y
      00010878H   SYMBOL    XDATA    INT       dat
      00FF6CD8H   BLOCK     ECODE    NEAR LAB  LVL=1
      0001087AH   SYMBOL    XDATA    ---       a
      0001087FH   SYMBOL    XDATA    BYTE      i
      ---         BLOCKEND  ---      ---       LVL=1
      00FF6CCCH   LINE      ECODE    ---       #439
      00FF6CD8H   LINE      ECODE    ---       #440
      00FF6CD8H   LINE      ECODE    ---       #443
      00FF6CE4H   LINE      ECODE    ---       #445
      00FF6CF6H   LINE      ECODE    ---       #446
      00FF6D08H   LINE      ECODE    ---       #447
      00FF6D0AH   LINE      ECODE    ---       #448
      00FF6D1CH   LINE      ECODE    ---       #450
      00FF6D32H   LINE      ECODE    ---       #451
      00FF6D4CH   LINE      ECODE    ---       #452
      00FF6D62H   LINE      ECODE    ---       #453
      00FF6D76H   LINE      ECODE    ---       #454
      00FF6D84H   LINE      ECODE    ---       #456
      00FF6D89H   LINE      ECODE    ---       #457
      00FF6D89H   LINE      ECODE    ---       #459
      00FF6DBEH   LINE      ECODE    ---       #460
      00FF6DC4H   LINE      ECODE    ---       #461
      00FF6DCDH   LINE      ECODE    ---       #462
      ---         BLOCKEND  ---      ---       LVL=0

      00FF6DD0H   BLOCK     ECODE    ---       LVL=0
      WR12        REGSYM    ---      WORD      x
      WR14        REGSYM    ---      WORD      y
      WR2         REGSYM    ---      WORD      dat
      00FF6DD6H   BLOCK     ECODE    NEAR LAB  LVL=1
      ---         BLOCKEND  ---      ---       LVL=1
      00FF6DD0H   LINE      ECODE    ---       #473
      00FF6DD6H   LINE      ECODE    ---       #474
      00FF6DD6H   LINE      ECODE    ---       #478
      00FF6DE2H   LINE      ECODE    ---       #479
      00FF6DF6H   LINE      ECODE    ---       #480
      00FF6E06H   LINE      ECODE    ---       #481
      00FF6E12H   LINE      ECODE    ---       #482
      00FF6E1CH   LINE      ECODE    ---       #484
      00FF6E21H   LINE      ECODE    ---       #485
      00FF6E21H   LINE      ECODE    ---       #487
      00FF6E56H   LINE      ECODE    ---       #488
      00FF6E5CH   LINE      ECODE    ---       #489
      00FF6E65H   LINE      ECODE    ---       #490
      ---         BLOCKEND  ---      ---       LVL=0
L251 LINKER/LOCATER V4.66.93.0                                                        06/26/2023  14:53:20  PAGE 119



      00FF6E68H   BLOCK     ECODE    ---       LVL=0
      WR12        REGSYM    ---      WORD      y
      R15         REGSYM    ---      BYTE      num
      00FF6E7EH   BLOCK     ECODE    NEAR LAB  LVL=1
      R14         REGSYM    ---      BYTE      length
      ---         BLOCKEND  ---      ---       LVL=1
      00FF6E68H   LINE      ECODE    ---       #503
      00FF6E7EH   LINE      ECODE    ---       #504
      00FF6E7EH   LINE      ECODE    ---       #508
      00FF6E86H   LINE      ECODE    ---       #510
      00FF6E88H   LINE      ECODE    ---       #511
      00FF6EBAH   LINE      ECODE    ---       #514
      00FF6EC0H   LINE      ECODE    ---       #515
      00FF6EEAH   LINE      ECODE    ---       #516
      00FF6EECH   LINE      ECODE    ---       #517
      00FF6EECH   LINE      ECODE    ---       #518
      00FF6EF1H   LINE      ECODE    ---       #520
      00FF6F00H   LINE      ECODE    ---       #521
      00FF6F02H   LINE      ECODE    ---       #522
      00FF6F06H   LINE      ECODE    ---       #523
      00FF6F14H   LINE      ECODE    ---       #525
      00FF6F28H   LINE      ECODE    ---       #526
      ---         BLOCKEND  ---      ---       LVL=0

      00FF6F2BH   BLOCK     ECODE    ---       LVL=0
      DR12        REGSYM    ---      FLOAT     dat
      00FF6F3FH   BLOCK     ECODE    NEAR LAB  LVL=1
      R10         REGSYM    ---      CHAR      point
      ---         BLOCKEND  ---      ---       LVL=1
      00FF6F2BH   LINE      ECODE    ---       #544
      00FF6F3FH   LINE      ECODE    ---       #545
      00FF6F3FH   LINE      ECODE    ---       #550
      00FF6F4EH   LINE      ECODE    ---       #551
      00FF6F5DH   LINE      ECODE    ---       #553
      00FF6F8DH   LINE      ECODE    ---       #556
      00FF6FB1H   LINE      ECODE    ---       #557
      00FF6FB6H   LINE      ECODE    ---       #558
      00FF6FB6H   LINE      ECODE    ---       #559
      00FF6FC2H   LINE      ECODE    ---       #560
      00FF6FD4H   LINE      ECODE    ---       #561
      00FF6FE4H   LINE      ECODE    ---       #562
      00FF6FE9H   LINE      ECODE    ---       #564
      00FF6FFCH   LINE      ECODE    ---       #565
      00FF7002H   LINE      ECODE    ---       #566
      00FF7008H   LINE      ECODE    ---       #567
      00FF7011H   LINE      ECODE    ---       #569
      00FF7020H   LINE      ECODE    ---       #570
      00FF7036H   LINE      ECODE    ---       #572
      00FF704BH   LINE      ECODE    ---       #574
      00FF7063H   LINE      ECODE    ---       #575
      ---         BLOCKEND  ---      ---       LVL=0

      00FF7066H   BLOCK     ECODE    ---       LVL=0
      R7          REGSYM    ---      BYTE      dat
      00FF7066H   LINE      ECODE    ---       #594
      00FF7066H   LINE      ECODE    ---       #596
      00FF7068H   LINE      ECODE    ---       #597
      00FF706AH   LINE      ECODE    ---       #599
      00FF706EH   LINE      ECODE    ---       #600
      00FF7070H   LINE      ECODE    ---       #601
      ---         BLOCKEND  ---      ---       LVL=0

      00FF7071H   BLOCK     ECODE    ---       LVL=0
      R7          REGSYM    ---      BYTE      dat
L251 LINKER/LOCATER V4.66.93.0                                                        06/26/2023  14:53:20  PAGE 120


      00FF7071H   LINE      ECODE    ---       #610
      00FF7071H   LINE      ECODE    ---       #612
      00FF7073H   LINE      ECODE    ---       #613
      00FF7075H   LINE      ECODE    ---       #615
      00FF7079H   LINE      ECODE    ---       #616
      00FF707BH   LINE      ECODE    ---       #617
      ---         BLOCKEND  ---      ---       LVL=0

      00FF707CH   BLOCK     ECODE    ---       LVL=0
      WR8         REGSYM    ---      WORD      dat
      000108ECH   SYMBOL    XDATA    ---       dat1
      00FF707CH   LINE      ECODE    ---       #626
      00FF707CH   LINE      ECODE    ---       #627
      00FF707CH   LINE      ECODE    ---       #629
      00FF7082H   LINE      ECODE    ---       #630
      00FF7088H   LINE      ECODE    ---       #631
      00FF708AH   LINE      ECODE    ---       #632
      00FF708CH   LINE      ECODE    ---       #633
      00FF7094H   LINE      ECODE    ---       #634
      00FF709CH   LINE      ECODE    ---       #635
      00FF709EH   LINE      ECODE    ---       #636
      ---         BLOCKEND  ---      ---       LVL=0

      00FF709FH   BLOCK     ECODE    ---       LVL=0
      00FF709FH   LINE      ECODE    ---       #644
      00FF709FH   LINE      ECODE    ---       #646
      00FF70C2H   LINE      ECODE    ---       #648
      00FF70C4H   LINE      ECODE    ---       #649
      00FF70C6H   LINE      ECODE    ---       #650
      00FF70C8H   LINE      ECODE    ---       #652
      00FF70D0H   LINE      ECODE    ---       #654
      00FF70D2H   LINE      ECODE    ---       #655
      00FF70DAH   LINE      ECODE    ---       #657
      00FF70E0H   LINE      ECODE    ---       #666
      00FF70E6H   LINE      ECODE    ---       #669
      00FF70ECH   LINE      ECODE    ---       #670
      00FF70F2H   LINE      ECODE    ---       #672
      00FF70F8H   LINE      ECODE    ---       #673
      00FF70FEH   LINE      ECODE    ---       #674
      00FF7104H   LINE      ECODE    ---       #675
      00FF7109H   LINE      ECODE    ---       #676
      00FF710FH   LINE      ECODE    ---       #677
      00FF7115H   LINE      ECODE    ---       #679
      00FF711BH   LINE      ECODE    ---       #680
      00FF7121H   LINE      ECODE    ---       #682
      00FF7127H   LINE      ECODE    ---       #683
      00FF712DH   LINE      ECODE    ---       #685
      00FF7133H   LINE      ECODE    ---       #686
      00FF7139H   LINE      ECODE    ---       #688
      00FF713FH   LINE      ECODE    ---       #689
      00FF7145H   LINE      ECODE    ---       #691
      00FF714BH   LINE      ECODE    ---       #692
      00FF7151H   LINE      ECODE    ---       #694
      00FF7157H   LINE      ECODE    ---       #695
      00FF715DH   LINE      ECODE    ---       #697
      00FF7163H   LINE      ECODE    ---       #698
      00FF7169H   LINE      ECODE    ---       #700
      00FF716FH   LINE      ECODE    ---       #701
      00FF7175H   LINE      ECODE    ---       #702
      00FF717BH   LINE      ECODE    ---       #704
      00FF7181H   LINE      ECODE    ---       #705
      00FF7187H   LINE      ECODE    ---       #706
      00FF718DH   LINE      ECODE    ---       #707
      00FF7193H   LINE      ECODE    ---       #708
      00FF7199H   LINE      ECODE    ---       #709
L251 LINKER/LOCATER V4.66.93.0                                                        06/26/2023  14:53:20  PAGE 121


      00FF719FH   LINE      ECODE    ---       #710
      00FF71A5H   LINE      ECODE    ---       #711
      00FF71ABH   LINE      ECODE    ---       #712
      00FF71B1H   LINE      ECODE    ---       #713
      00FF71B7H   LINE      ECODE    ---       #714
      00FF71BDH   LINE      ECODE    ---       #715
      00FF71C3H   LINE      ECODE    ---       #716
      00FF71C9H   LINE      ECODE    ---       #717
      00FF71CFH   LINE      ECODE    ---       #718
      00FF71D5H   LINE      ECODE    ---       #720
      00FF71DBH   LINE      ECODE    ---       #721
      00FF71E1H   LINE      ECODE    ---       #722
      00FF71E7H   LINE      ECODE    ---       #723
      00FF71EDH   LINE      ECODE    ---       #724
      00FF71F3H   LINE      ECODE    ---       #725
      00FF71F9H   LINE      ECODE    ---       #726
      00FF71FFH   LINE      ECODE    ---       #727
      00FF7205H   LINE      ECODE    ---       #728
      00FF720BH   LINE      ECODE    ---       #729
      00FF7211H   LINE      ECODE    ---       #730
      00FF7217H   LINE      ECODE    ---       #731
      00FF721DH   LINE      ECODE    ---       #732
      00FF7223H   LINE      ECODE    ---       #733
      00FF7229H   LINE      ECODE    ---       #734
      00FF722FH   LINE      ECODE    ---       #736
      00FF7235H   LINE      ECODE    ---       #738
      00FF723BH   LINE      ECODE    ---       #739
      00FF7243H   LINE      ECODE    ---       #741
      00FF7249H   LINE      ECODE    ---       #742
      ---         BLOCKEND  ---      ---       LVL=0

      00FF724FH   BLOCK     ECODE    ---       LVL=0
      000108D4H   SYMBOL    XDATA    WORD      x1
      000108D6H   SYMBOL    XDATA    WORD      y1
      WR12        REGSYM    ---      WORD      x2
      WR14        REGSYM    ---      WORD      y2
      00FF724FH   LINE      ECODE    ---       #747
      00FF7261H   LINE      ECODE    ---       #781
      00FF7267H   LINE      ECODE    ---       #782
      00FF7275H   LINE      ECODE    ---       #783
      00FF727FH   LINE      ECODE    ---       #784
      00FF7285H   LINE      ECODE    ---       #785
      00FF7293H   LINE      ECODE    ---       #786
      00FF729DH   LINE      ECODE    ---       #787
      00FF72A3H   LINE      ECODE    ---       #790
      ---         BLOCKEND  ---      ---       LVL=0

      00FF72A6H   BLOCK     ECODE    ---       LVL=0
      WR14        REGSYM    ---      WORD      color
      00FF72ACH   BLOCK     ECODE    NEAR LAB  LVL=1
      R13         REGSYM    ---      BYTE      i
      ---         BLOCKEND  ---      ---       LVL=1
      00FF72A6H   LINE      ECODE    ---       #799
      00FF72ACH   LINE      ECODE    ---       #800
      00FF72ACH   LINE      ECODE    ---       #802
      00FF72BCH   LINE      ECODE    ---       #803
      00FF72BFH   LINE      ECODE    ---       #805
      00FF72C7H   LINE      ECODE    ---       #807
      00FF72CDH   LINE      ECODE    ---       #808
      00FF72E4H   LINE      ECODE    ---       #809
      00FF72E8H   LINE      ECODE    ---       #810
      ---         BLOCKEND  ---      ---       LVL=0

      00FF72EDH   BLOCK     ECODE    ---       LVL=0
      WR2         REGSYM    ---      WORD      x
L251 LINKER/LOCATER V4.66.93.0                                                        06/26/2023  14:53:20  PAGE 122


      WR0         REGSYM    ---      WORD      y
      WR14        REGSYM    ---      WORD      color
      00FF72EDH   LINE      ECODE    ---       #821
      00FF72F5H   LINE      ECODE    ---       #823
      00FF72F9H   LINE      ECODE    ---       #824
      00FF72FFH   LINE      ECODE    ---       #825
      ---         BLOCKEND  ---      ---       LVL=0

      00FF7302H   BLOCK     ECODE    ---       LVL=0
      WR12        REGSYM    ---      WORD      x
      WR14        REGSYM    ---      WORD      y
      000108D8H   SYMBOL    XDATA    CHAR      dat
      00FF730CH   BLOCK     ECODE    NEAR LAB  LVL=1
      000108D9H   SYMBOL    XDATA    BYTE      i
      000108DAH   SYMBOL    XDATA    BYTE      j
      000108DBH   SYMBOL    XDATA    BYTE      temp
      ---         BLOCKEND  ---      ---       LVL=1
      00FF7302H   LINE      ECODE    ---       #838
      00FF730CH   LINE      ECODE    ---       #839
      00FF730CH   LINE      ECODE    ---       #843
      00FF7311H   LINE      ECODE    ---       #845
      00FF7327H   LINE      ECODE    ---       #846
      00FF734CH   LINE      ECODE    ---       #847
      00FF7351H   LINE      ECODE    ---       #849
      00FF7358H   LINE      ECODE    ---       #851
      00FF735CH   LINE      ECODE    ---       #852
      00FF735EH   LINE      ECODE    ---       #853
      00FF7364H   LINE      ECODE    ---       #854
      00FF736BH   LINE      ECODE    ---       #855
      00FF7378H   LINE      ECODE    ---       #856
      00FF7387H   LINE      ECODE    ---       #857
      ---         BLOCKEND  ---      ---       LVL=0

      00FF738AH   BLOCK     ECODE    ---       LVL=0
      00010893H   SYMBOL    XDATA    WORD      x
      00010895H   SYMBOL    XDATA    WORD      y
      REG=3       REGSYM    ---      ---       dat
      00FF739AH   BLOCK     ECODE    NEAR LAB  LVL=1
      00010897H   SYMBOL    XDATA    WORD      j
      ---         BLOCKEND  ---      ---       LVL=1
      00FF738AH   LINE      ECODE    ---       #868
      00FF739AH   LINE      ECODE    ---       #869
      00FF739AH   LINE      ECODE    ---       #872
      00FF739FH   LINE      ECODE    ---       #873
      00FF73A1H   LINE      ECODE    ---       #875
      00FF73D0H   LINE      ECODE    ---       #876
      00FF73DBH   LINE      ECODE    ---       #877
      00FF73EAH   LINE      ECODE    ---       #878
      ---         BLOCKEND  ---      ---       LVL=0

      00FF73EDH   BLOCK     ECODE    ---       LVL=0
      WR12        REGSYM    ---      WORD      x
      WR14        REGSYM    ---      WORD      y
      00FF73F7H   BLOCK     ECODE    NEAR LAB  LVL=1
      ---         BLOCKEND  ---      ---       LVL=1
      00FF73EDH   LINE      ECODE    ---       #889
      00FF73F7H   LINE      ECODE    ---       #890
      00FF73F7H   LINE      ECODE    ---       #893
      00FF7400H   LINE      ECODE    ---       #895
      00FF7412H   LINE      ECODE    ---       #896
      00FF741DH   LINE      ECODE    ---       #897
      00FF741FH   LINE      ECODE    ---       #898
      00FF7431H   LINE      ECODE    ---       #900
      00FF7447H   LINE      ECODE    ---       #901
      00FF745FH   LINE      ECODE    ---       #902
L251 LINKER/LOCATER V4.66.93.0                                                        06/26/2023  14:53:20  PAGE 123


      00FF746DH   LINE      ECODE    ---       #903
      00FF7472H   LINE      ECODE    ---       #904
      00FF7472H   LINE      ECODE    ---       #906
      00FF74A3H   LINE      ECODE    ---       #907
      00FF74A9H   LINE      ECODE    ---       #908
      00FF74B2H   LINE      ECODE    ---       #909
      ---         BLOCKEND  ---      ---       LVL=0

      00FF74B5H   BLOCK     ECODE    ---       LVL=0
      WR12        REGSYM    ---      WORD      x
      WR14        REGSYM    ---      WORD      y
      R3          REGSYM    ---      BYTE      dat
      00FF74BDH   BLOCK     ECODE    NEAR LAB  LVL=1
      ---         BLOCKEND  ---      ---       LVL=1
      00FF74B5H   LINE      ECODE    ---       #920
      00FF74BDH   LINE      ECODE    ---       #921
      00FF74BDH   LINE      ECODE    ---       #925
      00FF74CBH   LINE      ECODE    ---       #926
      00FF74E1H   LINE      ECODE    ---       #927
      00FF74EFH   LINE      ECODE    ---       #928
      00FF74F4H   LINE      ECODE    ---       #929
      00FF74F4H   LINE      ECODE    ---       #931
      00FF7525H   LINE      ECODE    ---       #932
      00FF752BH   LINE      ECODE    ---       #933
      00FF7534H   LINE      ECODE    ---       #935
      ---         BLOCKEND  ---      ---       LVL=0

      00FF7537H   BLOCK     ECODE    ---       LVL=0
      WR12        REGSYM    ---      WORD      x
      WR14        REGSYM    ---      WORD      y
      00FF7543H   BLOCK     ECODE    NEAR LAB  LVL=1
      ---         BLOCKEND  ---      ---       LVL=1
      00FF7537H   LINE      ECODE    ---       #946
      00FF7543H   LINE      ECODE    ---       #947
      00FF7543H   LINE      ECODE    ---       #950
      00FF754FH   LINE      ECODE    ---       #952
      00FF7561H   LINE      ECODE    ---       #953
      00FF7573H   LINE      ECODE    ---       #954
      00FF7575H   LINE      ECODE    ---       #955
      00FF7587H   LINE      ECODE    ---       #957
      00FF759DH   LINE      ECODE    ---       #958
      00FF75B7H   LINE      ECODE    ---       #959
      00FF75CDH   LINE      ECODE    ---       #960
      00FF75E1H   LINE      ECODE    ---       #961
      00FF75EFH   LINE      ECODE    ---       #963
      00FF75F4H   LINE      ECODE    ---       #964
      00FF75F4H   LINE      ECODE    ---       #966
      00FF7625H   LINE      ECODE    ---       #967
      00FF762BH   LINE      ECODE    ---       #968
      00FF7634H   LINE      ECODE    ---       #969
      ---         BLOCKEND  ---      ---       LVL=0

      00FF7637H   BLOCK     ECODE    ---       LVL=0
      WR12        REGSYM    ---      WORD      x
      WR14        REGSYM    ---      WORD      y
      WR2         REGSYM    ---      WORD      dat
      00FF763DH   BLOCK     ECODE    NEAR LAB  LVL=1
      ---         BLOCKEND  ---      ---       LVL=1
      00FF7637H   LINE      ECODE    ---       #980
      00FF763DH   LINE      ECODE    ---       #981
      00FF763DH   LINE      ECODE    ---       #985
      00FF7649H   LINE      ECODE    ---       #986
      00FF765DH   LINE      ECODE    ---       #987
      00FF766DH   LINE      ECODE    ---       #988
      00FF7679H   LINE      ECODE    ---       #989
L251 LINKER/LOCATER V4.66.93.0                                                        06/26/2023  14:53:20  PAGE 124


      00FF7683H   LINE      ECODE    ---       #991
      00FF7688H   LINE      ECODE    ---       #992
      00FF7688H   LINE      ECODE    ---       #994
      00FF76BDH   LINE      ECODE    ---       #995
      00FF76C3H   LINE      ECODE    ---       #996
      00FF76CCH   LINE      ECODE    ---       #997
      ---         BLOCKEND  ---      ---       LVL=0

      00FF76CFH   BLOCK     ECODE    ---       LVL=0
      WR12        REGSYM    ---      WORD      y
      R15         REGSYM    ---      BYTE      num
      00FF76E5H   BLOCK     ECODE    NEAR LAB  LVL=1
      R14         REGSYM    ---      BYTE      length
      ---         BLOCKEND  ---      ---       LVL=1
      00FF76CFH   LINE      ECODE    ---       #1010
      00FF76E5H   LINE      ECODE    ---       #1011
      00FF76E5H   LINE      ECODE    ---       #1015
      00FF76EDH   LINE      ECODE    ---       #1017
      00FF76EFH   LINE      ECODE    ---       #1018
      00FF7721H   LINE      ECODE    ---       #1021
      00FF7727H   LINE      ECODE    ---       #1022
      00FF7751H   LINE      ECODE    ---       #1023
      00FF7753H   LINE      ECODE    ---       #1024
      00FF7753H   LINE      ECODE    ---       #1025
      00FF7758H   LINE      ECODE    ---       #1027
      00FF7767H   LINE      ECODE    ---       #1028
      00FF7769H   LINE      ECODE    ---       #1029
      00FF776DH   LINE      ECODE    ---       #1030
      00FF777BH   LINE      ECODE    ---       #1032
      00FF778FH   LINE      ECODE    ---       #1033
      ---         BLOCKEND  ---      ---       LVL=0

      00FF7792H   BLOCK     ECODE    ---       LVL=0
      DR12        REGSYM    ---      FLOAT     dat
      00FF77A6H   BLOCK     ECODE    NEAR LAB  LVL=1
      R10         REGSYM    ---      CHAR      point
      ---         BLOCKEND  ---      ---       LVL=1
      00FF7792H   LINE      ECODE    ---       #1051
      00FF77A6H   LINE      ECODE    ---       #1052
      00FF77A6H   LINE      ECODE    ---       #1057
      00FF77B5H   LINE      ECODE    ---       #1058
      00FF77C4H   LINE      ECODE    ---       #1060
      00FF77F4H   LINE      ECODE    ---       #1063
      00FF7818H   LINE      ECODE    ---       #1064
      00FF781DH   LINE      ECODE    ---       #1065
      00FF781DH   LINE      ECODE    ---       #1066
      00FF7829H   LINE      ECODE    ---       #1067
      00FF783BH   LINE      ECODE    ---       #1068
      00FF784BH   LINE      ECODE    ---       #1069
      00FF7850H   LINE      ECODE    ---       #1071
      00FF7863H   LINE      ECODE    ---       #1072
      00FF7869H   LINE      ECODE    ---       #1073
      00FF786FH   LINE      ECODE    ---       #1074
      00FF7878H   LINE      ECODE    ---       #1076
      00FF7887H   LINE      ECODE    ---       #1077
      00FF789DH   LINE      ECODE    ---       #1079
      00FF78B2H   LINE      ECODE    ---       #1081
      00FF78CAH   LINE      ECODE    ---       #1082
      ---         BLOCKEND  ---      ---       LVL=0

      ---         MODULE    ---      ---       SEEKFREE_MPU6050
      00FFCE94H   PUBLIC    ECODE    ---       mpu6050_simiic_read_regs?
      00FFCE6BH   PUBLIC    ECODE    ---       mpu6050_simiic_read_reg?
      00FFCF1EH   PUBLIC    ECODE    ---       mpu6050_init?
      00FFCFCEH   PUBLIC    ECODE    ---       mpu6050_get_gyro?
L251 LINKER/LOCATER V4.66.93.0                                                        06/26/2023  14:53:20  PAGE 125


      00FFCF7BH   PUBLIC    ECODE    ---       mpu6050_get_accdata?
      00010862H   PUBLIC    XDATA    INT       mpu6050_acc_x
      00010864H   PUBLIC    XDATA    INT       mpu6050_acc_y
      00010866H   PUBLIC    XDATA    INT       mpu6050_acc_z
      00010868H   PUBLIC    XDATA    INT       mpu6050_gyro_x
      0001086AH   PUBLIC    XDATA    INT       mpu6050_gyro_y
      0001086CH   PUBLIC    XDATA    INT       mpu6050_gyro_z
      000000D0H   SFRSYM    DATA     BYTE      PSW
      0000009DH   SFRSYM    DATA     BYTE      IRCBAND
      00000097H   SFRSYM    DATA     BYTE      AUXR2
      000000EFH   SFRSYM    DATA     BYTE      AUXINTIF
      000000FDH   SFRSYM    DATA     BYTE      S4CON
      000000ACH   SFRSYM    DATA     BYTE      S3CON
      0000009AH   SFRSYM    DATA     BYTE      S2CON
      000000B7H   SFRSYM    DATA     BYTE      IPH
      000000CDH   SFRSYM    DATA     BYTE      SPSTAT
      000000DDH   SFRSYM    DATA     BYTE      T4T3M
      000000C1H   SFRSYM    DATA     BYTE      WDT_CONTR
      000000DFH   SFRSYM    DATA     BYTE      IP3
      000000F4H   SFRSYM    DATA     BYTE      USBCON
      000000B5H   SFRSYM    DATA     BYTE      IP2
      000000FFH   SFRSYM    DATA     BYTE      RSTCFG
      000000F9H   SFRSYM    DATA     BYTE      LINICR
      0000008EH   SFRSYM    DATA     BYTE      AUXR
      000000AFH   SFRSYM    DATA     BYTE      IE2
      00000088H   SFRSYM    DATA     BYTE      TCON
      000000C0H.1 SFRSYM    DATA     BIT       P41
      00000098H   SFRSYM    DATA     BYTE      SCON
      000000C0H.0 SFRSYM    DATA     BIT       P40
      000000F1H   SFRSYM    DATA     BYTE      CANICR
      00000087H   SFRSYM    DATA     BYTE      PCON
      000000BCH   SFRSYM    DATA     BYTE      ADC_CONTR
      000000E7H   SFRSYM    DATA     BYTE      CMPCR2
      000000E6H   SFRSYM    DATA     BYTE      CMPCR1
      000000B8H   SFRSYM    DATA     BYTE      IP
      0000008FH   SFRSYM    DATA     BYTE      INTCLKO
      000000EEH   SFRSYM    DATA     BYTE      IP3H
      000000B6H   SFRSYM    DATA     BYTE      IP2H
      000000A8H   SFRSYM    DATA     BYTE      IE
      000000BBH   SFRSYM    DATA     BYTE      P_SW3
      000000BAH   SFRSYM    DATA     BYTE      P_SW2
      000000A2H   SFRSYM    DATA     BYTE      P_SW1
      000000CEH   SFRSYM    DATA     BYTE      SPCTL
      000000F8H   SFRSYM    DATA     BYTE      P7
      000000E8H   SFRSYM    DATA     BYTE      P6
      000000C8H   SFRSYM    DATA     BYTE      P5
      000000C0H   SFRSYM    DATA     BYTE      P4
      000000B0H   SFRSYM    DATA     BYTE      P3
      000000A0H   SFRSYM    DATA     BYTE      P2
      00000090H   SFRSYM    DATA     BYTE      P1
      00000080H   SFRSYM    DATA     BYTE      P0
      00FFCD84H   SYMBOL    ECODE    ---       mpu6050_simiic_start
      00FFCD93H   SYMBOL    ECODE    ---       mpu6050_simiic_stop
      00FFCE49H   SYMBOL    ECODE    ---       mpu6050_simiic_write_reg
      00FFCEEAH   SYMBOL    ECODE    ---       mpu6050_self1_check
      00FFCDA4H   SYMBOL    ECODE    ---       mpu6050_simiic_sendack
      00FFCE0EH   SYMBOL    ECODE    ---       mpu6050_read_ch
      00FFCDE0H   SYMBOL    ECODE    ---       mpu6050_send_ch
      00FFCDC4H   SYMBOL    ECODE    ---       mpu6050_sccb_waitack
      00FFCD79H   SYMBOL    ECODE    ---       mpu6050_simiic_delay

      00FFCD79H   BLOCK     ECODE    ---       LVL=0
      WR6         REGSYM    ---      WORD      j
      00FFCD79H   LINE      ECODE    ---       #52
      00FFCD79H   LINE      ECODE    ---       #53
L251 LINKER/LOCATER V4.66.93.0                                                        06/26/2023  14:53:20  PAGE 126


      00FFCD79H   LINE      ECODE    ---       #54
      00FFCD7BH   LINE      ECODE    ---       #55
      00FFCD83H   LINE      ECODE    ---       #56
      ---         BLOCKEND  ---      ---       LVL=0

      00FFCD84H   BLOCK     ECODE    ---       LVL=0
      00FFCD84H   LINE      ECODE    ---       #59
      00FFCD84H   LINE      ECODE    ---       #61
      00FFCD86H   LINE      ECODE    ---       #62
      00FFCD88H   LINE      ECODE    ---       #63
      00FFCD8BH   LINE      ECODE    ---       #64
      00FFCD8DH   LINE      ECODE    ---       #65
      00FFCD90H   LINE      ECODE    ---       #66
      00FFCD92H   LINE      ECODE    ---       #67
      ---         BLOCKEND  ---      ---       LVL=0

      00FFCD93H   BLOCK     ECODE    ---       LVL=0
      00FFCD93H   LINE      ECODE    ---       #70
      00FFCD93H   LINE      ECODE    ---       #72
      00FFCD95H   LINE      ECODE    ---       #73
      00FFCD97H   LINE      ECODE    ---       #74
      00FFCD9AH   LINE      ECODE    ---       #75
      00FFCD9CH   LINE      ECODE    ---       #76
      00FFCD9FH   LINE      ECODE    ---       #77
      00FFCDA1H   LINE      ECODE    ---       #78
      ---         BLOCKEND  ---      ---       LVL=0

      00FFCDA4H   BLOCK     ECODE    ---       LVL=0
      R15         REGSYM    ---      BYTE      ack_dat
      00FFCDA4H   LINE      ECODE    ---       #83
      00FFCDA8H   LINE      ECODE    ---       #85
      00FFCDAAH   LINE      ECODE    ---       #86
      00FFCDADH   LINE      ECODE    ---       #87
      00FFCDB5H   LINE      ECODE    ---       #88
      00FFCDB7H   LINE      ECODE    ---       #90
      00FFCDB9H   LINE      ECODE    ---       #91
      00FFCDBCH   LINE      ECODE    ---       #92
      00FFCDBEH   LINE      ECODE    ---       #93
      00FFCDC1H   LINE      ECODE    ---       #94
      ---         BLOCKEND  ---      ---       LVL=0

      00FFCDC4H   BLOCK     ECODE    ---       LVL=0
      00FFCDC4H   LINE      ECODE    ---       #97
      00FFCDC4H   LINE      ECODE    ---       #99
      00FFCDC6H   LINE      ECODE    ---       #101
      00FFCDC9H   LINE      ECODE    ---       #103
      00FFCDCBH   LINE      ECODE    ---       #104
      00FFCDCEH   LINE      ECODE    ---       #106
      00FFCDD1H   LINE      ECODE    ---       #109
      00FFCDD3H   LINE      ECODE    ---       #110
      00FFCDD6H   LINE      ECODE    ---       #111
      00FFCDD6H   LINE      ECODE    ---       #113
      00FFCDD8H   LINE      ECODE    ---       #114
      00FFCDDBH   LINE      ECODE    ---       #115
      00FFCDDFH   LINE      ECODE    ---       #116
      ---         BLOCKEND  ---      ---       LVL=0

      00FFCDE0H   BLOCK     ECODE    ---       LVL=0
      R15         REGSYM    ---      BYTE      c
      00FFCDE4H   BLOCK     ECODE    NEAR LAB  LVL=1
      R14         REGSYM    ---      BYTE      i
      ---         BLOCKEND  ---      ---       LVL=1
      00FFCDE0H   LINE      ECODE    ---       #122
      00FFCDE4H   LINE      ECODE    ---       #123
      00FFCDE4H   LINE      ECODE    ---       #124
L251 LINKER/LOCATER V4.66.93.0                                                        06/26/2023  14:53:20  PAGE 127


      00FFCDE7H   LINE      ECODE    ---       #125
      00FFCDE9H   LINE      ECODE    ---       #127
      00FFCDF2H   LINE      ECODE    ---       #128
      00FFCDF4H   LINE      ECODE    ---       #129
      00FFCDF6H   LINE      ECODE    ---       #130
      00FFCDF9H   LINE      ECODE    ---       #131
      00FFCDFBH   LINE      ECODE    ---       #132
      00FFCDFEH   LINE      ECODE    ---       #133
      00FFCE00H   LINE      ECODE    ---       #134
      00FFCE08H   LINE      ECODE    ---       #135
      00FFCE0BH   LINE      ECODE    ---       #136
      ---         BLOCKEND  ---      ---       LVL=0

      00FFCE0EH   BLOCK     ECODE    ---       LVL=0
      R15         REGSYM    ---      BYTE      ack_x
      00FFCE14H   BLOCK     ECODE    NEAR LAB  LVL=1
      R13         REGSYM    ---      BYTE      i
      R14         REGSYM    ---      BYTE      c
      ---         BLOCKEND  ---      ---       LVL=1
      00FFCE0EH   LINE      ECODE    ---       #142
      00FFCE14H   LINE      ECODE    ---       #143
      00FFCE14H   LINE      ECODE    ---       #146
      00FFCE16H   LINE      ECODE    ---       #147
      00FFCE18H   LINE      ECODE    ---       #148
      00FFCE1BH   LINE      ECODE    ---       #149
      00FFCE1DH   LINE      ECODE    ---       #151
      00FFCE20H   LINE      ECODE    ---       #153
      00FFCE23H   LINE      ECODE    ---       #154
      00FFCE25H   LINE      ECODE    ---       #155
      00FFCE28H   LINE      ECODE    ---       #156
      00FFCE2AH   LINE      ECODE    ---       #157
      00FFCE2DH   LINE      ECODE    ---       #158
      00FFCE2FH   LINE      ECODE    ---       #159
      00FFCE32H   LINE      ECODE    ---       #161
      00FFCE34H   LINE      ECODE    ---       #162
      00FFCE38H   LINE      ECODE    ---       #165
      00FFCE3AH   LINE      ECODE    ---       #166
      00FFCE3DH   LINE      ECODE    ---       #167
      00FFCE42H   LINE      ECODE    ---       #169
      00FFCE44H   LINE      ECODE    ---       #170
      ---         BLOCKEND  ---      ---       LVL=0

      00FFCE49H   BLOCK     ECODE    ---       LVL=0
      R13         REGSYM    ---      BYTE      dev_add
      R14         REGSYM    ---      BYTE      reg
      R15         REGSYM    ---      BYTE      dat
      00FFCE49H   LINE      ECODE    ---       #182
      00FFCE51H   LINE      ECODE    ---       #184
      00FFCE54H   LINE      ECODE    ---       #185
      00FFCE59H   LINE      ECODE    ---       #186
      00FFCE5EH   LINE      ECODE    ---       #187
      00FFCE63H   LINE      ECODE    ---       #188
      00FFCE66H   LINE      ECODE    ---       #189
      ---         BLOCKEND  ---      ---       LVL=0

      00FFCE6BH   BLOCK     ECODE    ---       LVL=0
      R15         REGSYM    ---      BYTE      dev_add
      R14         REGSYM    ---      BYTE      reg
      00FFCE71H   BLOCK     ECODE    NEAR LAB  LVL=1
      R15         REGSYM    ---      BYTE      dat
      ---         BLOCKEND  ---      ---       LVL=1
      00FFCE6BH   LINE      ECODE    ---       #200
      00FFCE71H   LINE      ECODE    ---       #201
      00FFCE71H   LINE      ECODE    ---       #203
      00FFCE74H   LINE      ECODE    ---       #204
L251 LINKER/LOCATER V4.66.93.0                                                        06/26/2023  14:53:20  PAGE 128


      00FFCE79H   LINE      ECODE    ---       #205
      00FFCE7EH   LINE      ECODE    ---       #208
      00FFCE81H   LINE      ECODE    ---       #209
      00FFCE8AH   LINE      ECODE    ---       #210
      00FFCE8EH   LINE      ECODE    ---       #211
      00FFCE91H   LINE      ECODE    ---       #213
      00FFCE91H   LINE      ECODE    ---       #214
      ---         BLOCKEND  ---      ---       LVL=0

      00FFCE94H   BLOCK     ECODE    ---       LVL=0
      000108E3H   SYMBOL    XDATA    BYTE      dev_add
      000108E4H   SYMBOL    XDATA    BYTE      reg
      REG=3       REGSYM    ---      ---       dat_add
      000108E5H   SYMBOL    XDATA    BYTE      num
      00FFCE94H   LINE      ECODE    ---       #227
      00FFCEA8H   LINE      ECODE    ---       #229
      00FFCEABH   LINE      ECODE    ---       #230
      00FFCEB4H   LINE      ECODE    ---       #231
      00FFCEBBH   LINE      ECODE    ---       #234
      00FFCEBEH   LINE      ECODE    ---       #235
      00FFCEC9H   LINE      ECODE    ---       #236
      00FFCECBH   LINE      ECODE    ---       #238
      00FFCED3H   LINE      ECODE    ---       #239
      00FFCED5H   LINE      ECODE    ---       #240
      00FFCEDDH   LINE      ECODE    ---       #241
      00FFCEE4H   LINE      ECODE    ---       #242
      00FFCEE7H   LINE      ECODE    ---       #243
      ---         BLOCKEND  ---      ---       LVL=0

      00FFCEEAH   BLOCK     ECODE    ---       LVL=0
      00FFCEEAH   LINE      ECODE    ---       #252
      00FFCEEAH   LINE      ECODE    ---       #254
      00FFCEF4H   LINE      ECODE    ---       #255
      00FFCEFFH   LINE      ECODE    ---       #256
      00FFCF0DH   LINE      ECODE    ---       #258
      00FFCF19H   LINE      ECODE    ---       #259
      00FFCF1CH   LINE      ECODE    ---       #265
      00FFCF1CH   LINE      ECODE    ---       #267
      00FFCF1DH   LINE      ECODE    ---       #269
      ---         BLOCKEND  ---      ---       LVL=0

      00FFCF1EH   BLOCK     ECODE    ---       LVL=0
      00FFCF1EH   LINE      ECODE    ---       #279
      00FFCF1EH   LINE      ECODE    ---       #281
      00FFCF26H   LINE      ECODE    ---       #283
      00FFCF2BH   LINE      ECODE    ---       #285
      00FFCF2EH   LINE      ECODE    ---       #286
      00FFCF2EH   LINE      ECODE    ---       #287
      00FFCF38H   LINE      ECODE    ---       #288
      00FFCF43H   LINE      ECODE    ---       #289
      00FFCF4EH   LINE      ECODE    ---       #290
      00FFCF59H   LINE      ECODE    ---       #291
      00FFCF64H   LINE      ECODE    ---       #292
      00FFCF6EH   LINE      ECODE    ---       #293
      00FFCF79H   LINE      ECODE    ---       #294
      00FFCF7AH   LINE      ECODE    ---       #295
      ---         BLOCKEND  ---      ---       LVL=0

      00FFCF7BH   BLOCK     ECODE    ---       LVL=0
      00FFCF7BH   LINE      ECODE    ---       #306
      00FFCF7BH   LINE      ECODE    ---       #307
      00FFCF7BH   LINE      ECODE    ---       #310
      00FFCF8FH   LINE      ECODE    ---       #311
      00FFCFA5H   LINE      ECODE    ---       #312
      00FFCFB9H   LINE      ECODE    ---       #313
L251 LINKER/LOCATER V4.66.93.0                                                        06/26/2023  14:53:20  PAGE 129


      00FFCFCDH   LINE      ECODE    ---       #314
      ---         BLOCKEND  ---      ---       LVL=0

      00FFCFCEH   BLOCK     ECODE    ---       LVL=0
      00FFCFCEH   LINE      ECODE    ---       #324
      00FFCFCEH   LINE      ECODE    ---       #325
      00FFCFCEH   LINE      ECODE    ---       #328
      00FFCFE2H   LINE      ECODE    ---       #329
      00FFCFF8H   LINE      ECODE    ---       #330
      00FFD00CH   LINE      ECODE    ---       #331
      00FFD020H   LINE      ECODE    ---       #332
      ---         BLOCKEND  ---      ---       LVL=0

      ---         MODULE    ---      ---       SEEKFREE_OLED
      00FF3096H   PUBLIC    ECODE    ---       oled_putpixel?
      00FF398CH   PUBLIC    ECODE    ---       oled_hexascii_spi?
      00FF3039H   PUBLIC    ECODE    ---       oled_set_pos?
      00FF3F72H   PUBLIC    ECODE    ---       oled_dis_bmp_spi?
      00FF33D9H   PUBLIC    ECODE    ---       oled_printf_float?
      00FF3C08H   PUBLIC    ECODE    ---       oled_p8x16str_spi?
      00FF3B2EH   PUBLIC    ECODE    ---       oled_clrpixel_spi?
      00FF2F20H   PUBLIC    ECODE    ---       oled_wrcmd?
      00FF42F4H   PUBLIC    ECODE    ---       oled_print_chinese_spi?
      00FF2EF7H   PUBLIC    ECODE    ---       oled_wrdat?
      00FF305FH   PUBLIC    ECODE    ---       oled_fill?
      00FF3316H   PUBLIC    ECODE    ---       oled_printf_int32?
      00FF3299H   PUBLIC    ECODE    ---       oled_uint16?
      00FF3AF8H   PUBLIC    ECODE    ---       oled_putpixel_spi?
      00FF3A9DH   PUBLIC    ECODE    ---       oled_set_pos_spi?
      00FF30FFH   PUBLIC    ECODE    ---       oled_p6x8str?
      00FF32C0H   PUBLIC    ECODE    ---       oled_int16?
      00FF2F77H   PUBLIC    ECODE    ---       oled_init?
      00FF3E37H   PUBLIC    ECODE    ---       oled_printf_float_spi?
      00FF3981H   PUBLIC    ECODE    ---       oled_wrcmd_spi?
      00FF3976H   PUBLIC    ECODE    ---       oled_wrdat_spi?
      00FF2F49H   PUBLIC    ECODE    ---       oled_hexascii?
      00FF3AC1H   PUBLIC    ECODE    ---       oled_fill_spi?
      00FF3D74H   PUBLIC    ECODE    ---       oled_printf_int32_spi?
      00FF3CF7H   PUBLIC    ECODE    ---       oled_uint16_spi?
      00FF3B5DH   PUBLIC    ECODE    ---       oled_p6x8str_spi?
      00FF3D1EH   PUBLIC    ECODE    ---       oled_int16_spi?
      00FF3514H   PUBLIC    ECODE    ---       oled_dis_bmp?
      00FF39BAH   PUBLIC    ECODE    ---       oled_init_spi?
      00FF31AAH   PUBLIC    ECODE    ---       oled_p8x16str?
      00FF30CEH   PUBLIC    ECODE    ---       oled_clrpixel?
      00FF38B9H   PUBLIC    ECODE    ---       oled_print_chinese?
      000000D0H   SFRSYM    DATA     BYTE      PSW
      0000009DH   SFRSYM    DATA     BYTE      IRCBAND
      00000097H   SFRSYM    DATA     BYTE      AUXR2
      000000EFH   SFRSYM    DATA     BYTE      AUXINTIF
      000000FDH   SFRSYM    DATA     BYTE      S4CON
      000000ACH   SFRSYM    DATA     BYTE      S3CON
      0000009AH   SFRSYM    DATA     BYTE      S2CON
      000000B7H   SFRSYM    DATA     BYTE      IPH
      000000CDH   SFRSYM    DATA     BYTE      SPSTAT
      000000DDH   SFRSYM    DATA     BYTE      T4T3M
      000000C1H   SFRSYM    DATA     BYTE      WDT_CONTR
      000000DFH   SFRSYM    DATA     BYTE      IP3
      000000F4H   SFRSYM    DATA     BYTE      USBCON
      000000B5H   SFRSYM    DATA     BYTE      IP2
      000000FFH   SFRSYM    DATA     BYTE      RSTCFG
      000000F9H   SFRSYM    DATA     BYTE      LINICR
      0000008EH   SFRSYM    DATA     BYTE      AUXR
      000000AFH   SFRSYM    DATA     BYTE      IE2
      000000A0H.5 SFRSYM    DATA     BIT       P25
L251 LINKER/LOCATER V4.66.93.0                                                        06/26/2023  14:53:20  PAGE 130


      00000088H   SFRSYM    DATA     BYTE      TCON
      000000A0H.3 SFRSYM    DATA     BIT       P23
      00000098H   SFRSYM    DATA     BYTE      SCON
      000000A0H.2 SFRSYM    DATA     BIT       P22
      000000A0H.1 SFRSYM    DATA     BIT       P21
      000000A0H.0 SFRSYM    DATA     BIT       P20
      000000F1H   SFRSYM    DATA     BYTE      CANICR
      00000087H   SFRSYM    DATA     BYTE      PCON
      000000BCH   SFRSYM    DATA     BYTE      ADC_CONTR
      000000E7H   SFRSYM    DATA     BYTE      CMPCR2
      000000E6H   SFRSYM    DATA     BYTE      CMPCR1
      000000B8H   SFRSYM    DATA     BYTE      IP
      0000008FH   SFRSYM    DATA     BYTE      INTCLKO
      000000EEH   SFRSYM    DATA     BYTE      IP3H
      000000B6H   SFRSYM    DATA     BYTE      IP2H
      000000A8H   SFRSYM    DATA     BYTE      IE
      000000BBH   SFRSYM    DATA     BYTE      P_SW3
      000000BAH   SFRSYM    DATA     BYTE      P_SW2
      000000A2H   SFRSYM    DATA     BYTE      P_SW1
      000000CEH   SFRSYM    DATA     BYTE      SPCTL
      000000F8H   SFRSYM    DATA     BYTE      P7
      000000E8H   SFRSYM    DATA     BYTE      P6
      000000C8H   SFRSYM    DATA     BYTE      P5
      000000C0H   SFRSYM    DATA     BYTE      P4
      000000B0H   SFRSYM    DATA     BYTE      P3
      000000A0H   SFRSYM    DATA     BYTE      P2
      00000090H   SFRSYM    DATA     BYTE      P1
      00000080H   SFRSYM    DATA     BYTE      P0

      00FF2EF7H   BLOCK     ECODE    ---       LVL=0
      R7          REGSYM    ---      BYTE      dat
      00FF2EF9H   BLOCK     ECODE    NEAR LAB  LVL=1
      R6          REGSYM    ---      BYTE      i
      ---         BLOCKEND  ---      ---       LVL=1
      00FF2EF7H   LINE      ECODE    ---       #47
      00FF2EF9H   LINE      ECODE    ---       #48
      00FF2EF9H   LINE      ECODE    ---       #49
      00FF2EFCH   LINE      ECODE    ---       #51
      00FF2EFEH   LINE      ECODE    ---       #52
      00FF2F00H   LINE      ECODE    ---       #53
      00FF2F02H   LINE      ECODE    ---       #54
      00FF2F04H   LINE      ECODE    ---       #56
      00FF2F0DH   LINE      ECODE    ---       #57
      00FF2F0FH   LINE      ECODE    ---       #58
      00FF2F11H   LINE      ECODE    ---       #60
      00FF2F13H   LINE      ECODE    ---       #61
      00FF2F15H   LINE      ECODE    ---       #62
      00FF2F1DH   LINE      ECODE    ---       #63
      00FF2F1FH   LINE      ECODE    ---       #64
      ---         BLOCKEND  ---      ---       LVL=0

      00FF2F20H   BLOCK     ECODE    ---       LVL=0
      R7          REGSYM    ---      BYTE      cmd
      00FF2F22H   BLOCK     ECODE    NEAR LAB  LVL=1
      R6          REGSYM    ---      BYTE      i
      ---         BLOCKEND  ---      ---       LVL=1
      00FF2F20H   LINE      ECODE    ---       #98
      00FF2F22H   LINE      ECODE    ---       #99
      00FF2F22H   LINE      ECODE    ---       #100
      00FF2F25H   LINE      ECODE    ---       #102
      00FF2F27H   LINE      ECODE    ---       #103
      00FF2F29H   LINE      ECODE    ---       #104
      00FF2F2BH   LINE      ECODE    ---       #106
      00FF2F2DH   LINE      ECODE    ---       #108
      00FF2F36H   LINE      ECODE    ---       #109
L251 LINKER/LOCATER V4.66.93.0                                                        06/26/2023  14:53:20  PAGE 131


      00FF2F38H   LINE      ECODE    ---       #110
      00FF2F3AH   LINE      ECODE    ---       #112
      00FF2F3CH   LINE      ECODE    ---       #113
      00FF2F3EH   LINE      ECODE    ---       #114
      00FF2F46H   LINE      ECODE    ---       #115
      00FF2F48H   LINE      ECODE    ---       #116
      ---         BLOCKEND  ---      ---       LVL=0

      00FF2F49H   BLOCK     ECODE    ---       LVL=0
      WR0         REGSYM    ---      WORD      hex
      REG=7       REGSYM    ---      ---       Print
      00FF2F4DH   BLOCK     ECODE    NEAR LAB  LVL=1
      R5          REGSYM    ---      BYTE      hexcheck
      R10         REGSYM    ---      BYTE      TEMP
      ---         BLOCKEND  ---      ---       LVL=1
      00FF2F49H   LINE      ECODE    ---       #125
      00FF2F4DH   LINE      ECODE    ---       #126
      00FF2F4DH   LINE      ECODE    ---       #129
      00FF2F50H   LINE      ECODE    ---       #130
      00FF2F55H   LINE      ECODE    ---       #131
      00FF2F55H   LINE      ECODE    ---       #133
      00FF2F57H   LINE      ECODE    ---       #134
      00FF2F5FH   LINE      ECODE    ---       #135
      00FF2F63H   LINE      ECODE    ---       #136
      00FF2F72H   LINE      ECODE    ---       #137
      00FF2F76H   LINE      ECODE    ---       #139
      ---         BLOCKEND  ---      ---       LVL=0

      00FF2F77H   BLOCK     ECODE    ---       LVL=0
      00FF2F77H   LINE      ECODE    ---       #148
      00FF2F77H   LINE      ECODE    ---       #151
      00FF2F79H   LINE      ECODE    ---       #152
      00FF2F7BH   LINE      ECODE    ---       #154
      00FF2F7DH   LINE      ECODE    ---       #155
      00FF2F85H   LINE      ECODE    ---       #156
      00FF2F87H   LINE      ECODE    ---       #158
      00FF2F8DH   LINE      ECODE    ---       #159
      00FF2F92H   LINE      ECODE    ---       #160
      00FF2F98H   LINE      ECODE    ---       #161
      00FF2F9EH   LINE      ECODE    ---       #162
      00FF2FA4H   LINE      ECODE    ---       #163
      00FF2FAAH   LINE      ECODE    ---       #166
      00FF2FB0H   LINE      ECODE    ---       #167
      00FF2FB6H   LINE      ECODE    ---       #173
      00FF2FBCH   LINE      ECODE    ---       #174
      00FF2FC2H   LINE      ECODE    ---       #175
      00FF2FC8H   LINE      ECODE    ---       #176
      00FF2FCEH   LINE      ECODE    ---       #177
      00FF2FD3H   LINE      ECODE    ---       #178
      00FF2FD9H   LINE      ECODE    ---       #179
      00FF2FDFH   LINE      ECODE    ---       #180
      00FF2FE5H   LINE      ECODE    ---       #181
      00FF2FEBH   LINE      ECODE    ---       #182
      00FF2FF1H   LINE      ECODE    ---       #183
      00FF2FF7H   LINE      ECODE    ---       #184
      00FF2FFDH   LINE      ECODE    ---       #185
      00FF3003H   LINE      ECODE    ---       #186
      00FF3009H   LINE      ECODE    ---       #187
      00FF300FH   LINE      ECODE    ---       #188
      00FF3015H   LINE      ECODE    ---       #189
      00FF301BH   LINE      ECODE    ---       #190
      00FF3021H   LINE      ECODE    ---       #191
      00FF3027H   LINE      ECODE    ---       #192
      00FF302DH   LINE      ECODE    ---       #193
      00FF3032H   LINE      ECODE    ---       #194
L251 LINKER/LOCATER V4.66.93.0                                                        06/26/2023  14:53:20  PAGE 132


      ---         BLOCKEND  ---      ---       LVL=0

      00FF3039H   BLOCK     ECODE    ---       LVL=0
      R15         REGSYM    ---      BYTE      x
      R10         REGSYM    ---      BYTE      y
      00FF3039H   LINE      ECODE    ---       #205
      00FF303DH   LINE      ECODE    ---       #207
      00FF3045H   LINE      ECODE    ---       #208
      00FF3054H   LINE      ECODE    ---       #209
      00FF305CH   LINE      ECODE    ---       #210
      ---         BLOCKEND  ---      ---       LVL=0

      00FF305FH   BLOCK     ECODE    ---       LVL=0
      R15         REGSYM    ---      BYTE      bmp_data
      00FF3065H   BLOCK     ECODE    NEAR LAB  LVL=1
      R14         REGSYM    ---      BYTE      y
      R13         REGSYM    ---      BYTE      x
      ---         BLOCKEND  ---      ---       LVL=1
      00FF305FH   LINE      ECODE    ---       #219
      00FF3065H   LINE      ECODE    ---       #220
      00FF3065H   LINE      ECODE    ---       #223
      00FF3067H   LINE      ECODE    ---       #225
      00FF306FH   LINE      ECODE    ---       #226
      00FF3075H   LINE      ECODE    ---       #227
      00FF307BH   LINE      ECODE    ---       #228
      00FF308AH   LINE      ECODE    ---       #229
      00FF3091H   LINE      ECODE    ---       #230
      ---         BLOCKEND  ---      ---       LVL=0

      00FF3096H   BLOCK     ECODE    ---       LVL=0
      R15         REGSYM    ---      BYTE      x
      R14         REGSYM    ---      BYTE      y
      R13         REGSYM    ---      BYTE      data1
      00FF3096H   LINE      ECODE    ---       #243
      00FF30A0H   LINE      ECODE    ---       #245
      00FF30A4H   LINE      ECODE    ---       #246
      00FF30ACH   LINE      ECODE    ---       #247
      00FF30BBH   LINE      ECODE    ---       #248
      00FF30C3H   LINE      ECODE    ---       #249
      00FF30C9H   LINE      ECODE    ---       #250
      ---         BLOCKEND  ---      ---       LVL=0

      00FF30CEH   BLOCK     ECODE    ---       LVL=0
      R15         REGSYM    ---      BYTE      x
      R14         REGSYM    ---      BYTE      y
      00FF30CEH   LINE      ECODE    ---       #260
      00FF30D4H   LINE      ECODE    ---       #262
      00FF30D8H   LINE      ECODE    ---       #263
      00FF30E0H   LINE      ECODE    ---       #264
      00FF30EFH   LINE      ECODE    ---       #265
      00FF30F7H   LINE      ECODE    ---       #266
      00FF30FCH   LINE      ECODE    ---       #267
      ---         BLOCKEND  ---      ---       LVL=0

      00FF30FFH   BLOCK     ECODE    ---       LVL=0
      00010899H   SYMBOL    XDATA    BYTE      x
      0001089AH   SYMBOL    XDATA    BYTE      y
      REG=3       REGSYM    ---      ---       ch
      00FF310DH   BLOCK     ECODE    NEAR LAB  LVL=1
      0001089BH   SYMBOL    XDATA    BYTE      c
      0001089CH   SYMBOL    XDATA    BYTE      i
      0001089DH   SYMBOL    XDATA    BYTE      j
      ---         BLOCKEND  ---      ---       LVL=1
      00FF30FFH   LINE      ECODE    ---       #279
      00FF310DH   LINE      ECODE    ---       #280
L251 LINKER/LOCATER V4.66.93.0                                                        06/26/2023  14:53:20  PAGE 133


      00FF310DH   LINE      ECODE    ---       #281
      00FF311AH   LINE      ECODE    ---       #282
      00FF311CH   LINE      ECODE    ---       #284
      00FF3133H   LINE      ECODE    ---       #285
      00FF3147H   LINE      ECODE    ---       #286
      00FF3155H   LINE      ECODE    ---       #287
      00FF3188H   LINE      ECODE    ---       #288
      00FF318FH   LINE      ECODE    ---       #289
      00FF3195H   LINE      ECODE    ---       #290
      00FF31A7H   LINE      ECODE    ---       #291
      ---         BLOCKEND  ---      ---       LVL=0

      00FF31AAH   BLOCK     ECODE    ---       LVL=0
      REG=3       REGSYM    ---      ---       ch
      00FF31B8H   BLOCK     ECODE    NEAR LAB  LVL=1
      ---         BLOCKEND  ---      ---       LVL=1
      00FF31AAH   LINE      ECODE    ---       #302
      00FF31B8H   LINE      ECODE    ---       #303
      00FF31B8H   LINE      ECODE    ---       #304
      00FF31C5H   LINE      ECODE    ---       #306
      00FF31C8H   LINE      ECODE    ---       #308
      00FF31DFH   LINE      ECODE    ---       #309
      00FF31F3H   LINE      ECODE    ---       #311
      00FF3201H   LINE      ECODE    ---       #312
      00FF3234H   LINE      ECODE    ---       #314
      00FF3244H   LINE      ECODE    ---       #315
      00FF3277H   LINE      ECODE    ---       #317
      00FF327EH   LINE      ECODE    ---       #318
      00FF3284H   LINE      ECODE    ---       #319
      00FF3296H   LINE      ECODE    ---       #320
      ---         BLOCKEND  ---      ---       LVL=0

      00FF3299H   BLOCK     ECODE    ---       LVL=0
      R14         REGSYM    ---      BYTE      x
      R15         REGSYM    ---      BYTE      y
      WR4         REGSYM    ---      WORD      num
      00FF329FH   BLOCK     ECODE    NEAR LAB  LVL=1
      ---         BLOCKEND  ---      ---       LVL=1
      00FF3299H   LINE      ECODE    ---       #331
      00FF329FH   LINE      ECODE    ---       #332
      00FF329FH   LINE      ECODE    ---       #335
      00FF32ADH   LINE      ECODE    ---       #337
      00FF32BDH   LINE      ECODE    ---       #339
      ---         BLOCKEND  ---      ---       LVL=0

      00FF32C0H   BLOCK     ECODE    ---       LVL=0
      R13         REGSYM    ---      BYTE      x
      R12         REGSYM    ---      BYTE      y
      WR14        REGSYM    ---      INT       num
      00FF32C8H   BLOCK     ECODE    NEAR LAB  LVL=1
      ---         BLOCKEND  ---      ---       LVL=1
      00FF32C0H   LINE      ECODE    ---       #350
      00FF32C8H   LINE      ECODE    ---       #351
      00FF32C8H   LINE      ECODE    ---       #353
      00FF32E2H   LINE      ECODE    ---       #354
      00FF32F2H   LINE      ECODE    ---       #355
      00FF32F5H   LINE      ECODE    ---       #357
      00FF3303H   LINE      ECODE    ---       #358
      00FF3313H   LINE      ECODE    ---       #359
      ---         BLOCKEND  ---      ---       LVL=0

      00FF3316H   BLOCK     ECODE    ---       LVL=0
      WR12        REGSYM    ---      WORD      y
      R15         REGSYM    ---      BYTE      num
      00FF332CH   BLOCK     ECODE    NEAR LAB  LVL=1
L251 LINKER/LOCATER V4.66.93.0                                                        06/26/2023  14:53:20  PAGE 134


      R14         REGSYM    ---      BYTE      length
      ---         BLOCKEND  ---      ---       LVL=1
      00FF3316H   LINE      ECODE    ---       #372
      00FF332CH   LINE      ECODE    ---       #373
      00FF332CH   LINE      ECODE    ---       #377
      00FF3334H   LINE      ECODE    ---       #379
      00FF3336H   LINE      ECODE    ---       #380
      00FF3368H   LINE      ECODE    ---       #383
      00FF336EH   LINE      ECODE    ---       #384
      00FF3398H   LINE      ECODE    ---       #385
      00FF339AH   LINE      ECODE    ---       #386
      00FF339AH   LINE      ECODE    ---       #387
      00FF339FH   LINE      ECODE    ---       #389
      00FF33AEH   LINE      ECODE    ---       #390
      00FF33B0H   LINE      ECODE    ---       #391
      00FF33B4H   LINE      ECODE    ---       #392
      00FF33C2H   LINE      ECODE    ---       #394
      00FF33D6H   LINE      ECODE    ---       #395
      ---         BLOCKEND  ---      ---       LVL=0

      00FF33D9H   BLOCK     ECODE    ---       LVL=0
      DR12        REGSYM    ---      FLOAT     dat
      00FF33EDH   BLOCK     ECODE    NEAR LAB  LVL=1
      R10         REGSYM    ---      CHAR      point
      ---         BLOCKEND  ---      ---       LVL=1
      00FF33D9H   LINE      ECODE    ---       #412
      00FF33EDH   LINE      ECODE    ---       #413
      00FF33EDH   LINE      ECODE    ---       #418
      00FF33FCH   LINE      ECODE    ---       #419
      00FF340BH   LINE      ECODE    ---       #421
      00FF343BH   LINE      ECODE    ---       #424
      00FF345FH   LINE      ECODE    ---       #425
      00FF3464H   LINE      ECODE    ---       #426
      00FF3464H   LINE      ECODE    ---       #427
      00FF3470H   LINE      ECODE    ---       #428
      00FF3482H   LINE      ECODE    ---       #429
      00FF3492H   LINE      ECODE    ---       #430
      00FF3497H   LINE      ECODE    ---       #432
      00FF34AAH   LINE      ECODE    ---       #433
      00FF34B0H   LINE      ECODE    ---       #434
      00FF34B6H   LINE      ECODE    ---       #435
      00FF34BFH   LINE      ECODE    ---       #437
      00FF34CEH   LINE      ECODE    ---       #438
      00FF34E4H   LINE      ECODE    ---       #440
      00FF34F9H   LINE      ECODE    ---       #442
      00FF3511H   LINE      ECODE    ---       #443
      ---         BLOCKEND  ---      ---       LVL=0

      00FF3514H   BLOCK     ECODE    ---       LVL=0
      WR4         REGSYM    ---      WORD      high
      REG=3       REGSYM    ---      ---       p
      00FF3524H   BLOCK     ECODE    NEAR LAB  LVL=1
      ---         BLOCKEND  ---      ---       LVL=1
      00FF3514H   LINE      ECODE    ---       #459
      00FF3524H   LINE      ECODE    ---       #460
      00FF3524H   LINE      ECODE    ---       #461
      00FF352CH   LINE      ECODE    ---       #462
      00FF3532H   LINE      ECODE    ---       #463
      00FF353EH   LINE      ECODE    ---       #464
      00FF3543H   LINE      ECODE    ---       #467
      00FF354FH   LINE      ECODE    ---       #468
      00FF3561H   LINE      ECODE    ---       #469
      00FF356FH   LINE      ECODE    ---       #471
      00FF3575H   LINE      ECODE    ---       #473
      00FF3580H   LINE      ECODE    ---       #475
L251 LINKER/LOCATER V4.66.93.0                                                        06/26/2023  14:53:20  PAGE 135


      00FF3588H   LINE      ECODE    ---       #477
      00FF358DH   LINE      ECODE    ---       #478
      00FF35E2H   LINE      ECODE    ---       #479
      00FF3634H   LINE      ECODE    ---       #480
      00FF368CH   LINE      ECODE    ---       #481
      00FF36EAH   LINE      ECODE    ---       #482
      00FF3748H   LINE      ECODE    ---       #483
      00FF37AAH   LINE      ECODE    ---       #484
      00FF380EH   LINE      ECODE    ---       #485
      00FF3872H   LINE      ECODE    ---       #487
      00FF387AH   LINE      ECODE    ---       #488
      00FF3898H   LINE      ECODE    ---       #489
      00FF38B6H   LINE      ECODE    ---       #490
      ---         BLOCKEND  ---      ---       LVL=0

      00FF38B9H   BLOCK     ECODE    ---       LVL=0
      REG=3       REGSYM    ---      ---       p
      00FF38D3H   BLOCK     ECODE    NEAR LAB  LVL=1
      ---         BLOCKEND  ---      ---       LVL=1
      00FF38B9H   LINE      ECODE    ---       #504
      00FF38D3H   LINE      ECODE    ---       #505
      00FF38D3H   LINE      ECODE    ---       #508
      00FF38DBH   LINE      ECODE    ---       #510
      00FF38E2H   LINE      ECODE    ---       #512
      00FF390CH   LINE      ECODE    ---       #513
      00FF3914H   LINE      ECODE    ---       #515
      00FF391BH   LINE      ECODE    ---       #516
      00FF391DH   LINE      ECODE    ---       #517
      00FF3934H   LINE      ECODE    ---       #518
      00FF3955H   LINE      ECODE    ---       #519
      00FF3973H   LINE      ECODE    ---       #520
      ---         BLOCKEND  ---      ---       LVL=0

      00FF3976H   BLOCK     ECODE    ---       LVL=0
      R7          REGSYM    ---      BYTE      dat
      00FF3976H   LINE      ECODE    ---       #534
      00FF3976H   LINE      ECODE    ---       #536
      00FF3978H   LINE      ECODE    ---       #537
      00FF397AH   LINE      ECODE    ---       #538
      00FF397EH   LINE      ECODE    ---       #539
      00FF3980H   LINE      ECODE    ---       #542
      ---         BLOCKEND  ---      ---       LVL=0

      00FF3981H   BLOCK     ECODE    ---       LVL=0
      R7          REGSYM    ---      BYTE      cmd
      00FF3981H   LINE      ECODE    ---       #576
      00FF3981H   LINE      ECODE    ---       #578
      00FF3983H   LINE      ECODE    ---       #579
      00FF3985H   LINE      ECODE    ---       #580
      00FF3989H   LINE      ECODE    ---       #581
      00FF398BH   LINE      ECODE    ---       #582
      ---         BLOCKEND  ---      ---       LVL=0

      00FF398CH   BLOCK     ECODE    ---       LVL=0
      WR0         REGSYM    ---      WORD      hex
      REG=7       REGSYM    ---      ---       Print
      00FF3990H   BLOCK     ECODE    NEAR LAB  LVL=1
      R5          REGSYM    ---      BYTE      hexcheck
      R10         REGSYM    ---      BYTE      TEMP
      ---         BLOCKEND  ---      ---       LVL=1
      00FF398CH   LINE      ECODE    ---       #591
      00FF3990H   LINE      ECODE    ---       #592
      00FF3990H   LINE      ECODE    ---       #595
      00FF3993H   LINE      ECODE    ---       #596
      00FF3998H   LINE      ECODE    ---       #597
L251 LINKER/LOCATER V4.66.93.0                                                        06/26/2023  14:53:20  PAGE 136


      00FF3998H   LINE      ECODE    ---       #599
      00FF399AH   LINE      ECODE    ---       #600
      00FF39A2H   LINE      ECODE    ---       #601
      00FF39A6H   LINE      ECODE    ---       #602
      00FF39B5H   LINE      ECODE    ---       #603
      00FF39B9H   LINE      ECODE    ---       #605
      ---         BLOCKEND  ---      ---       LVL=0

      00FF39BAH   BLOCK     ECODE    ---       LVL=0
      00FF39BAH   LINE      ECODE    ---       #614
      00FF39BAH   LINE      ECODE    ---       #617
      00FF39BCH   LINE      ECODE    ---       #619
      00FF39DFH   LINE      ECODE    ---       #621
      00FF39E1H   LINE      ECODE    ---       #622
      00FF39E9H   LINE      ECODE    ---       #623
      00FF39EBH   LINE      ECODE    ---       #625
      00FF39F1H   LINE      ECODE    ---       #626
      00FF39F6H   LINE      ECODE    ---       #627
      00FF39FCH   LINE      ECODE    ---       #628
      00FF3A02H   LINE      ECODE    ---       #629
      00FF3A08H   LINE      ECODE    ---       #630
      00FF3A0EH   LINE      ECODE    ---       #633
      00FF3A14H   LINE      ECODE    ---       #634
      00FF3A1AH   LINE      ECODE    ---       #640
      00FF3A20H   LINE      ECODE    ---       #641
      00FF3A26H   LINE      ECODE    ---       #642
      00FF3A2CH   LINE      ECODE    ---       #643
      00FF3A32H   LINE      ECODE    ---       #644
      00FF3A37H   LINE      ECODE    ---       #645
      00FF3A3DH   LINE      ECODE    ---       #646
      00FF3A43H   LINE      ECODE    ---       #647
      00FF3A49H   LINE      ECODE    ---       #648
      00FF3A4FH   LINE      ECODE    ---       #649
      00FF3A55H   LINE      ECODE    ---       #650
      00FF3A5BH   LINE      ECODE    ---       #651
      00FF3A61H   LINE      ECODE    ---       #652
      00FF3A67H   LINE      ECODE    ---       #653
      00FF3A6DH   LINE      ECODE    ---       #654
      00FF3A73H   LINE      ECODE    ---       #655
      00FF3A79H   LINE      ECODE    ---       #656
      00FF3A7FH   LINE      ECODE    ---       #657
      00FF3A85H   LINE      ECODE    ---       #658
      00FF3A8BH   LINE      ECODE    ---       #659
      00FF3A91H   LINE      ECODE    ---       #660
      00FF3A96H   LINE      ECODE    ---       #661
      ---         BLOCKEND  ---      ---       LVL=0

      00FF3A9DH   BLOCK     ECODE    ---       LVL=0
      R15         REGSYM    ---      BYTE      x
      R10         REGSYM    ---      BYTE      y
      00FF3A9DH   LINE      ECODE    ---       #672
      00FF3AA1H   LINE      ECODE    ---       #676
      00FF3AA9H   LINE      ECODE    ---       #677
      00FF3AB6H   LINE      ECODE    ---       #678
      00FF3ABEH   LINE      ECODE    ---       #679
      ---         BLOCKEND  ---      ---       LVL=0

      00FF3AC1H   BLOCK     ECODE    ---       LVL=0
      R15         REGSYM    ---      BYTE      bmp_data
      00FF3AC7H   BLOCK     ECODE    NEAR LAB  LVL=1
      R14         REGSYM    ---      BYTE      y
      R13         REGSYM    ---      BYTE      x
      ---         BLOCKEND  ---      ---       LVL=1
      00FF3AC1H   LINE      ECODE    ---       #688
      00FF3AC7H   LINE      ECODE    ---       #689
L251 LINKER/LOCATER V4.66.93.0                                                        06/26/2023  14:53:20  PAGE 137


      00FF3AC7H   LINE      ECODE    ---       #692
      00FF3AC9H   LINE      ECODE    ---       #694
      00FF3AD1H   LINE      ECODE    ---       #695
      00FF3AD7H   LINE      ECODE    ---       #696
      00FF3ADDH   LINE      ECODE    ---       #697
      00FF3AECH   LINE      ECODE    ---       #698
      00FF3AF3H   LINE      ECODE    ---       #699
      ---         BLOCKEND  ---      ---       LVL=0

      00FF3AF8H   BLOCK     ECODE    ---       LVL=0
      R15         REGSYM    ---      BYTE      x
      R14         REGSYM    ---      BYTE      y
      R13         REGSYM    ---      BYTE      data1
      00FF3AF8H   LINE      ECODE    ---       #712
      00FF3B02H   LINE      ECODE    ---       #714
      00FF3B06H   LINE      ECODE    ---       #715
      00FF3B0EH   LINE      ECODE    ---       #716
      00FF3B1BH   LINE      ECODE    ---       #717
      00FF3B23H   LINE      ECODE    ---       #718
      00FF3B29H   LINE      ECODE    ---       #719
      ---         BLOCKEND  ---      ---       LVL=0

      00FF3B2EH   BLOCK     ECODE    ---       LVL=0
      R15         REGSYM    ---      BYTE      x
      R14         REGSYM    ---      BYTE      y
      00FF3B2EH   LINE      ECODE    ---       #729
      00FF3B34H   LINE      ECODE    ---       #731
      00FF3B38H   LINE      ECODE    ---       #732
      00FF3B40H   LINE      ECODE    ---       #733
      00FF3B4DH   LINE      ECODE    ---       #734
      00FF3B55H   LINE      ECODE    ---       #735
      00FF3B5AH   LINE      ECODE    ---       #736
      ---         BLOCKEND  ---      ---       LVL=0

      00FF3B5DH   BLOCK     ECODE    ---       LVL=0
      0001089EH   SYMBOL    XDATA    BYTE      x
      0001089FH   SYMBOL    XDATA    BYTE      y
      REG=3       REGSYM    ---      ---       ch
      00FF3B6BH   BLOCK     ECODE    NEAR LAB  LVL=1
      000108A0H   SYMBOL    XDATA    BYTE      c
      000108A1H   SYMBOL    XDATA    BYTE      i
      000108A2H   SYMBOL    XDATA    BYTE      j
      ---         BLOCKEND  ---      ---       LVL=1
      00FF3B5DH   LINE      ECODE    ---       #748
      00FF3B6BH   LINE      ECODE    ---       #749
      00FF3B6BH   LINE      ECODE    ---       #750
      00FF3B78H   LINE      ECODE    ---       #751
      00FF3B7AH   LINE      ECODE    ---       #753
      00FF3B91H   LINE      ECODE    ---       #754
      00FF3BA5H   LINE      ECODE    ---       #755
      00FF3BB3H   LINE      ECODE    ---       #756
      00FF3BE6H   LINE      ECODE    ---       #757
      00FF3BEDH   LINE      ECODE    ---       #758
      00FF3BF3H   LINE      ECODE    ---       #759
      00FF3C05H   LINE      ECODE    ---       #760
      ---         BLOCKEND  ---      ---       LVL=0

      00FF3C08H   BLOCK     ECODE    ---       LVL=0
      REG=3       REGSYM    ---      ---       ch
      00FF3C16H   BLOCK     ECODE    NEAR LAB  LVL=1
      ---         BLOCKEND  ---      ---       LVL=1
      00FF3C08H   LINE      ECODE    ---       #771
      00FF3C16H   LINE      ECODE    ---       #772
      00FF3C16H   LINE      ECODE    ---       #773
      00FF3C23H   LINE      ECODE    ---       #775
L251 LINKER/LOCATER V4.66.93.0                                                        06/26/2023  14:53:20  PAGE 138


      00FF3C26H   LINE      ECODE    ---       #777
      00FF3C3DH   LINE      ECODE    ---       #778
      00FF3C51H   LINE      ECODE    ---       #780
      00FF3C5FH   LINE      ECODE    ---       #781
      00FF3C92H   LINE      ECODE    ---       #783
      00FF3CA2H   LINE      ECODE    ---       #784
      00FF3CD5H   LINE      ECODE    ---       #786
      00FF3CDCH   LINE      ECODE    ---       #787
      00FF3CE2H   LINE      ECODE    ---       #788
      00FF3CF4H   LINE      ECODE    ---       #789
      ---         BLOCKEND  ---      ---       LVL=0

      00FF3CF7H   BLOCK     ECODE    ---       LVL=0
      R14         REGSYM    ---      BYTE      x
      R15         REGSYM    ---      BYTE      y
      WR4         REGSYM    ---      WORD      num
      00FF3CFDH   BLOCK     ECODE    NEAR LAB  LVL=1
      ---         BLOCKEND  ---      ---       LVL=1
      00FF3CF7H   LINE      ECODE    ---       #800
      00FF3CFDH   LINE      ECODE    ---       #801
      00FF3CFDH   LINE      ECODE    ---       #804
      00FF3D0BH   LINE      ECODE    ---       #806
      00FF3D1BH   LINE      ECODE    ---       #808
      ---         BLOCKEND  ---      ---       LVL=0

      00FF3D1EH   BLOCK     ECODE    ---       LVL=0
      R13         REGSYM    ---      BYTE      x
      R12         REGSYM    ---      BYTE      y
      WR14        REGSYM    ---      INT       num
      00FF3D26H   BLOCK     ECODE    NEAR LAB  LVL=1
      ---         BLOCKEND  ---      ---       LVL=1
      00FF3D1EH   LINE      ECODE    ---       #819
      00FF3D26H   LINE      ECODE    ---       #820
      00FF3D26H   LINE      ECODE    ---       #822
      00FF3D40H   LINE      ECODE    ---       #823
      00FF3D50H   LINE      ECODE    ---       #824
      00FF3D53H   LINE      ECODE    ---       #826
      00FF3D61H   LINE      ECODE    ---       #827
      00FF3D71H   LINE      ECODE    ---       #828
      ---         BLOCKEND  ---      ---       LVL=0

      00FF3D74H   BLOCK     ECODE    ---       LVL=0
      WR12        REGSYM    ---      WORD      y
      R15         REGSYM    ---      BYTE      num
      00FF3D8AH   BLOCK     ECODE    NEAR LAB  LVL=1
      R14         REGSYM    ---      BYTE      length
      ---         BLOCKEND  ---      ---       LVL=1
      00FF3D74H   LINE      ECODE    ---       #841
      00FF3D8AH   LINE      ECODE    ---       #842
      00FF3D8AH   LINE      ECODE    ---       #846
      00FF3D92H   LINE      ECODE    ---       #848
      00FF3D94H   LINE      ECODE    ---       #849
      00FF3DC6H   LINE      ECODE    ---       #852
      00FF3DCCH   LINE      ECODE    ---       #853
      00FF3DF6H   LINE      ECODE    ---       #854
      00FF3DF8H   LINE      ECODE    ---       #855
      00FF3DF8H   LINE      ECODE    ---       #856
      00FF3DFDH   LINE      ECODE    ---       #858
      00FF3E0CH   LINE      ECODE    ---       #859
      00FF3E0EH   LINE      ECODE    ---       #860
      00FF3E12H   LINE      ECODE    ---       #861
      00FF3E20H   LINE      ECODE    ---       #863
      00FF3E34H   LINE      ECODE    ---       #864
      ---         BLOCKEND  ---      ---       LVL=0

L251 LINKER/LOCATER V4.66.93.0                                                        06/26/2023  14:53:20  PAGE 139


      00FF3E37H   BLOCK     ECODE    ---       LVL=0
      DR12        REGSYM    ---      FLOAT     dat
      00FF3E4BH   BLOCK     ECODE    NEAR LAB  LVL=1
      R10         REGSYM    ---      CHAR      point
      ---         BLOCKEND  ---      ---       LVL=1
      00FF3E37H   LINE      ECODE    ---       #881
      00FF3E4BH   LINE      ECODE    ---       #882
      00FF3E4BH   LINE      ECODE    ---       #887
      00FF3E5AH   LINE      ECODE    ---       #888
      00FF3E69H   LINE      ECODE    ---       #890
      00FF3E99H   LINE      ECODE    ---       #893
      00FF3EBDH   LINE      ECODE    ---       #894
      00FF3EC2H   LINE      ECODE    ---       #895
      00FF3EC2H   LINE      ECODE    ---       #896
      00FF3ECEH   LINE      ECODE    ---       #897
      00FF3EE0H   LINE      ECODE    ---       #898
      00FF3EF0H   LINE      ECODE    ---       #899
      00FF3EF5H   LINE      ECODE    ---       #901
      00FF3F08H   LINE      ECODE    ---       #902
      00FF3F0EH   LINE      ECODE    ---       #903
      00FF3F14H   LINE      ECODE    ---       #904
      00FF3F1DH   LINE      ECODE    ---       #906
      00FF3F2CH   LINE      ECODE    ---       #907
      00FF3F42H   LINE      ECODE    ---       #909
      00FF3F57H   LINE      ECODE    ---       #911
      00FF3F6FH   LINE      ECODE    ---       #912
      ---         BLOCKEND  ---      ---       LVL=0

      00FF3F72H   BLOCK     ECODE    ---       LVL=0
      WR4         REGSYM    ---      WORD      high
      REG=3       REGSYM    ---      ---       p
      00FF3F82H   BLOCK     ECODE    NEAR LAB  LVL=1
      ---         BLOCKEND  ---      ---       LVL=1
      00FF3F72H   LINE      ECODE    ---       #928
      00FF3F82H   LINE      ECODE    ---       #929
      00FF3F82H   LINE      ECODE    ---       #935
      00FF3F8CH   LINE      ECODE    ---       #936
      00FF3F98H   LINE      ECODE    ---       #937
      00FF3FA8H   LINE      ECODE    ---       #939
      00FF3FB0H   LINE      ECODE    ---       #941
      00FF3FBBH   LINE      ECODE    ---       #942
      00FF3FC3H   LINE      ECODE    ---       #944
      00FF3FC8H   LINE      ECODE    ---       #945
      00FF401DH   LINE      ECODE    ---       #946
      00FF406FH   LINE      ECODE    ---       #947
      00FF40C7H   LINE      ECODE    ---       #948
      00FF4125H   LINE      ECODE    ---       #949
      00FF4183H   LINE      ECODE    ---       #950
      00FF41E5H   LINE      ECODE    ---       #951
      00FF4249H   LINE      ECODE    ---       #952
      00FF42ADH   LINE      ECODE    ---       #954
      00FF42B5H   LINE      ECODE    ---       #955
      00FF42D3H   LINE      ECODE    ---       #956
      00FF42F1H   LINE      ECODE    ---       #957
      ---         BLOCKEND  ---      ---       LVL=0

      00FF42F4H   BLOCK     ECODE    ---       LVL=0
      REG=3       REGSYM    ---      ---       p
      00FF430EH   BLOCK     ECODE    NEAR LAB  LVL=1
      ---         BLOCKEND  ---      ---       LVL=1
      00FF42F4H   LINE      ECODE    ---       #971
      00FF430EH   LINE      ECODE    ---       #972
      00FF430EH   LINE      ECODE    ---       #975
      00FF4316H   LINE      ECODE    ---       #977
      00FF431DH   LINE      ECODE    ---       #979
L251 LINKER/LOCATER V4.66.93.0                                                        06/26/2023  14:53:20  PAGE 140


      00FF4347H   LINE      ECODE    ---       #980
      00FF434FH   LINE      ECODE    ---       #982
      00FF4356H   LINE      ECODE    ---       #983
      00FF4358H   LINE      ECODE    ---       #984
      00FF436FH   LINE      ECODE    ---       #985
      00FF4390H   LINE      ECODE    ---       #986
      00FF43AEH   LINE      ECODE    ---       #987
      ---         BLOCKEND  ---      ---       LVL=0

      ---         MODULE    ---      ---       SEEKFREE_PRINTF
      00FFA575H   PUBLIC    ECODE    ---       number_conversion_ascii?
      00FFA649H   PUBLIC    ECODE    ---       zf_sprintf?
      00FFA60BH   PUBLIC    ECODE    ---       printf_reverse_order?
      00010132H   PUBLIC    XDATA    BYTE      ?number_conversion_ascii??BYTE
      00010104H   PUBLIC    XDATA    BYTE      ?zf_sprintf??BYTE
      000000D0H   SFRSYM    DATA     BYTE      PSW
      0000009DH   SFRSYM    DATA     BYTE      IRCBAND
      00000097H   SFRSYM    DATA     BYTE      AUXR2
      000000EFH   SFRSYM    DATA     BYTE      AUXINTIF
      000000FDH   SFRSYM    DATA     BYTE      S4CON
      000000ACH   SFRSYM    DATA     BYTE      S3CON
      0000009AH   SFRSYM    DATA     BYTE      S2CON
      000000B7H   SFRSYM    DATA     BYTE      IPH
      000000CDH   SFRSYM    DATA     BYTE      SPSTAT
      000000DDH   SFRSYM    DATA     BYTE      T4T3M
      000000C1H   SFRSYM    DATA     BYTE      WDT_CONTR
      000000DFH   SFRSYM    DATA     BYTE      IP3
      000000F4H   SFRSYM    DATA     BYTE      USBCON
      000000B5H   SFRSYM    DATA     BYTE      IP2
      000000FFH   SFRSYM    DATA     BYTE      RSTCFG
      000000F9H   SFRSYM    DATA     BYTE      LINICR
      0000008EH   SFRSYM    DATA     BYTE      AUXR
      000000AFH   SFRSYM    DATA     BYTE      IE2
      00000088H   SFRSYM    DATA     BYTE      TCON
      00000098H   SFRSYM    DATA     BYTE      SCON
      000000F1H   SFRSYM    DATA     BYTE      CANICR
      00000087H   SFRSYM    DATA     BYTE      PCON
      000000BCH   SFRSYM    DATA     BYTE      ADC_CONTR
      000000E7H   SFRSYM    DATA     BYTE      CMPCR2
      000000E6H   SFRSYM    DATA     BYTE      CMPCR1
      000000B8H   SFRSYM    DATA     BYTE      IP
      0000008FH   SFRSYM    DATA     BYTE      INTCLKO
      000000EEH   SFRSYM    DATA     BYTE      IP3H
      000000B6H   SFRSYM    DATA     BYTE      IP2H
      000000A8H   SFRSYM    DATA     BYTE      IE
      000000BBH   SFRSYM    DATA     BYTE      P_SW3
      000000BAH   SFRSYM    DATA     BYTE      P_SW2
      000000A2H   SFRSYM    DATA     BYTE      P_SW1
      000000CEH   SFRSYM    DATA     BYTE      SPCTL
      000000F8H   SFRSYM    DATA     BYTE      P7
      000000E8H   SFRSYM    DATA     BYTE      P6
      000000C8H   SFRSYM    DATA     BYTE      P5
      000000C0H   SFRSYM    DATA     BYTE      P4
      000000B0H   SFRSYM    DATA     BYTE      P3
      000000A0H   SFRSYM    DATA     BYTE      P2
      00000090H   SFRSYM    DATA     BYTE      P1
      00000080H   SFRSYM    DATA     BYTE      P0

      00FFA575H   BLOCK     ECODE    ---       LVL=0
      DR24        REGSYM    ---      DWORD     dat
      REG=7       REGSYM    ---      ---       p
      R10         REGSYM    ---      BYTE      neg_type
      0001013BH   SYMBOL    XDATA    BYTE      radix
      00FFA57DH   BLOCK     ECODE    NEAR LAB  LVL=1
      DR20        REGSYM    ---      LONG      neg_dat
L251 LINKER/LOCATER V4.66.93.0                                                        06/26/2023  14:53:20  PAGE 141


      DR24        REGSYM    ---      DWORD     pos_dat
      R14         REGSYM    ---      BYTE      temp_data
      R15         REGSYM    ---      BYTE      valid_num
      ---         BLOCKEND  ---      ---       LVL=1
      00FFA575H   LINE      ECODE    ---       #25
      00FFA57DH   LINE      ECODE    ---       #26
      00FFA57DH   LINE      ECODE    ---       #29
      00FFA57DH   LINE      ECODE    ---       #30
      00FFA57FH   LINE      ECODE    ---       #32
      00FFA583H   LINE      ECODE    ---       #34
      00FFA585H   LINE      ECODE    ---       #35
      00FFA595H   LINE      ECODE    ---       #36
      00FFA595H   LINE      ECODE    ---       #38
      00FFA5ACH   LINE      ECODE    ---       #39
      00FFA5BCH   LINE      ECODE    ---       #40
      00FFA5BEH   LINE      ECODE    ---       #42
      00FFA5C4H   LINE      ECODE    ---       #43
      00FFA5C6H   LINE      ECODE    ---       #44
      00FFA5C8H   LINE      ECODE    ---       #45
      00FFA5CAH   LINE      ECODE    ---       #48
      00FFA5CAH   LINE      ECODE    ---       #49
      00FFA5CAH   LINE      ECODE    ---       #51
      00FFA5DAH   LINE      ECODE    ---       #52
      00FFA5E4H   LINE      ECODE    ---       #53
      00FFA5E7H   LINE      ECODE    ---       #55
      00FFA5EAH   LINE      ECODE    ---       #57
      00FFA5FAH   LINE      ECODE    ---       #58
      00FFA5FCH   LINE      ECODE    ---       #60
      00FFA602H   LINE      ECODE    ---       #61
      00FFA604H   LINE      ECODE    ---       #62
      00FFA606H   LINE      ECODE    ---       #63
      00FFA606H   LINE      ECODE    ---       #64
      00FFA608H   LINE      ECODE    ---       #65
      ---         BLOCKEND  ---      ---       LVL=0

      00FFA60BH   BLOCK     ECODE    ---       LVL=0
      REG=7       REGSYM    ---      ---       d_buff
      DR24        REGSYM    ---      DWORD     len
      00FFA60FH   BLOCK     ECODE    NEAR LAB  LVL=1
      DR4         REGSYM    ---      DWORD     i
      R3          REGSYM    ---      CHAR      temp_data
      ---         BLOCKEND  ---      ---       LVL=1
      00FFA60BH   LINE      ECODE    ---       #67
      00FFA60FH   LINE      ECODE    ---       #68
      00FFA60FH   LINE      ECODE    ---       #71
      00FFA613H   LINE      ECODE    ---       #73
      00FFA622H   LINE      ECODE    ---       #74
      00FFA630H   LINE      ECODE    ---       #75
      00FFA637H   LINE      ECODE    ---       #76
      00FFA648H   LINE      ECODE    ---       #77
      ---         BLOCKEND  ---      ---       LVL=0

      00FFA649H   BLOCK     ECODE    ---       LVL=0
      REG=3       REGSYM    ---      ---       buff
      00010108H   SYMBOL    XDATA    ---       format
      00FFA657H   BLOCK     ECODE    NEAR LAB  LVL=1
      0001010CH   SYMBOL    XDATA    DWORD     buff_len
      00010110H   SYMBOL    XDATA    ---       arg
      00FFA671H   BLOCK     ECODE    NEAR LAB  LVL=2
      00010114H   SYMBOL    XDATA    CHAR      ret
      00FFA7A7H   BLOCK     ECODE    NEAR LAB  LVL=3
      00010115H   SYMBOL    XDATA    CHAR      ch
      ---         BLOCKEND  ---      ---       LVL=3
      00FFA7D1H   BLOCK     ECODE    NEAR LAB  LVL=3
      00010115H   SYMBOL    XDATA    ---       vstr
L251 LINKER/LOCATER V4.66.93.0                                                        06/26/2023  14:53:20  PAGE 142


      00010136H   SYMBOL    XDATA    LONG      ival
      0001013AH   SYMBOL    XDATA    BYTE      vlen
      ---         BLOCKEND  ---      ---       LVL=3
      00FFA87DH   BLOCK     ECODE    NEAR LAB  LVL=3
      00010115H   SYMBOL    XDATA    ---       vstr
      00010136H   SYMBOL    XDATA    FLOAT     ival
      0001013AH   SYMBOL    XDATA    BYTE      vlen
      ---         BLOCKEND  ---      ---       LVL=3
      00FFAA32H   BLOCK     ECODE    NEAR LAB  LVL=3
      00010115H   SYMBOL    XDATA    ---       vstr
      00010136H   SYMBOL    XDATA    DWORD     ival
      0001013AH   SYMBOL    XDATA    BYTE      vlen
      ---         BLOCKEND  ---      ---       LVL=3
      00FFAAADH   BLOCK     ECODE    NEAR LAB  LVL=3
      00010115H   SYMBOL    XDATA    ---       vstr
      00010136H   SYMBOL    XDATA    DWORD     ival
      0001013AH   SYMBOL    XDATA    BYTE      vlen
      ---         BLOCKEND  ---      ---       LVL=3
      00FFAB27H   BLOCK     ECODE    NEAR LAB  LVL=3
      00010115H   SYMBOL    XDATA    ---       vstr
      00010136H   SYMBOL    XDATA    DWORD     ival
      0001013AH   SYMBOL    XDATA    BYTE      vlen
      ---         BLOCKEND  ---      ---       LVL=3
      00FFABB3H   BLOCK     ECODE    NEAR LAB  LVL=3
      00010115H   SYMBOL    XDATA    ---       pc
      ---         BLOCKEND  ---      ---       LVL=3
      00FFAC26H   BLOCK     ECODE    NEAR LAB  LVL=3
      00010115H   SYMBOL    XDATA    ---       vstr
      00010136H   SYMBOL    XDATA    DWORD     ival
      ---         BLOCKEND  ---      ---       LVL=3
      ---         BLOCKEND  ---      ---       LVL=2
      ---         BLOCKEND  ---      ---       LVL=1
      00FFA649H   LINE      ECODE    ---       #212
      00FFA657H   LINE      ECODE    ---       #213
      00FFA657H   LINE      ECODE    ---       #214
      00FFA663H   LINE      ECODE    ---       #216
      00FFA66EH   LINE      ECODE    ---       #218
      00FFA671H   LINE      ECODE    ---       #219
      00FFA671H   LINE      ECODE    ---       #220
      00FFA682H   LINE      ECODE    ---       #221
      00FFA68AH   LINE      ECODE    ---       #223
      00FFA7A7H   LINE      ECODE    ---       #225
      00FFA7A7H   LINE      ECODE    ---       #229
      00FFA7A7H   LINE      ECODE    ---       #232
      00FFA7A7H   LINE      ECODE    ---       #233
      00FFA7A7H   LINE      ECODE    ---       #234
      00FFA7CEH   LINE      ECODE    ---       #235
      00FFA7CEH   LINE      ECODE    ---       #236
      00FFA7CEH   LINE      ECODE    ---       #237
      00FFA7CEH   LINE      ECODE    ---       #239
      00FFA7D1H   LINE      ECODE    ---       #242
      00FFA7D1H   LINE      ECODE    ---       #243
      00FFA7D1H   LINE      ECODE    ---       #244
      00FFA7D1H   LINE      ECODE    ---       #246
      00FFA7FFH   LINE      ECODE    ---       #247
      00FFA817H   LINE      ECODE    ---       #249
      00FFA827H   LINE      ECODE    ---       #251
      00FFA83CH   LINE      ECODE    ---       #252
      00FFA843H   LINE      ECODE    ---       #253
      00FFA843H   LINE      ECODE    ---       #254
      00FFA857H   LINE      ECODE    ---       #255
      00FFA86FH   LINE      ECODE    ---       #256
      00FFA877H   LINE      ECODE    ---       #257
      00FFA87AH   LINE      ECODE    ---       #260
      00FFA87DH   LINE      ECODE    ---       #262
L251 LINKER/LOCATER V4.66.93.0                                                        06/26/2023  14:53:20  PAGE 143


      00FFA87DH   LINE      ECODE    ---       #263
      00FFA87DH   LINE      ECODE    ---       #264
      00FFA87DH   LINE      ECODE    ---       #266
      00FFA8ABH   LINE      ECODE    ---       #267
      00FFA8C7H   LINE      ECODE    ---       #269
      00FFA8D9H   LINE      ECODE    ---       #271
      00FFA8EEH   LINE      ECODE    ---       #272
      00FFA8F5H   LINE      ECODE    ---       #273
      00FFA8F5H   LINE      ECODE    ---       #274
      00FFA909H   LINE      ECODE    ---       #275
      00FFA921H   LINE      ECODE    ---       #276
      00FFA929H   LINE      ECODE    ---       #277
      00FFA944H   LINE      ECODE    ---       #279
      00FFA978H   LINE      ECODE    ---       #280
      00FFA988H   LINE      ECODE    ---       #282
      00FFA9A0H   LINE      ECODE    ---       #283
      00FFA9A2H   LINE      ECODE    ---       #286
      00FFA9BCH   LINE      ECODE    ---       #287
      00FFA9C2H   LINE      ECODE    ---       #288
      00FFA9C2H   LINE      ECODE    ---       #290
      00FFA9C7H   LINE      ECODE    ---       #292
      00FFA9DAH   LINE      ECODE    ---       #293
      00FFA9DFH   LINE      ECODE    ---       #294
      00FFA9EAH   LINE      ECODE    ---       #296
      00FFA9F9H   LINE      ECODE    ---       #297
      00FFAA00H   LINE      ECODE    ---       #299
      00FFAA14H   LINE      ECODE    ---       #300
      00FFAA2CH   LINE      ECODE    ---       #301
      00FFAA2FH   LINE      ECODE    ---       #303
      00FFAA32H   LINE      ECODE    ---       #306
      00FFAA32H   LINE      ECODE    ---       #307
      00FFAA32H   LINE      ECODE    ---       #309
      00FFAA60H   LINE      ECODE    ---       #310
      00FFAA77H   LINE      ECODE    ---       #312
      00FFAA87H   LINE      ECODE    ---       #313
      00FFAA9FH   LINE      ECODE    ---       #314
      00FFAAA7H   LINE      ECODE    ---       #315
      00FFAAAAH   LINE      ECODE    ---       #316
      00FFAAADH   LINE      ECODE    ---       #318
      00FFAAADH   LINE      ECODE    ---       #319
      00FFAAADH   LINE      ECODE    ---       #321
      00FFAADBH   LINE      ECODE    ---       #322
      00FFAAF2H   LINE      ECODE    ---       #324
      00FFAB02H   LINE      ECODE    ---       #325
      00FFAB1AH   LINE      ECODE    ---       #326
      00FFAB22H   LINE      ECODE    ---       #327
      00FFAB25H   LINE      ECODE    ---       #329
      00FFAB27H   LINE      ECODE    ---       #331
      00FFAB27H   LINE      ECODE    ---       #332
      00FFAB27H   LINE      ECODE    ---       #333
      00FFAB27H   LINE      ECODE    ---       #335
      00FFAB55H   LINE      ECODE    ---       #336
      00FFAB6CH   LINE      ECODE    ---       #338
      00FFAB7CH   LINE      ECODE    ---       #339
      00FFAB94H   LINE      ECODE    ---       #340
      00FFAB9CH   LINE      ECODE    ---       #341
      00FFABB0H   LINE      ECODE    ---       #342
      00FFABB3H   LINE      ECODE    ---       #345
      00FFABB3H   LINE      ECODE    ---       #346
      00FFABB3H   LINE      ECODE    ---       #347
      00FFABDAH   LINE      ECODE    ---       #348
      00FFABDCH   LINE      ECODE    ---       #350
      00FFABECH   LINE      ECODE    ---       #351
      00FFABEEH   LINE      ECODE    ---       #352
      00FFAC01H   LINE      ECODE    ---       #353
L251 LINKER/LOCATER V4.66.93.0                                                        06/26/2023  14:53:20  PAGE 144


      00FFAC14H   LINE      ECODE    ---       #354
      00FFAC23H   LINE      ECODE    ---       #355
      00FFAC26H   LINE      ECODE    ---       #357
      00FFAC26H   LINE      ECODE    ---       #358
      00FFAC26H   LINE      ECODE    ---       #360
      00FFAC54H   LINE      ECODE    ---       #362
      00FFAC67H   LINE      ECODE    ---       #364
      00FFAC77H   LINE      ECODE    ---       #365
      00FFAC8DH   LINE      ECODE    ---       #366
      00FFAC91H   LINE      ECODE    ---       #367
      00FFAC9FH   LINE      ECODE    ---       #369
      00FFACA1H   LINE      ECODE    ---       #372
      00FFACA1H   LINE      ECODE    ---       #374
      00FFACA6H   LINE      ECODE    ---       #375
      00FFACA8H   LINE      ECODE    ---       #376
      00FFACB4H   LINE      ECODE    ---       #377
      00FFACB6H   LINE      ECODE    ---       #379
      00FFACB6H   LINE      ECODE    ---       #380
      00FFACB6H   LINE      ECODE    ---       #381
      00FFACB6H   LINE      ECODE    ---       #384
      00FFACC6H   LINE      ECODE    ---       #385
      00FFACC8H   LINE      ECODE    ---       #386
      00FFACDBH   LINE      ECODE    ---       #387
      00FFACDBH   LINE      ECODE    ---       #388
      00FFACEEH   LINE      ECODE    ---       #389
      00FFAD00H   LINE      ECODE    ---       #392
      00FFAD0AH   LINE      ECODE    ---       #393
      ---         BLOCKEND  ---      ---       LVL=0

      ---         MODULE    ---      ---       SEEKFREE_TSL1401
      00010403H   PUBLIC    XDATA    BYTE      tsl1401_finish_flag
      00010404H   PUBLIC    XDATA    ---       ccd_data
      000000D0H   SFRSYM    DATA     BYTE      PSW
      0000009DH   SFRSYM    DATA     BYTE      IRCBAND
      00000097H   SFRSYM    DATA     BYTE      AUXR2
      000000EFH   SFRSYM    DATA     BYTE      AUXINTIF
      000000FDH   SFRSYM    DATA     BYTE      S4CON
      000000ACH   SFRSYM    DATA     BYTE      S3CON
      0000009AH   SFRSYM    DATA     BYTE      S2CON
      000000B7H   SFRSYM    DATA     BYTE      IPH
      000000CDH   SFRSYM    DATA     BYTE      SPSTAT
      000000DDH   SFRSYM    DATA     BYTE      T4T3M
      000000C1H   SFRSYM    DATA     BYTE      WDT_CONTR
      000000DFH   SFRSYM    DATA     BYTE      IP3
      000000F4H   SFRSYM    DATA     BYTE      USBCON
      000000B5H   SFRSYM    DATA     BYTE      IP2
      000000FFH   SFRSYM    DATA     BYTE      RSTCFG
      000000F9H   SFRSYM    DATA     BYTE      LINICR
      0000008EH   SFRSYM    DATA     BYTE      AUXR
      000000AFH   SFRSYM    DATA     BYTE      IE2
      000000B0H.3 SFRSYM    DATA     BIT       P33
      00000088H   SFRSYM    DATA     BYTE      TCON
      000000B0H.2 SFRSYM    DATA     BIT       P32
      00000098H   SFRSYM    DATA     BYTE      SCON
      000000F1H   SFRSYM    DATA     BYTE      CANICR
      00000087H   SFRSYM    DATA     BYTE      PCON
      000000BCH   SFRSYM    DATA     BYTE      ADC_CONTR
      000000E7H   SFRSYM    DATA     BYTE      CMPCR2
      000000E6H   SFRSYM    DATA     BYTE      CMPCR1
      000000B8H   SFRSYM    DATA     BYTE      IP
      0000008FH   SFRSYM    DATA     BYTE      INTCLKO
      000000EEH   SFRSYM    DATA     BYTE      IP3H
      000000B6H   SFRSYM    DATA     BYTE      IP2H
      000000A8H   SFRSYM    DATA     BYTE      IE
      000000BBH   SFRSYM    DATA     BYTE      P_SW3
L251 LINKER/LOCATER V4.66.93.0                                                        06/26/2023  14:53:20  PAGE 145


      000000BAH   SFRSYM    DATA     BYTE      P_SW2
      000000A2H   SFRSYM    DATA     BYTE      P_SW1
      000000CEH   SFRSYM    DATA     BYTE      SPCTL
      000000F8H   SFRSYM    DATA     BYTE      P7
      000000E8H   SFRSYM    DATA     BYTE      P6
      000000C8H   SFRSYM    DATA     BYTE      P5
      000000C0H   SFRSYM    DATA     BYTE      P4
      000000B0H   SFRSYM    DATA     BYTE      P3
      000000A0H   SFRSYM    DATA     BYTE      P2
      00000090H   SFRSYM    DATA     BYTE      P1
      00000080H   SFRSYM    DATA     BYTE      P0
      REG=3       REGSYM    ---      ---       dat
      R15         REGSYM    ---      BYTE      i

      ---         MODULE    ---      ---       SEEKFREE_VIRSCO
      00FFE6D0H   PUBLIC    ECODE    ---       CRC_CHECK?
      00FFE70AH   PUBLIC    ECODE    ---       data_conversion?
      0001086EH   PUBLIC    XDATA    ---       virtual_scope_data
      000000D0H   SFRSYM    DATA     BYTE      PSW
      0000009DH   SFRSYM    DATA     BYTE      IRCBAND
      00000097H   SFRSYM    DATA     BYTE      AUXR2
      000000EFH   SFRSYM    DATA     BYTE      AUXINTIF
      000000FDH   SFRSYM    DATA     BYTE      S4CON
      000000ACH   SFRSYM    DATA     BYTE      S3CON
      0000009AH   SFRSYM    DATA     BYTE      S2CON
      000000B7H   SFRSYM    DATA     BYTE      IPH
      000000CDH   SFRSYM    DATA     BYTE      SPSTAT
      000000DDH   SFRSYM    DATA     BYTE      T4T3M
      000000C1H   SFRSYM    DATA     BYTE      WDT_CONTR
      000000DFH   SFRSYM    DATA     BYTE      IP3
      000000F4H   SFRSYM    DATA     BYTE      USBCON
      000000B5H   SFRSYM    DATA     BYTE      IP2
      000000FFH   SFRSYM    DATA     BYTE      RSTCFG
      000000F9H   SFRSYM    DATA     BYTE      LINICR
      0000008EH   SFRSYM    DATA     BYTE      AUXR
      000000AFH   SFRSYM    DATA     BYTE      IE2
      00000088H   SFRSYM    DATA     BYTE      TCON
      00000098H   SFRSYM    DATA     BYTE      SCON
      000000F1H   SFRSYM    DATA     BYTE      CANICR
      00000087H   SFRSYM    DATA     BYTE      PCON
      000000BCH   SFRSYM    DATA     BYTE      ADC_CONTR
      000000E7H   SFRSYM    DATA     BYTE      CMPCR2
      000000E6H   SFRSYM    DATA     BYTE      CMPCR1
      000000B8H   SFRSYM    DATA     BYTE      IP
      0000008FH   SFRSYM    DATA     BYTE      INTCLKO
      000000EEH   SFRSYM    DATA     BYTE      IP3H
      000000B6H   SFRSYM    DATA     BYTE      IP2H
      000000A8H   SFRSYM    DATA     BYTE      IE
      000000BBH   SFRSYM    DATA     BYTE      P_SW3
      000000BAH   SFRSYM    DATA     BYTE      P_SW2
      000000A2H   SFRSYM    DATA     BYTE      P_SW1
      000000CEH   SFRSYM    DATA     BYTE      SPCTL
      000000F8H   SFRSYM    DATA     BYTE      P7
      000000E8H   SFRSYM    DATA     BYTE      P6
      000000C8H   SFRSYM    DATA     BYTE      P5
      000000C0H   SFRSYM    DATA     BYTE      P4
      000000B0H   SFRSYM    DATA     BYTE      P3
      000000A0H   SFRSYM    DATA     BYTE      P2
      00000090H   SFRSYM    DATA     BYTE      P1
      00000080H   SFRSYM    DATA     BYTE      P0

      00FFE6D0H   BLOCK     ECODE    ---       LVL=0
      REG=7       REGSYM    ---      ---       Buf
      R10         REGSYM    ---      BYTE      CRC_CNT
      00FFE6D4H   BLOCK     ECODE    NEAR LAB  LVL=1
L251 LINKER/LOCATER V4.66.93.0                                                        06/26/2023  14:53:20  PAGE 146


      WR6         REGSYM    ---      WORD      CRC_Temp
      R5          REGSYM    ---      BYTE      i
      R4          REGSYM    ---      BYTE      j
      ---         BLOCKEND  ---      ---       LVL=1
      00FFE6D0H   LINE      ECODE    ---       #38
      00FFE6D4H   LINE      ECODE    ---       #39
      00FFE6D4H   LINE      ECODE    ---       #42
      00FFE6D8H   LINE      ECODE    ---       #44
      00FFE6DCH   LINE      ECODE    ---       #45
      00FFE6E9H   LINE      ECODE    ---       #46
      00FFE6EBH   LINE      ECODE    ---       #47
      00FFE6F3H   LINE      ECODE    ---       #48
      00FFE6FBH   LINE      ECODE    ---       #50
      00FFE6FDH   LINE      ECODE    ---       #51
      00FFE703H   LINE      ECODE    ---       #52
      00FFE709H   LINE      ECODE    ---       #53
      00FFE709H   LINE      ECODE    ---       #54
      ---         BLOCKEND  ---      ---       LVL=0

      00FFE70AH   BLOCK     ECODE    ---       LVL=0
      WR0         REGSYM    ---      INT       data1
      WR30        REGSYM    ---      INT       data2
      WR8         REGSYM    ---      INT       data3
      WR10        REGSYM    ---      INT       data4
      00FFE712H   BLOCK     ECODE    NEAR LAB  LVL=1
      WR6         REGSYM    ---      WORD      CRC16
      ---         BLOCKEND  ---      ---       LVL=1
      00FFE70AH   LINE      ECODE    ---       #67
      00FFE712H   LINE      ECODE    ---       #68
      00FFE712H   LINE      ECODE    ---       #71
      00FFE71FH   LINE      ECODE    ---       #72
      00FFE72FH   LINE      ECODE    ---       #74
      00FFE73FH   LINE      ECODE    ---       #75
      00FFE74FH   LINE      ECODE    ---       #77
      00FFE75DH   LINE      ECODE    ---       #78
      00FFE76BH   LINE      ECODE    ---       #80
      00FFE779H   LINE      ECODE    ---       #81
      00FFE787H   LINE      ECODE    ---       #83
      00FFE797H   LINE      ECODE    ---       #84
      00FFE7A5H   LINE      ECODE    ---       #85
      00FFE7B5H   LINE      ECODE    ---       #88
      ---         BLOCKEND  ---      ---       LVL=0

      ---         MODULE    ---      ---       SEEKFREE_WIRELESS
      00FFE540H   PUBLIC    ECODE    ---       wireless_uart_read_buff?
      00FFE4DEH   PUBLIC    ECODE    ---       wireless_uart_send_buff?
      00FFE4B6H   PUBLIC    ECODE    ---       wireless_uart_callback?
      00FFE57FH   PUBLIC    ECODE    ---       wireless_uart_init?
      000000D0H   SFRSYM    DATA     BYTE      PSW
      0000009DH   SFRSYM    DATA     BYTE      IRCBAND
      00000097H   SFRSYM    DATA     BYTE      AUXR2
      000000EFH   SFRSYM    DATA     BYTE      AUXINTIF
      000000FDH   SFRSYM    DATA     BYTE      S4CON
      000000ACH   SFRSYM    DATA     BYTE      S3CON
      0000009AH   SFRSYM    DATA     BYTE      S2CON
      000000FEH   SFRSYM    DATA     BYTE      S4BUF
      000000B7H   SFRSYM    DATA     BYTE      IPH
      000000CDH   SFRSYM    DATA     BYTE      SPSTAT
      000000DDH   SFRSYM    DATA     BYTE      T4T3M
      000000C1H   SFRSYM    DATA     BYTE      WDT_CONTR
      000000DFH   SFRSYM    DATA     BYTE      IP3
      000000F4H   SFRSYM    DATA     BYTE      USBCON
      000000B5H   SFRSYM    DATA     BYTE      IP2
      000000FFH   SFRSYM    DATA     BYTE      RSTCFG
      000000F9H   SFRSYM    DATA     BYTE      LINICR
L251 LINKER/LOCATER V4.66.93.0                                                        06/26/2023  14:53:20  PAGE 147


      0000008EH   SFRSYM    DATA     BYTE      AUXR
      000000AFH   SFRSYM    DATA     BYTE      IE2
      000000C0H.5 SFRSYM    DATA     BIT       P45
      00000088H   SFRSYM    DATA     BYTE      TCON
      00000098H   SFRSYM    DATA     BYTE      SCON
      000000F1H   SFRSYM    DATA     BYTE      CANICR
      00000087H   SFRSYM    DATA     BYTE      PCON
      000000BCH   SFRSYM    DATA     BYTE      ADC_CONTR
      000000E7H   SFRSYM    DATA     BYTE      CMPCR2
      000000E6H   SFRSYM    DATA     BYTE      CMPCR1
      000000B8H   SFRSYM    DATA     BYTE      IP
      0000008FH   SFRSYM    DATA     BYTE      INTCLKO
      000000EEH   SFRSYM    DATA     BYTE      IP3H
      000000B6H   SFRSYM    DATA     BYTE      IP2H
      000000A8H   SFRSYM    DATA     BYTE      IE
      000000BBH   SFRSYM    DATA     BYTE      P_SW3
      000000BAH   SFRSYM    DATA     BYTE      P_SW2
      000000A2H   SFRSYM    DATA     BYTE      P_SW1
      000000CEH   SFRSYM    DATA     BYTE      SPCTL
      000000F8H   SFRSYM    DATA     BYTE      P7
      000000E8H   SFRSYM    DATA     BYTE      P6
      000000C8H   SFRSYM    DATA     BYTE      P5
      000000C0H   SFRSYM    DATA     BYTE      P4
      000000B0H   SFRSYM    DATA     BYTE      P3
      000000A0H   SFRSYM    DATA     BYTE      P2
      00000090H   SFRSYM    DATA     BYTE      P1
      00000080H   SFRSYM    DATA     BYTE      P0
      0001068AH   SYMBOL    XDATA    BYTE      wireless_uart_data
      0001068BH   SYMBOL    XDATA    ---       wireless_uart_fifo
      0001069FH   SYMBOL    XDATA    ---       wireless_uart_buffer

      00FFE4B6H   BLOCK     ECODE    ---       LVL=0
      00FFE4B6H   LINE      ECODE    ---       #48
      00FFE4B6H   LINE      ECODE    ---       #51
      00FFE4BCH   LINE      ECODE    ---       #52
      ---         BLOCKEND  ---      ---       LVL=0

      00FFE4DEH   BLOCK     ECODE    ---       LVL=0
      REG=3       REGSYM    ---      ---       buff
      000108EEH   SYMBOL    XDATA    WORD      len
      00FFE4DEH   LINE      ECODE    ---       #66
      00FFE4E8H   LINE      ECODE    ---       #68
      00FFE4EAH   LINE      ECODE    ---       #70
      00FFE4F1H   LINE      ECODE    ---       #72
      00FFE4FBH   LINE      ECODE    ---       #73
      00FFE4FBH   LINE      ECODE    ---       #75
      00FFE507H   LINE      ECODE    ---       #77
      00FFE50BH   LINE      ECODE    ---       #78
      00FFE518H   LINE      ECODE    ---       #79
      00FFE524H   LINE      ECODE    ---       #81
      00FFE52BH   LINE      ECODE    ---       #83
      00FFE531H   LINE      ECODE    ---       #84
      00FFE531H   LINE      ECODE    ---       #86
      00FFE53BH   LINE      ECODE    ---       #88
      00FFE53DH   LINE      ECODE    ---       #89
      ---         BLOCKEND  ---      ---       LVL=0

      00FFE540H   BLOCK     ECODE    ---       LVL=0
      REG=7       REGSYM    ---      ---       buff
      DR8         REGSYM    ---      DWORD     len
      00FFE542H   BLOCK     ECODE    NEAR LAB  LVL=1
      ---         BLOCKEND  ---      ---       LVL=1
      00FFE540H   LINE      ECODE    ---       #100
      00FFE542H   LINE      ECODE    ---       #101
      00FFE542H   LINE      ECODE    ---       #102
L251 LINKER/LOCATER V4.66.93.0                                                        06/26/2023  14:53:20  PAGE 148


      00FFE54CH   LINE      ECODE    ---       #103
      00FFE574H   LINE      ECODE    ---       #104
      00FFE57EH   LINE      ECODE    ---       #105
      ---         BLOCKEND  ---      ---       LVL=0

      00FFE57FH   BLOCK     ECODE    ---       LVL=0
      00FFE57FH   LINE      ECODE    ---       #118
      00FFE57FH   LINE      ECODE    ---       #120
      00FFE581H   LINE      ECODE    ---       #121
      00FFE58BH   LINE      ECODE    ---       #123
      00FFE5ADH   LINE      ECODE    ---       #124
      ---         BLOCKEND  ---      ---       LVL=0

      ---         MODULE    ---      ---       SEEKFREE_WIRELESS_CH573
      00FFE423H   PUBLIC    ECODE    ---       wireless_ch573_read_buff?
      00FFE3BDH   PUBLIC    ECODE    ---       wireless_ch573_send_buff?
      00FFE395H   PUBLIC    ECODE    ---       wireless_ch573_callback?
      00FFE462H   PUBLIC    ECODE    ---       wireless_ch573_init?
      000000D0H   SFRSYM    DATA     BYTE      PSW
      0000009DH   SFRSYM    DATA     BYTE      IRCBAND
      00000097H   SFRSYM    DATA     BYTE      AUXR2
      000000EFH   SFRSYM    DATA     BYTE      AUXINTIF
      000000FDH   SFRSYM    DATA     BYTE      S4CON
      000000ACH   SFRSYM    DATA     BYTE      S3CON
      0000009AH   SFRSYM    DATA     BYTE      S2CON
      000000FEH   SFRSYM    DATA     BYTE      S4BUF
      000000B7H   SFRSYM    DATA     BYTE      IPH
      000000CDH   SFRSYM    DATA     BYTE      SPSTAT
      000000DDH   SFRSYM    DATA     BYTE      T4T3M
      000000C1H   SFRSYM    DATA     BYTE      WDT_CONTR
      000000DFH   SFRSYM    DATA     BYTE      IP3
      000000F4H   SFRSYM    DATA     BYTE      USBCON
      000000B5H   SFRSYM    DATA     BYTE      IP2
      000000FFH   SFRSYM    DATA     BYTE      RSTCFG
      000000F9H   SFRSYM    DATA     BYTE      LINICR
      0000008EH   SFRSYM    DATA     BYTE      AUXR
      000000AFH   SFRSYM    DATA     BYTE      IE2
      00000080H.7 SFRSYM    DATA     BIT       P07
      00000088H   SFRSYM    DATA     BYTE      TCON
      00000098H   SFRSYM    DATA     BYTE      SCON
      000000F1H   SFRSYM    DATA     BYTE      CANICR
      00000087H   SFRSYM    DATA     BYTE      PCON
      000000BCH   SFRSYM    DATA     BYTE      ADC_CONTR
      000000E7H   SFRSYM    DATA     BYTE      CMPCR2
      000000E6H   SFRSYM    DATA     BYTE      CMPCR1
      000000B8H   SFRSYM    DATA     BYTE      IP
      0000008FH   SFRSYM    DATA     BYTE      INTCLKO
      000000EEH   SFRSYM    DATA     BYTE      IP3H
      000000B6H   SFRSYM    DATA     BYTE      IP2H
      000000A8H   SFRSYM    DATA     BYTE      IE
      000000BBH   SFRSYM    DATA     BYTE      P_SW3
      000000BAH   SFRSYM    DATA     BYTE      P_SW2
      000000A2H   SFRSYM    DATA     BYTE      P_SW1
      000000CEH   SFRSYM    DATA     BYTE      SPCTL
      000000F8H   SFRSYM    DATA     BYTE      P7
      000000E8H   SFRSYM    DATA     BYTE      P6
      000000C8H   SFRSYM    DATA     BYTE      P5
      000000C0H   SFRSYM    DATA     BYTE      P4
      000000B0H   SFRSYM    DATA     BYTE      P3
      000000A0H   SFRSYM    DATA     BYTE      P2
      00000090H   SFRSYM    DATA     BYTE      P1
      00000080H   SFRSYM    DATA     BYTE      P0
      000106DFH   SYMBOL    XDATA    ---       wireless_ch573_buffer
      0001071FH   SYMBOL    XDATA    BYTE      wireless_ch573_data
      00010720H   SYMBOL    XDATA    ---       wireless_ch573_fifo
L251 LINKER/LOCATER V4.66.93.0                                                        06/26/2023  14:53:20  PAGE 149



      00FFE395H   BLOCK     ECODE    ---       LVL=0
      00FFE395H   LINE      ECODE    ---       #39
      00FFE395H   LINE      ECODE    ---       #42
      00FFE39BH   LINE      ECODE    ---       #43
      ---         BLOCKEND  ---      ---       LVL=0

      00FFE3BDH   BLOCK     ECODE    ---       LVL=0
      REG=3       REGSYM    ---      ---       buff
      00FFE3BDH   LINE      ECODE    ---       #58
      00FFE3C7H   LINE      ECODE    ---       #60
      00FFE3C9H   LINE      ECODE    ---       #62
      00FFE3D0H   LINE      ECODE    ---       #64
      00FFE3DAH   LINE      ECODE    ---       #65
      00FFE3DAH   LINE      ECODE    ---       #67
      00FFE3E8H   LINE      ECODE    ---       #69
      00FFE3ECH   LINE      ECODE    ---       #70
      00FFE3F9H   LINE      ECODE    ---       #71
      00FFE405H   LINE      ECODE    ---       #73
      00FFE40CH   LINE      ECODE    ---       #75
      00FFE412H   LINE      ECODE    ---       #76
      00FFE412H   LINE      ECODE    ---       #78
      00FFE41EH   LINE      ECODE    ---       #80
      00FFE420H   LINE      ECODE    ---       #81
      ---         BLOCKEND  ---      ---       LVL=0

      00FFE423H   BLOCK     ECODE    ---       LVL=0
      REG=7       REGSYM    ---      ---       buff
      DR8         REGSYM    ---      DWORD     len
      00FFE425H   BLOCK     ECODE    NEAR LAB  LVL=1
      ---         BLOCKEND  ---      ---       LVL=1
      00FFE423H   LINE      ECODE    ---       #91
      00FFE425H   LINE      ECODE    ---       #92
      00FFE425H   LINE      ECODE    ---       #93
      00FFE42FH   LINE      ECODE    ---       #94
      00FFE457H   LINE      ECODE    ---       #95
      00FFE461H   LINE      ECODE    ---       #96
      ---         BLOCKEND  ---      ---       LVL=0

      00FFE462H   BLOCK     ECODE    ---       LVL=0
      00FFE462H   LINE      ECODE    ---       #110
      00FFE462H   LINE      ECODE    ---       #112
      00FFE464H   LINE      ECODE    ---       #113
      00FFE46EH   LINE      ECODE    ---       #115
      00FFE490H   LINE      ECODE    ---       #116
      ---         BLOCKEND  ---      ---       LVL=0

      ---         MODULE    ---      ---       main
      00FFE7B6H   PUBLIC    ECODE    ---       main?
      000108DCH   PUBLIC    XDATA    INT       servo
      000108DEH   PUBLIC    XDATA    INT       d
      000000D0H   SFRSYM    DATA     BYTE      PSW
      0000009DH   SFRSYM    DATA     BYTE      IRCBAND
      00000097H   SFRSYM    DATA     BYTE      AUXR2
      000000EFH   SFRSYM    DATA     BYTE      AUXINTIF
      000000FDH   SFRSYM    DATA     BYTE      S4CON
      000000ACH   SFRSYM    DATA     BYTE      S3CON
      0000009AH   SFRSYM    DATA     BYTE      S2CON
      000000B7H   SFRSYM    DATA     BYTE      IPH
      000000CDH   SFRSYM    DATA     BYTE      SPSTAT
      000000DDH   SFRSYM    DATA     BYTE      T4T3M
      000000C1H   SFRSYM    DATA     BYTE      WDT_CONTR
      000000DFH   SFRSYM    DATA     BYTE      IP3
      000000F4H   SFRSYM    DATA     BYTE      USBCON
      000000B5H   SFRSYM    DATA     BYTE      IP2
L251 LINKER/LOCATER V4.66.93.0                                                        06/26/2023  14:53:20  PAGE 150


      000000FFH   SFRSYM    DATA     BYTE      RSTCFG
      000000F9H   SFRSYM    DATA     BYTE      LINICR
      0000008EH   SFRSYM    DATA     BYTE      AUXR
      000000AFH   SFRSYM    DATA     BYTE      IE2
      000000F8H.4 SFRSYM    DATA     BIT       P74
      00000088H   SFRSYM    DATA     BYTE      TCON
      00000098H   SFRSYM    DATA     BYTE      SCON
      000000F1H   SFRSYM    DATA     BYTE      CANICR
      00000087H   SFRSYM    DATA     BYTE      PCON
      000000BCH   SFRSYM    DATA     BYTE      ADC_CONTR
      000000E7H   SFRSYM    DATA     BYTE      CMPCR2
      000000E6H   SFRSYM    DATA     BYTE      CMPCR1
      000000B8H   SFRSYM    DATA     BYTE      IP
      0000008FH   SFRSYM    DATA     BYTE      INTCLKO
      000000EEH   SFRSYM    DATA     BYTE      IP3H
      000000B6H   SFRSYM    DATA     BYTE      IP2H
      000000A8H   SFRSYM    DATA     BYTE      IE
      000000BBH   SFRSYM    DATA     BYTE      P_SW3
      000000BAH   SFRSYM    DATA     BYTE      P_SW2
      000000A2H   SFRSYM    DATA     BYTE      P_SW1
      000000CEH   SFRSYM    DATA     BYTE      SPCTL
      000000F8H   SFRSYM    DATA     BYTE      P7
      000000E8H   SFRSYM    DATA     BYTE      P6
      000000C8H   SFRSYM    DATA     BYTE      P5
      000000C0H   SFRSYM    DATA     BYTE      P4
      000000B0H   SFRSYM    DATA     BYTE      P3
      000000A0H   SFRSYM    DATA     BYTE      P2
      00000090H   SFRSYM    DATA     BYTE      P1
      00000080H   SFRSYM    DATA     BYTE      P0

      00FFE7B6H   BLOCK     ECODE    ---       LVL=0
      00FFE7B6H   LINE      ECODE    ---       #13
      00FFE7B6H   LINE      ECODE    ---       #15
      00FFE7BAH   LINE      ECODE    ---       #17
      00FFE7C4H   LINE      ECODE    ---       #18
      00FFE7CEH   LINE      ECODE    ---       #19
      00FFE7D8H   LINE      ECODE    ---       #20
      00FFE7E2H   LINE      ECODE    ---       #21
      00FFE7ECH   LINE      ECODE    ---       #22
      00FFE7F6H   LINE      ECODE    ---       #23
      00FFE80EH   LINE      ECODE    ---       #24
      00FFE826H   LINE      ECODE    ---       #25
      00FFE832H   LINE      ECODE    ---       #26
      00FFE834H   LINE      ECODE    ---       #27
      00FFE838H   LINE      ECODE    ---       #28
      00FFE844H   LINE      ECODE    ---       #29
      00FFE850H   LINE      ECODE    ---       #30
      00FFE854H   LINE      ECODE    ---       #31
      00FFE86EH   LINE      ECODE    ---       #32
      00FFE874H   LINE      ECODE    ---       #33
      00FFE87CH   LINE      ECODE    ---       #40
      00FFE880H   LINE      ECODE    ---       #41
      00FFE884H   LINE      ECODE    ---       #42
      00FFE890H   LINE      ECODE    ---       #44
      00FFE890H   LINE      ECODE    ---       #46
      00FFE894H   LINE      ECODE    ---       #47
      00FFE898H   LINE      ECODE    ---       #67
      ---         BLOCKEND  ---      ---       LVL=0

      ---         MODULE    ---      ---       key
      00FF5F21H   PUBLIC    ECODE    ---       Keystroke_Menu_ONE_Four?
      00FF592AH   PUBLIC    ECODE    ---       KeystrokeLabel_Switch?
      00FF5879H   PUBLIC    ECODE    ---       Cursor?
      00FF5B3BH   PUBLIC    ECODE    ---       Keystroke_Menu_ONE?
      00FF5C58H   PUBLIC    ECODE    ---       Keystroke_Menu_ONE_One?
L251 LINKER/LOCATER V4.66.93.0                                                        06/26/2023  14:53:20  PAGE 151


      00FF655DH   PUBLIC    ECODE    ---       Keystroke_Menu_THREE_Four?
      00FF6176H   PUBLIC    ECODE    ---       Keystroke_Menu_THREE?
      00FF6013H   PUBLIC    ECODE    ---       Keystroke_Menu_TWO?
      00FF6293H   PUBLIC    ECODE    ---       Keystroke_Menu_THREE_One?
      00FF60DCH   PUBLIC    ECODE    ---       Keystroke_Menu_TWO_One?
      00FF5D45H   PUBLIC    ECODE    ---       Keystroke_Menu_ONE_Two?
      00FF56C6H   PUBLIC    ECODE    ---       Keystroke_Scan?
      00FF6381H   PUBLIC    ECODE    ---       Keystroke_Menu_THREE_Two?
      00FF57C0H   PUBLIC    ECODE    ---       Keystroke_Menu?
      00FF5AA0H   PUBLIC    ECODE    ---       Keystroke_Menu_HOME?
      00FF664BH   PUBLIC    ECODE    ---       Keystroke_Menu_FOUR?
      00FF5E33H   PUBLIC    ECODE    ---       Keystroke_Menu_ONE_Three?
      00FF646FH   PUBLIC    ECODE    ---       Keystroke_Menu_THREE_Three?
      0001077EH   PUBLIC    XDATA    BYTE      key1_status
      0001077FH   PUBLIC    XDATA    BYTE      key2_status
      00010780H   PUBLIC    XDATA    BYTE      key3_status
      00010781H   PUBLIC    XDATA    BYTE      key4_status
      00010782H   PUBLIC    XDATA    BYTE      key1_count
      00010783H   PUBLIC    XDATA    BYTE      key2_count
      00010784H   PUBLIC    XDATA    BYTE      key3_count
      00010785H   PUBLIC    XDATA    BYTE      key4_count
      00010786H   PUBLIC    XDATA    INT       This_Codename
      00010788H   PUBLIC    XDATA    BYTE      key1_last_status
      00010789H   PUBLIC    XDATA    BYTE      key2_last_status
      0001078AH   PUBLIC    XDATA    BYTE      key3_last_status
      0001078BH   PUBLIC    XDATA    BYTE      key4_last_status
      0001078CH   PUBLIC    XDATA    BYTE      sw1_status
      0001078DH   PUBLIC    XDATA    BYTE      sw2_status
      0001078EH   PUBLIC    XDATA    BYTE      KeystrokeLabel
      0001078FH   PUBLIC    XDATA    BYTE      MenuNextFlag
      00010790H   PUBLIC    XDATA    BYTE      CursorRow
      00010791H   PUBLIC    XDATA    BYTE      param3
      00010792H   PUBLIC    XDATA    BYTE      param4
      00010793H   PUBLIC    XDATA    BYTE      param1_1
      00010794H   PUBLIC    XDATA    BYTE      param1_2
      00010795H   PUBLIC    XDATA    INT       Dispay_Codename
      00010797H   PUBLIC    XDATA    BYTE      test1
      00010798H   PUBLIC    XDATA    BYTE      test2
      00010799H   PUBLIC    XDATA    BYTE      test3
      0001079AH   PUBLIC    XDATA    BYTE      test4
      0001079BH   PUBLIC    XDATA    BYTE      key1_flag
      0001079CH   PUBLIC    XDATA    BYTE      key2_flag
      0001079DH   PUBLIC    XDATA    BYTE      key3_flag
      0001079EH   PUBLIC    XDATA    BYTE      key4_flag
      000000D0H   SFRSYM    DATA     BYTE      PSW
      0000009DH   SFRSYM    DATA     BYTE      IRCBAND
      00000097H   SFRSYM    DATA     BYTE      AUXR2
      000000EFH   SFRSYM    DATA     BYTE      AUXINTIF
      000000FDH   SFRSYM    DATA     BYTE      S4CON
      000000ACH   SFRSYM    DATA     BYTE      S3CON
      0000009AH   SFRSYM    DATA     BYTE      S2CON
      000000B7H   SFRSYM    DATA     BYTE      IPH
      000000CDH   SFRSYM    DATA     BYTE      SPSTAT
      000000DDH   SFRSYM    DATA     BYTE      T4T3M
      000000C1H   SFRSYM    DATA     BYTE      WDT_CONTR
      000000DFH   SFRSYM    DATA     BYTE      IP3
      000000F4H   SFRSYM    DATA     BYTE      USBCON
      000000B5H   SFRSYM    DATA     BYTE      IP2
      000000FFH   SFRSYM    DATA     BYTE      RSTCFG
      000000F9H   SFRSYM    DATA     BYTE      LINICR
      0000008EH   SFRSYM    DATA     BYTE      AUXR
      000000AFH   SFRSYM    DATA     BYTE      IE2
      000000F8H.6 SFRSYM    DATA     BIT       P76
      000000F8H.5 SFRSYM    DATA     BIT       P75
      000000F8H.3 SFRSYM    DATA     BIT       P73
L251 LINKER/LOCATER V4.66.93.0                                                        06/26/2023  14:53:20  PAGE 152


      000000F8H.2 SFRSYM    DATA     BIT       P72
      000000F8H.1 SFRSYM    DATA     BIT       P71
      000000F8H.0 SFRSYM    DATA     BIT       P70
      00000088H   SFRSYM    DATA     BYTE      TCON
      00000098H   SFRSYM    DATA     BYTE      SCON
      000000F1H   SFRSYM    DATA     BYTE      CANICR
      00000087H   SFRSYM    DATA     BYTE      PCON
      000000BCH   SFRSYM    DATA     BYTE      ADC_CONTR
      000000E7H   SFRSYM    DATA     BYTE      CMPCR2
      000000E6H   SFRSYM    DATA     BYTE      CMPCR1
      000000B8H   SFRSYM    DATA     BYTE      IP
      0000008FH   SFRSYM    DATA     BYTE      INTCLKO
      000000EEH   SFRSYM    DATA     BYTE      IP3H
      000000B6H   SFRSYM    DATA     BYTE      IP2H
      000000A8H   SFRSYM    DATA     BYTE      IE
      000000BBH   SFRSYM    DATA     BYTE      P_SW3
      000000BAH   SFRSYM    DATA     BYTE      P_SW2
      000000A2H   SFRSYM    DATA     BYTE      P_SW1
      000000CEH   SFRSYM    DATA     BYTE      SPCTL
      000000F8H   SFRSYM    DATA     BYTE      P7
      000000E8H   SFRSYM    DATA     BYTE      P6
      000000C8H   SFRSYM    DATA     BYTE      P5
      000000C0H   SFRSYM    DATA     BYTE      P4
      000000B0H   SFRSYM    DATA     BYTE      P3
      000000A0H   SFRSYM    DATA     BYTE      P2
      00000090H   SFRSYM    DATA     BYTE      P1
      00000080H   SFRSYM    DATA     BYTE      P0

      00FF56C6H   BLOCK     ECODE    ---       LVL=0
      00FF56C6H   LINE      ECODE    ---       #54
      00FF56C6H   LINE      ECODE    ---       #58
      00FF56CEH   LINE      ECODE    ---       #59
      00FF56D6H   LINE      ECODE    ---       #63
      00FF56DEH   LINE      ECODE    ---       #64
      00FF56E6H   LINE      ECODE    ---       #65
      00FF56EEH   LINE      ECODE    ---       #66
      00FF56F6H   LINE      ECODE    ---       #68
      00FF56FEH   LINE      ECODE    ---       #69
      00FF5706H   LINE      ECODE    ---       #70
      00FF570EH   LINE      ECODE    ---       #71
      00FF5716H   LINE      ECODE    ---       #75
      00FF5728H   LINE      ECODE    ---       #76
      00FF573AH   LINE      ECODE    ---       #77
      00FF574CH   LINE      ECODE    ---       #78
      00FF575EH   LINE      ECODE    ---       #81
      00FF5763H   LINE      ECODE    ---       #82
      00FF5769H   LINE      ECODE    ---       #84
      00FF576EH   LINE      ECODE    ---       #85
      00FF5774H   LINE      ECODE    ---       #86
      00FF577AH   LINE      ECODE    ---       #87
      00FF577AH   LINE      ECODE    ---       #89
      00FF5780H   LINE      ECODE    ---       #91
      00FF5785H   LINE      ECODE    ---       #92
      00FF578BH   LINE      ECODE    ---       #93
      00FF5791H   LINE      ECODE    ---       #94
      00FF5791H   LINE      ECODE    ---       #96
      00FF5797H   LINE      ECODE    ---       #98
      00FF579CH   LINE      ECODE    ---       #99
      00FF57A2H   LINE      ECODE    ---       #100
      00FF57A8H   LINE      ECODE    ---       #101
      00FF57A8H   LINE      ECODE    ---       #103
      00FF57AEH   LINE      ECODE    ---       #105
      00FF57B3H   LINE      ECODE    ---       #106
      00FF57B9H   LINE      ECODE    ---       #107
      00FF57BFH   LINE      ECODE    ---       #108
L251 LINKER/LOCATER V4.66.93.0                                                        06/26/2023  14:53:20  PAGE 153


      ---         BLOCKEND  ---      ---       LVL=0

      00FF57C0H   BLOCK     ECODE    ---       LVL=0
      00FF57C0H   LINE      ECODE    ---       #121
      00FF57C0H   LINE      ECODE    ---       #123
      00FF5840H   LINE      ECODE    ---       #125
      00FF5840H   LINE      ECODE    ---       #126
      00FF5844H   LINE      ECODE    ---       #127
      00FF5844H   LINE      ECODE    ---       #130
      00FF5844H   LINE      ECODE    ---       #131
      00FF5848H   LINE      ECODE    ---       #132
      00FF5848H   LINE      ECODE    ---       #133
      00FF5848H   LINE      ECODE    ---       #134
      00FF584CH   LINE      ECODE    ---       #135
      00FF584CH   LINE      ECODE    ---       #136
      00FF584CH   LINE      ECODE    ---       #137
      00FF5850H   LINE      ECODE    ---       #138
      00FF5850H   LINE      ECODE    ---       #139
      00FF5850H   LINE      ECODE    ---       #140
      00FF5854H   LINE      ECODE    ---       #141
      00FF5854H   LINE      ECODE    ---       #142
      00FF5854H   LINE      ECODE    ---       #143
      00FF5858H   LINE      ECODE    ---       #144
      00FF5858H   LINE      ECODE    ---       #146
      00FF5858H   LINE      ECODE    ---       #147
      00FF585CH   LINE      ECODE    ---       #148
      00FF585CH   LINE      ECODE    ---       #149
      00FF585CH   LINE      ECODE    ---       #150
      00FF5860H   LINE      ECODE    ---       #151
      00FF5860H   LINE      ECODE    ---       #153
      00FF5860H   LINE      ECODE    ---       #154
      00FF5864H   LINE      ECODE    ---       #155
      00FF5864H   LINE      ECODE    ---       #156
      00FF5864H   LINE      ECODE    ---       #157
      00FF5868H   LINE      ECODE    ---       #158
      00FF5868H   LINE      ECODE    ---       #159
      00FF5868H   LINE      ECODE    ---       #160
      00FF586CH   LINE      ECODE    ---       #161
      00FF586CH   LINE      ECODE    ---       #162
      00FF586CH   LINE      ECODE    ---       #163
      00FF5870H   LINE      ECODE    ---       #164
      00FF5870H   LINE      ECODE    ---       #165
      00FF5870H   LINE      ECODE    ---       #166
      00FF5874H   LINE      ECODE    ---       #167
      00FF5874H   LINE      ECODE    ---       #169
      00FF5874H   LINE      ECODE    ---       #170
      00FF5878H   LINE      ECODE    ---       #171
      00FF5878H   LINE      ECODE    ---       #173
      00FF5878H   LINE      ECODE    ---       #175
      ---         BLOCKEND  ---      ---       LVL=0

      00FF5879H   BLOCK     ECODE    ---       LVL=0
      00FF587BH   BLOCK     ECODE    NEAR LAB  LVL=1
      WR14        REGSYM    ---      INT       i
      ---         BLOCKEND  ---      ---       LVL=1
      00FF5879H   LINE      ECODE    ---       #177
      00FF587BH   LINE      ECODE    ---       #178
      00FF587BH   LINE      ECODE    ---       #180
      00FF5880H   LINE      ECODE    ---       #182
      00FF5880H   LINE      ECODE    ---       #184
      00FF5884H   LINE      ECODE    ---       #186
      00FF588BH   LINE      ECODE    ---       #188
      00FF5891H   LINE      ECODE    ---       #189
      00FF5893H   LINE      ECODE    ---       #191
      00FF589DH   LINE      ECODE    ---       #192
L251 LINKER/LOCATER V4.66.93.0                                                        06/26/2023  14:53:20  PAGE 154


      00FF58ABH   LINE      ECODE    ---       #194
      00FF58BBH   LINE      ECODE    ---       #195
      00FF58C3H   LINE      ECODE    ---       #196
      00FF58C3H   LINE      ECODE    ---       #198
      00FF58CAH   LINE      ECODE    ---       #200
      00FF58D0H   LINE      ECODE    ---       #201
      00FF58D2H   LINE      ECODE    ---       #203
      00FF58DCH   LINE      ECODE    ---       #204
      00FF58EAH   LINE      ECODE    ---       #206
      00FF58FAH   LINE      ECODE    ---       #207
      00FF5902H   LINE      ECODE    ---       #208
      00FF5902H   LINE      ECODE    ---       #210
      00FF590DH   LINE      ECODE    ---       #213
      00FF5913H   LINE      ECODE    ---       #214
      00FF5913H   LINE      ECODE    ---       #216
      00FF5918H   LINE      ECODE    ---       #218
      00FF591EH   LINE      ECODE    ---       #219
      00FF5927H   LINE      ECODE    ---       #223
      ---         BLOCKEND  ---      ---       LVL=0

      00FF592AH   BLOCK     ECODE    ---       LVL=0
      000100AEH   SYMBOL    XDATA    INT       previous_codename
      DR12        REGSYM    ---      FLOAT     change_unit
      000100B0H   SYMBOL    XDATA    BYTE      value_bit
      00FF5938H   BLOCK     ECODE    NEAR LAB  LVL=1
      0001079FH   SYMBOL    XDATA    FLOAT     tem_value
      ---         BLOCKEND  ---      ---       LVL=1
      00FF592AH   LINE      ECODE    ---       #225
      00FF5938H   LINE      ECODE    ---       #226
      00FF5938H   LINE      ECODE    ---       #230
      00FF594AH   LINE      ECODE    ---       #231
      00FF5959H   LINE      ECODE    ---       #232
      00FF5969H   LINE      ECODE    ---       #233
      00FF5979H   LINE      ECODE    ---       #234
      00FF5989H   LINE      ECODE    ---       #235
      00FF5999H   LINE      ECODE    ---       #236
      00FF59A9H   LINE      ECODE    ---       #237
      00FF59B9H   LINE      ECODE    ---       #238
      00FF59C9H   LINE      ECODE    ---       #239
      00FF59D9H   LINE      ECODE    ---       #241
      00FF59F5H   LINE      ECODE    ---       #242
      00FF59F9H   LINE      ECODE    ---       #243
      00FF59FFH   LINE      ECODE    ---       #245
      00FF5A0DH   LINE      ECODE    ---       #246
      00FF5A0DH   LINE      ECODE    ---       #247
      00FF5A21H   LINE      ECODE    ---       #249
      00FF5A21H   LINE      ECODE    ---       #250
      00FF5A21H   LINE      ECODE    ---       #251
      00FF5A23H   LINE      ECODE    ---       #253
      00FF5A23H   LINE      ECODE    ---       #254
      00FF5A3AH   LINE      ECODE    ---       #255
      00FF5A4CH   LINE      ECODE    ---       #256
      00FF5A4CH   LINE      ECODE    ---       #257
      00FF5A4EH   LINE      ECODE    ---       #258
      00FF5A4EH   LINE      ECODE    ---       #259
      00FF5A65H   LINE      ECODE    ---       #260
      00FF5A77H   LINE      ECODE    ---       #261
      00FF5A83H   LINE      ECODE    ---       #262
      00FF5A85H   LINE      ECODE    ---       #264
      00FF5A85H   LINE      ECODE    ---       #265
      00FF5A8BH   LINE      ECODE    ---       #266
      00FF5A8BH   LINE      ECODE    ---       #267
      00FF5A8DH   LINE      ECODE    ---       #268
      00FF5A8DH   LINE      ECODE    ---       #269
      00FF5A95H   LINE      ECODE    ---       #270
L251 LINKER/LOCATER V4.66.93.0                                                        06/26/2023  14:53:20  PAGE 155


      00FF5A9DH   LINE      ECODE    ---       #271
      00FF5A9DH   LINE      ECODE    ---       #272
      00FF5A9DH   LINE      ECODE    ---       #273
      ---         BLOCKEND  ---      ---       LVL=0

      00FF5AA0H   BLOCK     ECODE    ---       LVL=0
      00FF5AA0H   LINE      ECODE    ---       #284
      00FF5AA0H   LINE      ECODE    ---       #286
      00FF5AB4H   LINE      ECODE    ---       #287
      00FF5AC8H   LINE      ECODE    ---       #288
      00FF5ADCH   LINE      ECODE    ---       #289
      00FF5AF0H   LINE      ECODE    ---       #290
      00FF5AF4H   LINE      ECODE    ---       #292
      00FF5B08H   LINE      ECODE    ---       #294
      00FF5B08H   LINE      ECODE    ---       #295
      00FF5B10H   LINE      ECODE    ---       #296
      00FF5B11H   LINE      ECODE    ---       #298
      00FF5B11H   LINE      ECODE    ---       #299
      00FF5B15H   LINE      ECODE    ---       #300
      00FF5B15H   LINE      ECODE    ---       #301
      00FF5B15H   LINE      ECODE    ---       #302
      00FF5B17H   LINE      ECODE    ---       #303
      00FF5B17H   LINE      ECODE    ---       #304
      00FF5B1BH   LINE      ECODE    ---       #305
      00FF5B1BH   LINE      ECODE    ---       #306
      00FF5B1BH   LINE      ECODE    ---       #307
      00FF5B1DH   LINE      ECODE    ---       #308
      00FF5B1DH   LINE      ECODE    ---       #309
      00FF5B21H   LINE      ECODE    ---       #310
      00FF5B21H   LINE      ECODE    ---       #311
      00FF5B21H   LINE      ECODE    ---       #312
      00FF5B23H   LINE      ECODE    ---       #313
      00FF5B23H   LINE      ECODE    ---       #314
      00FF5B2DH   LINE      ECODE    ---       #315
      00FF5B35H   LINE      ECODE    ---       #316
      00FF5B3AH   LINE      ECODE    ---       #317
      00FF5B3AH   LINE      ECODE    ---       #318
      00FF5B3AH   LINE      ECODE    ---       #319
      ---         BLOCKEND  ---      ---       LVL=0

      00FF5B3BH   BLOCK     ECODE    ---       LVL=0
      00FF5B3BH   LINE      ECODE    ---       #321
      00FF5B3BH   LINE      ECODE    ---       #323
      00FF5B4FH   LINE      ECODE    ---       #324
      00FF5B63H   LINE      ECODE    ---       #325
      00FF5B77H   LINE      ECODE    ---       #326
      00FF5B8BH   LINE      ECODE    ---       #328
      00FF5BA7H   LINE      ECODE    ---       #329
      00FF5BC3H   LINE      ECODE    ---       #330
      00FF5BDFH   LINE      ECODE    ---       #331
      00FF5BFBH   LINE      ECODE    ---       #333
      00FF5BFFH   LINE      ECODE    ---       #335
      00FF5C06H   LINE      ECODE    ---       #337
      00FF5C0CH   LINE      ECODE    ---       #338
      00FF5C0CH   LINE      ECODE    ---       #340
      00FF5C24H   LINE      ECODE    ---       #342
      00FF5C24H   LINE      ECODE    ---       #343
      00FF5C26H   LINE      ECODE    ---       #344
      00FF5C26H   LINE      ECODE    ---       #345
      00FF5C28H   LINE      ECODE    ---       #346
      00FF5C28H   LINE      ECODE    ---       #347
      00FF5C2CH   LINE      ECODE    ---       #348
      00FF5C2EH   LINE      ECODE    ---       #350
      00FF5C2EH   LINE      ECODE    ---       #351
      00FF5C38H   LINE      ECODE    ---       #353
L251 LINKER/LOCATER V4.66.93.0                                                        06/26/2023  14:53:20  PAGE 156


      00FF5C39H   LINE      ECODE    ---       #354
      00FF5C39H   LINE      ECODE    ---       #355
      00FF5C3DH   LINE      ECODE    ---       #356
      00FF5C3DH   LINE      ECODE    ---       #357
      00FF5C3FH   LINE      ECODE    ---       #358
      00FF5C3FH   LINE      ECODE    ---       #359
      00FF5C43H   LINE      ECODE    ---       #360
      00FF5C43H   LINE      ECODE    ---       #361
      00FF5C45H   LINE      ECODE    ---       #362
      00FF5C45H   LINE      ECODE    ---       #363
      00FF5C4FH   LINE      ECODE    ---       #364
      00FF5C57H   LINE      ECODE    ---       #365
      00FF5C57H   LINE      ECODE    ---       #367
      00FF5C57H   LINE      ECODE    ---       #370
      ---         BLOCKEND  ---      ---       LVL=0

      00FF5C58H   BLOCK     ECODE    ---       LVL=0
      00FF5C58H   LINE      ECODE    ---       #372
      00FF5C58H   LINE      ECODE    ---       #374
      00FF5C62H   LINE      ECODE    ---       #376
      00FF5C76H   LINE      ECODE    ---       #377
      00FF5C8AH   LINE      ECODE    ---       #378
      00FF5C9EH   LINE      ECODE    ---       #379
      00FF5CB2H   LINE      ECODE    ---       #380
      00FF5CC4H   LINE      ECODE    ---       #382
      00FF5CE0H   LINE      ECODE    ---       #383
      00FF5CFCH   LINE      ECODE    ---       #384
      00FF5D18H   LINE      ECODE    ---       #385
      00FF5D34H   LINE      ECODE    ---       #387
      ---         BLOCKEND  ---      ---       LVL=0

      00FF5D45H   BLOCK     ECODE    ---       LVL=0
      00FF5D45H   LINE      ECODE    ---       #392
      00FF5D45H   LINE      ECODE    ---       #395
      00FF5D4FH   LINE      ECODE    ---       #397
      00FF5D63H   LINE      ECODE    ---       #398
      00FF5D77H   LINE      ECODE    ---       #399
      00FF5D8BH   LINE      ECODE    ---       #400
      00FF5D9FH   LINE      ECODE    ---       #401
      00FF5DB1H   LINE      ECODE    ---       #403
      00FF5DCDH   LINE      ECODE    ---       #404
      00FF5DE9H   LINE      ECODE    ---       #405
      00FF5E05H   LINE      ECODE    ---       #406
      00FF5E21H   LINE      ECODE    ---       #408
      ---         BLOCKEND  ---      ---       LVL=0

      00FF5E33H   BLOCK     ECODE    ---       LVL=0
      00FF5E33H   LINE      ECODE    ---       #411
      00FF5E33H   LINE      ECODE    ---       #414
      00FF5E3DH   LINE      ECODE    ---       #416
      00FF5E51H   LINE      ECODE    ---       #417
      00FF5E65H   LINE      ECODE    ---       #418
      00FF5E79H   LINE      ECODE    ---       #419
      00FF5E8DH   LINE      ECODE    ---       #420
      00FF5E9FH   LINE      ECODE    ---       #422
      00FF5EBBH   LINE      ECODE    ---       #423
      00FF5ED7H   LINE      ECODE    ---       #424
      00FF5EF3H   LINE      ECODE    ---       #425
      00FF5F0FH   LINE      ECODE    ---       #427
      ---         BLOCKEND  ---      ---       LVL=0

      00FF5F21H   BLOCK     ECODE    ---       LVL=0
      00FF5F21H   LINE      ECODE    ---       #430
      00FF5F21H   LINE      ECODE    ---       #431
      00FF5F21H   LINE      ECODE    ---       #433
L251 LINKER/LOCATER V4.66.93.0                                                        06/26/2023  14:53:20  PAGE 157


      00FF5F25H   LINE      ECODE    ---       #434
      00FF5F2FH   LINE      ECODE    ---       #436
      00FF5F43H   LINE      ECODE    ---       #437
      00FF5F57H   LINE      ECODE    ---       #438
      00FF5F6BH   LINE      ECODE    ---       #439
      00FF5F7FH   LINE      ECODE    ---       #440
      00FF5F91H   LINE      ECODE    ---       #442
      00FF5FADH   LINE      ECODE    ---       #443
      00FF5FC9H   LINE      ECODE    ---       #444
      00FF5FE5H   LINE      ECODE    ---       #445
      00FF6001H   LINE      ECODE    ---       #447
      ---         BLOCKEND  ---      ---       LVL=0

      00FF6013H   BLOCK     ECODE    ---       LVL=0
      00FF6013H   LINE      ECODE    ---       #451
      00FF6013H   LINE      ECODE    ---       #453
      00FF6027H   LINE      ECODE    ---       #454
      00FF603BH   LINE      ECODE    ---       #455
      00FF604FH   LINE      ECODE    ---       #456
      00FF6063H   LINE      ECODE    ---       #458
      00FF607FH   LINE      ECODE    ---       #463
      00FF6083H   LINE      ECODE    ---       #465
      00FF608AH   LINE      ECODE    ---       #467
      00FF6090H   LINE      ECODE    ---       #468
      00FF6090H   LINE      ECODE    ---       #470
      00FF60A8H   LINE      ECODE    ---       #472
      00FF60A8H   LINE      ECODE    ---       #473
      00FF60AAH   LINE      ECODE    ---       #474
      00FF60AAH   LINE      ECODE    ---       #475
      00FF60ACH   LINE      ECODE    ---       #476
      00FF60ACH   LINE      ECODE    ---       #477
      00FF60B0H   LINE      ECODE    ---       #478
      00FF60B2H   LINE      ECODE    ---       #480
      00FF60B2H   LINE      ECODE    ---       #481
      00FF60BCH   LINE      ECODE    ---       #483
      00FF60BDH   LINE      ECODE    ---       #484
      00FF60BDH   LINE      ECODE    ---       #485
      00FF60C1H   LINE      ECODE    ---       #486
      00FF60C1H   LINE      ECODE    ---       #487
      00FF60C3H   LINE      ECODE    ---       #488
      00FF60C3H   LINE      ECODE    ---       #489
      00FF60C7H   LINE      ECODE    ---       #490
      00FF60C7H   LINE      ECODE    ---       #491
      00FF60C9H   LINE      ECODE    ---       #492
      00FF60C9H   LINE      ECODE    ---       #493
      00FF60D3H   LINE      ECODE    ---       #494
      00FF60DBH   LINE      ECODE    ---       #495
      00FF60DBH   LINE      ECODE    ---       #497
      00FF60DBH   LINE      ECODE    ---       #499
      ---         BLOCKEND  ---      ---       LVL=0

      00FF60DCH   BLOCK     ECODE    ---       LVL=0
      00FF60DCH   LINE      ECODE    ---       #501
      00FF60DCH   LINE      ECODE    ---       #504
      00FF60E6H   LINE      ECODE    ---       #506
      00FF60FAH   LINE      ECODE    ---       #507
      00FF610EH   LINE      ECODE    ---       #508
      00FF6122H   LINE      ECODE    ---       #509
      00FF6136H   LINE      ECODE    ---       #510
      00FF6148H   LINE      ECODE    ---       #512
      00FF6164H   LINE      ECODE    ---       #517
      ---         BLOCKEND  ---      ---       LVL=0

      00FF6176H   BLOCK     ECODE    ---       LVL=0
      00FF6176H   LINE      ECODE    ---       #520
L251 LINKER/LOCATER V4.66.93.0                                                        06/26/2023  14:53:20  PAGE 158


      00FF6176H   LINE      ECODE    ---       #522
      00FF618AH   LINE      ECODE    ---       #523
      00FF619EH   LINE      ECODE    ---       #524
      00FF61B2H   LINE      ECODE    ---       #525
      00FF61C6H   LINE      ECODE    ---       #527
      00FF61E2H   LINE      ECODE    ---       #528
      00FF61FEH   LINE      ECODE    ---       #529
      00FF621AH   LINE      ECODE    ---       #530
      00FF6236H   LINE      ECODE    ---       #532
      00FF623AH   LINE      ECODE    ---       #534
      00FF6241H   LINE      ECODE    ---       #536
      00FF6247H   LINE      ECODE    ---       #537
      00FF6247H   LINE      ECODE    ---       #539
      00FF625FH   LINE      ECODE    ---       #541
      00FF625FH   LINE      ECODE    ---       #542
      00FF6261H   LINE      ECODE    ---       #543
      00FF6261H   LINE      ECODE    ---       #544
      00FF6263H   LINE      ECODE    ---       #545
      00FF6263H   LINE      ECODE    ---       #546
      00FF6267H   LINE      ECODE    ---       #547
      00FF6269H   LINE      ECODE    ---       #549
      00FF6269H   LINE      ECODE    ---       #550
      00FF6273H   LINE      ECODE    ---       #552
      00FF6274H   LINE      ECODE    ---       #553
      00FF6274H   LINE      ECODE    ---       #554
      00FF6278H   LINE      ECODE    ---       #555
      00FF6278H   LINE      ECODE    ---       #556
      00FF627AH   LINE      ECODE    ---       #557
      00FF627AH   LINE      ECODE    ---       #558
      00FF627EH   LINE      ECODE    ---       #559
      00FF627EH   LINE      ECODE    ---       #560
      00FF6280H   LINE      ECODE    ---       #561
      00FF6280H   LINE      ECODE    ---       #562
      00FF628AH   LINE      ECODE    ---       #563
      00FF6292H   LINE      ECODE    ---       #564
      00FF6292H   LINE      ECODE    ---       #566
      00FF6292H   LINE      ECODE    ---       #568
      ---         BLOCKEND  ---      ---       LVL=0

      00FF6293H   BLOCK     ECODE    ---       LVL=0
      00FF6293H   LINE      ECODE    ---       #570
      00FF6293H   LINE      ECODE    ---       #573
      00FF629DH   LINE      ECODE    ---       #575
      00FF62B1H   LINE      ECODE    ---       #576
      00FF62C5H   LINE      ECODE    ---       #577
      00FF62D9H   LINE      ECODE    ---       #578
      00FF62EDH   LINE      ECODE    ---       #579
      00FF62FFH   LINE      ECODE    ---       #581
      00FF631BH   LINE      ECODE    ---       #582
      00FF6337H   LINE      ECODE    ---       #583
      00FF6353H   LINE      ECODE    ---       #584
      00FF636FH   LINE      ECODE    ---       #586
      ---         BLOCKEND  ---      ---       LVL=0

      00FF6381H   BLOCK     ECODE    ---       LVL=0
      00FF6381H   LINE      ECODE    ---       #589
      00FF6381H   LINE      ECODE    ---       #591
      00FF638BH   LINE      ECODE    ---       #593
      00FF639FH   LINE      ECODE    ---       #594
      00FF63B3H   LINE      ECODE    ---       #595
      00FF63C7H   LINE      ECODE    ---       #596
      00FF63DBH   LINE      ECODE    ---       #597
      00FF63EDH   LINE      ECODE    ---       #599
      00FF6409H   LINE      ECODE    ---       #600
      00FF6425H   LINE      ECODE    ---       #601
L251 LINKER/LOCATER V4.66.93.0                                                        06/26/2023  14:53:20  PAGE 159


      00FF6441H   LINE      ECODE    ---       #602
      00FF645DH   LINE      ECODE    ---       #604
      ---         BLOCKEND  ---      ---       LVL=0

      00FF646FH   BLOCK     ECODE    ---       LVL=0
      00FF646FH   LINE      ECODE    ---       #607
      00FF646FH   LINE      ECODE    ---       #609
      00FF6479H   LINE      ECODE    ---       #611
      00FF648DH   LINE      ECODE    ---       #612
      00FF64A1H   LINE      ECODE    ---       #613
      00FF64B5H   LINE      ECODE    ---       #614
      00FF64C9H   LINE      ECODE    ---       #615
      00FF64DBH   LINE      ECODE    ---       #617
      00FF64F7H   LINE      ECODE    ---       #618
      00FF6513H   LINE      ECODE    ---       #619
      00FF652FH   LINE      ECODE    ---       #620
      00FF654BH   LINE      ECODE    ---       #622
      ---         BLOCKEND  ---      ---       LVL=0

      00FF655DH   BLOCK     ECODE    ---       LVL=0
      00FF655DH   LINE      ECODE    ---       #625
      00FF655DH   LINE      ECODE    ---       #627
      00FF6567H   LINE      ECODE    ---       #629
      00FF657BH   LINE      ECODE    ---       #630
      00FF658FH   LINE      ECODE    ---       #631
      00FF65A3H   LINE      ECODE    ---       #632
      00FF65B7H   LINE      ECODE    ---       #633
      00FF65C9H   LINE      ECODE    ---       #635
      00FF65E5H   LINE      ECODE    ---       #636
      00FF6601H   LINE      ECODE    ---       #637
      00FF661DH   LINE      ECODE    ---       #638
      00FF6639H   LINE      ECODE    ---       #640
      ---         BLOCKEND  ---      ---       LVL=0

      00FF664BH   BLOCK     ECODE    ---       LVL=0
      00FF664BH   LINE      ECODE    ---       #643
      00FF664BH   LINE      ECODE    ---       #645
      00FF6675H   LINE      ECODE    ---       #646
      00FF669FH   LINE      ECODE    ---       #647
      00FF66C7H   LINE      ECODE    ---       #648
      00FF66EFH   LINE      ECODE    ---       #649
      00FF6719H   LINE      ECODE    ---       #650
      00FF6743H   LINE      ECODE    ---       #652
      00FF676DH   LINE      ECODE    ---       #653
      00FF678BH   LINE      ECODE    ---       #654
      00FF67A9H   LINE      ECODE    ---       #656
      00FF67ADH   LINE      ECODE    ---       #657
      00FF67B9H   LINE      ECODE    ---       #659
      00FF67B9H   LINE      ECODE    ---       #660
      00FF67C3H   LINE      ECODE    ---       #661
      00FF67C4H   LINE      ECODE    ---       #674
      00FF67C4H   LINE      ECODE    ---       #675
      00FF67CCH   LINE      ECODE    ---       #676
      00FF67D4H   LINE      ECODE    ---       #677
      00FF67D4H   LINE      ECODE    ---       #678
      00FF67D4H   LINE      ECODE    ---       #679
      ---         BLOCKEND  ---      ---       LVL=0

      ---         MODULE    ---      ---       anotc
      000107EEH   PUBLIC    XDATA    ---       BUFF
      0001080CH   PUBLIC    XDATA    BYTE      _cnt
      000000D0H   SFRSYM    DATA     BYTE      PSW
      0000009DH   SFRSYM    DATA     BYTE      IRCBAND
      00000097H   SFRSYM    DATA     BYTE      AUXR2
      000000EFH   SFRSYM    DATA     BYTE      AUXINTIF
L251 LINKER/LOCATER V4.66.93.0                                                        06/26/2023  14:53:20  PAGE 160


      000000FDH   SFRSYM    DATA     BYTE      S4CON
      000000ACH   SFRSYM    DATA     BYTE      S3CON
      0000009AH   SFRSYM    DATA     BYTE      S2CON
      000000B7H   SFRSYM    DATA     BYTE      IPH
      000000CDH   SFRSYM    DATA     BYTE      SPSTAT
      000000DDH   SFRSYM    DATA     BYTE      T4T3M
      000000C1H   SFRSYM    DATA     BYTE      WDT_CONTR
      000000DFH   SFRSYM    DATA     BYTE      IP3
      000000F4H   SFRSYM    DATA     BYTE      USBCON
      000000B5H   SFRSYM    DATA     BYTE      IP2
      000000FFH   SFRSYM    DATA     BYTE      RSTCFG
      000000F9H   SFRSYM    DATA     BYTE      LINICR
      0000008EH   SFRSYM    DATA     BYTE      AUXR
      000000AFH   SFRSYM    DATA     BYTE      IE2
      00000088H   SFRSYM    DATA     BYTE      TCON
      00000098H   SFRSYM    DATA     BYTE      SCON
      000000F1H   SFRSYM    DATA     BYTE      CANICR
      00000087H   SFRSYM    DATA     BYTE      PCON
      000000BCH   SFRSYM    DATA     BYTE      ADC_CONTR
      000000E7H   SFRSYM    DATA     BYTE      CMPCR2
      000000E6H   SFRSYM    DATA     BYTE      CMPCR1
      000000B8H   SFRSYM    DATA     BYTE      IP
      0000008FH   SFRSYM    DATA     BYTE      INTCLKO
      000000EEH   SFRSYM    DATA     BYTE      IP3H
      000000B6H   SFRSYM    DATA     BYTE      IP2H
      000000A8H   SFRSYM    DATA     BYTE      IE
      000000BBH   SFRSYM    DATA     BYTE      P_SW3
      000000BAH   SFRSYM    DATA     BYTE      P_SW2
      000000A2H   SFRSYM    DATA     BYTE      P_SW1
      000000CEH   SFRSYM    DATA     BYTE      SPCTL
      000000F8H   SFRSYM    DATA     BYTE      P7
      000000E8H   SFRSYM    DATA     BYTE      P6
      000000C8H   SFRSYM    DATA     BYTE      P5
      000000C0H   SFRSYM    DATA     BYTE      P4
      000000B0H   SFRSYM    DATA     BYTE      P3
      000000A0H   SFRSYM    DATA     BYTE      P2
      00000090H   SFRSYM    DATA     BYTE      P1
      00000080H   SFRSYM    DATA     BYTE      P0
      WR8         REGSYM    ---      INT       i
      R7          REGSYM    ---      BYTE      sumcheck
      R10         REGSYM    ---      BYTE      addcheck

      ---         MODULE    ---      ---       menu
      000107CDH   PUBLIC    XDATA    BYTE      function1
      000107CEH   PUBLIC    XDATA    BYTE      function2
      000107CFH   PUBLIC    XDATA    BYTE      function3
      000107D0H   PUBLIC    XDATA    BYTE      menu_flag
      000107D1H   PUBLIC    XDATA    FLOAT     angle_kd
      000107D5H   PUBLIC    XDATA    FLOAT     angle_kp
      000107D9H   PUBLIC    XDATA    FLOAT     speed_d
      000107DDH   PUBLIC    XDATA    FLOAT     speed_i
      000107E1H   PUBLIC    XDATA    FLOAT     speed_p
      000107E5H   PUBLIC    XDATA    BYTE      function
      000107E6H   PUBLIC    XDATA    FLOAT     dir_kd
      000107EAH   PUBLIC    XDATA    FLOAT     dir_kp
      000000D0H   SFRSYM    DATA     BYTE      PSW
      0000009DH   SFRSYM    DATA     BYTE      IRCBAND
      00000097H   SFRSYM    DATA     BYTE      AUXR2
      000000EFH   SFRSYM    DATA     BYTE      AUXINTIF
      000000FDH   SFRSYM    DATA     BYTE      S4CON
      000000ACH   SFRSYM    DATA     BYTE      S3CON
      0000009AH   SFRSYM    DATA     BYTE      S2CON
      000000B7H   SFRSYM    DATA     BYTE      IPH
      000000CDH   SFRSYM    DATA     BYTE      SPSTAT
      000000DDH   SFRSYM    DATA     BYTE      T4T3M
L251 LINKER/LOCATER V4.66.93.0                                                        06/26/2023  14:53:20  PAGE 161


      000000C1H   SFRSYM    DATA     BYTE      WDT_CONTR
      000000DFH   SFRSYM    DATA     BYTE      IP3
      000000F4H   SFRSYM    DATA     BYTE      USBCON
      000000B5H   SFRSYM    DATA     BYTE      IP2
      000000FFH   SFRSYM    DATA     BYTE      RSTCFG
      000000F9H   SFRSYM    DATA     BYTE      LINICR
      0000008EH   SFRSYM    DATA     BYTE      AUXR
      000000AFH   SFRSYM    DATA     BYTE      IE2
      00000088H   SFRSYM    DATA     BYTE      TCON
      00000098H   SFRSYM    DATA     BYTE      SCON
      000000F1H   SFRSYM    DATA     BYTE      CANICR
      00000087H   SFRSYM    DATA     BYTE      PCON
      000000BCH   SFRSYM    DATA     BYTE      ADC_CONTR
      000000E7H   SFRSYM    DATA     BYTE      CMPCR2
      000000E6H   SFRSYM    DATA     BYTE      CMPCR1
      000000B8H   SFRSYM    DATA     BYTE      IP
      0000008FH   SFRSYM    DATA     BYTE      INTCLKO
      000000EEH   SFRSYM    DATA     BYTE      IP3H
      000000B6H   SFRSYM    DATA     BYTE      IP2H
      000000A8H   SFRSYM    DATA     BYTE      IE
      000000BBH   SFRSYM    DATA     BYTE      P_SW3
      000000BAH   SFRSYM    DATA     BYTE      P_SW2
      000000A2H   SFRSYM    DATA     BYTE      P_SW1
      000000CEH   SFRSYM    DATA     BYTE      SPCTL
      000000F8H   SFRSYM    DATA     BYTE      P7
      000000E8H   SFRSYM    DATA     BYTE      P6
      000000C8H   SFRSYM    DATA     BYTE      P5
      000000C0H   SFRSYM    DATA     BYTE      P4
      000000B0H   SFRSYM    DATA     BYTE      P3
      000000A0H   SFRSYM    DATA     BYTE      P2
      00000090H   SFRSYM    DATA     BYTE      P1
      00000080H   SFRSYM    DATA     BYTE      P0

      ---         MODULE    ---      ---       eeprom
      00FFE043H   PUBLIC    ECODE    ---       read_float?
      00FFDEE0H   PUBLIC    ECODE    ---       eeprom_init?
      00FFDFF3H   PUBLIC    ECODE    ---       save_float?
      00FFDFB6H   PUBLIC    ECODE    ---       read_int?
      00FFDF66H   PUBLIC    ECODE    ---       save_int?
      000105D1H   PUBLIC    XDATA    ---       date_buff
      000000D0H   SFRSYM    DATA     BYTE      PSW
      0000009DH   SFRSYM    DATA     BYTE      IRCBAND
      00000097H   SFRSYM    DATA     BYTE      AUXR2
      000000EFH   SFRSYM    DATA     BYTE      AUXINTIF
      000000FDH   SFRSYM    DATA     BYTE      S4CON
      000000ACH   SFRSYM    DATA     BYTE      S3CON
      0000009AH   SFRSYM    DATA     BYTE      S2CON
      000000B7H   SFRSYM    DATA     BYTE      IPH
      000000CDH   SFRSYM    DATA     BYTE      SPSTAT
      000000DDH   SFRSYM    DATA     BYTE      T4T3M
      000000C1H   SFRSYM    DATA     BYTE      WDT_CONTR
      000000DFH   SFRSYM    DATA     BYTE      IP3
      000000F4H   SFRSYM    DATA     BYTE      USBCON
      000000B5H   SFRSYM    DATA     BYTE      IP2
      000000FFH   SFRSYM    DATA     BYTE      RSTCFG
      000000F9H   SFRSYM    DATA     BYTE      LINICR
      0000008EH   SFRSYM    DATA     BYTE      AUXR
      000000AFH   SFRSYM    DATA     BYTE      IE2
      00000088H   SFRSYM    DATA     BYTE      TCON
      00000098H   SFRSYM    DATA     BYTE      SCON
      000000F1H   SFRSYM    DATA     BYTE      CANICR
      00000087H   SFRSYM    DATA     BYTE      PCON
      000000BCH   SFRSYM    DATA     BYTE      ADC_CONTR
      000000E7H   SFRSYM    DATA     BYTE      CMPCR2
      000000E6H   SFRSYM    DATA     BYTE      CMPCR1
L251 LINKER/LOCATER V4.66.93.0                                                        06/26/2023  14:53:20  PAGE 162


      000000B8H   SFRSYM    DATA     BYTE      IP
      0000008FH   SFRSYM    DATA     BYTE      INTCLKO
      000000EEH   SFRSYM    DATA     BYTE      IP3H
      000000B6H   SFRSYM    DATA     BYTE      IP2H
      000000A8H   SFRSYM    DATA     BYTE      IE
      000000BBH   SFRSYM    DATA     BYTE      P_SW3
      000000BAH   SFRSYM    DATA     BYTE      P_SW2
      000000A2H   SFRSYM    DATA     BYTE      P_SW1
      000000CEH   SFRSYM    DATA     BYTE      SPCTL
      000000F8H   SFRSYM    DATA     BYTE      P7
      000000E8H   SFRSYM    DATA     BYTE      P6
      000000C8H   SFRSYM    DATA     BYTE      P5
      000000C0H   SFRSYM    DATA     BYTE      P4
      000000B0H   SFRSYM    DATA     BYTE      P3
      000000A0H   SFRSYM    DATA     BYTE      P2
      00000090H   SFRSYM    DATA     BYTE      P1
      00000080H   SFRSYM    DATA     BYTE      P0

      00FFDEE0H   BLOCK     ECODE    ---       LVL=0
      00FFDEE0H   LINE      ECODE    ---       #4
      00FFDEE0H   LINE      ECODE    ---       #6
      00FFDEE4H   LINE      ECODE    ---       #8
      00FFDEF6H   LINE      ECODE    ---       #22
      00FFDF05H   LINE      ECODE    ---       #23
      00FFDF15H   LINE      ECODE    ---       #24
      00FFDF25H   LINE      ECODE    ---       #25
      00FFDF35H   LINE      ECODE    ---       #26
      00FFDF45H   LINE      ECODE    ---       #27
      00FFDF55H   LINE      ECODE    ---       #28
      00FFDF65H   LINE      ECODE    ---       #30
      ---         BLOCKEND  ---      ---       LVL=0

      00FFDF66H   BLOCK     ECODE    ---       LVL=0
      R10         REGSYM    ---      BYTE      value_bit
      00FFDF72H   BLOCK     ECODE    NEAR LAB  LVL=1
      R3          REGSYM    ---      BYTE      i
      R10         REGSYM    ---      BYTE      begin
      REG=1       REGSYM    ---      ---       p
      ---         BLOCKEND  ---      ---       LVL=1
      00FFDF66H   LINE      ECODE    ---       #31
      00FFDF72H   LINE      ECODE    ---       #32
      00FFDF72H   LINE      ECODE    ---       #34
      00FFDF77H   LINE      ECODE    ---       #35
      00FFDF7FH   LINE      ECODE    ---       #36
      00FFDF81H   LINE      ECODE    ---       #38
      00FFDF9DH   LINE      ECODE    ---       #39
      00FFDFA4H   LINE      ECODE    ---       #40
      ---         BLOCKEND  ---      ---       LVL=0

      00FFDFB6H   BLOCK     ECODE    ---       LVL=0
      R10         REGSYM    ---      BYTE      value_bit
      00FFDFB8H   BLOCK     ECODE    NEAR LAB  LVL=1
      R3          REGSYM    ---      BYTE      i
      R10         REGSYM    ---      BYTE      begin
      REG=1       REGSYM    ---      ---       p
      ---         BLOCKEND  ---      ---       LVL=1
      00FFDFB6H   LINE      ECODE    ---       #43
      00FFDFB8H   LINE      ECODE    ---       #44
      00FFDFB8H   LINE      ECODE    ---       #46
      00FFDFBDH   LINE      ECODE    ---       #48
      00FFDFC5H   LINE      ECODE    ---       #49
      00FFDFC7H   LINE      ECODE    ---       #51
      00FFDFE1H   LINE      ECODE    ---       #52
      00FFDFE8H   LINE      ECODE    ---       #53
      00FFDFF2H   LINE      ECODE    ---       #54
L251 LINKER/LOCATER V4.66.93.0                                                        06/26/2023  14:53:20  PAGE 163


      ---         BLOCKEND  ---      ---       LVL=0

      00FFDFF3H   BLOCK     ECODE    ---       LVL=0
      000100B1H   SYMBOL    XDATA    FLOAT     input
      R10         REGSYM    ---      BYTE      value_bit
      00FFDFFFH   BLOCK     ECODE    NEAR LAB  LVL=1
      R3          REGSYM    ---      BYTE      i
      R10         REGSYM    ---      BYTE      begin
      REG=1       REGSYM    ---      ---       p
      ---         BLOCKEND  ---      ---       LVL=1
      00FFDFF3H   LINE      ECODE    ---       #56
      00FFDFFFH   LINE      ECODE    ---       #57
      00FFDFFFH   LINE      ECODE    ---       #59
      00FFE004H   LINE      ECODE    ---       #60
      00FFE00CH   LINE      ECODE    ---       #61
      00FFE00EH   LINE      ECODE    ---       #63
      00FFE02AH   LINE      ECODE    ---       #64
      00FFE031H   LINE      ECODE    ---       #65
      ---         BLOCKEND  ---      ---       LVL=0

      00FFE043H   BLOCK     ECODE    ---       LVL=0
      R10         REGSYM    ---      BYTE      value_bit
      00FFE045H   BLOCK     ECODE    NEAR LAB  LVL=1
      R3          REGSYM    ---      BYTE      i
      R10         REGSYM    ---      BYTE      begin
      000100B1H   SYMBOL    XDATA    FLOAT     output
      REG=1       REGSYM    ---      ---       p
      ---         BLOCKEND  ---      ---       LVL=1
      00FFE043H   LINE      ECODE    ---       #67
      00FFE045H   LINE      ECODE    ---       #68
      00FFE045H   LINE      ECODE    ---       #70
      00FFE04AH   LINE      ECODE    ---       #72
      00FFE052H   LINE      ECODE    ---       #73
      00FFE054H   LINE      ECODE    ---       #75
      00FFE06EH   LINE      ECODE    ---       #76
      00FFE075H   LINE      ECODE    ---       #77
      00FFE07FH   LINE      ECODE    ---       #78
      ---         BLOCKEND  ---      ---       LVL=0

      ---         MODULE    ---      ---       Direction
      00FF9AC1H   PUBLIC    ECODE    ---       DirectionControl?
      00FF952AH   PUBLIC    ECODE    ---       Read_ADC?
      00FF97C5H   PUBLIC    ECODE    ---       InductorNormal?
      000102BFH   PUBLIC    XDATA    INT       second_leftp
      000102C1H   PUBLIC    XDATA    INT       leftS
      000102C3H   PUBLIC    XDATA    INT       Hall
      000102C5H   PUBLIC    XDATA    INT       leftV
      000102C7H   PUBLIC    XDATA    ---       g_ValueOfAD
      000102D9H   PUBLIC    XDATA    FLOAT     g_f_RealSpeed
      000102DDH   PUBLIC    XDATA    WORD      ui_ValueOfADError
      000102DFH   PUBLIC    XDATA    ---       g_fDirectionError_dot
      000102EBH   PUBLIC    XDATA    INT       sancha_yuzhi
      000102EDH   PUBLIC    XDATA    FLOAT     g_f_SpeedError
      000102F1H   PUBLIC    XDATA    INT       g_ValueOfADError
      000102F3H   PUBLIC    XDATA    FLOAT     Ratio_Encoder_Righ
      000102F7H   PUBLIC    XDATA    FLOAT     Ratio_Encoder_Left
      000102FBH   PUBLIC    XDATA    INT       last_PWMServo
      000102FDH   PUBLIC    XDATA    INT       zhidaoflag
      000102FFH   PUBLIC    XDATA    FLOAT     g_rolControl_D
      00010303H   PUBLIC    XDATA    FLOAT     g_n_Right_pulse
      00010307H   PUBLIC    XDATA    FLOAT     g_rolControl_P
      0001030BH   PUBLIC    XDATA    FLOAT     g_n_Left_pulse
      0001030FH   PUBLIC    XDATA    INT       a_r
      00010311H   PUBLIC    XDATA    FLOAT     all
      00010315H   PUBLIC    XDATA    FLOAT     mid
L251 LINKER/LOCATER V4.66.93.0                                                        06/26/2023  14:53:20  PAGE 164


      00010319H   PUBLIC    XDATA    FLOAT     g_fSpeedControlOut
      0001031DH   PUBLIC    XDATA    FLOAT     arr
      00010321H   PUBLIC    XDATA    ---       g_fSpeedErrorTemp
      00010335H   PUBLIC    XDATA    FLOAT     al
      00010339H   PUBLIC    XDATA    FLOAT     g_n_Righpulse
      0001033DH   PUBLIC    XDATA    FLOAT     g_n_Leftpulse
      00010341H   PUBLIC    XDATA    INT       sanchayou
      00010343H   PUBLIC    XDATA    FLOAT     ar
      00010347H   PUBLIC    XDATA    FLOAT     fSpeedErrorInteg
      0001034BH   PUBLIC    XDATA    ---       g_fDirectionError
      0001035FH   PUBLIC    XDATA    FLOAT     g_f_Right_RealSpeed
      00010363H   PUBLIC    XDATA    FLOAT     g_speedControl_I
      00010367H   PUBLIC    XDATA    ---       ad_min
      0001038BH   PUBLIC    XDATA    FLOAT     g_f_SpeedFilter
      0001038FH   PUBLIC    XDATA    ---       ad_max
      000103B3H   PUBLIC    XDATA    ---       g_ValueOfADFilter
      000103BDH   PUBLIC    XDATA    FLOAT     g_f_ExpectSpeed
      000103C1H   PUBLIC    XDATA    INT       rightP
      000103C3H   PUBLIC    XDATA    INT       second_rightp
      000103C5H   PUBLIC    XDATA    INT       middle
      000103C7H   PUBLIC    XDATA    FLOAT     g_speedControl_P
      000103CBH   PUBLIC    XDATA    INT       t
      000103CDH   PUBLIC    XDATA    INT       rightS
      000103CFH   PUBLIC    XDATA    FLOAT     g_f_Left_RealSpeed
      000103D3H   PUBLIC    XDATA    FLOAT     g_fDirectionControlOut
      000103D7H   PUBLIC    XDATA    INT       rightV
      000103D9H   PUBLIC    XDATA    INT       leftP
      00000008H   PUBLIC    DATA     ---       diangan
      000000D0H   SFRSYM    DATA     BYTE      PSW
      0000009DH   SFRSYM    DATA     BYTE      IRCBAND
      00000097H   SFRSYM    DATA     BYTE      AUXR2
      000000EFH   SFRSYM    DATA     BYTE      AUXINTIF
      000000FDH   SFRSYM    DATA     BYTE      S4CON
      000000ACH   SFRSYM    DATA     BYTE      S3CON
      0000009AH   SFRSYM    DATA     BYTE      S2CON
      000000B7H   SFRSYM    DATA     BYTE      IPH
      000000CDH   SFRSYM    DATA     BYTE      SPSTAT
      000000DDH   SFRSYM    DATA     BYTE      T4T3M
      000000C1H   SFRSYM    DATA     BYTE      WDT_CONTR
      000000DFH   SFRSYM    DATA     BYTE      IP3
      000000F4H   SFRSYM    DATA     BYTE      USBCON
      000000B5H   SFRSYM    DATA     BYTE      IP2
      000000FFH   SFRSYM    DATA     BYTE      RSTCFG
      000000F9H   SFRSYM    DATA     BYTE      LINICR
      0000008EH   SFRSYM    DATA     BYTE      AUXR
      000000AFH   SFRSYM    DATA     BYTE      IE2
      00000088H   SFRSYM    DATA     BYTE      TCON
      00000098H   SFRSYM    DATA     BYTE      SCON
      000000F1H   SFRSYM    DATA     BYTE      CANICR
      00000087H   SFRSYM    DATA     BYTE      PCON
      000000BCH   SFRSYM    DATA     BYTE      ADC_CONTR
      000000E7H   SFRSYM    DATA     BYTE      CMPCR2
      000000E6H   SFRSYM    DATA     BYTE      CMPCR1
      000000B8H   SFRSYM    DATA     BYTE      IP
      0000008FH   SFRSYM    DATA     BYTE      INTCLKO
      000000EEH   SFRSYM    DATA     BYTE      IP3H
      000000B6H   SFRSYM    DATA     BYTE      IP2H
      000000A8H   SFRSYM    DATA     BYTE      IE
      000000BBH   SFRSYM    DATA     BYTE      P_SW3
      000000BAH   SFRSYM    DATA     BYTE      P_SW2
      000000A2H   SFRSYM    DATA     BYTE      P_SW1
      000000CEH   SFRSYM    DATA     BYTE      SPCTL
      000000F8H   SFRSYM    DATA     BYTE      P7
      000000E8H   SFRSYM    DATA     BYTE      P6
      000000C8H   SFRSYM    DATA     BYTE      P5
L251 LINKER/LOCATER V4.66.93.0                                                        06/26/2023  14:53:20  PAGE 165


      000000C0H   SFRSYM    DATA     BYTE      P4
      000000B0H   SFRSYM    DATA     BYTE      P3
      000000A0H   SFRSYM    DATA     BYTE      P2
      00000090H   SFRSYM    DATA     BYTE      P1
      00000080H   SFRSYM    DATA     BYTE      P0

      00FF952AH   BLOCK     ECODE    ---       LVL=0
      00FF952CH   BLOCK     ECODE    NEAR LAB  LVL=1
      WR14        REGSYM    ---      INT       i
      WR4         REGSYM    ---      INT       j
      WR2         REGSYM    ---      INT       k
      WR0         REGSYM    ---      INT       temp
      0001000CH   SYMBOL    XDATA    ---       ad_valu
      00010066H   SYMBOL    XDATA    ---       ad_valu1
      00010078H   SYMBOL    XDATA    ---       ad_sum
      0001008AH   SYMBOL    XDATA    ---       ValueOfADOld
      0001009CH   SYMBOL    XDATA    ---       ValueOfADNew
      ---         BLOCKEND  ---      ---       LVL=1
      00FF952AH   LINE      ECODE    ---       #78
      00FF952CH   LINE      ECODE    ---       #79
      00FF952CH   LINE      ECODE    ---       #85
      00FF952EH   LINE      ECODE    ---       #87
      00FF954BH   LINE      ECODE    ---       #88
      00FF9568H   LINE      ECODE    ---       #89
      00FF9585H   LINE      ECODE    ---       #90
      00FF95A2H   LINE      ECODE    ---       #91
      00FF95BFH   LINE      ECODE    ---       #92
      00FF95DCH   LINE      ECODE    ---       #103
      00FF95E7H   LINE      ECODE    ---       #107
      00FF95EBH   LINE      ECODE    ---       #109
      00FF95EDH   LINE      ECODE    ---       #111
      00FF95F1H   LINE      ECODE    ---       #113
      00FF961DH   LINE      ECODE    ---       #115
      00FF961DH   LINE      ECODE    ---       #116
      00FF9636H   LINE      ECODE    ---       #117
      00FF964FH   LINE      ECODE    ---       #118
      00FF965BH   LINE      ECODE    ---       #120
      00FF9663H   LINE      ECODE    ---       #121
      00FF966BH   LINE      ECODE    ---       #124
      00FF966DH   LINE      ECODE    ---       #126
      00FF96B5H   LINE      ECODE    ---       #127
      00FF96D9H   LINE      ECODE    ---       #128
      00FF96E1H   LINE      ECODE    ---       #131
      00FF96E3H   LINE      ECODE    ---       #133
      00FF9713H   LINE      ECODE    ---       #136
      00FF9731H   LINE      ECODE    ---       #137
      00FF974BH   LINE      ECODE    ---       #139
      00FF9761H   LINE      ECODE    ---       #140
      00FF978FH   LINE      ECODE    ---       #142
      00FF97B7H   LINE      ECODE    ---       #143
      00FF97C2H   LINE      ECODE    ---       #145
      ---         BLOCKEND  ---      ---       LVL=0

      00FF97C5H   BLOCK     ECODE    ---       LVL=0
      00FF97C5H   LINE      ECODE    ---       #150
      00FF97C5H   LINE      ECODE    ---       #152
      00FF97C9H   LINE      ECODE    ---       #153
      00FF97D2H   LINE      ECODE    ---       #154
      00FF97DBH   LINE      ECODE    ---       #155
      00FF97E4H   LINE      ECODE    ---       #156
      00FF97EDH   LINE      ECODE    ---       #157
      00FF97F6H   LINE      ECODE    ---       #158
      00FF97FFH   LINE      ECODE    ---       #163
      00FF9839H   LINE      ECODE    ---       #164
      00FF985DH   LINE      ECODE    ---       #165
L251 LINKER/LOCATER V4.66.93.0                                                        06/26/2023  14:53:20  PAGE 166


      00FF9881H   LINE      ECODE    ---       #166
      00FF98A5H   LINE      ECODE    ---       #167
      00FF98C9H   LINE      ECODE    ---       #168
      00FF98ECH   LINE      ECODE    ---       #173
      00FF9902H   LINE      ECODE    ---       #174
      00FF9920H   LINE      ECODE    ---       #175
      00FF993CH   LINE      ECODE    ---       #176
      00FF9954H   LINE      ECODE    ---       #177
      00FF9970H   LINE      ECODE    ---       #178
      00FF9988H   LINE      ECODE    ---       #179
      00FF99A4H   LINE      ECODE    ---       #180
      00FF99BCH   LINE      ECODE    ---       #181
      00FF99D8H   LINE      ECODE    ---       #182
      00FF99F0H   LINE      ECODE    ---       #183
      00FF9A0CH   LINE      ECODE    ---       #184
      00FF9A24H   LINE      ECODE    ---       #185
      00FF9A40H   LINE      ECODE    ---       #186
      00FF9A58H   LINE      ECODE    ---       #187
      00FF9A74H   LINE      ECODE    ---       #188
      00FF9A8CH   LINE      ECODE    ---       #189
      00FF9AA8H   LINE      ECODE    ---       #190
      00FF9AC0H   LINE      ECODE    ---       #191
      ---         BLOCKEND  ---      ---       LVL=0

      00FF9AC1H   BLOCK     ECODE    ---       LVL=0
      00FF9AC3H   BLOCK     ECODE    NEAR LAB  LVL=1
      000103DBH   SYMBOL    XDATA    ---       g_fDirectionErrorTemp
      ---         BLOCKEND  ---      ---       LVL=1
      00FF9AC1H   LINE      ECODE    ---       #208
      00FF9AC3H   LINE      ECODE    ---       #209
      00FF9AC3H   LINE      ECODE    ---       #214
      00FF9AC7H   LINE      ECODE    ---       #230
      00FF9B35H   LINE      ECODE    ---       #231
      00FF9BA3H   LINE      ECODE    ---       #232
      00FF9CAFH   LINE      ECODE    ---       #235
      00FF9CC3H   LINE      ECODE    ---       #236
      00FF9CD7H   LINE      ECODE    ---       #237
      00FF9CEBH   LINE      ECODE    ---       #238
      00FF9CFFH   LINE      ECODE    ---       #239
      00FF9D13H   LINE      ECODE    ---       #240
      00FF9D35H   LINE      ECODE    ---       #242
      00FF9D95H   LINE      ECODE    ---       #244
      00FF9D9DH   LINE      ECODE    ---       #245
      00FF9D9FH   LINE      ECODE    ---       #248
      00FF9DA7H   LINE      ECODE    ---       #250
      00FF9DA7H   LINE      ECODE    ---       #253
      ---         BLOCKEND  ---      ---       LVL=0

      ---         MODULE    ---      ---       control
      00FFE92AH   PUBLIC    ECODE    ---       Control?
      000108A3H   PUBLIC    XDATA    BYTE      Ring_state
      000108A4H   PUBLIC    XDATA    INT       duty1
      000108A6H   PUBLIC    XDATA    INT       duty2
      000000D0H   SFRSYM    DATA     BYTE      PSW
      0000009DH   SFRSYM    DATA     BYTE      IRCBAND
      00000097H   SFRSYM    DATA     BYTE      AUXR2
      000000EFH   SFRSYM    DATA     BYTE      AUXINTIF
      000000FDH   SFRSYM    DATA     BYTE      S4CON
      000000ACH   SFRSYM    DATA     BYTE      S3CON
      0000009AH   SFRSYM    DATA     BYTE      S2CON
      000000B7H   SFRSYM    DATA     BYTE      IPH
      000000CDH   SFRSYM    DATA     BYTE      SPSTAT
      000000DDH   SFRSYM    DATA     BYTE      T4T3M
      000000C1H   SFRSYM    DATA     BYTE      WDT_CONTR
      000000DFH   SFRSYM    DATA     BYTE      IP3
L251 LINKER/LOCATER V4.66.93.0                                                        06/26/2023  14:53:20  PAGE 167


      000000F4H   SFRSYM    DATA     BYTE      USBCON
      000000B5H   SFRSYM    DATA     BYTE      IP2
      000000FFH   SFRSYM    DATA     BYTE      RSTCFG
      000000F9H   SFRSYM    DATA     BYTE      LINICR
      0000008EH   SFRSYM    DATA     BYTE      AUXR
      000000AFH   SFRSYM    DATA     BYTE      IE2
      000000E8H.4 SFRSYM    DATA     BIT       P64
      000000E8H.0 SFRSYM    DATA     BIT       P60
      00000088H   SFRSYM    DATA     BYTE      TCON
      00000098H   SFRSYM    DATA     BYTE      SCON
      000000F1H   SFRSYM    DATA     BYTE      CANICR
      00000087H   SFRSYM    DATA     BYTE      PCON
      000000BCH   SFRSYM    DATA     BYTE      ADC_CONTR
      000000E7H   SFRSYM    DATA     BYTE      CMPCR2
      000000E6H   SFRSYM    DATA     BYTE      CMPCR1
      000000B8H   SFRSYM    DATA     BYTE      IP
      0000008FH   SFRSYM    DATA     BYTE      INTCLKO
      000000EEH   SFRSYM    DATA     BYTE      IP3H
      000000B6H   SFRSYM    DATA     BYTE      IP2H
      000000A8H   SFRSYM    DATA     BYTE      IE
      000000BBH   SFRSYM    DATA     BYTE      P_SW3
      000000BAH   SFRSYM    DATA     BYTE      P_SW2
      000000A2H   SFRSYM    DATA     BYTE      P_SW1
      000000CEH   SFRSYM    DATA     BYTE      SPCTL
      000000F8H   SFRSYM    DATA     BYTE      P7
      000000E8H   SFRSYM    DATA     BYTE      P6
      000000C8H   SFRSYM    DATA     BYTE      P5
      000000C0H   SFRSYM    DATA     BYTE      P4
      000000B0H   SFRSYM    DATA     BYTE      P3
      000000A0H   SFRSYM    DATA     BYTE      P2
      00000090H   SFRSYM    DATA     BYTE      P1
      00000080H   SFRSYM    DATA     BYTE      P0

      00FFE92AH   BLOCK     ECODE    ---       LVL=0
      00FFE92AH   LINE      ECODE    ---       #12
      00FFE92CH   LINE      ECODE    ---       #14
      00FFE938H   LINE      ECODE    ---       #16
      00FFE946H   LINE      ECODE    ---       #17
      00FFE948H   LINE      ECODE    ---       #18
      00FFE94AH   LINE      ECODE    ---       #21
      00FFE966H   LINE      ECODE    ---       #22
      00FFE968H   LINE      ECODE    ---       #23
      00FFE968H   LINE      ECODE    ---       #25
      00FFE974H   LINE      ECODE    ---       #27
      00FFE982H   LINE      ECODE    ---       #28
      00FFE984H   LINE      ECODE    ---       #29
      00FFE986H   LINE      ECODE    ---       #32
      00FFE9A2H   LINE      ECODE    ---       #33
      00FFE9A4H   LINE      ECODE    ---       #34
      00FFE9A4H   LINE      ECODE    ---       #39
      ---         BLOCKEND  ---      ---       LVL=0

      ---         MODULE    ---      ---       encoder
      00FFEA21H   PUBLIC    ECODE    ---       read_encoder?
      0001082EH   PUBLIC    XDATA    FLOAT     encoder_integral
      00010832H   PUBLIC    XDATA    INT       count_flag
      00010834H   PUBLIC    XDATA    INT       speed1
      00010836H   PUBLIC    XDATA    INT       speed2
      00010838H   PUBLIC    XDATA    FLOAT     encoder
      000000D0H   SFRSYM    DATA     BYTE      PSW
      0000009DH   SFRSYM    DATA     BYTE      IRCBAND
      00000097H   SFRSYM    DATA     BYTE      AUXR2
      000000EFH   SFRSYM    DATA     BYTE      AUXINTIF
      000000FDH   SFRSYM    DATA     BYTE      S4CON
      000000ACH   SFRSYM    DATA     BYTE      S3CON
L251 LINKER/LOCATER V4.66.93.0                                                        06/26/2023  14:53:20  PAGE 168


      0000009AH   SFRSYM    DATA     BYTE      S2CON
      000000B7H   SFRSYM    DATA     BYTE      IPH
      000000CDH   SFRSYM    DATA     BYTE      SPSTAT
      000000DDH   SFRSYM    DATA     BYTE      T4T3M
      000000C1H   SFRSYM    DATA     BYTE      WDT_CONTR
      000000DFH   SFRSYM    DATA     BYTE      IP3
      000000F4H   SFRSYM    DATA     BYTE      USBCON
      000000B5H   SFRSYM    DATA     BYTE      IP2
      000000FFH   SFRSYM    DATA     BYTE      RSTCFG
      000000F9H   SFRSYM    DATA     BYTE      LINICR
      0000008EH   SFRSYM    DATA     BYTE      AUXR
      000000AFH   SFRSYM    DATA     BYTE      IE2
      000000B0H.5 SFRSYM    DATA     BIT       P35
      000000C8H.3 SFRSYM    DATA     BIT       P53
      00000088H   SFRSYM    DATA     BYTE      TCON
      00000098H   SFRSYM    DATA     BYTE      SCON
      000000F1H   SFRSYM    DATA     BYTE      CANICR
      00000087H   SFRSYM    DATA     BYTE      PCON
      000000BCH   SFRSYM    DATA     BYTE      ADC_CONTR
      000000E7H   SFRSYM    DATA     BYTE      CMPCR2
      000000E6H   SFRSYM    DATA     BYTE      CMPCR1
      000000B8H   SFRSYM    DATA     BYTE      IP
      0000008FH   SFRSYM    DATA     BYTE      INTCLKO
      000000EEH   SFRSYM    DATA     BYTE      IP3H
      000000B6H   SFRSYM    DATA     BYTE      IP2H
      000000A8H   SFRSYM    DATA     BYTE      IE
      000000BBH   SFRSYM    DATA     BYTE      P_SW3
      000000BAH   SFRSYM    DATA     BYTE      P_SW2
      000000A2H   SFRSYM    DATA     BYTE      P_SW1
      000000CEH   SFRSYM    DATA     BYTE      SPCTL
      000000F8H   SFRSYM    DATA     BYTE      P7
      000000E8H   SFRSYM    DATA     BYTE      P6
      000000C8H   SFRSYM    DATA     BYTE      P5
      000000C0H   SFRSYM    DATA     BYTE      P4
      000000B0H   SFRSYM    DATA     BYTE      P3
      000000A0H   SFRSYM    DATA     BYTE      P2
      00000090H   SFRSYM    DATA     BYTE      P1
      00000080H   SFRSYM    DATA     BYTE      P0

      00FFEA21H   BLOCK     ECODE    ---       LVL=0
      00FFEA21H   LINE      ECODE    ---       #9
      00FFEA21H   LINE      ECODE    ---       #11
      00FFEA28H   LINE      ECODE    ---       #13
      00FFEA34H   LINE      ECODE    ---       #14
      00FFEA36H   LINE      ECODE    ---       #17
      00FFEA42H   LINE      ECODE    ---       #18
      00FFEA42H   LINE      ECODE    ---       #20
      00FFEA49H   LINE      ECODE    ---       #22
      00FFEA51H   LINE      ECODE    ---       #23
      00FFEA53H   LINE      ECODE    ---       #26
      00FFEA67H   LINE      ECODE    ---       #28
      00FFEA67H   LINE      ECODE    ---       #29
      00FFEA6DH   LINE      ECODE    ---       #30
      ---         BLOCKEND  ---      ---       LVL=0

      ---         MODULE    ---      ---       park
      0001083CH   PUBLIC    XDATA    INT       rk_time1
      0001083EH   PUBLIC    XDATA    INT       rk_time2
      00010840H   PUBLIC    XDATA    INT       rk_time3
      00010842H   PUBLIC    XDATA    INT       ruku
      00010844H   PUBLIC    XDATA    INT       park1
      00010846H   PUBLIC    XDATA    INT       park2
      00010848H   PUBLIC    XDATA    INT       park3
      000000D0H   SFRSYM    DATA     BYTE      PSW
      0000009DH   SFRSYM    DATA     BYTE      IRCBAND
L251 LINKER/LOCATER V4.66.93.0                                                        06/26/2023  14:53:20  PAGE 169


      00000097H   SFRSYM    DATA     BYTE      AUXR2
      000000EFH   SFRSYM    DATA     BYTE      AUXINTIF
      000000FDH   SFRSYM    DATA     BYTE      S4CON
      000000ACH   SFRSYM    DATA     BYTE      S3CON
      0000009AH   SFRSYM    DATA     BYTE      S2CON
      000000B7H   SFRSYM    DATA     BYTE      IPH
      000000CDH   SFRSYM    DATA     BYTE      SPSTAT
      000000DDH   SFRSYM    DATA     BYTE      T4T3M
      000000C1H   SFRSYM    DATA     BYTE      WDT_CONTR
      000000DFH   SFRSYM    DATA     BYTE      IP3
      000000F4H   SFRSYM    DATA     BYTE      USBCON
      000000B5H   SFRSYM    DATA     BYTE      IP2
      000000FFH   SFRSYM    DATA     BYTE      RSTCFG
      000000F9H   SFRSYM    DATA     BYTE      LINICR
      0000008EH   SFRSYM    DATA     BYTE      AUXR
      000000AFH   SFRSYM    DATA     BYTE      IE2
      00000088H   SFRSYM    DATA     BYTE      TCON
      00000098H   SFRSYM    DATA     BYTE      SCON
      000000F1H   SFRSYM    DATA     BYTE      CANICR
      00000087H   SFRSYM    DATA     BYTE      PCON
      000000BCH   SFRSYM    DATA     BYTE      ADC_CONTR
      000000E7H   SFRSYM    DATA     BYTE      CMPCR2
      000000E6H   SFRSYM    DATA     BYTE      CMPCR1
      000000B8H   SFRSYM    DATA     BYTE      IP
      0000008FH   SFRSYM    DATA     BYTE      INTCLKO
      000000EEH   SFRSYM    DATA     BYTE      IP3H
      000000B6H   SFRSYM    DATA     BYTE      IP2H
      000000A8H   SFRSYM    DATA     BYTE      IE
      000000BBH   SFRSYM    DATA     BYTE      P_SW3
      000000BAH   SFRSYM    DATA     BYTE      P_SW2
      000000A2H   SFRSYM    DATA     BYTE      P_SW1
      000000CEH   SFRSYM    DATA     BYTE      SPCTL
      000000F8H   SFRSYM    DATA     BYTE      P7
      000000E8H   SFRSYM    DATA     BYTE      P6
      000000C8H   SFRSYM    DATA     BYTE      P5
      000000C0H   SFRSYM    DATA     BYTE      P4
      000000B0H   SFRSYM    DATA     BYTE      P3
      000000A0H   SFRSYM    DATA     BYTE      P2
      00000090H   SFRSYM    DATA     BYTE      P1
      00000080H   SFRSYM    DATA     BYTE      P0

      ---         MODULE    ---      ---       pid
      00FFBFBCH   PUBLIC    ECODE    ---       speedL_pid?
      00FFC06AH   PUBLIC    ECODE    ---       speedR_pid?
      00FFC118H   PUBLIC    ECODE    ---       mpu660_PID?
      00FFBFBBH   PUBLIC    ECODE    ---       Target_speed?
      00FFBD00H   PUBLIC    ECODE    ---       dir_pid?
      00010734H   PUBLIC    XDATA    INT       error_pre2
      00010736H   PUBLIC    XDATA    FLOAT     cha_err1
      0001073AH   PUBLIC    XDATA    FLOAT     cha_err2
      0001073EH   PUBLIC    XDATA    FLOAT     Target_speed1
      00010742H   PUBLIC    XDATA    FLOAT     Target_speed2
      00010746H   PUBLIC    XDATA    INT       last_err1
      00010748H   PUBLIC    XDATA    FLOAT     g_dirControl_D
      0001074CH   PUBLIC    XDATA    INT       speed
      0001074EH   PUBLIC    XDATA    INT       last_err2
      00010750H   PUBLIC    XDATA    FLOAT     g_dirControl_P
      00010754H   PUBLIC    XDATA    FLOAT     Motor_Ki_L
      00010758H   PUBLIC    XDATA    INT       error_pre
      0001075AH   PUBLIC    XDATA    FLOAT     Motor_Ki_R
      0001075EH   PUBLIC    XDATA    FLOAT     Motor_Kp_L
      00010762H   PUBLIC    XDATA    INT       error1
      00010764H   PUBLIC    XDATA    INT       error2
      00010766H   PUBLIC    XDATA    FLOAT     v_angle
      0001076AH   PUBLIC    XDATA    FLOAT     ZX_kd
L251 LINKER/LOCATER V4.66.93.0                                                        06/26/2023  14:53:20  PAGE 170


      0001076EH   PUBLIC    XDATA    FLOAT     Motor_Kp_R
      00010772H   PUBLIC    XDATA    FLOAT     price_PWM
      00010776H   PUBLIC    XDATA    FLOAT     ZX_kp
      0001077AH   PUBLIC    XDATA    FLOAT     angle_kp1
      000000D0H   SFRSYM    DATA     BYTE      PSW
      0000009DH   SFRSYM    DATA     BYTE      IRCBAND
      00000097H   SFRSYM    DATA     BYTE      AUXR2
      000000EFH   SFRSYM    DATA     BYTE      AUXINTIF
      000000FDH   SFRSYM    DATA     BYTE      S4CON
      000000ACH   SFRSYM    DATA     BYTE      S3CON
      0000009AH   SFRSYM    DATA     BYTE      S2CON
      000000B7H   SFRSYM    DATA     BYTE      IPH
      000000CDH   SFRSYM    DATA     BYTE      SPSTAT
      000000DDH   SFRSYM    DATA     BYTE      T4T3M
      000000C1H   SFRSYM    DATA     BYTE      WDT_CONTR
      000000DFH   SFRSYM    DATA     BYTE      IP3
      000000F4H   SFRSYM    DATA     BYTE      USBCON
      000000B5H   SFRSYM    DATA     BYTE      IP2
      000000FFH   SFRSYM    DATA     BYTE      RSTCFG
      000000F9H   SFRSYM    DATA     BYTE      LINICR
      0000008EH   SFRSYM    DATA     BYTE      AUXR
      000000AFH   SFRSYM    DATA     BYTE      IE2
      00000088H   SFRSYM    DATA     BYTE      TCON
      00000098H   SFRSYM    DATA     BYTE      SCON
      000000F1H   SFRSYM    DATA     BYTE      CANICR
      00000087H   SFRSYM    DATA     BYTE      PCON
      000000BCH   SFRSYM    DATA     BYTE      ADC_CONTR
      000000E7H   SFRSYM    DATA     BYTE      CMPCR2
      000000E6H   SFRSYM    DATA     BYTE      CMPCR1
      000000B8H   SFRSYM    DATA     BYTE      IP
      0000008FH   SFRSYM    DATA     BYTE      INTCLKO
      000000EEH   SFRSYM    DATA     BYTE      IP3H
      000000B6H   SFRSYM    DATA     BYTE      IP2H
      000000A8H   SFRSYM    DATA     BYTE      IE
      000000BBH   SFRSYM    DATA     BYTE      P_SW3
      000000BAH   SFRSYM    DATA     BYTE      P_SW2
      000000A2H   SFRSYM    DATA     BYTE      P_SW1
      000000CEH   SFRSYM    DATA     BYTE      SPCTL
      000000F8H   SFRSYM    DATA     BYTE      P7
      000000E8H   SFRSYM    DATA     BYTE      P6
      000000C8H   SFRSYM    DATA     BYTE      P5
      000000C0H   SFRSYM    DATA     BYTE      P4
      000000B0H   SFRSYM    DATA     BYTE      P3
      000000A0H   SFRSYM    DATA     BYTE      P2
      00000090H   SFRSYM    DATA     BYTE      P1
      00000080H   SFRSYM    DATA     BYTE      P0

      00FFBD00H   BLOCK     ECODE    ---       LVL=0
      00FFBD00H   LINE      ECODE    ---       #19
      00FFBD00H   LINE      ECODE    ---       #22
      00FFBD3EH   LINE      ECODE    ---       #23
      00FFBD4AH   LINE      ECODE    ---       #24
      00FFBD62H   LINE      ECODE    ---       #26
      00FFBD6EH   LINE      ECODE    ---       #27
      00FFBD6EH   LINE      ECODE    ---       #30
      00FFBD71H   LINE      ECODE    ---       #33
      00FFBD89H   LINE      ECODE    ---       #35
      00FFBD9DH   LINE      ECODE    ---       #36
      00FFBDCDH   LINE      ECODE    ---       #37
      00FFBDD5H   LINE      ECODE    ---       #39
      00FFBDD8H   LINE      ECODE    ---       #42
      00FFBDE8H   LINE      ECODE    ---       #44
      00FFBDF8H   LINE      ECODE    ---       #45
      00FFBE0AH   LINE      ECODE    ---       #46
      00FFBE12H   LINE      ECODE    ---       #47
L251 LINKER/LOCATER V4.66.93.0                                                        06/26/2023  14:53:20  PAGE 171


      00FFBE15H   LINE      ECODE    ---       #48
      00FFBE2FH   LINE      ECODE    ---       #50
      00FFBE3FH   LINE      ECODE    ---       #51
      00FFBE51H   LINE      ECODE    ---       #52
      00FFBE59H   LINE      ECODE    ---       #53
      00FFBE5CH   LINE      ECODE    ---       #56
      00FFBE6BH   LINE      ECODE    ---       #58
      00FFBE9BH   LINE      ECODE    ---       #59
      00FFBEADH   LINE      ECODE    ---       #60
      00FFBF11H   LINE      ECODE    ---       #61
      00FFBF1DH   LINE      ECODE    ---       #62
      00FFBF1EH   LINE      ECODE    ---       #65
      00FFBF6CH   LINE      ECODE    ---       #66
      00FFBF78H   LINE      ECODE    ---       #67
      00FFBFA8H   LINE      ECODE    ---       #68
      00FFBFBAH   LINE      ECODE    ---       #69
      00FFBFBAH   LINE      ECODE    ---       #70
      00FFBFBAH   LINE      ECODE    ---       #71
      00FFBFBAH   LINE      ECODE    ---       #72
      00FFBFBAH   LINE      ECODE    ---       #75
      ---         BLOCKEND  ---      ---       LVL=0

      00FFBFBBH   BLOCK     ECODE    ---       LVL=0
      00FFBFBBH   LINE      ECODE    ---       #76
      00FFBFBBH   LINE      ECODE    ---       #81
      ---         BLOCKEND  ---      ---       LVL=0

      00FFBFBCH   BLOCK     ECODE    ---       LVL=0
      00FFBFBCH   LINE      ECODE    ---       #87
      00FFBFBCH   LINE      ECODE    ---       #90
      00FFBFE4H   LINE      ECODE    ---       #91
      00FFC03CH   LINE      ECODE    ---       #92
      00FFC042H   LINE      ECODE    ---       #93
      00FFC059H   LINE      ECODE    ---       #94
      00FFC069H   LINE      ECODE    ---       #96
      ---         BLOCKEND  ---      ---       LVL=0

      00FFC06AH   BLOCK     ECODE    ---       LVL=0
      00FFC06AH   LINE      ECODE    ---       #98
      00FFC06AH   LINE      ECODE    ---       #101
      00FFC092H   LINE      ECODE    ---       #102
      00FFC0EAH   LINE      ECODE    ---       #103
      00FFC0F0H   LINE      ECODE    ---       #104
      00FFC107H   LINE      ECODE    ---       #105
      00FFC117H   LINE      ECODE    ---       #108
      ---         BLOCKEND  ---      ---       LVL=0

      00FFC118H   BLOCK     ECODE    ---       LVL=0
      00FFC118H   LINE      ECODE    ---       #110
      00FFC118H   LINE      ECODE    ---       #112
      00FFC11CH   LINE      ECODE    ---       #113
      00FFC130H   LINE      ECODE    ---       #115
      ---         BLOCKEND  ---      ---       LVL=0

      ---         MODULE    ---      ---       round
      00FFB417H   PUBLIC    ECODE    ---       CHUKU?
      00FFAF54H   PUBLIC    ECODE    ---       RuKu?
      00FFB196H   PUBLIC    ECODE    ---       Huan_Dao_R?
      00FFB021H   PUBLIC    ECODE    ---       Huan_Dao_Z?
      00FFAD0DH   PUBLIC    ECODE    ---       knn?
      00FFB335H   PUBLIC    ECODE    ---       obstacle?
      000107A7H   PUBLIC    XDATA    INT       flag_hd_Z
      000107A9H   PUBLIC    XDATA    INT       count_OUT
      000107ABH   PUBLIC    XDATA    INT       roundcount2
      000107ADH   PUBLIC    XDATA    INT       HD
L251 LINKER/LOCATER V4.66.93.0                                                        06/26/2023  14:53:20  PAGE 172


      000107AFH   PUBLIC    XDATA    INT       flag_hd_Z_2
      000107B1H   PUBLIC    XDATA    INT       CK_count
      000107B3H   PUBLIC    XDATA    INT       XJ
      000107B5H   PUBLIC    XDATA    INT       count_IN
      000107B7H   PUBLIC    XDATA    INT       flag_hding1
      000107B9H   PUBLIC    XDATA    INT       flag_hding2
      000107BBH   PUBLIC    XDATA    INT       CK_count2
      000107BDH   PUBLIC    XDATA    INT       roundcount
      000107BFH   PUBLIC    XDATA    INT       count_R
      000107C1H   PUBLIC    XDATA    INT       flag_in_round
      000107C3H   PUBLIC    XDATA    INT       flag_out_round
      000107C5H   PUBLIC    XDATA    INT       e_r1
      000107C7H   PUBLIC    XDATA    INT       e_r2
      000107C9H   PUBLIC    XDATA    INT       cd_time_1
      000107CBH   PUBLIC    XDATA    INT       flag_hd_R
      000000D0H   SFRSYM    DATA     BYTE      PSW
      0000009DH   SFRSYM    DATA     BYTE      IRCBAND
      00000097H   SFRSYM    DATA     BYTE      AUXR2
      000000EFH   SFRSYM    DATA     BYTE      AUXINTIF
      000000FDH   SFRSYM    DATA     BYTE      S4CON
      000000ACH   SFRSYM    DATA     BYTE      S3CON
      0000009AH   SFRSYM    DATA     BYTE      S2CON
      000000B7H   SFRSYM    DATA     BYTE      IPH
      000000CDH   SFRSYM    DATA     BYTE      SPSTAT
      000000DDH   SFRSYM    DATA     BYTE      T4T3M
      000000C1H   SFRSYM    DATA     BYTE      WDT_CONTR
      000000DFH   SFRSYM    DATA     BYTE      IP3
      000000F4H   SFRSYM    DATA     BYTE      USBCON
      000000B5H   SFRSYM    DATA     BYTE      IP2
      000000FFH   SFRSYM    DATA     BYTE      RSTCFG
      000000F9H   SFRSYM    DATA     BYTE      LINICR
      0000008EH   SFRSYM    DATA     BYTE      AUXR
      000000AFH   SFRSYM    DATA     BYTE      IE2
      00000088H   SFRSYM    DATA     BYTE      TCON
      00000098H   SFRSYM    DATA     BYTE      SCON
      000000F1H   SFRSYM    DATA     BYTE      CANICR
      00000087H   SFRSYM    DATA     BYTE      PCON
      000000BCH   SFRSYM    DATA     BYTE      ADC_CONTR
      000000E7H   SFRSYM    DATA     BYTE      CMPCR2
      000000E6H   SFRSYM    DATA     BYTE      CMPCR1
      000000B8H   SFRSYM    DATA     BYTE      IP
      0000008FH   SFRSYM    DATA     BYTE      INTCLKO
      000000EEH   SFRSYM    DATA     BYTE      IP3H
      000000B6H   SFRSYM    DATA     BYTE      IP2H
      000000A8H   SFRSYM    DATA     BYTE      IE
      000000BBH   SFRSYM    DATA     BYTE      P_SW3
      000000BAH   SFRSYM    DATA     BYTE      P_SW2
      000000A2H   SFRSYM    DATA     BYTE      P_SW1
      000000CEH   SFRSYM    DATA     BYTE      SPCTL
      000000F8H   SFRSYM    DATA     BYTE      P7
      000000E8H   SFRSYM    DATA     BYTE      P6
      000000C8H   SFRSYM    DATA     BYTE      P5
      000000C0H   SFRSYM    DATA     BYTE      P4
      000000B0H   SFRSYM    DATA     BYTE      P3
      000000A0H   SFRSYM    DATA     BYTE      P2
      00000090H   SFRSYM    DATA     BYTE      P1
      00000080H   SFRSYM    DATA     BYTE      P0
      00FFEF5FH   SYMBOL    HCONST   ---       ?tpl?0001

      00FFAD0DH   BLOCK     ECODE    ---       LVL=0
      00FFAD0FH   BLOCK     ECODE    NEAR LAB  LVL=1
      0001000CH   SYMBOL    XDATA    ---       mask
      ---         BLOCKEND  ---      ---       LVL=1
      00FFAD0DH   LINE      ECODE    ---       #24
      00FFAD0FH   LINE      ECODE    ---       #25
L251 LINKER/LOCATER V4.66.93.0                                                        06/26/2023  14:53:20  PAGE 173


      00FFAD0FH   LINE      ECODE    ---       #29
      00FFAD25H   LINE      ECODE    ---       #31
      00FFADDFH   LINE      ECODE    ---       #32
      00FFAEB9H   LINE      ECODE    ---       #34
      00FFAEFDH   LINE      ECODE    ---       #36
      00FFAF07H   LINE      ECODE    ---       #37
      00FFAF0DH   LINE      ECODE    ---       #39
      00FFAF0DH   LINE      ECODE    ---       #40
      00FFAF47H   LINE      ECODE    ---       #42
      00FFAF51H   LINE      ECODE    ---       #44
      ---         BLOCKEND  ---      ---       LVL=0

      00FFAF54H   BLOCK     ECODE    ---       LVL=0
      00FFAF54H   LINE      ECODE    ---       #50
      00FFAF56H   LINE      ECODE    ---       #53
      00FFAF87H   LINE      ECODE    ---       #54
      00FFAF92H   LINE      ECODE    ---       #55
      00FFAFA4H   LINE      ECODE    ---       #59
      00FFAFB4H   LINE      ECODE    ---       #60
      00FFAFBEH   LINE      ECODE    ---       #61
      00FFAFC0H   LINE      ECODE    ---       #62
      00FFAFC2H   LINE      ECODE    ---       #63
      00FFAFCEH   LINE      ECODE    ---       #66
      00FFAFDEH   LINE      ECODE    ---       #67
      00FFAFE8H   LINE      ECODE    ---       #69
      00FFAFF6H   LINE      ECODE    ---       #71
      00FFAFF8H   LINE      ECODE    ---       #72
      00FFAFFEH   LINE      ECODE    ---       #75
      00FFB00AH   LINE      ECODE    ---       #76
      00FFB014H   LINE      ECODE    ---       #78
      00FFB01EH   LINE      ECODE    ---       #80
      ---         BLOCKEND  ---      ---       LVL=0

      00FFB021H   BLOCK     ECODE    ---       LVL=0
      00FFB021H   LINE      ECODE    ---       #85
      00FFB023H   LINE      ECODE    ---       #88
      00FFB033H   LINE      ECODE    ---       #89
      00FFB03DH   LINE      ECODE    ---       #90
      00FFB04CH   LINE      ECODE    ---       #92
      00FFB07DH   LINE      ECODE    ---       #93
      00FFB088H   LINE      ECODE    ---       #94
      00FFB09AH   LINE      ECODE    ---       #96
      00FFB0E5H   LINE      ECODE    ---       #97
      00FFB0E5H   LINE      ECODE    ---       #99
      00FFB0E7H   LINE      ECODE    ---       #100
      00FFB0F3H   LINE      ECODE    ---       #102
      00FFB103H   LINE      ECODE    ---       #104
      00FFB106H   LINE      ECODE    ---       #105
      00FFB112H   LINE      ECODE    ---       #109
      00FFB16AH   LINE      ECODE    ---       #110
      00FFB173H   LINE      ECODE    ---       #112
      00FFB175H   LINE      ECODE    ---       #113
      00FFB17BH   LINE      ECODE    ---       #115
      00FFB185H   LINE      ECODE    ---       #116
      00FFB18DH   LINE      ECODE    ---       #117
      00FFB193H   LINE      ECODE    ---       #119
      00FFB193H   LINE      ECODE    ---       #125
      ---         BLOCKEND  ---      ---       LVL=0

      00FFB196H   BLOCK     ECODE    ---       LVL=0
      00FFB196H   LINE      ECODE    ---       #126
      00FFB198H   LINE      ECODE    ---       #128
      00FFB1C8H   LINE      ECODE    ---       #129
      00FFB1DAH   LINE      ECODE    ---       #131
      00FFB1E9H   LINE      ECODE    ---       #134
L251 LINKER/LOCATER V4.66.93.0                                                        06/26/2023  14:53:20  PAGE 174


      00FFB21AH   LINE      ECODE    ---       #135
      00FFB225H   LINE      ECODE    ---       #136
      00FFB237H   LINE      ECODE    ---       #138
      00FFB282H   LINE      ECODE    ---       #139
      00FFB282H   LINE      ECODE    ---       #141
      00FFB284H   LINE      ECODE    ---       #142
      00FFB290H   LINE      ECODE    ---       #144
      00FFB2A0H   LINE      ECODE    ---       #146
      00FFB2A3H   LINE      ECODE    ---       #147
      00FFB2AFH   LINE      ECODE    ---       #149
      00FFB309H   LINE      ECODE    ---       #150
      00FFB312H   LINE      ECODE    ---       #152
      00FFB314H   LINE      ECODE    ---       #154
      00FFB31AH   LINE      ECODE    ---       #156
      00FFB324H   LINE      ECODE    ---       #157
      00FFB32CH   LINE      ECODE    ---       #158
      00FFB332H   LINE      ECODE    ---       #159
      00FFB332H   LINE      ECODE    ---       #162
      ---         BLOCKEND  ---      ---       LVL=0

      00FFB335H   BLOCK     ECODE    ---       LVL=0
      00FFB335H   LINE      ECODE    ---       #164
      00FFB337H   LINE      ECODE    ---       #166
      00FFB368H   LINE      ECODE    ---       #167
      00FFB373H   LINE      ECODE    ---       #169
      00FFB385H   LINE      ECODE    ---       #172
      00FFB395H   LINE      ECODE    ---       #173
      00FFB398H   LINE      ECODE    ---       #174
      00FFB39AH   LINE      ECODE    ---       #175
      00FFB3A6H   LINE      ECODE    ---       #178
      00FFB3B6H   LINE      ECODE    ---       #179
      00FFB3C0H   LINE      ECODE    ---       #180
      00FFB3CEH   LINE      ECODE    ---       #181
      00FFB3D0H   LINE      ECODE    ---       #182
      00FFB3DCH   LINE      ECODE    ---       #185
      00FFB3ECH   LINE      ECODE    ---       #186
      00FFB3F6H   LINE      ECODE    ---       #187
      00FFB404H   LINE      ECODE    ---       #189
      00FFB406H   LINE      ECODE    ---       #192
      00FFB40EH   LINE      ECODE    ---       #193
      00FFB414H   LINE      ECODE    ---       #194
      00FFB414H   LINE      ECODE    ---       #196
      ---         BLOCKEND  ---      ---       LVL=0

      00FFB417H   BLOCK     ECODE    ---       LVL=0
      00FFB417H   LINE      ECODE    ---       #197
      00FFB417H   LINE      ECODE    ---       #199
      00FFB429H   LINE      ECODE    ---       #201
      00FFB439H   LINE      ECODE    ---       #202
      00FFB447H   LINE      ECODE    ---       #203
      00FFB451H   LINE      ECODE    ---       #204
      00FFB452H   LINE      ECODE    ---       #207
      00FFB45CH   LINE      ECODE    ---       #210
      00FFB45CH   LINE      ECODE    ---       #211
      ---         BLOCKEND  ---      ---       LVL=0

      ---         MODULE    ---      ---       isr
      00FFC801H   PUBLIC    ECODE    ---       UART1_Isr?
      00FFC845H   PUBLIC    ECODE    ---       UART2_Isr?
      00FFC86BH   PUBLIC    ECODE    ---       UART3_Isr?
      00FFC891H   PUBLIC    ECODE    ---       UART4_Isr?
      00FFC8FFH   PUBLIC    ECODE    ---       INT0_Isr?
      00FFC906H   PUBLIC    ECODE    ---       INT1_Isr?
      00FFC907H   PUBLIC    ECODE    ---       INT2_Isr?
      00FFC90FH   PUBLIC    ECODE    ---       INT3_Isr?
L251 LINKER/LOCATER V4.66.93.0                                                        06/26/2023  14:53:20  PAGE 175


      00FFC917H   PUBLIC    ECODE    ---       INT4_Isr?
      00FFC91FH   PUBLIC    ECODE    ---       TM0_Isr?
      00FFC920H   PUBLIC    ECODE    ---       TM1_Isr?
      00FFC921H   PUBLIC    ECODE    ---       TM2_Isr?
      00FFC929H   PUBLIC    ECODE    ---       TM3_Isr?
      00FFC931H   PUBLIC    ECODE    ---       TM4_Isr?
      00010880H   PUBLIC    XDATA    INT       count
      00010882H   PUBLIC    XDATA    INT       flag1
      00010884H   PUBLIC    XDATA    INT       start1
      000000D0H   SFRSYM    DATA     BYTE      PSW
      0000009DH   SFRSYM    DATA     BYTE      IRCBAND
      00000097H   SFRSYM    DATA     BYTE      AUXR2
      000000EFH   SFRSYM    DATA     BYTE      AUXINTIF
      000000FDH   SFRSYM    DATA     BYTE      S4CON
      000000ACH   SFRSYM    DATA     BYTE      S3CON
      0000009AH   SFRSYM    DATA     BYTE      S2CON
      000000B7H   SFRSYM    DATA     BYTE      IPH
      000000CDH   SFRSYM    DATA     BYTE      SPSTAT
      000000DDH   SFRSYM    DATA     BYTE      T4T3M
      000000C1H   SFRSYM    DATA     BYTE      WDT_CONTR
      000000DFH   SFRSYM    DATA     BYTE      IP3
      000000F4H   SFRSYM    DATA     BYTE      USBCON
      000000B5H   SFRSYM    DATA     BYTE      IP2
      000000FFH   SFRSYM    DATA     BYTE      RSTCFG
      000000C7H   SFRSYM    DATA     BYTE      IAP_CONTR
      000000F9H   SFRSYM    DATA     BYTE      LINICR
      0000008EH   SFRSYM    DATA     BYTE      AUXR
      000000AFH   SFRSYM    DATA     BYTE      IE2
      000000A0H.6 SFRSYM    DATA     BIT       P26
      000000C8H.2 SFRSYM    DATA     BIT       P52
      00000088H   SFRSYM    DATA     BYTE      TCON
      00000098H   SFRSYM    DATA     BYTE      SCON
      000000F1H   SFRSYM    DATA     BYTE      CANICR
      00000087H   SFRSYM    DATA     BYTE      PCON
      00000099H   SFRSYM    DATA     BYTE      SBUF
      000000BCH   SFRSYM    DATA     BYTE      ADC_CONTR
      000000E7H   SFRSYM    DATA     BYTE      CMPCR2
      000000E6H   SFRSYM    DATA     BYTE      CMPCR1
      000000B8H   SFRSYM    DATA     BYTE      IP
      0000008FH   SFRSYM    DATA     BYTE      INTCLKO
      000000EEH   SFRSYM    DATA     BYTE      IP3H
      000000B6H   SFRSYM    DATA     BYTE      IP2H
      000000A8H   SFRSYM    DATA     BYTE      IE
      000000BBH   SFRSYM    DATA     BYTE      P_SW3
      000000BAH   SFRSYM    DATA     BYTE      P_SW2
      000000A2H   SFRSYM    DATA     BYTE      P_SW1
      000000CEH   SFRSYM    DATA     BYTE      SPCTL
      000000F8H   SFRSYM    DATA     BYTE      P7
      000000E8H   SFRSYM    DATA     BYTE      P6
      000000C8H   SFRSYM    DATA     BYTE      P5
      000000C0H   SFRSYM    DATA     BYTE      P4
      000000B0H   SFRSYM    DATA     BYTE      P3
      000000A0H   SFRSYM    DATA     BYTE      P2
      00000090H   SFRSYM    DATA     BYTE      P1
      00000080H   SFRSYM    DATA     BYTE      P0

      00FFC801H   BLOCK     ECODE    ---       LVL=0
      00FFC809H   BLOCK     ECODE    NEAR LAB  LVL=1
      R11         REGSYM    ---      BYTE      res
      00010886H   SYMBOL    XDATA    BYTE      dwon_count
      ---         BLOCKEND  ---      ---       LVL=1
      00FFC801H   LINE      ECODE    ---       #23
      00FFC809H   LINE      ECODE    ---       #24
      00FFC809H   LINE      ECODE    ---       #27
      00FFC80EH   LINE      ECODE    ---       #29
L251 LINKER/LOCATER V4.66.93.0                                                        06/26/2023  14:53:20  PAGE 176


      00FFC811H   LINE      ECODE    ---       #30
      00FFC816H   LINE      ECODE    ---       #31
      00FFC816H   LINE      ECODE    ---       #32
      00FFC81BH   LINE      ECODE    ---       #34
      00FFC81EH   LINE      ECODE    ---       #35
      00FFC820H   LINE      ECODE    ---       #37
      00FFC823H   LINE      ECODE    ---       #39
      00FFC832H   LINE      ECODE    ---       #40
      00FFC835H   LINE      ECODE    ---       #41
      00FFC837H   LINE      ECODE    ---       #44
      00FFC83CH   LINE      ECODE    ---       #45
      00FFC83CH   LINE      ECODE    ---       #46
      ---         BLOCKEND  ---      ---       LVL=0

      00FFC845H   BLOCK     ECODE    ---       LVL=0
      00FFC845H   LINE      ECODE    ---       #50
      00FFC84DH   LINE      ECODE    ---       #52
      00FFC852H   LINE      ECODE    ---       #54
      00FFC855H   LINE      ECODE    ---       #55
      00FFC85AH   LINE      ECODE    ---       #56
      00FFC85AH   LINE      ECODE    ---       #57
      00FFC85FH   LINE      ECODE    ---       #59
      00FFC862H   LINE      ECODE    ---       #62
      ---         BLOCKEND  ---      ---       LVL=0

      00FFC86BH   BLOCK     ECODE    ---       LVL=0
      00FFC86BH   LINE      ECODE    ---       #67
      00FFC873H   LINE      ECODE    ---       #69
      00FFC878H   LINE      ECODE    ---       #71
      00FFC87BH   LINE      ECODE    ---       #72
      00FFC880H   LINE      ECODE    ---       #73
      00FFC880H   LINE      ECODE    ---       #74
      00FFC885H   LINE      ECODE    ---       #76
      00FFC888H   LINE      ECODE    ---       #79
      ---         BLOCKEND  ---      ---       LVL=0

      00FFC891H   BLOCK     ECODE    ---       LVL=0
      00FFC891H   LINE      ECODE    ---       #84
      00FFC8A9H   LINE      ECODE    ---       #86
      00FFC8AEH   LINE      ECODE    ---       #88
      00FFC8B1H   LINE      ECODE    ---       #89
      00FFC8B6H   LINE      ECODE    ---       #90
      00FFC8B6H   LINE      ECODE    ---       #91
      00FFC8BBH   LINE      ECODE    ---       #93
      00FFC8BEH   LINE      ECODE    ---       #96
      00FFC8CAH   LINE      ECODE    ---       #98
      00FFC8CEH   LINE      ECODE    ---       #99
      00FFC8D0H   LINE      ECODE    ---       #100
      00FFC8D6H   LINE      ECODE    ---       #102
      00FFC8DAH   LINE      ECODE    ---       #103
      00FFC8DCH   LINE      ECODE    ---       #104
      00FFC8E2H   LINE      ECODE    ---       #106
      00FFC8E6H   LINE      ECODE    ---       #107
      00FFC8E6H   LINE      ECODE    ---       #109
      ---         BLOCKEND  ---      ---       LVL=0

      00FFC8FFH   BLOCK     ECODE    ---       LVL=0
      00FFC8FFH   LINE      ECODE    ---       #112
      00FFC901H   LINE      ECODE    ---       #114
      00FFC903H   LINE      ECODE    ---       #115
      ---         BLOCKEND  ---      ---       LVL=0

      00FFC906H   BLOCK     ECODE    ---       LVL=0
      00FFC906H   LINE      ECODE    ---       #116
      00FFC906H   LINE      ECODE    ---       #119
L251 LINKER/LOCATER V4.66.93.0                                                        06/26/2023  14:53:20  PAGE 177


      ---         BLOCKEND  ---      ---       LVL=0

      00FFC907H   BLOCK     ECODE    ---       LVL=0
      00FFC907H   LINE      ECODE    ---       #120
      00FFC909H   LINE      ECODE    ---       #122
      00FFC90CH   LINE      ECODE    ---       #123
      ---         BLOCKEND  ---      ---       LVL=0

      00FFC90FH   BLOCK     ECODE    ---       LVL=0
      00FFC90FH   LINE      ECODE    ---       #124
      00FFC911H   LINE      ECODE    ---       #126
      00FFC914H   LINE      ECODE    ---       #127
      ---         BLOCKEND  ---      ---       LVL=0

      00FFC917H   BLOCK     ECODE    ---       LVL=0
      00FFC917H   LINE      ECODE    ---       #129
      00FFC919H   LINE      ECODE    ---       #131
      00FFC91CH   LINE      ECODE    ---       #132
      ---         BLOCKEND  ---      ---       LVL=0

      00FFC91FH   BLOCK     ECODE    ---       LVL=0
      00FFC91FH   LINE      ECODE    ---       #134
      00FFC91FH   LINE      ECODE    ---       #137
      ---         BLOCKEND  ---      ---       LVL=0

      00FFC920H   BLOCK     ECODE    ---       LVL=0
      00FFC920H   LINE      ECODE    ---       #138
      00FFC920H   LINE      ECODE    ---       #141
      ---         BLOCKEND  ---      ---       LVL=0

      00FFC921H   BLOCK     ECODE    ---       LVL=0
      00FFC921H   LINE      ECODE    ---       #142
      00FFC923H   LINE      ECODE    ---       #144
      00FFC926H   LINE      ECODE    ---       #146
      ---         BLOCKEND  ---      ---       LVL=0

      00FFC929H   BLOCK     ECODE    ---       LVL=0
      00FFC929H   LINE      ECODE    ---       #147
      00FFC92BH   LINE      ECODE    ---       #149
      00FFC92EH   LINE      ECODE    ---       #151
      ---         BLOCKEND  ---      ---       LVL=0

      00FFC931H   BLOCK     ECODE    ---       LVL=0
      00FFC931H   LINE      ECODE    ---       #156
      00FFC949H   LINE      ECODE    ---       #158
      00FFC94CH   LINE      ECODE    ---       #159
      00FFC950H   LINE      ECODE    ---       #160
      00FFC954H   LINE      ECODE    ---       #161
      00FFC958H   LINE      ECODE    ---       #162
      00FFC95CH   LINE      ECODE    ---       #163
      00FFC98BH   LINE      ECODE    ---       #164
      00FFC999H   LINE      ECODE    ---       #166
      00FFC99DH   LINE      ECODE    ---       #168
      00FFC9ACH   LINE      ECODE    ---       #171
      00FFC9E2H   LINE      ECODE    ---       #173
      00FFC9ECH   LINE      ECODE    ---       #174
      00FFC9ECH   LINE      ECODE    ---       #175
      00FFC9F2H   LINE      ECODE    ---       #177
      00FFC9FCH   LINE      ECODE    ---       #179
      00FFC9FEH   LINE      ECODE    ---       #180
      00FFCA0AH   LINE      ECODE    ---       #182
      00FFCA0EH   LINE      ECODE    ---       #183
      00FFCA10H   LINE      ECODE    ---       #184
      00FFCA1CH   LINE      ECODE    ---       #187
      00FFCA20H   LINE      ECODE    ---       #188
L251 LINKER/LOCATER V4.66.93.0                                                        06/26/2023  14:53:20  PAGE 178


      00FFCA22H   LINE      ECODE    ---       #191
      00FFCA2EH   LINE      ECODE    ---       #193
      00FFCA32H   LINE      ECODE    ---       #194
      00FFCA34H   LINE      ECODE    ---       #195
      00FFCA40H   LINE      ECODE    ---       #197
      00FFCA44H   LINE      ECODE    ---       #198
      00FFCA46H   LINE      ECODE    ---       #202
      00FFCA4AH   LINE      ECODE    ---       #203
      00FFCA4EH   LINE      ECODE    ---       #204
      00FFCA4EH   LINE      ECODE    ---       #205
      00FFCA4EH   LINE      ECODE    ---       #206
      00FFCA4EH   LINE      ECODE    ---       #207
      00FFCA52H   LINE      ECODE    ---       #208
      00FFCA56H   LINE      ECODE    ---       #209
      00FFCA5AH   LINE      ECODE    ---       #210
      00FFCA5EH   LINE      ECODE    ---       #211
      00FFCA62H   LINE      ECODE    ---       #212
      00FFCA80H   LINE      ECODE    ---       #213
      00FFCA90H   LINE      ECODE    ---       #214
      00FFCAA6H   LINE      ECODE    ---       #215
      00FFCAB8H   LINE      ECODE    ---       #219
      ---         BLOCKEND  ---      ---       LVL=0

      ---         MODULE    ---      ---       SEEKFREE_CONFIG
      00FF00A7H   PUBLIC    CODE     ---       imu660ra_config_file

      ---         MODULE    ---      ---       ?C?FPADD?
      00FF88E0H   PUBLIC    ECODE    ---       ?C?FPADD?
      00FF88DDH   PUBLIC    ECODE    ---       ?C?FPSUB?

      ---         MODULE    ---      ---       ?C?FPMUL?
      00FF8998H   PUBLIC    ECODE    ---       ?C?FPMUL?

      ---         MODULE    ---      ---       ?C?FPDIV?
      00FF8A38H   PUBLIC    ECODE    ---       ?C?FPDIV?

      ---         MODULE    ---      ---       ?C?FPCMP?
      00FF8AB9H   PUBLIC    ECODE    ---       ?C?FPCMP3?
      00FF8ABBH   PUBLIC    ECODE    ---       ?C?FPCMP?

      ---         MODULE    ---      ---       ?C?FCAST?
      00FF8B09H   PUBLIC    ECODE    FAR LAB   ?C?FCASTC?
      00FF8B04H   PUBLIC    ECODE    FAR LAB   ?C?FCASTI?
      00FF8AFFH   PUBLIC    ECODE    FAR LAB   ?C?FCASTL?

      ---         MODULE    ---      ---       ?C?CASTF?
      00FF8B3CH   PUBLIC    ECODE    FAR LAB   ?C?CASTF?

      ---         MODULE    ---      ---       PRINTF?
      000100E8H   PUBLIC    XDATA    ---       ?PRINTF??BYTE
      00FF8B79H   PUBLIC    ECODE    FAR LAB   PRINTF?

      ---         MODULE    ---      ---       SQRT??
      00FF8BA6H   PUBLIC    ECODE    ---       SQRT??

      ---         MODULE    ---      ---       POW??
      00FFE5D1H   PUBLIC    ECODE    ---       pow??

      ---         MODULE    ---      ---       ?C?FPGETOPN?
      00FF8C38H   PUBLIC    ECODE    ---       ?C?FPGETOPN2?
      00FF8C75H   PUBLIC    ECODE    ---       ?C?FPNANRESULT?
      00FF8C7DH   PUBLIC    ECODE    ---       ?C?FPOVERFLOW?
      00FF8C67H   PUBLIC    ECODE    ---       ?C?FPRESULT2?
      00FF8C51H   PUBLIC    ECODE    ---       ?C?FPRESULT?
      00FF8C7AH   PUBLIC    ECODE    ---       ?C?FPUNDERFLOW?
L251 LINKER/LOCATER V4.66.93.0                                                        06/26/2023  14:53:20  PAGE 179



      ---         MODULE    ---      ---       _CHKFLOAT_??
      00FF8C89H   PUBLIC    ECODE    ---       _CHKFLOAT_??

      ---         MODULE    ---      ---       ?C?FPNEG?
      00FF8CA6H   PUBLIC    ECODE    ---       ?C?FPNEG?

      ---         MODULE    ---      ---       ?C?PRNFMT?
      00FF8CE1H   PUBLIC    ECODE    ---       ?C?PRNFMT?

      ---         MODULE    ---      ---       EXP??
      00FF9129H   PUBLIC    ECODE    ---       EXP??

      ---         MODULE    ---      ---       LOG??
      00FF91BCH   PUBLIC    ECODE    FAR LAB   LOG??

      ---         MODULE    ---      ---       ?C?FPCONVERT?
      00FF9297H   PUBLIC    ECODE    ---       ?C?FPCONVERT?
      00FF9351H   PUBLIC    ECODE    ---       ?C?FPROUND?

      ---         MODULE    ---      ---       ?C?FPSERIES?
      00FF9394H   PUBLIC    ECODE    ---       ?C?FP2SERIES?
      00FF939EH   PUBLIC    ECODE    ---       ?C?FPSERIES?

      ---         MODULE    ---      ---       ?C?FTNPWR?
      00FF93F4H   PUBLIC    ECODE    ---       ?C?FTNPWR?

      ---         MODULE    ---      ---       ?C_START?
      00FF0000H   PUBLIC    CODE     ---       ?C?STARTUP?
      00FF0000H   PUBLIC    CODE     ---       ?C_STARTUP?

      ---         MODULE    ---      ---       ?C?INITHDATA
      00FF2EC2H   PUBLIC    CODE     ---       ?C?INITHDATA

      ---         MODULE    ---      ---       ?C?SIDIV?
      00FF942CH   PUBLIC    ECODE    ---       ?C?SIDIV?

      ---         MODULE    ---      ---       ?C?LMUL?
      00FF945EH   PUBLIC    ECODE    ---       ?C?LMUL?

      ---         MODULE    ---      ---       ?C?LIMUL?
      00FF946FH   PUBLIC    ECODE    ---       ?C?LIMUL?

      ---         MODULE    ---      ---       ?C?ULDIV?
      00FF947AH   PUBLIC    ECODE    FAR LAB   ?C?ULDIV?
      00FF9478H   PUBLIC    ECODE    FAR LAB   ?C?ULIDIV?

      ---         MODULE    ---      ---       ?C?SLDIV?
      00FF94CBH   PUBLIC    ECODE    FAR LAB   ?C?SLDIV?

      ---         MODULE    ---      ---       ?C?BMOVEPP?
      00FF9501H   PUBLIC    ECODE    ---       ?C?BMOVEPP8?
      00FF9503H   PUBLIC    ECODE    ---       ?C?BMOVEPP?

      ---         MODULE    ---      ---       ABS?
      00FF0067H   PUBLIC    ECODE    ---       abs??

      ---         MODULE    ---      ---       MEMCPY?
      00FFEA75H   PUBLIC    ECODE    ---       memcpy??

      ---         MODULE    ---      ---       MEMSET?
      00FF0027H   PUBLIC    ECODE    ---       memset??

      ---         MODULE    ---      ---       ?C?INITHDATA_END
      00FFEDC4H   PUBLIC    HCONST   WORD      ?C?INITHDATA_END
L251 LINKER/LOCATER V4.66.93.0                                                        06/26/2023  14:53:20  PAGE 180





*** WARNING L14: INCOMPATIBLE MEMORY MODEL
    MODULE:  ..\..\Libraries\seekfree_peripheral\SEEKFREE_CONFIG.LIB (SEEKFREE_CONFIG)
    MODEL:   XSMALL

Program Size: data=26.0 edata+hdata=256 xdata=2292 const=1346 code=59992
L251 RUN COMPLETE.  1 WARNING(S),  0 ERROR(S)
