L251 LINKER/LOCATER V4.66.93.0                                                          07/23/2023  00:26:15  PAGE 1


L251 LINKER/LOCATER V4.66.93.0, INVOKED BY:
C:\KEIL_V5\C251\BIN\L251.EXE .\Out_File\board.obj, .\Out_File\common.obj, .\Out_File\zf_adc.obj, .\Out_File\zf_delay.obj
>> , .\Out_File\zf_eeprom.obj, .\Out_File\zf_exti.obj, .\Out_File\zf_gpio.obj, .\Out_File\zf_iic.obj, .\Out_File\zf_nvic
>> .obj, .\Out_File\zf_pwm.obj, .\Out_File\zf_spi.obj, .\Out_File\zf_tim.obj, .\Out_File\zf_uart.obj, .\Out_File\zf_fifo
>> .obj, .\Out_File\SEEKFREE_18TFT.obj, .\Out_File\SEEKFREE_ABSOLUTE_ENCODER.obj, .\Out_File\SEEKFREE_AT24C02.obj, .\Out
>> _File\SEEKFREE_BLUETOOTH_CH9141.obj, ..\..\Libraries\seekfree_peripheral\SEEKFREE_CONFIG.LIB, .\Out_File\SEEKFREE_DL1
>> A.obj, .\Out_File\SEEKFREE_FONT.obj, .\Out_File\SEEKFREE_ICM20602.obj, .\Out_File\SEEKFREE_IMU660RA.obj, .\Out_File\S
>> EEKFREE_IMU963RA.obj, .\Out_File\SEEKFREE_IPS114_SPI.obj, .\Out_File\SEEKFREE_MPU6050.obj, .\Out_File\SEEKFREE_OLED.o
>> bj, .\Out_File\SEEKFREE_PRINTF.obj, .\Out_File\SEEKFREE_TSL1401.obj, .\Out_File\SEEKFREE_VIRSCO.obj, .\Out_File\SEEKF
>> REE_WIRELESS.obj, .\Out_File\SEEKFREE_WIRELESS_CH573.obj, .\Out_File\eeprom.obj, .\Out_File\main.obj, .\Out_File\key.
>> obj, .\Out_File\Direction.obj, .\Out_File\control.obj, .\Out_File\encoder.obj, .\Out_File\pid.obj, .\Out_File\round.o
>> bj, .\Out_File\isr.obj, .\Out_File\park.obj TO .\Out_File\SEEKFREE PRINT (.\Out_File\SEEKFREE.map) CASE DISABLEWARNIN
>> G (16, 57) REMOVEUNUSED CLASSES (EDATA (0X0-0XFFF), HDATA (0X0-0XFFF))


CPU MODE:     251 SOURCE MODE
INTR FRAME:   4 BYTES SAVED ON INTERRUPT
MEMORY MODEL: XSMALL WITH FLOATING POINT ARITHMETIC


INPUT MODULES INCLUDED:
  .\Out_File\board.obj (board)
         COMMENT TYPE 0: C251 V5.60.0
  .\Out_File\common.obj (common)
         COMMENT TYPE 0: C251 V5.60.0
  .\Out_File\zf_adc.obj (zf_adc)
         COMMENT TYPE 0: C251 V5.60.0
  .\Out_File\zf_delay.obj (zf_delay)
         COMMENT TYPE 0: C251 V5.60.0
  .\Out_File\zf_eeprom.obj (zf_eeprom)
         COMMENT TYPE 0: C251 V5.60.0
  .\Out_File\zf_exti.obj (zf_exti)
         COMMENT TYPE 0: C251 V5.60.0
  .\Out_File\zf_gpio.obj (zf_gpio)
         COMMENT TYPE 0: C251 V5.60.0
  .\Out_File\zf_iic.obj (zf_iic)
         COMMENT TYPE 0: C251 V5.60.0
  .\Out_File\zf_nvic.obj (zf_nvic)
         COMMENT TYPE 0: C251 V5.60.0
  .\Out_File\zf_pwm.obj (zf_pwm)
         COMMENT TYPE 0: C251 V5.60.0
  .\Out_File\zf_spi.obj (zf_spi)
         COMMENT TYPE 0: C251 V5.60.0
  .\Out_File\zf_tim.obj (zf_tim)
         COMMENT TYPE 0: C251 V5.60.0
  .\Out_File\zf_uart.obj (zf_uart)
         COMMENT TYPE 0: C251 V5.60.0
  .\Out_File\zf_fifo.obj (zf_fifo)
         COMMENT TYPE 0: C251 V5.60.0
  .\Out_File\SEEKFREE_18TFT.obj (SEEKFREE_18TFT)
         COMMENT TYPE 0: C251 V5.60.0
  .\Out_File\SEEKFREE_ABSOLUTE_ENCODER.obj (SEEKFREE_ABSOLUTE_ENCODER)
         COMMENT TYPE 0: C251 V5.60.0
  .\Out_File\SEEKFREE_AT24C02.obj (SEEKFREE_AT24C02)
         COMMENT TYPE 0: C251 V5.60.0
  .\Out_File\SEEKFREE_BLUETOOTH_CH9141.obj (SEEKFREE_BLUETOOTH_CH9141)
         COMMENT TYPE 0: C251 V5.60.0
  .\Out_File\SEEKFREE_DL1A.obj (SEEKFREE_DL1A)
         COMMENT TYPE 0: C251 V5.60.0
  .\Out_File\SEEKFREE_FONT.obj (SEEKFREE_FONT)
         COMMENT TYPE 0: C251 V5.60.0
  .\Out_File\SEEKFREE_ICM20602.obj (SEEKFREE_ICM20602)
         COMMENT TYPE 0: C251 V5.60.0
  .\Out_File\SEEKFREE_IMU660RA.obj (SEEKFREE_IMU660RA)
         COMMENT TYPE 0: C251 V5.60.0
  .\Out_File\SEEKFREE_IMU963RA.obj (SEEKFREE_IMU963RA)
L251 LINKER/LOCATER V4.66.93.0                                                        07/23/2023  00:26:15  PAGE 2


         COMMENT TYPE 0: C251 V5.60.0
  .\Out_File\SEEKFREE_IPS114_SPI.obj (SEEKFREE_IPS114_SPI)
         COMMENT TYPE 0: C251 V5.60.0
  .\Out_File\SEEKFREE_MPU6050.obj (SEEKFREE_MPU6050)
         COMMENT TYPE 0: C251 V5.60.0
  .\Out_File\SEEKFREE_OLED.obj (SEEKFREE_OLED)
         COMMENT TYPE 0: C251 V5.60.0
  .\Out_File\SEEKFREE_PRINTF.obj (SEEKFREE_PRINTF)
         COMMENT TYPE 0: C251 V5.60.0
  .\Out_File\SEEKFREE_TSL1401.obj (SEEKFREE_TSL1401)
         COMMENT TYPE 0: C251 V5.60.0
  .\Out_File\SEEKFREE_VIRSCO.obj (SEEKFREE_VIRSCO)
         COMMENT TYPE 0: C251 V5.60.0
  .\Out_File\SEEKFREE_WIRELESS.obj (SEEKFREE_WIRELESS)
         COMMENT TYPE 0: C251 V5.60.0
  .\Out_File\SEEKFREE_WIRELESS_CH573.obj (SEEKFREE_WIRELESS_CH573)
         COMMENT TYPE 0: C251 V5.60.0
  .\Out_File\eeprom.obj (eeprom)
         COMMENT TYPE 0: C251 V5.60.0
  .\Out_File\main.obj (main)
         COMMENT TYPE 0: C251 V5.60.0
  .\Out_File\key.obj (key)
         COMMENT TYPE 0: C251 V5.60.0
  .\Out_File\Direction.obj (Direction)
         COMMENT TYPE 0: C251 V5.60.0
  .\Out_File\control.obj (control)
         COMMENT TYPE 0: C251 V5.60.0
  .\Out_File\encoder.obj (encoder)
         COMMENT TYPE 0: C251 V5.60.0
  .\Out_File\pid.obj (pid)
         COMMENT TYPE 0: C251 V5.60.0
  .\Out_File\round.obj (round)
         COMMENT TYPE 0: C251 V5.60.0
  .\Out_File\isr.obj (isr)
         COMMENT TYPE 0: C251 V5.60.0
  .\Out_File\park.obj (park)
         COMMENT TYPE 0: C251 V5.60.0
  ..\..\Libraries\seekfree_peripheral\SEEKFREE_CONFIG.LIB (SEEKFREE_CONFIG)
         COMMENT TYPE 0: C251 V5.60.0
  C:\KEIL_V5\C251\LIB\C2SFPXS.LIB (?C?FPADD?)
         COMMENT TYPE 0: A251 V4.69.6.0
  C:\KEIL_V5\C251\LIB\C2SFPXS.LIB (?C?FPMUL?)
         COMMENT TYPE 0: A251 V4.69.6.0
  C:\KEIL_V5\C251\LIB\C2SFPXS.LIB (?C?FPDIV?)
         COMMENT TYPE 0: A251 V4.69.6.0
  C:\KEIL_V5\C251\LIB\C2SFPXS.LIB (?C?FPCMP?)
         COMMENT TYPE 0: A251 V4.69.6.0
  C:\KEIL_V5\C251\LIB\C2SFPXS.LIB (?C?FCAST?)
         COMMENT TYPE 0: A251 V4.69.6.0
  C:\KEIL_V5\C251\LIB\C2SFPXS.LIB (?C?CASTF?)
         COMMENT TYPE 0: A251 V4.69.6.0
  C:\KEIL_V5\C251\LIB\C2SFPXS.LIB (PRINTF?)
         COMMENT TYPE 0: A251 V4.69.6.0
  C:\KEIL_V5\C251\LIB\C2SFPXS.LIB (SQRT??)
         COMMENT TYPE 0: A251 V4.69.6.0
  C:\KEIL_V5\C251\LIB\C2SFPXS.LIB (POW??)
         COMMENT TYPE 0: C251 V5.58.7
  C:\KEIL_V5\C251\LIB\C2SFPXS.LIB (?C?FPGETOPN?)
         COMMENT TYPE 0: A251 V4.69.6.0
  C:\KEIL_V5\C251\LIB\C2SFPXS.LIB (_CHKFLOAT_??)
         COMMENT TYPE 0: A251 V4.69.6.0
  C:\KEIL_V5\C251\LIB\C2SFPXS.LIB (?C?FPNEG?)
         COMMENT TYPE 0: A251 V4.69.6.0
  C:\KEIL_V5\C251\LIB\C2SFPXS.LIB (?C?PRNFMT?)
         COMMENT TYPE 0: A251 V4.69.6.0
L251 LINKER/LOCATER V4.66.93.0                                                        07/23/2023  00:26:15  PAGE 3


  C:\KEIL_V5\C251\LIB\C2SFPXS.LIB (EXP??)
         COMMENT TYPE 0: A251 V4.69.6.0
  C:\KEIL_V5\C251\LIB\C2SFPXS.LIB (LOG??)
         COMMENT TYPE 0: A251 V4.69.6.0
  C:\KEIL_V5\C251\LIB\C2SFPXS.LIB (?C?FPCONVERT?)
         COMMENT TYPE 0: A251 V4.69.6.0
  C:\KEIL_V5\C251\LIB\C2SFPXS.LIB (?C?FPSERIES?)
         COMMENT TYPE 0: A251 V4.69.6.0
  C:\KEIL_V5\C251\LIB\C2SFPXS.LIB (?C?FTNPWR?)
         COMMENT TYPE 0: A251 V4.69.6.0
  C:\KEIL_V5\C251\LIB\C2SXS.LIB (?C_START?)
         COMMENT TYPE 0: A251 V4.69.6.0
  C:\KEIL_V5\C251\LIB\C2SXS.LIB (?C?INITEDATA)
         COMMENT TYPE 0: A251 V4.69.6.0
  C:\KEIL_V5\C251\LIB\C2SXS.LIB (?C?SIDIV?)
         COMMENT TYPE 0: A251 V4.69.6.0
  C:\KEIL_V5\C251\LIB\C2SXS.LIB (?C?LMUL?)
         COMMENT TYPE 0: A251 V4.69.6.0
  C:\KEIL_V5\C251\LIB\C2SXS.LIB (?C?LIMUL?)
         COMMENT TYPE 0: A251 V4.69.6.0
  C:\KEIL_V5\C251\LIB\C2SXS.LIB (?C?ULDIV?)
         COMMENT TYPE 0: A251 V4.69.6.0
  C:\KEIL_V5\C251\LIB\C2SXS.LIB (?C?SLDIV?)
         COMMENT TYPE 0: A251 V4.69.6.0
  C:\KEIL_V5\C251\LIB\C2SXS.LIB (ABS?)
         COMMENT TYPE 0: C251 V5.58.7
  C:\KEIL_V5\C251\LIB\C2SXS.LIB (MEMCPY?)
         COMMENT TYPE 0: C251 V5.58.7
  C:\KEIL_V5\C251\LIB\C2SXS.LIB (MEMSET?)
         COMMENT TYPE 0: C251 V5.58.7
  C:\KEIL_V5\C251\LIB\C2SXS.LIB (?C?INITEDATA_END)
         COMMENT TYPE 0: A251 V4.69.6.0


ACTIVE MEMORY CLASSES OF MODULE:  .\Out_File\SEEKFREE (board)

BASE        START       END         USED      MEMORY CLASS
==========================================================
000000H     000000H     000FFFH     000978H   EDATA
000000H     000000H     000FFFH               HDATA
000000H     FF0000H     FFFFFFH     00AEEDH   ECODE
000000H     FF0000H     FFFFFFH     000521H   HCONST
FF0000H     FF0000H     FFFFFFH     002E83H   CODE
000000H     000000H     00007FH     00001AH   DATA


MEMORY MAP OF MODULE:  .\Out_File\SEEKFREE (board)


START     STOP      LENGTH    ALIGN  RELOC    MEMORY CLASS   SEGMENT NAME
=========================================================================
000000H   000007H   000008H   ---    AT..     DATA           "REG BANK 0"
000008H   000019H   000012H   BYTE   UNIT     DATA           ?DT?DIRECTION
00001AH   00021DH   000204H   BYTE   UNIT     EDATA          ?ED?EXTERN_IAP_WRITE_BYTES??ZF_EEPROM
00021EH   000356H   000139H   BYTE   UNIT     EDATA          _EDATA_GROUP_
000357H   000457H   000101H   BYTE   UNIT     EDATA          ?ED?SEEKFREE_TSL1401
000458H   000524H   0000CDH   BYTE   UNIT     EDATA          ?ED?ZF_UART
000525H   00059CH   000078H   BYTE   UNIT     EDATA          ?ED?DIRECTION
00059DH   000604H   000068H   BYTE   UNIT     EDATA          ?ED?PID
000605H   000668H   000064H   BYTE   UNIT     EDATA          ?ED?EEPROM
000669H   0006BDH   000055H   BYTE   UNIT     EDATA          ?ED?SEEKFREE_BLUETOOTH_CH9141
0006BEH   000712H   000055H   BYTE   UNIT     EDATA          ?ED?SEEKFREE_WIRELESS
000713H   000767H   000055H   BYTE   UNIT     EDATA          ?ED?SEEKFREE_WIRELESS_CH573
000768H   00079BH   000034H   BYTE   UNIT     EDATA          ?ED?ROUND
00079CH   0007B5H   00001AH   BYTE   UNIT     EDATA          ?ED?KEY
L251 LINKER/LOCATER V4.66.93.0                                                        07/23/2023  00:26:15  PAGE 4


0007B6H   0007C9H   000014H   BYTE   UNIT     EDATA          ?ED?PARK
0007CAH   0007DBH   000012H   BYTE   UNIT     EDATA          ?ED?SEEKFREE_IMU963RA
0007DCH   0007EAH   00000FH   BYTE   UNIT     EDATA          ?ED?FIFO_READ_BUFFER??ZF_FIFO
0007EBH   0007F6H   00000CH   BYTE   UNIT     EDATA          ?ED?SEEKFREE_ICM20602
0007F7H   000802H   00000CH   BYTE   UNIT     EDATA          ?ED?SEEKFREE_IMU660RA
000803H   00080EH   00000CH   BYTE   UNIT     EDATA          ?ED?SEEKFREE_MPU6050
00080FH   000818H   00000AH   BYTE   UNIT     EDATA          ?ED?SEEKFREE_VIRSCO
000819H   000820H   000008H   BYTE   UNIT     EDATA          ?ED?CONTROL
000821H   000826H   000006H   BYTE   UNIT     EDATA          ?ED?LCD_SHOWSTR_SIMSPI??SEEKFREE_18TFT
000827H   00082CH   000006H   BYTE   UNIT     EDATA          ?ED?IPS114_SHOWSTR_SIMSPI??SEEKFREE_IPS114_SPI
00082DH   000832H   000006H   BYTE   UNIT     EDATA          ?ED?IPS114_SHOWSTR??SEEKFREE_IPS114_SPI
000833H   000837H   000005H   BYTE   UNIT     EDATA          ?ED?OLED_P6X8STR??SEEKFREE_OLED
000838H   00083CH   000005H   BYTE   UNIT     EDATA          ?ED?OLED_P6X8STR_SPI??SEEKFREE_OLED
00083DH   000840H   000004H   BYTE   UNIT     EDATA          ?ED?BOARD
000841H   000844H   000004H   BYTE   UNIT     EDATA          ?ED?ZF_DELAY
000845H   000848H   000004H   BYTE   UNIT     EDATA          ?ED?IAP_READ_BYTES??ZF_EEPROM
000849H   00084CH   000004H   BYTE   UNIT     EDATA          ?ED?IAP_WRITE_BYTES??ZF_EEPROM
00084DH   000850H   000004H   BYTE   UNIT     EDATA          ?ED?UART_PUTBUFF??ZF_UART
000851H   000854H   000004H   BYTE   UNIT     EDATA          ?ED?FIFO_INIT??ZF_FIFO
000855H   000858H   000004H   BYTE   UNIT     EDATA          ?ED?LCD_SET_REGION_SIMSPI??SEEKFREE_18TFT
000859H   00085CH   000004H   BYTE   UNIT     EDATA          ?ED?LCD_SHOWCHAR_SIMSPI??SEEKFREE_18TFT
00085DH   000860H   000004H   BYTE   UNIT     EDATA          ?ED?ICM20602_SIMSPI_R_REG_BYTES?SEEKFREE_ICM20602
000861H   000864H   000004H   BYTE   UNIT     EDATA          ?ED?IMU963RA_SIMSPI_R_REG_BYTES?SEEKFREE_IMU963RA
000865H   000868H   000004H   BYTE   UNIT     EDATA          ?ED?IPS114_SET_REGION_SIMSPI??SEEKFREE_IPS114_SPI
000869H   00086CH   000004H   BYTE   UNIT     EDATA          ?ED?IPS114_SHOWCHAR_SIMSPI??SEEKFREE_IPS114_SPI
00086DH   000870H   000004H   BYTE   UNIT     EDATA          ?ED?IPS114_SET_REGION??SEEKFREE_IPS114_SPI
000871H   000874H   000004H   BYTE   UNIT     EDATA          ?ED?IPS114_SHOWCHAR??SEEKFREE_IPS114_SPI
000875H   000878H   000004H   BYTE   UNIT     EDATA          ?ED?SAVE_FLOAT??EEPROM
000879H   00087CH   000004H   BYTE   UNIT     EDATA          ?ED?READ_FLOAT??EEPROM
00087DH   000880H   000004H   BYTE   UNIT     EDATA          ?ED?ENCODER
000881H   000883H   000003H   BYTE   UNIT     EDATA          ?ED?SEEKFREE_DL1A
000884H   000886H   000003H   BYTE   UNIT     EDATA          ?ED?MPU6050_SIMIIC_READ_REGS??SEEKFREE_MPU6050
000887H   000888H   000002H   BYTE   UNIT     EDATA          ?ED?COMMON
000889H   00088AH   000002H   BYTE   UNIT     EDATA          ?ED?IMU963RA_WRITE_MAG_REGISTER?SEEKFREE_IMU963RA
00088BH   00088CH   000002H   BYTE   UNIT     EDATA          ?ED?IPS114_WRITEDATA_16BIT??SEEKFREE_IPS114_SPI
00088DH   00088DH   000001H   BYTE   UNIT     EDATA          ?ED?ENCODER_SELF4_CHECK??SEEKFREE_ABSOLUTE_ENCODER
00088EH   00088EH   000001H   BYTE   UNIT     EDATA          ?ED?ENCODER_SELF5_CHECK??SEEKFREE_ABSOLUTE_ENCODER
00088FH   00088FH   000001H   BYTE   UNIT     EDATA          ?ED?ICM20602_READ_REGISTER?SEEKFREE_ICM20602
000890H   000890H   000001H   BYTE   UNIT     EDATA          ?ED?IMU963RA_READ_ACC_GYRO_REGISTER?SEEKFREE_IMU963RA
000891H   000891H   000001H   BYTE   UNIT     EDATA          ?ED?ISR
000892H   000991H   000100H   BYTE   UNIT     EDATA          ?STACK
000992H   FEFFFFH   FEF66EH   ---    ---      **GAP**
FF0000H   FF0002H   000003H   ---    OFFS..   CODE           ?CO?start251?4
FF0003H   FF0006H   000004H   ---    OFFS..   CODE           ?PR?IV?0
FF0007H   FF000AH   000004H   BYTE   INSEG    HCONST         ?HC?PRINTF
FF000BH   FF000EH   000004H   ---    OFFS..   CODE           ?PR?IV?1
FF000FH   FF0012H   000004H   ---    ---      **GAP**
FF0013H   FF0016H   000004H   ---    OFFS..   CODE           ?PR?IV?2
FF0017H   FF001AH   000004H   ---    ---      **GAP**
FF001BH   FF001EH   000004H   ---    OFFS..   CODE           ?PR?IV?3
FF001FH   FF0022H   000004H   ---    ---      **GAP**
FF0023H   FF0026H   000004H   ---    OFFS..   CODE           ?PR?IV?4
FF0027H   FF0040H   00001AH   BYTE   INSEG    ECODE          ?PR?MEMSET_
FF0041H   FF0042H   000002H   ---    ---      **GAP**
FF0043H   FF0046H   000004H   ---    OFFS..   CODE           ?PR?IV?8
FF0047H   FF0050H   00000AH   BYTE   UNIT     HCONST         ?HC?SEEKFREE_OLED
FF0051H   FF0052H   000002H   ---    ---      **GAP**
FF0053H   FF0056H   000004H   ---    OFFS..   CODE           ?PR?IV?10
FF0057H   FF005AH   000004H   ---    ---      **GAP**
FF005BH   FF005EH   000004H   ---    OFFS..   CODE           ?PR?IV?11
FF005FH   FF0062H   000004H   ---    ---      **GAP**
FF0063H   FF0066H   000004H   ---    OFFS..   CODE           ?PR?IV?12
FF0067H   FF0076H   000010H   BYTE   INSEG    ECODE          ?PR?ABS_
FF0077H   FF007CH   000006H   BYTE   UNIT     HCONST         ?HC?SEEKFREE_18TFT
FF007DH   FF0082H   000006H   BYTE   UNIT     HCONST         ?HC?SEEKFREE_IPS114_SPI
L251 LINKER/LOCATER V4.66.93.0                                                        07/23/2023  00:26:15  PAGE 5


FF0083H   FF0086H   000004H   ---    OFFS..   CODE           ?PR?IV?16
FF0087H   FF008AH   000004H   ---    ---      **GAP**
FF008BH   FF008EH   000004H   ---    OFFS..   CODE           ?PR?IV?17
FF008FH   FF0092H   000004H   ---    ---      **GAP**
FF0093H   FF0096H   000004H   ---    OFFS..   CODE           ?PR?IV?18
FF0097H   FF009AH   000004H   ---    ---      **GAP**
FF009BH   FF009EH   000004H   ---    OFFS..   CODE           ?PR?IV?19
FF009FH   FF00A2H   000004H   ---    ---      **GAP**
FF00A3H   FF00A6H   000004H   ---    OFFS..   CODE           ?PR?IV?20
FF00A7H   FF20A6H   002000H   BYTE   UNIT     CODE           ?CO?SEEKFREE_CONFIG
FF20A7H   FF2EAEH   000E08H   BYTE   UNIT     CODE           ?CO?SEEKFREE_FONT
FF2EAFH   FF2EC1H   000013H   BYTE   UNIT     CODE           ?C_C51STARTUP
FF2EC2H   FF2EEAH   000029H   BYTE   UNIT     CODE           ?C_C51STARTUP?2
FF2EEBH   FF2EEEH   000004H   BYTE   UNIT     CODE           ?C_C51STARTUP?3
FF2EEFH   FF416FH   001281H   BYTE   INSEG    ECODE          ?PR?SEEKFREE_OLED
FF4170H   FF52B2H   001143H   BYTE   INSEG    ECODE          ?PR?SEEKFREE_18TFT
FF52B3H   FF61F4H   000F42H   BYTE   INSEG    ECODE          ?PR?SEEKFREE_IPS114_SPI
FF61F5H   FF702CH   000E38H   BYTE   INSEG    ECODE          ?PR?SEEKFREE_DL1A
FF702DH   FF7E5AH   000E2EH   BYTE   INSEG    ECODE          ?PR?KEY
FF7E5BH   FF8A81H   000C27H   BYTE   INSEG    ECODE          ?C?LIB_CODE?
FF8A82H   FF9539H   000AB8H   BYTE   INSEG    ECODE          ?PR?ROUND
FF953AH   FF9CE4H   0007ABH   BYTE   INSEG    ECODE          ?PR?ZF_PWM
FF9CE5H   FFA2CEH   0005EAH   BYTE   INSEG    ECODE          ?PR?SEEKFREE_PRINTF
FFA2CFH   FFA868H   00059AH   BYTE   INSEG    ECODE          ?PR?DIRECTION
FFA869H   FFACF5H   00048DH   BYTE   INSEG    ECODE          ?PR?PID
FFACF6H   FFB15AH   000465H   BYTE   INSEG    ECODE          ?PR?ZF_GPIO
FFB15BH   FFB552H   0003F8H   BYTE   INSEG    ECODE          ?PR?SEEKFREE_IMU963RA
FFB553H   FFB8BBH   000369H   BYTE   INSEG    ECODE          ?PR?PARK
FFB8BCH   FFBBCDH   000312H   BYTE   INSEG    ECODE          ?PR?ZF_IIC
FFBBCEH   FFBECEH   000301H   BYTE   INSEG    ECODE          ?PR?ZF_FIFO
FFBECFH   FFC151H   000283H   BYTE   INSEG    ECODE          ?PR?SEEKFREE_MPU6050
FFC152H   FFC3CAH   000279H   BYTE   INSEG    ECODE          ?PR?SEEKFREE_ABSOLUTE_ENCODER
FFC3CBH   FFC630H   000266H   BYTE   INSEG    ECODE          ?PR?SEEKFREE_IMU660RA
FFC631H   FFC891H   000261H   BYTE   INSEG    ECODE          ?PR?ZF_UART
FFC892H   FFCAAFH   00021EH   BYTE   INSEG    ECODE          ?PR?ISR
FFCAB0H   FFCCC3H   000214H   BYTE   INSEG    ECODE          ?PR?SEEKFREE_ICM20602
FFCCC4H   FFCECCH   000209H   BYTE   INSEG    ECODE          ?PR?SEEKFREE_AT24C02
FFCECDH   FFD09BH   0001CFH   BYTE   INSEG    ECODE          ?PR?BOARD
FFD09CH   FFD265H   0001CAH   BYTE   INSEG    ECODE          ?PR?ZF_SPI
FFD266H   FFD3E2H   00017DH   BYTE   INSEG    ECODE          ?PR?ZF_TIM
FFD3E3H   FFD534H   000152H   BYTE   INSEG    ECODE          ?PR?ZF_EEPROM
FFD535H   FFD65EH   00012AH   BYTE   INSEG    ECODE          ?PR?SEEKFREE_BLUETOOTH_CH9141
FFD65FH   FFD77BH   00011DH   BYTE   INSEG    ECODE          ?PR?EEPROM
FFD77CH   FFD87BH   000100H   BYTE   INSEG    ECODE          ?PR?MAIN
FFD87CH   FFD97AH   0000FFH   BYTE   INSEG    ECODE          ?PR?POW__
FFD97BH   FFDA54H   0000DAH   BYTE   INSEG    ECODE          ?PR?SEEKFREE_WIRELESS_CH573
FFDA55H   FFDB28H   0000D4H   BYTE   INSEG    ECODE          ?PR?SEEKFREE_WIRELESS
FFDB29H   FFDBCCH   0000A4H   BYTE   INSEG    ECODE          ?PR?SEEKFREE_VIRSCO
FFDBCDH   FFDC58H   00008CH   BYTE   INSEG    ECODE          ?PR?ZF_ADC
FFDC59H   FFDCD1H   000079H   BYTE   INSEG    ECODE          ?PR?CONTROL
FFDCD2H   FFDD3CH   00006BH   BYTE   INSEG    ECODE          ?PR?ZF_DELAY
FFDD3DH   FFDD8CH   000050H   BYTE   INSEG    ECODE          ?PR?ENCODER
FFDD8DH   FFDDB1H   000025H   BYTE   INSEG    ECODE          ?PR?MEMCPY_
FFDDB2H   FFE07FH   0002CEH   BYTE   UNIT     HCONST         ?C_INITEDATA
FFE080H   FFE16AH   0000EBH   BYTE   UNIT     HCONST         ?HC?KEY
FFE16BH   FFE1C2H   000058H   BYTE   UNIT     HCONST         ?HC?ZF_PWM
FFE1C3H   FFE20DH   00004BH   BYTE   UNIT     HCONST         ?HC?SEEKFREE_IMU963RA
FFE20EH   FFE241H   000034H   BYTE   UNIT     HCONST         ?HC?SEEKFREE_IMU660RA
FFE242H   FFE274H   000033H   BYTE   UNIT     HCONST         ?HC?SEEKFREE_ICM20602
FFE275H   FFE28FH   00001BH   BYTE   UNIT     HCONST         ?HC?MAIN
FFE290H   FFE2A5H   000016H   BYTE   UNIT     HCONST         ?HC?SEEKFREE_MPU6050
FFE2A6H   FFE2B8H   000013H   BYTE   UNIT     HCONST         ?HC?SEEKFREE_DL1A

* * * * * * * * *   R E M O V E D     S E G M E N T S   * * * * * * * *
   *DEL*:           00003EH   BYTE   INSEG    ECODE          ?PR?ZF_EXTI
L251 LINKER/LOCATER V4.66.93.0                                                        07/23/2023  00:26:15  PAGE 6


   *DEL*:           000004H   BYTE   UNIT     EDATA          ?ED?IIC_INIT??ZF_IIC
   *DEL*:           000004H   BYTE   UNIT     EDATA          ?ED?IIC_READ_REG??ZF_IIC
   *DEL*:           000003H   BYTE   UNIT     EDATA          ?ED?IIC_READ_REG_BYTES??ZF_IIC
   *DEL*:           00006CH   BYTE   INSEG    ECODE          ?PR?ZF_NVIC
   *DEL*:           000004H   BYTE   UNIT     EDATA          ?ED?PWM_FREQ??ZF_PWM
   *DEL*:           000002H   BYTE   UNIT     EDATA          ?ED?UART_PUTSTR??ZF_UART
   *DEL*:           000005H   BYTE   UNIT     EDATA          ?ED?LCD_SHOWINT8_SIMSPI??SEEKFREE_18TFT
   *DEL*:           000004H   BYTE   UNIT     EDATA          ?ED?LCD_SHOWUINT8_SIMSPI??SEEKFREE_18TFT
   *DEL*:           000008H   BYTE   UNIT     EDATA          ?ED?LCD_SHOWINT16_SIMSPI??SEEKFREE_18TFT
   *DEL*:           000006H   BYTE   UNIT     EDATA          ?ED?LCD_SHOWUINT16_SIMSPI??SEEKFREE_18TFT
   *DEL*:           000028H   BYTE   UNIT     EDATA          ?ED?LCD_SHOWINT32_SIMSPI??SEEKFREE_18TFT
   *DEL*:           00002BH   BYTE   UNIT     EDATA          ?ED?LCD_SHOWFLOAT_SIMSPI??SEEKFREE_18TFT
   *DEL*:           000005H   BYTE   UNIT     EDATA          ?ED?LCD_SHOWINT8??SEEKFREE_18TFT
   *DEL*:           000004H   BYTE   UNIT     EDATA          ?ED?LCD_SHOWUINT8??SEEKFREE_18TFT
   *DEL*:           000008H   BYTE   UNIT     EDATA          ?ED?LCD_SHOWINT16??SEEKFREE_18TFT
   *DEL*:           000006H   BYTE   UNIT     EDATA          ?ED?LCD_SHOWUINT16??SEEKFREE_18TFT
   *DEL*:           000008H   BYTE   UNIT     EDATA          ?ED?SHOWIMAGE??SEEKFREE_18TFT
   *DEL*:           000002H   BYTE   UNIT     EDATA          ?ED?AT24C02_WRITE_BYTES??SEEKFREE_AT24C02
   *DEL*:           000002H   BYTE   UNIT     EDATA          ?ED?AT24C02_READ_BYTES??SEEKFREE_AT24C02
   *DEL*:           000006H   BYTE   UNIT     EDATA          ?ED?BLUETOOTH_CH9141_SEND_BUFF??SEEKFREE_BLUETOOTH_CH9141
   *DEL*:           000004H   BYTE   UNIT     EDATA          ?ED?BLUETOOTH_CH9141_READ_BUFF??SEEKFREE_BLUETOOTH_CH9141
   *DEL*:           000006H   BYTE   UNIT     EDATA          ?ED?ICM20602_GET_ACC??SEEKFREE_ICM20602
   *DEL*:           000006H   BYTE   UNIT     EDATA          ?ED?ICM20602_GET_GYRO??SEEKFREE_ICM20602
   *DEL*:           000007H   BYTE   UNIT     EDATA          ?ED?IMU660RA_GET_ACC??SEEKFREE_IMU660RA
   *DEL*:           000006H   BYTE   UNIT     EDATA          ?ED?IMU963RA_GET_ACC??SEEKFREE_IMU963RA
   *DEL*:           000006H   BYTE   UNIT     EDATA          ?ED?IMU963RA_GET_GYRO??SEEKFREE_IMU963RA
   *DEL*:           000006H   BYTE   UNIT     EDATA          ?ED?IMU963RA_GET_MAG??SEEKFREE_IMU963RA
   *DEL*:           000002H   BYTE   UNIT     EDATA          ?ED?IPS114_CLEAR_SIMSPI??SEEKFREE_IPS114_SPI
   *DEL*:           000005H   BYTE   UNIT     EDATA          ?ED?IPS114_SHOWINT8_SIMSPI??SEEKFREE_IPS114_SPI
   *DEL*:           000004H   BYTE   UNIT     EDATA          ?ED?IPS114_SHOWUINT8_SIMSPI??SEEKFREE_IPS114_SPI
   *DEL*:           000008H   BYTE   UNIT     EDATA          ?ED?IPS114_SHOWINT16_SIMSPI??SEEKFREE_IPS114_SPI
   *DEL*:           000006H   BYTE   UNIT     EDATA          ?ED?IPS114_SHOWUINT16_SIMSPI??SEEKFREE_IPS114_SPI
   *DEL*:           000028H   BYTE   UNIT     EDATA          ?ED?IPS114_SHOWINT32_SIMSPI??SEEKFREE_IPS114_SPI
   *DEL*:           00002BH   BYTE   UNIT     EDATA          ?ED?IPS114_SHOWFLOAT_SIMSPI??SEEKFREE_IPS114_SPI
   *DEL*:           000002H   BYTE   UNIT     EDATA          ?ED?IPS114_CLEAR??SEEKFREE_IPS114_SPI
   *DEL*:           000005H   BYTE   UNIT     EDATA          ?ED?IPS114_SHOWINT8??SEEKFREE_IPS114_SPI
   *DEL*:           000004H   BYTE   UNIT     EDATA          ?ED?IPS114_SHOWUINT8??SEEKFREE_IPS114_SPI
   *DEL*:           000008H   BYTE   UNIT     EDATA          ?ED?IPS114_SHOWINT16??SEEKFREE_IPS114_SPI
   *DEL*:           000006H   BYTE   UNIT     EDATA          ?ED?IPS114_SHOWUINT16??SEEKFREE_IPS114_SPI
   *DEL*:           000028H   BYTE   UNIT     EDATA          ?ED?IPS114_SHOWINT32??SEEKFREE_IPS114_SPI
   *DEL*:           00002BH   BYTE   UNIT     EDATA          ?ED?IPS114_SHOWFLOAT??SEEKFREE_IPS114_SPI
   *DEL*:           000006H   BYTE   UNIT     EDATA          ?ED?MPU6050_GET_ACCDATA??SEEKFREE_MPU6050
   *DEL*:           000006H   BYTE   UNIT     EDATA          ?ED?MPU6050_GET_GYRO??SEEKFREE_MPU6050
   *DEL*:           000005H   BYTE   UNIT     EDATA          ?ED?OLED_P8X16STR??SEEKFREE_OLED
   *DEL*:           000007H   BYTE   UNIT     EDATA          ?ED?OLED_UINT16??SEEKFREE_OLED
   *DEL*:           000007H   BYTE   UNIT     EDATA          ?ED?OLED_INT16??SEEKFREE_OLED
   *DEL*:           000028H   BYTE   UNIT     EDATA          ?ED?OLED_PRINTF_INT32??SEEKFREE_OLED
   *DEL*:           00002BH   BYTE   UNIT     EDATA          ?ED?OLED_PRINTF_FLOAT??SEEKFREE_OLED
   *DEL*:           00000CH   BYTE   UNIT     EDATA          ?ED?OLED_DIS_BMP??SEEKFREE_OLED
   *DEL*:           00000AH   BYTE   UNIT     EDATA          ?ED?OLED_PRINT_CHINESE??SEEKFREE_OLED
   *DEL*:           000005H   BYTE   UNIT     EDATA          ?ED?OLED_P8X16STR_SPI??SEEKFREE_OLED
   *DEL*:           000007H   BYTE   UNIT     EDATA          ?ED?OLED_UINT16_SPI??SEEKFREE_OLED
   *DEL*:           000007H   BYTE   UNIT     EDATA          ?ED?OLED_INT16_SPI??SEEKFREE_OLED
   *DEL*:           000028H   BYTE   UNIT     EDATA          ?ED?OLED_PRINTF_INT32_SPI??SEEKFREE_OLED
   *DEL*:           00002BH   BYTE   UNIT     EDATA          ?ED?OLED_PRINTF_FLOAT_SPI??SEEKFREE_OLED
   *DEL*:           00000CH   BYTE   UNIT     EDATA          ?ED?OLED_DIS_BMP_SPI??SEEKFREE_OLED
   *DEL*:           00000AH   BYTE   UNIT     EDATA          ?ED?OLED_PRINT_CHINESE_SPI??SEEKFREE_OLED
   *DEL*:           0000C4H   BYTE   INSEG    ECODE          ?PR?SEEKFREE_TSL1401
   *DEL*:           000003H   BYTE   UNIT     EDATA          ?ED?CCD_SEND_DATA??SEEKFREE_TSL1401
   *DEL*:           000004H   BYTE   UNIT     EDATA          ?ED?DATA_CONVERSION??SEEKFREE_VIRSCO
   *DEL*:           000002H   BYTE   UNIT     EDATA          ?ED?WIRELESS_UART_SEND_BUFF??SEEKFREE_WIRELESS
   *DEL*:           000004H   BYTE   UNIT     EDATA          ?ED?WIRELESS_UART_READ_BUFF??SEEKFREE_WIRELESS
   *DEL*:           000002H   BYTE   UNIT     EDATA          ?ED?WIRELESS_CH573_SEND_BUFF??SEEKFREE_WIRELESS_CH573
   *DEL*:           000004H   BYTE   UNIT     EDATA          ?ED?WIRELESS_CH573_READ_BUFF??SEEKFREE_WIRELESS_CH573
   *DEL*:           000004H   BYTE   UNIT     EDATA          ?ED?SAVE_INT??EEPROM
L251 LINKER/LOCATER V4.66.93.0                                                        07/23/2023  00:26:15  PAGE 7


   *DEL*:           000004H   BYTE   UNIT     EDATA          ?ED?READ_INT??EEPROM
   *DEL*:           000001H   BYTE   UNIT     EDATA          ?ED?KEYSTROKELABEL_SWITCH??KEY



OVERLAY MAP OF MODULE:   .\Out_File\SEEKFREE (board)


FUNCTION/MODULE                               EDATA_GROUP
--> CALLED FUNCTION/MODULE                    START  STOP
=========================================================
UART1_Isr?/isr                                ----- -----

*** NEW ROOT ********************************

UART2_Isr?/isr                                ----- -----

*** NEW ROOT ********************************

UART3_Isr?/isr                                ----- -----

*** NEW ROOT ********************************

UART4_Isr?/isr                                ----- -----
  +--> wireless_uart_callback?/SEEKFREE_WIRELESS
  +--> bluetooth_ch9141_uart_callback?/SEEKFREE_BLUETOOTH_CH9141
  +--> wireless_ch573_callback?/SEEKFREE_WIRELESS_CH573

wireless_uart_callback?/SEEKFREE_WIRELES+     ----- -----
... S
  +--> fifo_write_buffer?/zf_fifo

fifo_write_buffer?/zf_fifo                    021EH 0229H
  +--> memcpy??/MEMCPY?
  +--> fifo_head_offset?/zf_fifo

memcpy??/MEMCPY?                              ----- -----

fifo_head_offset?/zf_fifo                     ----- -----

bluetooth_ch9141_uart_callback?/SEEKFREE+     ----- -----
... _BLUETOOTH_CH9141
  +--> fifo_write_buffer?/zf_fifo

wireless_ch573_callback?/SEEKFREE_WIRELE+     ----- -----
... SS_CH573
  +--> fifo_write_buffer?/zf_fifo

*** NEW ROOT ********************************

INT0_Isr?/isr                                 ----- -----

*** NEW ROOT ********************************

INT1_Isr?/isr                                 ----- -----

*** NEW ROOT ********************************

INT2_Isr?/isr                                 ----- -----

*** NEW ROOT ********************************

INT3_Isr?/isr                                 ----- -----

*** NEW ROOT ********************************
L251 LINKER/LOCATER V4.66.93.0                                                        07/23/2023  00:26:15  PAGE 8



INT4_Isr?/isr                                 ----- -----

*** NEW ROOT ********************************

TM0_Isr?/isr                                  ----- -----

*** NEW ROOT ********************************

TM1_Isr?/isr                                  ----- -----

*** NEW ROOT ********************************

TM2_Isr?/isr                                  ----- -----

*** NEW ROOT ********************************

TM3_Isr?/isr                                  ----- -----

*** NEW ROOT ********************************

TM4_Isr?/isr                                  ----- -----
  +--> dl1a_get_distance?/SEEKFREE_DL1A
  +--> knn?/round
  +--> DirectionControl?/Direction
  +--> Obstacle?/round
  +--> RuKu_Back_Into?/park
  +--> Round_Deal?/round
  +--> Cross?/round
  +--> dir_pid?/pid
  +--> ctimer_count_read?/zf_tim
  +--> CHUKU?/park
  +--> read_encoder?/encoder
  +--> speedR_pid?/pid
  +--> speedL_pid?/pid
  +--> Control?/control
  +--> pwm_duty?/zf_pwm

dl1a_get_distance?/SEEKFREE_DL1A              022AH 022CH
  +--> dl1a_simiic_read_regs_1/SEEKFREE_DL1A
  +--> dl1a_simiic_write_reg/SEEKFREE_DL1A

dl1a_simiic_read_regs_1/SEEKFREE_DL1A         022DH 0232H
  +--> dl1a_simiic_start/SEEKFREE_DL1A
  +--> dl1a_send_ch/SEEKFREE_DL1A
  +--> dl1a_read_ch/SEEKFREE_DL1A
  +--> dl1a_simiic_stop/SEEKFREE_DL1A

dl1a_simiic_start/SEEKFREE_DL1A               ----- -----
  +--> dl1a_simiic_delay/SEEKFREE_DL1A

dl1a_simiic_delay/SEEKFREE_DL1A               ----- -----

dl1a_send_ch/SEEKFREE_DL1A                    ----- -----
  +--> dl1a_simiic_delay/SEEKFREE_DL1A
  +--> dl1a_sccb_waitack/SEEKFREE_DL1A

dl1a_sccb_waitack/SEEKFREE_DL1A               ----- -----
  +--> dl1a_simiic_delay/SEEKFREE_DL1A

dl1a_read_ch/SEEKFREE_DL1A                    ----- -----
  +--> dl1a_simiic_delay/SEEKFREE_DL1A
  +--> dl1a_simiic_sendack/SEEKFREE_DL1A

dl1a_simiic_sendack/SEEKFREE_DL1A             ----- -----
L251 LINKER/LOCATER V4.66.93.0                                                        07/23/2023  00:26:15  PAGE 9


  +--> dl1a_simiic_delay/SEEKFREE_DL1A

dl1a_simiic_stop/SEEKFREE_DL1A                ----- -----
  +--> dl1a_simiic_delay/SEEKFREE_DL1A

dl1a_simiic_write_reg/SEEKFREE_DL1A           ----- -----
  +--> dl1a_simiic_start/SEEKFREE_DL1A
  +--> dl1a_send_ch/SEEKFREE_DL1A
  +--> dl1a_simiic_stop/SEEKFREE_DL1A

knn?/round                                    ----- -----
  +--> pow??/POW??
  +--> abs??/ABS?

pow??/POW??                                   ----- -----
  +--> LOG??/LOG??

LOG??/LOG??                                   ----- -----

abs??/ABS?                                    ----- -----

DirectionControl?/Direction                   ----- -----
  +--> InductorNormal?/Direction
  +--> abs??/ABS?

InductorNormal?/Direction                     ----- -----
  +--> Read_ADC?/Direction

Read_ADC?/Direction                           022AH 02CBH
  +--> adc_once?/zf_adc

adc_once?/zf_adc                              ----- -----

Obstacle?/round                               ----- -----
  +--> ctimer_count_read?/zf_tim
  +--> mpu660_angle?/pid
  +--> abs??/ABS?

ctimer_count_read?/zf_tim                     ----- -----

mpu660_angle?/pid                             ----- -----
  +--> mpu660_PID?/pid

mpu660_PID?/pid                               022AH 023DH
  +--> imu660ra_get_gyro?/SEEKFREE_IMU660RA
  +--> imu660ra_gyro_transition?/SEEKFREE_IMU660RA
  +--> abs??/ABS?

imu660ra_get_gyro?/SEEKFREE_IMU660RA          023EH 0244H
  +--> imu660ra_read_registers/SEEKFREE_IMU660RA

imu660ra_read_registers/SEEKFREE_IMU660R+     ----- -----
... A
  +--> imu660ra_simspi_r_reg_bytes/SEEKFREE_IMU660RA

imu660ra_simspi_r_reg_bytes/SEEKFREE_IMU+     02CEH 02D1H
... 660RA
  +--> imu660ra_simspi_wr_byte/SEEKFREE_IMU660RA

imu660ra_simspi_wr_byte/SEEKFREE_IMU660R+     ----- -----
... A

imu660ra_gyro_transition?/SEEKFREE_IMU66+     ----- -----
... 0RA

L251 LINKER/LOCATER V4.66.93.0                                                        07/23/2023  00:26:15  PAGE 10


RuKu_Back_Into?/park                          ----- -----
  +--> ctimer_count_read?/zf_tim
  +--> mpu660_angle?/pid
  +--> abs??/ABS?

Round_Deal?/round                             ----- -----
  +--> Huan_Dao_Z?/round
  +--> Huan_Dao_R?/round

Huan_Dao_Z?/round                             ----- -----
  +--> ctimer_count_read?/zf_tim
  +--> mpu660_angle?/pid
  +--> abs??/ABS?
  +--> Ordinary_trace?/pid

Ordinary_trace?/pid                           ----- -----
  +--> mpu660_PID?/pid
  +--> IMU660ra_Angle_Y_V_Filter?/pid
  +--> Target_speed?/pid

IMU660ra_Angle_Y_V_Filter?/pid                022AH 023DH
  +--> imu660ra_get_gyro?/SEEKFREE_IMU660RA
  +--> imu660ra_gyro_transition?/SEEKFREE_IMU660RA

Target_speed?/pid                             ----- -----
  +--> abs??/ABS?

Huan_Dao_R?/round                             ----- -----
  +--> ctimer_count_read?/zf_tim
  +--> mpu660_angle?/pid
  +--> abs??/ABS?
  +--> Ordinary_trace?/pid

Cross?/round                                  ----- -----
  +--> ctimer_count_read?/zf_tim
  +--> abs??/ABS?

dir_pid?/pid                                  ----- -----
  +--> Ordinary_trace?/pid

CHUKU?/park                                   ----- -----

read_encoder?/encoder                         ----- -----
  +--> ctimer_count_read?/zf_tim
  +--> ctimer_count_clean?/zf_tim

ctimer_count_clean?/zf_tim                    ----- -----

speedR_pid?/pid                               ----- -----

speedL_pid?/pid                               ----- -----

Control?/control                              ----- -----
  +--> pwm_duty?/zf_pwm

pwm_duty?/zf_pwm                              ----- -----

*** NEW ROOT ********************************

?C_C51STARTUP                                 ----- -----

*** NEW ROOT ********************************

?C_C51STARTUP?3                               ----- -----
  +--> main?/main
L251 LINKER/LOCATER V4.66.93.0                                                        07/23/2023  00:26:15  PAGE 11



main?/main                                    ----- -----
  +--> board_init?/board
  +--> adc_init?/zf_adc
  +--> pwm_init?/zf_pwm
  +--> gpio_mode?/zf_gpio
  +--> lcd_init?/SEEKFREE_18TFT
  +--> EnableGlobalIRQ?/board
  +--> ctimer_count_init?/zf_tim
  +--> delay_ms?/zf_delay
  +--> PRINTF?/PRINTF?
  +--> imu660ra_init?/SEEKFREE_IMU660RA
  +--> dl1a_init?/SEEKFREE_DL1A
  +--> pit_timer_ms?/zf_tim
  +--> Keystroke_Scan?/key
  +--> Keystroke_Menu?/key

board_init?/board                             ----- -----
  +--> set_clk?/board
  +--> delay_init?/zf_delay
  +--> uart_init?/zf_uart
  +--> EnableGlobalIRQ?/board

set_clk?/board                                ----- -----

delay_init?/zf_delay                          ----- -----
  +--> ?C?SLDIV?/?C?SLDIV?

?C?SLDIV?/?C?SLDIV?                           ----- -----
  +--> ?C?ULIDIV?/?C?ULDIV?

?C?ULIDIV?/?C?ULDIV?                          ----- -----

uart_init?/zf_uart                            02CCH 02D1H
  +--> ?C?ULIDIV?/?C?ULDIV?

EnableGlobalIRQ?/board                        ----- -----

adc_init?/zf_adc                              ----- -----

pwm_init?/zf_pwm                              02CCH 02D7H
  +--> pwm_set_gpio?/zf_pwm
  +--> ?C?ULIDIV?/?C?ULDIV?

pwm_set_gpio?/zf_pwm                          ----- -----
  +--> gpio_mode?/zf_gpio

gpio_mode?/zf_gpio                            ----- -----

lcd_init?/SEEKFREE_18TFT                      ----- -----
  +--> spi_init?/zf_spi
  +--> delay_ms?/zf_delay
  +--> lcd_writeIndex?/SEEKFREE_18TFT
  +--> lcd_writeData?/SEEKFREE_18TFT
  +--> lcd_clear?/SEEKFREE_18TFT

spi_init?/zf_spi                              02CCH 02CFH
  +--> gpio_mode?/zf_gpio

delay_ms?/zf_delay                            ----- -----

lcd_writeIndex?/SEEKFREE_18TFT                ----- -----
  +--> spi_mosi?/zf_spi

spi_mosi?/zf_spi                              ----- -----
L251 LINKER/LOCATER V4.66.93.0                                                        07/23/2023  00:26:15  PAGE 12



lcd_writeData?/SEEKFREE_18TFT                 ----- -----
  +--> spi_mosi?/zf_spi

lcd_clear?/SEEKFREE_18TFT                     ----- -----
  +--> lcd_set_region?/SEEKFREE_18TFT
  +--> lcd_writedata_16bit?/SEEKFREE_18TFT

lcd_set_region?/SEEKFREE_18TFT                0301H 0304H
  +--> lcd_writeIndex?/SEEKFREE_18TFT
  +--> lcd_writeData?/SEEKFREE_18TFT

lcd_writedata_16bit?/SEEKFREE_18TFT           0301H 0302H
  +--> spi_mosi?/zf_spi

ctimer_count_init?/zf_tim                     ----- -----

PRINTF?/PRINTF?                               02DEH 0305H
  +--> OUT/PRINTF?

OUT/PRINTF?                                   ----- -----
  +--> PUTCH/PRINTF?

PUTCH/PRINTF?                                 ----- -----
  +--> putchar?/board
  +--> OUT/PRINTF?

putchar?/board                                ----- -----
  +--> uart_putchar?/zf_uart

uart_putchar?/zf_uart                         ----- -----

imu660ra_init?/SEEKFREE_IMU660RA              ----- -----
  +--> delay_ms?/zf_delay
  +--> imu660ra_self_check/SEEKFREE_IMU660RA
  +--> lcd_showfloat?/SEEKFREE_18TFT
  +--> PRINTF?/PRINTF?
  +--> imu660ra_write_register/SEEKFREE_IMU660RA
  +--> imu660ra_write_registers/SEEKFREE_IMU660RA
  +--> imu660ra_read_register/SEEKFREE_IMU660RA

imu660ra_self_check/SEEKFREE_IMU660RA         ----- -----
  +--> imu660ra_read_register/SEEKFREE_IMU660RA
  +--> delay_ms?/zf_delay

imu660ra_read_register/SEEKFREE_IMU660RA      02CCH 02CDH
  +--> imu660ra_simspi_r_reg_bytes/SEEKFREE_IMU660RA

lcd_showfloat?/SEEKFREE_18TFT                 02CCH 02F6H
  +--> zf_sprintf?/SEEKFREE_PRINTF
  +--> lcd_showstr?/SEEKFREE_18TFT

zf_sprintf?/SEEKFREE_PRINTF                   02F7H 0355H
  +--> number_conversion_ascii?/SEEKFREE_PRINTF
  +--> printf_reverse_order?/SEEKFREE_PRINTF
  +--> memcpy??/MEMCPY?

number_conversion_ascii?/SEEKFREE_PRINTF      0356H 0356H
  +--> ?C?SLDIV?/?C?SLDIV?
  +--> ?C?ULIDIV?/?C?ULDIV?

printf_reverse_order?/SEEKFREE_PRINTF         ----- -----

lcd_showstr?/SEEKFREE_18TFT                   02F7H 02FCH
  +--> lcd_showchar?/SEEKFREE_18TFT
L251 LINKER/LOCATER V4.66.93.0                                                        07/23/2023  00:26:15  PAGE 13



lcd_showchar?/SEEKFREE_18TFT                  02FDH 0300H
  +--> lcd_set_region?/SEEKFREE_18TFT
  +--> lcd_writedata_16bit?/SEEKFREE_18TFT

imu660ra_write_register/SEEKFREE_IMU660R+     ----- -----
... A
  +--> imu660ra_simspi_w_reg_byte/SEEKFREE_IMU660RA

imu660ra_simspi_w_reg_byte/SEEKFREE_IMU6+     ----- -----
... 60RA
  +--> imu660ra_simspi_wr_byte/SEEKFREE_IMU660RA

imu660ra_write_registers/SEEKFREE_IMU660+     ----- -----
... RA
  +--> imu660ra_simspi_w_reg_bytes/SEEKFREE_IMU660RA

imu660ra_simspi_w_reg_bytes/SEEKFREE_IMU+     02CCH 02CFH
... 660RA
  +--> imu660ra_simspi_wr_byte/SEEKFREE_IMU660RA

dl1a_init?/SEEKFREE_DL1A                      02CCH 02DDH
  +--> memset??/MEMSET?
  +--> delay_ms?/zf_delay
  +--> dl1a_simiic_read_reg/SEEKFREE_DL1A
  +--> dl1a_simiic_write_reg/SEEKFREE_DL1A
  +--> dl1a_simiic_read_regs/SEEKFREE_DL1A
  +--> dl1a_set_signal_rate_limit/SEEKFREE_DL1A
  +--> dl1a_get_spad_info/SEEKFREE_DL1A
  +--> PRINTF?/PRINTF?
  +--> dl1a_simiic_write_dats/SEEKFREE_DL1A
  +--> dl1a_get_measurement_timing_budget/SEEKFREE_DL1A
  +--> dl1a_set_measurement_timing_budget/SEEKFREE_DL1A
  +--> dl1a_perform_single_ref_calibration/SEEKFREE_DL1A

memset??/MEMSET?                              ----- -----

dl1a_simiic_read_reg/SEEKFREE_DL1A            ----- -----
  +--> dl1a_simiic_start/SEEKFREE_DL1A
  +--> dl1a_send_ch/SEEKFREE_DL1A
  +--> dl1a_read_ch/SEEKFREE_DL1A
  +--> dl1a_simiic_stop/SEEKFREE_DL1A

dl1a_simiic_read_regs/SEEKFREE_DL1A           0308H 030DH
  +--> dl1a_simiic_start/SEEKFREE_DL1A
  +--> dl1a_send_ch/SEEKFREE_DL1A
  +--> dl1a_read_ch/SEEKFREE_DL1A
  +--> dl1a_simiic_stop/SEEKFREE_DL1A

dl1a_set_signal_rate_limit/SEEKFREE_DL1A      02DEH 02E0H
  +--> dl1a_simiic_write_dats/SEEKFREE_DL1A

dl1a_simiic_write_dats/SEEKFREE_DL1A          0301H 0305H
  +--> dl1a_simiic_start/SEEKFREE_DL1A
  +--> dl1a_send_ch/SEEKFREE_DL1A
  +--> dl1a_simiic_stop/SEEKFREE_DL1A

dl1a_get_spad_info/SEEKFREE_DL1A              02DEH 02E5H
  +--> dl1a_simiic_write_reg/SEEKFREE_DL1A
  +--> dl1a_simiic_read_regs/SEEKFREE_DL1A

dl1a_get_measurement_timing_budget/SEEKF+     02DEH 02F8H
... REE_DL1A
  +--> dl1a_get_sequence_step_enables/SEEKFREE_DL1A
  +--> dl1a_get_sequence_step_timeouts/SEEKFREE_DL1A
L251 LINKER/LOCATER V4.66.93.0                                                        07/23/2023  00:26:15  PAGE 14



dl1a_get_sequence_step_enables/SEEKFREE_+     0301H 0301H
... DL1A
  +--> dl1a_simiic_read_regs/SEEKFREE_DL1A

dl1a_get_sequence_step_timeouts/SEEKFREE+     0301H 0306H
... _DL1A
  +--> dl1a_get_vcsel_pulse_period/SEEKFREE_DL1A
  +--> dl1a_simiic_read_regs/SEEKFREE_DL1A
  +--> dl1a_timeout_mclks_to_microseconds/SEEKFREE_DL1A
  +--> dl1a_decode_timeout/SEEKFREE_DL1A

dl1a_get_vcsel_pulse_period/SEEKFREE_DL1+     0307H 0307H
... A
  +--> dl1a_simiic_read_regs/SEEKFREE_DL1A

dl1a_timeout_mclks_to_microseconds/SEEKF+     ----- -----
... REE_DL1A
  +--> ?C?ULIDIV?/?C?ULDIV?

dl1a_decode_timeout/SEEKFREE_DL1A             ----- -----

dl1a_set_measurement_timing_budget/SEEKF+     02DEH 0300H
... REE_DL1A
  +--> dl1a_get_sequence_step_enables/SEEKFREE_DL1A
  +--> dl1a_get_sequence_step_timeouts/SEEKFREE_DL1A
  +--> dl1a_timeout_microseconds_to_mclks/SEEKFREE_DL1A
  +--> dl1a_encode_timeout/SEEKFREE_DL1A
  +--> dl1a_simiic_write_dats/SEEKFREE_DL1A

dl1a_timeout_microseconds_to_mclks/SEEKF+     ----- -----
... REE_DL1A
  +--> ?C?ULIDIV?/?C?ULDIV?

dl1a_encode_timeout/SEEKFREE_DL1A             ----- -----

dl1a_perform_single_ref_calibration/SEEK+     02DEH 02E0H
... FREE_DL1A
  +--> dl1a_simiic_write_reg/SEEKFREE_DL1A
  +--> dl1a_simiic_read_regs/SEEKFREE_DL1A

pit_timer_ms?/zf_tim                          ----- -----
  +--> ?C?SLDIV?/?C?SLDIV?

Keystroke_Scan?/key                           ----- -----

Keystroke_Menu?/key                           ----- -----
  +--> Keystroke_Menu_HOME?/key
  +--> Keystroke_Menu_ONE?/key
  +--> Keystroke_Menu_ONE_One?/key
  +--> Keystroke_Menu_ONE_Two?/key
  +--> Keystroke_Menu_ONE_Three?/key
  +--> Keystroke_Menu_ONE_Four?/key
  +--> Keystroke_Menu_TWO?/key
  +--> Keystroke_Menu_TWO_One?/key
  +--> Keystroke_Menu_TWO_Two?/key
  +--> Keystroke_Menu_TWO_Three?/key
  +--> Keystroke_Menu_TWO_Four?/key
  +--> Keystroke_Menu_THREE?/key
  +--> Keystroke_Menu_THREE_One?/key
  +--> Keystroke_Menu_THREE_Two?/key
  +--> Keystroke_Menu_THREE_Three?/key
  +--> Keystroke_Menu_THREE_Four?/key
  +--> Keystroke_Menu_FOUR?/key
  +--> Keystroke_Menu_FIVE?/key
L251 LINKER/LOCATER V4.66.93.0                                                        07/23/2023  00:26:15  PAGE 15


  +--> Keystroke_Menu_FIVE_One?/key
  +--> Keystroke_Menu_FIVE_Two?/key
  +--> Keystroke_Menu_FIVE_Three?/key
  +--> Keystroke_Menu_FIVE_Four?/key

Keystroke_Menu_HOME?/key                      ----- -----
  +--> lcd_showstr?/SEEKFREE_18TFT
  +--> Cursor?/key
  +--> lcd_clear?/SEEKFREE_18TFT

Cursor?/key                                   ----- -----
  +--> Keystroke_Scan?/key
  +--> lcd_showstr?/SEEKFREE_18TFT

Keystroke_Menu_ONE?/key                       ----- -----
  +--> Menu_ONE_Display?/key
  +--> Cursor?/key
  +--> lcd_clear?/SEEKFREE_18TFT

Menu_ONE_Display?/key                         ----- -----
  +--> lcd_showstr?/SEEKFREE_18TFT
  +--> lcd_showint32?/SEEKFREE_18TFT

lcd_showint32?/SEEKFREE_18TFT                 02CCH 02F3H
  +--> zf_sprintf?/SEEKFREE_PRINTF
  +--> lcd_showstr?/SEEKFREE_18TFT

Keystroke_Menu_ONE_One?/key                   ----- -----
  +--> Menu_ONE_Display?/key
  +--> Keystroke_Special_Value?/key

Keystroke_Special_Value?/key                  ----- -----
  +--> Keystroke_Scan?/key
  +--> lcd_clear?/SEEKFREE_18TFT

Keystroke_Menu_ONE_Two?/key                   ----- -----
  +--> Menu_ONE_Display?/key
  +--> Keystroke_Special_Value?/key

Keystroke_Menu_ONE_Three?/key                 ----- -----
  +--> Menu_ONE_Display?/key

Keystroke_Menu_ONE_Four?/key                  ----- -----
  +--> Menu_ONE_Display?/key

Keystroke_Menu_TWO?/key                       ----- -----
  +--> Menu_TWO_Display?/key
  +--> Cursor?/key
  +--> lcd_clear?/SEEKFREE_18TFT

Menu_TWO_Display?/key                         ----- -----
  +--> lcd_showstr?/SEEKFREE_18TFT
  +--> lcd_showint32?/SEEKFREE_18TFT

Keystroke_Menu_TWO_One?/key                   ----- -----
  +--> Menu_TWO_Display?/key
  +--> Keystroke_Special_Value?/key

Keystroke_Menu_TWO_Two?/key                   ----- -----
  +--> Menu_TWO_Display?/key
  +--> Keystroke_Special_Value?/key

Keystroke_Menu_TWO_Three?/key                 ----- -----
  +--> Menu_TWO_Display?/key
  +--> Keystroke_Special_Value?/key
L251 LINKER/LOCATER V4.66.93.0                                                        07/23/2023  00:26:15  PAGE 16



Keystroke_Menu_TWO_Four?/key                  ----- -----
  +--> Menu_TWO_Display?/key
  +--> Keystroke_Special_Value?/key

Keystroke_Menu_THREE?/key                     ----- -----
  +--> Menu_THREE_Display?/key
  +--> Cursor?/key
  +--> lcd_clear?/SEEKFREE_18TFT

Menu_THREE_Display?/key                       ----- -----
  +--> lcd_showstr?/SEEKFREE_18TFT
  +--> lcd_showint32?/SEEKFREE_18TFT

Keystroke_Menu_THREE_One?/key                 ----- -----
  +--> Menu_THREE_Display?/key
  +--> Keystroke_Special_Value?/key

Keystroke_Menu_THREE_Two?/key                 ----- -----
  +--> Menu_THREE_Display?/key
  +--> Keystroke_Special_Value?/key

Keystroke_Menu_THREE_Three?/key               ----- -----
  +--> Menu_THREE_Display?/key
  +--> Keystroke_Special_Value?/key

Keystroke_Menu_THREE_Four?/key                ----- -----
  +--> Menu_THREE_Display?/key

Keystroke_Menu_FOUR?/key                      ----- -----
  +--> lcd_showint32?/SEEKFREE_18TFT
  +--> lcd_showstr?/SEEKFREE_18TFT
  +--> lcd_showfloat?/SEEKFREE_18TFT
  +--> Keystroke_Scan?/key
  +--> lcd_clear?/SEEKFREE_18TFT

Keystroke_Menu_FIVE?/key                      ----- -----
  +--> Menu_FIVE_Display?/key
  +--> Cursor?/key
  +--> lcd_clear?/SEEKFREE_18TFT

Menu_FIVE_Display?/key                        ----- -----
  +--> lcd_showstr?/SEEKFREE_18TFT
  +--> lcd_showfloat?/SEEKFREE_18TFT
  +--> lcd_showint32?/SEEKFREE_18TFT

Keystroke_Menu_FIVE_One?/key                  ----- -----
  +--> Menu_FIVE_Display?/key
  +--> Keystroke_Scan?/key
  +--> lcd_clear?/SEEKFREE_18TFT

Keystroke_Menu_FIVE_Two?/key                  ----- -----
  +--> Menu_FIVE_Display?/key
  +--> Keystroke_Scan?/key
  +--> lcd_clear?/SEEKFREE_18TFT

Keystroke_Menu_FIVE_Three?/key                ----- -----
  +--> Menu_FIVE_Display?/key
  +--> Keystroke_Scan?/key
  +--> lcd_clear?/SEEKFREE_18TFT

Keystroke_Menu_FIVE_Four?/key                 ----- -----
  +--> Menu_FIVE_Display?/key
  +--> Keystroke_Scan?/key
  +--> lcd_clear?/SEEKFREE_18TFT
L251 LINKER/LOCATER V4.66.93.0                                                        07/23/2023  00:26:15  PAGE 17



*** NEW ROOT ********************************

?C_C51STARTUP?2                               ----- -----



PUBLIC SYMBOLS OF MODULE:  .\Out_File\SEEKFREE (board)


      VALUE       CLASS    TYPE      PUBLIC SYMBOL NAME
      =================================================
      00FF80BDH   ECODE    FAR LAB   ?C?CASTF?
      000000FFH   NUMBER   ---       ?C?CODESEG
      00FF808AH   ECODE    FAR LAB   ?C?FCASTC?
      00FF8085H   ECODE    FAR LAB   ?C?FCASTI?
      00FF8080H   ECODE    FAR LAB   ?C?FCASTL?
      00FF8915H   ECODE    ---       ?C?FP2SERIES?
      00FF7E61H   ECODE    ---       ?C?FPADD?
      00FF803AH   ECODE    ---       ?C?FPCMP3?
      00FF803CH   ECODE    ---       ?C?FPCMP?
      00FF8818H   ECODE    ---       ?C?FPCONVERT?
      00FF7FB9H   ECODE    ---       ?C?FPDIV?
      00FF81B9H   ECODE    ---       ?C?FPGETOPN2?
      00FF7F19H   ECODE    ---       ?C?FPMUL?
      00FF81F6H   ECODE    ---       ?C?FPNANRESULT?
      00FF8227H   ECODE    ---       ?C?FPNEG?
      00FF81FEH   ECODE    ---       ?C?FPOVERFLOW?
      00FF81E8H   ECODE    ---       ?C?FPRESULT2?
      00FF81D2H   ECODE    ---       ?C?FPRESULT?
      00FF88D2H   ECODE    ---       ?C?FPROUND?
      00FF891FH   ECODE    ---       ?C?FPSERIES?
      00FF7E5EH   ECODE    ---       ?C?FPSUB?
      00FF81FBH   ECODE    ---       ?C?FPUNDERFLOW?
      00FF8975H   ECODE    ---       ?C?FTNPWR?
      00FF2EC2H   CODE     ---       ?C?INITEDATA
      00FFE07EH   HCONST   WORD      ?C?INITEDATA_END
      00FF89F0H   ECODE    ---       ?C?LIMUL?
      00FF89DFH   ECODE    ---       ?C?LMUL?
      00FF8262H   ECODE    ---       ?C?PRNFMT?
      00FF89ADH   ECODE    ---       ?C?SIDIV?
      00FF8A4CH   ECODE    FAR LAB   ?C?SLDIV?
      00FF0000H   CODE     ---       ?C?STARTUP?
      00FF89FBH   ECODE    FAR LAB   ?C?ULDIV?
      00FF89F9H   ECODE    FAR LAB   ?C?ULIDIV?
      00000001H   NUMBER   ---       ?C?XDATASEG
      00FF0000H   CODE     ---       ?C_STARTUP?
*DEL*:1FFFFFF8H   EDATA    BYTE      ?data_conversion??BYTE
      00000849H   EDATA    BYTE      ?fifo_init??BYTE
      000007D8H   EDATA    BYTE      ?fifo_read_buffer??BYTE
      0000021AH   EDATA    BYTE      ?fifo_write_buffer??BYTE
*DEL*:1FFFFFFAH   EDATA    BYTE      ?iic_init??BYTE
*DEL*:1FFFFFFCH   EDATA    BYTE      ?ips114_showfloat??BYTE
*DEL*:1FFFFFFCH   EDATA    BYTE      ?ips114_showfloat_simspi??BYTE
      000002C8H   EDATA    BYTE      ?lcd_showfloat??BYTE
*DEL*:1FFFFFFCH   EDATA    BYTE      ?lcd_showfloat_simspi??BYTE
      0000034DH   EDATA    BYTE      ?number_conversion_ascii??BYTE
*DEL*:1FFFFFFCH   EDATA    BYTE      ?oled_printf_float??BYTE
*DEL*:1FFFFFFCH   EDATA    BYTE      ?oled_printf_float_spi??BYTE
      00000306H   EDATA    ---       ?printf??BYTE
*DEL*:1FFFFFFAH   EDATA    BYTE      ?pwm_freq??BYTE
      000002CAH   EDATA    BYTE      ?pwm_init??BYTE
      000002C3H   EDATA    BYTE      ?spi_init??BYTE
      000002C6H   EDATA    BYTE      ?uart_init??BYTE
      0000031FH   EDATA    BYTE      ?zf_sprintf??BYTE
L251 LINKER/LOCATER V4.66.93.0                                                        07/23/2023  00:26:15  PAGE 18


      00FF820AH   ECODE    ---       _chkfloat_??
      00FF0067H   ECODE    ---       abs??
*SFR* 000000BCH   DATA     BYTE      ADC_CONTR
      00FFDBCDH   ECODE    ---       adc_init?
      00FFDC2BH   ECODE    ---       adc_once?
*SFR* 000000BDH   DATA     BYTE      ADC_RES
*SFR* 000000BEH   DATA     BYTE      ADC_RESL
*SFR* 000000DEH   DATA     BYTE      ADCCFG
      000005A1H   EDATA    FLOAT     angle
      00000601H   EDATA    FLOAT     angle_kp1
      000005F9H   EDATA    FLOAT     angle_y
      00FFCDFBH   ECODE    ---       at24c02_read_byte?
      00FFCE6DH   ECODE    ---       at24c02_read_bytes?
      00FFCDE1H   ECODE    ---       at24c02_write_byte?
      00FFCE11H   ECODE    ---       at24c02_write_bytes?
*SFR* 000000EFH   DATA     BYTE      AUXINTIF
*SFR* 0000008EH   DATA     BYTE      AUXR
*SFR* 00000097H   DATA     BYTE      AUXR2
      00FFD54FH   ECODE    ---       bluetooth_ch9141_init?
      00FFD63CH   ECODE    ---       bluetooth_ch9141_read_buff?
      00FFD58DH   ECODE    ---       bluetooth_ch9141_send_buff?
      00FFD535H   ECODE    ---       bluetooth_ch9141_uart_callback?
      00FFCFEFH   ECODE    ---       board_init?
      00000520H   EDATA    ---       busy
*SFR* 000000F1H   DATA     BYTE      CANICR
*DEL*:0000008EH   ECODE    ---       ccd_collect?
      00000358H   EDATA    ---       ccd_data
*DEL*:00000000H   ECODE    ---       ccd_init?
*DEL*:00000018H   ECODE    ---       ccd_send_data?
      000005A5H   EDATA    FLOAT     cha_err1
      000005A9H   EDATA    FLOAT     cha_err2
      00FFB553H   ECODE    ---       CHUKU?
      000007BAH   EDATA    INT       CK_count
      000007C2H   EDATA    INT       CK_count2
*SFR* 000000EAH   DATA     BYTE      CKCON
*SFR* 000000E6H   DATA     BYTE      CMPCR1
*SFR* 000000E7H   DATA     BYTE      CMPCR2
      00FFDC59H   ECODE    ---       Control?
      00FFDB29H   ECODE    ---       CRC_CHECK?
      00FF93A7H   ECODE    ---       Cross?
      00000782H   EDATA    INT       cross_flag
      00FFD2FDH   ECODE    ---       ctimer_count_clean?
      00FFD266H   ECODE    ---       ctimer_count_init?
      00FFD2B0H   ECODE    ---       ctimer_count_read?
      00FF710FH   ECODE    ---       Cursor?
      000007ABH   EDATA    BYTE      CursorRow
      00FFDB63H   ECODE    ---       data_conversion?
      00000605H   EDATA    ---       date_buff
      00FFDCD2H   ECODE    ---       delay_init?
      00FFDD0DH   ECODE    ---       delay_ms?
      00FFDD24H   ECODE    ---       delay_us?
      00000008H   DATA     ---       diangan
      00FFA869H   ECODE    ---       dir_pid?
      00FFA65AH   ECODE    ---       DirectionControl?
      00FFD096H   ECODE    ---       DisableGlobalIRQ?
      000007ACH   EDATA    INT       Dispay_Codename
      00000881H   EDATA    WORD      dl1a_distance_mm
      00000883H   EDATA    BYTE      dl1a_finsh_flag
      00FF69ACH   ECODE    ---       dl1a_get_distance?
      00FF6A09H   ECODE    ---       dl1a_init?
      0000081DH   EDATA    INT       duty1
      0000081FH   EDATA    INT       duty2
      00000796H   EDATA    INT       e_r1
      00000798H   EDATA    INT       e_r2
*SFR* 000000A8H.7 DATA     BIT       EA
L251 LINKER/LOCATER V4.66.93.0                                                        07/23/2023  00:26:15  PAGE 19


*SFR* 000000BAH.7 DATA     BIT       EAXFR
      00FFD65FH   ECODE    ---       eeprom_init?
      00FFD3E3H   ECODE    ---       eeprom_trig?
      00FFD099H   ECODE    ---       EnableGlobalIRQ?
      00FFC248H   ECODE    ---       encoder_angle_simspi?
      00FFC367H   ECODE    ---       encoder_angle_spi?
      00FFC152H   ECODE    ---       encoder_delay_us?
      00FFC27FH   ECODE    ---       encoder_init_simspi?
      00FFC39EH   ECODE    ---       encoder_init_spi?
      00FFC26DH   ECODE    ---       encoder_self4_check?
      00FFC38CH   ECODE    ---       encoder_self5_check?
      00FFC1EEH   ECODE    ---       encoder_simspi_r_reg_byte?
      00FFC1B1H   ECODE    ---       encoder_simspi_w_reg_byte?
      00FFC30DH   ECODE    ---       encoder_spi_r_reg_byte?
      00FFC2D0H   ECODE    ---       encoder_spi_w_reg_byte?
      000005EDH   EDATA    INT       error1
      000005EFH   EDATA    INT       error2
      000005DFH   EDATA    INT       error_pre
      0000059FH   EDATA    INT       error_pre2
*SFR* 000000A8H.4 DATA     BIT       ES
*SFR* 000000A8H.1 DATA     BIT       ET0
*SFR* 000000A8H.3 DATA     BIT       ET1
*SFR* 000000A8H.0 DATA     BIT       EX0
*SFR* 000000A8H.2 DATA     BIT       EX1
*DEL*:00000000H   ECODE    ---       exit_init?
      00FF86AAH   ECODE    ---       exp??
      00FFD4C5H   ECODE    ---       extern_iap_write_bytes?
*SFR* 000000D0H.5 DATA     BIT       F0
      00FFBC99H   ECODE    ---       fifo_clear?
      00FFBC53H   ECODE    ---       fifo_end_offset?
      00FFBC11H   ECODE    ---       fifo_head_offset?
      00FFBBCEH   ECODE    ---       fifo_init?
      00FFBDB8H   ECODE    ---       fifo_read_buffer?
      00FFBCBEH   ECODE    ---       fifo_used?
      00FFBCD3H   ECODE    ---       fifo_write_buffer?
      00000778H   EDATA    INT       flag_c_hd
      0000079AH   EDATA    INT       flag_hd_R
      0000076EH   EDATA    INT       flag_hd_Z
      0000077CH   EDATA    INT       flag_r_hd
      000005BDH   EDATA    FLOAT     g_dirControl_D
      000005C5H   EDATA    FLOAT     g_dirControl_P
      0000054BH   EDATA    ---       g_fDirectionError
      0000053DH   EDATA    ---       g_fDirectionError_dot
      0000052BH   EDATA    ---       g_ValueOfAD
      0000055FH   EDATA    ---       g_ValueOfADFilter
      000007C4H   EDATA    INT       garage_out_direction
      00FFAD64H   ECODE    ---       gpio_mode?
      00FFACF6H   ECODE    ---       gpio_pull_set?
      000005E1H   EDATA    FLOAT     gr
      000005D3H   EDATA    FLOAT     gr_y
      0000078AH   EDATA    FLOAT     Gyro_Pitch_Angle
      000007B6H   EDATA    INT       Hall
      00FF8F59H   ECODE    ---       Huan_Dao_R?
      00FF8DA2H   ECODE    ---       Huan_Dao_Z?
*SFR* 000000F6H   DATA     BYTE      IAP_ADDRE
*SFR* 000000C3H   DATA     BYTE      IAP_ADDRH
*SFR* 000000C4H   DATA     BYTE      IAP_ADDRL
*SFR* 000000C5H   DATA     BYTE      IAP_CMD
*SFR* 000000C7H   DATA     BYTE      IAP_CONTR
*SFR* 000000C2H   DATA     BYTE      IAP_DATA
      00FFD4B6H   ECODE    ---       iap_erase_page?
      00FFD403H   ECODE    ---       iap_get_cmd_state?
      00FFD3FFH   ECODE    ---       iap_idle?
      00FFD3F8H   ECODE    ---       iap_init?
      00FFD426H   ECODE    ---       iap_read_bytes?
L251 LINKER/LOCATER V4.66.93.0                                                        07/23/2023  00:26:15  PAGE 20


      00FFD40FH   ECODE    ---       iap_set_tps?
*SFR* 000000F5H   DATA     BYTE      IAP_TPS
*SFR* 000000C6H   DATA     BYTE      IAP_TRIG
      00FFD46EH   ECODE    ---       iap_write_bytes?
      00FFCC02H   ECODE    ---       icm20602_acc_transition?
      000007EBH   EDATA    INT       icm20602_acc_x
      000007EDH   EDATA    INT       icm20602_acc_y
      000007EFH   EDATA    INT       icm20602_acc_z
      00FFCB82H   ECODE    ---       icm20602_get_acc?
      00FFCBC2H   ECODE    ---       icm20602_get_gyro?
      00FFCC14H   ECODE    ---       icm20602_gyro_transition?
      000007F1H   EDATA    INT       icm20602_gyro_x
      000007F3H   EDATA    INT       icm20602_gyro_y
      000007F5H   EDATA    INT       icm20602_gyro_z
      00FFCC28H   ECODE    ---       icm20602_init?
*SFR* 000000A8H   DATA     BYTE      IE
*SFR* 000000AFH   DATA     BYTE      IE2
      00FFBB9FH   ECODE    ---       iic_change_pin?
      00FFB8BCH   ECODE    ---       iic_delay_us?
      00FFB9B2H   ECODE    ---       iic_init?
      00FFBA78H   ECODE    ---       iic_read_reg?
      00FFBAF7H   ECODE    ---       iic_read_reg_bytes?
      00FFBA10H   ECODE    ---       iic_write_reg?
      00FFC53BH   ECODE    ---       imu660ra_acc_transition?
      000007F7H   EDATA    INT       imu660ra_acc_x
      000007F9H   EDATA    INT       imu660ra_acc_y
      000007FBH   EDATA    INT       imu660ra_acc_z
      00FFAC3AH   ECODE    ---       IMU660ra_Angle_Y?
      00FFAB7CH   ECODE    ---       IMU660ra_Angle_Y_V_Filter?
      00FF00A7H   CODE     ---       imu660ra_config_file
      00FFC4BBH   ECODE    ---       imu660ra_get_acc?
      00FFC4FBH   ECODE    ---       imu660ra_get_gyro?
      00FFC54DH   ECODE    ---       imu660ra_gyro_transition?
      000007FDH   EDATA    INT       imu660ra_gyro_x
      000007FFH   EDATA    INT       imu660ra_gyro_y
      00000801H   EDATA    INT       imu660ra_gyro_z
      00FFC561H   ECODE    ---       imu660ra_init?
      00FFB427H   ECODE    ---       imu963ra_acc_transition?
      000007CAH   EDATA    INT       imu963ra_acc_x
      000007CCH   EDATA    INT       imu963ra_acc_y
      000007CEH   EDATA    INT       imu963ra_acc_z
      00FFB350H   ECODE    ---       imu963ra_get_acc?
      00FFB390H   ECODE    ---       imu963ra_get_gyro?
      00FFB3D0H   ECODE    ---       imu963ra_get_mag?
      00FFB42AH   ECODE    ---       imu963ra_gyro_transition?
      000007D6H   EDATA    INT       imu963ra_gyro_x
      000007D8H   EDATA    INT       imu963ra_gyro_y
      000007DAH   EDATA    INT       imu963ra_gyro_z
      00FFB441H   ECODE    ---       imu963ra_init?
      00FFB42DH   ECODE    ---       imu963ra_mag_transition?
      000007D0H   EDATA    INT       imu963ra_mag_x
      000007D2H   EDATA    INT       imu963ra_mag_y
      000007D4H   EDATA    INT       imu963ra_mag_z
      00FFA43AH   ECODE    ---       InductorNormal?
      00FFC967H   ECODE    ---       INT0_Isr?
      00FFC96AH   ECODE    ---       INT1_Isr?
      00FFC96BH   ECODE    ---       INT2_Isr?
      00FFC96FH   ECODE    ---       INT3_Isr?
      00FFC973H   ECODE    ---       INT4_Isr?
*SFR* 0000008FH   DATA     BYTE      INTCLKO
*SFR* 000000B8H   DATA     BYTE      IP
*SFR* 000000B5H   DATA     BYTE      IP2
*SFR* 000000B6H   DATA     BYTE      IP2H
*SFR* 000000DFH   DATA     BYTE      IP3
*SFR* 000000EEH   DATA     BYTE      IP3H
L251 LINKER/LOCATER V4.66.93.0                                                        07/23/2023  00:26:15  PAGE 21


*SFR* 000000B7H   DATA     BYTE      IPH
      00FF5C9EH   ECODE    ---       ips114_clear?
      00FF5509H   ECODE    ---       ips114_clear_simspi?
      00FF5CDCH   ECODE    ---       ips114_drawpoint?
      00FF5547H   ECODE    ---       ips114_drawpoint_simspi?
      00FF5AA3H   ECODE    ---       ips114_init?
      00FF5331H   ECODE    ---       ips114_init_simspi?
      00FF5C4FH   ECODE    ---       ips114_set_region?
      00FF54BEH   ECODE    ---       ips114_set_region_simspi?
      00FF5CF1H   ECODE    ---       ips114_showchar?
      00FF555CH   ECODE    ---       ips114_showchar_simspi?
      00FF60F8H   ECODE    ---       ips114_showfloat?
      00FF596FH   ECODE    ---       ips114_showfloat_simspi?
      00FF5F03H   ECODE    ---       ips114_showint16?
      00FF5776H   ECODE    ---       ips114_showint16_simspi?
      00FF6073H   ECODE    ---       ips114_showint32?
      00FF58EAH   ECODE    ---       ips114_showint32_simspi?
      00FF5DCDH   ECODE    ---       ips114_showint8?
      00FF5638H   ECODE    ---       ips114_showint8_simspi?
      00FF5D7EH   ECODE    ---       ips114_showstr?
      00FF55E9H   ECODE    ---       ips114_showstr_simspi?
      00FF5FE7H   ECODE    ---       ips114_showuint16?
      00FF585EH   ECODE    ---       ips114_showuint16_simspi?
      00FF5E89H   ECODE    ---       ips114_showuint8?
      00FF56F8H   ECODE    ---       ips114_showuint8_simspi?
      00FF5A77H   ECODE    ---       ips114_writeData?
      00FF5A82H   ECODE    ---       ips114_writedata_16bit?
      00FF52DCH   ECODE    ---       ips114_writeData_simspi?
      00FF5305H   ECODE    ---       ips114_writeDatai_16bit_simspi?
      00FF5A6CH   ECODE    ---       ips114_writeIndex?
      00FF52B3H   ECODE    ---       ips114_writeIndex_simspi?
*SFR* 0000009DH   DATA     BYTE      IRCBAND
*SFR* 0000009FH   DATA     BYTE      IRTRIM
*SFR* 00000088H.0 DATA     BIT       IT0
*SFR* 00000088H.2 DATA     BIT       IT1
      000007AEH   EDATA    BYTE      key1_flag
      000007A2H   EDATA    BYTE      key1_last_status
      0000079CH   EDATA    BYTE      key1_status
      000007AFH   EDATA    BYTE      key2_flag
      000007A3H   EDATA    BYTE      key2_last_status
      0000079DH   EDATA    BYTE      key2_status
      000007B0H   EDATA    BYTE      key3_flag
      000007A4H   EDATA    BYTE      key3_last_status
      0000079EH   EDATA    BYTE      key3_status
      000007B1H   EDATA    BYTE      key4_flag
      000007A5H   EDATA    BYTE      key4_last_status
      0000079FH   EDATA    BYTE      key4_status
      00FF72FCH   ECODE    ---       Keystroke_Menu?
      00FF7C40H   ECODE    ---       Keystroke_Menu_FIVE?
      00FF7E14H   ECODE    ---       Keystroke_Menu_FIVE_Four?
      00FF7C9FH   ECODE    ---       Keystroke_Menu_FIVE_One?
      00FF7DCDH   ECODE    ---       Keystroke_Menu_FIVE_Three?
      00FF7D36H   ECODE    ---       Keystroke_Menu_FIVE_Two?
      00FF78FFH   ECODE    ---       Keystroke_Menu_FOUR?
      00FF740FH   ECODE    ---       Keystroke_Menu_HOME?
      00FF752EH   ECODE    ---       Keystroke_Menu_ONE?
      00FF75C7H   ECODE    ---       Keystroke_Menu_ONE_Four?
      00FF758DH   ECODE    ---       Keystroke_Menu_ONE_One?
      00FF75B9H   ECODE    ---       Keystroke_Menu_ONE_Three?
      00FF75A3H   ECODE    ---       Keystroke_Menu_ONE_Two?
      00FF7850H   ECODE    ---       Keystroke_Menu_THREE?
      00FF78F1H   ECODE    ---       Keystroke_Menu_THREE_Four?
      00FF78AFH   ECODE    ---       Keystroke_Menu_THREE_One?
      00FF78DBH   ECODE    ---       Keystroke_Menu_THREE_Three?
      00FF78C5H   ECODE    ---       Keystroke_Menu_THREE_Two?
L251 LINKER/LOCATER V4.66.93.0                                                        07/23/2023  00:26:15  PAGE 22


      00FF76BEH   ECODE    ---       Keystroke_Menu_TWO?
      00FF777BH   ECODE    ---       Keystroke_Menu_TWO_Four?
      00FF7739H   ECODE    ---       Keystroke_Menu_TWO_One?
      00FF7765H   ECODE    ---       Keystroke_Menu_TWO_Three?
      00FF774FH   ECODE    ---       Keystroke_Menu_TWO_Two?
      00FF702DH   ECODE    ---       Keystroke_Scan?
      00FF72A5H   ECODE    ---       Keystroke_Special_Value?
      000007A8H   EDATA    BYTE      KeystrokeLabel
      00FF7195H   ECODE    ---       KeystrokeLabel_Switch?
      00FF8A82H   ECODE    ---       knn?
      000005B9H   EDATA    FLOAT     last_err1
      000005C1H   EDATA    FLOAT     last_err2
      00FF4A78H   ECODE    ---       lcd_clear?
      00FF4245H   ECODE    ---       lcd_clear_simspi?
      00FF4CEFH   ECODE    ---       lcd_drawpoint?
      00FF44BFH   ECODE    ---       lcd_drawpoint_simspi?
      00FF4AA5H   ECODE    ---       lcd_init?
      00FF4272H   ECODE    ---       lcd_init_simspi?
      00FF4A1DH   ECODE    ---       lcd_set_region?
      00FF41EEH   ECODE    ---       lcd_set_region_simspi?
      00FF4D04H   ECODE    ---       lcd_showchar?
      00FF44D4H   ECODE    ---       lcd_showchar_simspi?
      00FF5119H   ECODE    ---       lcd_showfloat?
      00FF48E9H   ECODE    ---       lcd_showfloat_simspi?
      00FF4F20H   ECODE    ---       lcd_showint16?
      00FF46F0H   ECODE    ---       lcd_showint16_simspi?
      00FF5094H   ECODE    ---       lcd_showint32?
      00FF4864H   ECODE    ---       lcd_showint32_simspi?
      00FF4DE2H   ECODE    ---       lcd_showint8?
      00FF45B2H   ECODE    ---       lcd_showint8_simspi?
      00FF4D93H   ECODE    ---       lcd_showstr?
      00FF4563H   ECODE    ---       lcd_showstr_simspi?
      00FF5008H   ECODE    ---       lcd_showuint16?
      00FF47D8H   ECODE    ---       lcd_showuint16_simspi?
      00FF4EA2H   ECODE    ---       lcd_showuint8?
      00FF4672H   ECODE    ---       lcd_showuint8_simspi?
      00FF49F1H   ECODE    ---       lcd_writeData?
      00FF49FCH   ECODE    ---       lcd_writedata_16bit?
      00FF41C2H   ECODE    ---       lcd_writeData_16bit_simspi?
      00FF4199H   ECODE    ---       lcd_writeData_simspi?
      00FF49E6H   ECODE    ---       lcd_writeIndex?
      00FF4170H   ECODE    ---       lcd_writeIndex_simspi?
      00000573H   EDATA    INT       leftP
      00000527H   EDATA    INT       leftS
      00000529H   EDATA    INT       leftV
*SFR* 000000F9H   DATA     BYTE      LINICR
      00FF873DH   ECODE    FAR LAB   log??
      00FFD77CH   ECODE    ---       main?
      00FFDD8DH   ECODE    ---       memcpy??
      00FF0027H   ECODE    ---       memset??
      00FF7B52H   ECODE    ---       Menu_FIVE_Display?
      00FF74C3H   ECODE    ---       Menu_ONE_Display?
      00FF7791H   ECODE    ---       Menu_THREE_Display?
      00FF75D5H   ECODE    ---       Menu_TWO_Display?
      000007AAH   EDATA    BYTE      MenuNextFlag
      0000056DH   EDATA    INT       middle
      000005DBH   EDATA    FLOAT     Motor_Ki_L
      000005E5H   EDATA    FLOAT     Motor_Ki_R
      000005E9H   EDATA    FLOAT     Motor_Kp_L
      000005F5H   EDATA    FLOAT     Motor_Kp_R
      00000803H   EDATA    INT       mpu6050_acc_x
      00000805H   EDATA    INT       mpu6050_acc_y
      00000807H   EDATA    INT       mpu6050_acc_z
      00FFC0D0H   ECODE    ---       mpu6050_get_accdata?
      00FFC111H   ECODE    ---       mpu6050_get_gyro?
L251 LINKER/LOCATER V4.66.93.0                                                        07/23/2023  00:26:15  PAGE 23


      00000809H   EDATA    INT       mpu6050_gyro_x
      0000080BH   EDATA    INT       mpu6050_gyro_y
      0000080DH   EDATA    INT       mpu6050_gyro_z
      00FFC073H   ECODE    ---       mpu6050_init?
      00FFBFC1H   ECODE    ---       mpu6050_simiic_read_reg?
      00FFBFEAH   ECODE    ---       mpu6050_simiic_read_regs?
      00FFAC11H   ECODE    ---       mpu660_angle?
      00FFAAB3H   ECODE    ---       mpu660_PID?
      0000059DH   EDATA    INT       normal_speed
      000005CBH   EDATA    FLOAT     now_x
      000005CFH   EDATA    FLOAT     now_y
      00FF9CE5H   ECODE    ---       number_conversion_ascii?
*DEL*:00000000H   ECODE    ---       NVIC_SetPriority?
      00000780H   EDATA    INT       obstacle1_type
      00000784H   EDATA    INT       obstacle2_type
      00000786H   EDATA    INT       obstacle3_type
      00FF9248H   ECODE    ---       Obstacle?
      00FF91BDH   ECODE    ---       Obstacle_Deal?
      0000078EH   EDATA    INT       obstacle_flag
      00000788H   EDATA    INT       obstacle_number
      00000772H   EDATA    INT       obstacle_number_MAX
      00FF2C87H   CODE     ---       oled_6x8
      00FF20A7H   CODE     ---       oled_8x16
      00FF30CAH   ECODE    ---       oled_clrpixel?
      00FF3A05H   ECODE    ---       oled_clrpixel_spi?
      00FF347EH   ECODE    ---       oled_dis_bmp?
      00FF3DB7H   ECODE    ---       oled_dis_bmp_spi?
      00FF305BH   ECODE    ---       oled_fill?
      00FF3998H   ECODE    ---       oled_fill_spi?
      00FF2F41H   ECODE    ---       oled_hexascii?
      00FF3863H   ECODE    ---       oled_hexascii_spi?
      00FF2F73H   ECODE    ---       oled_init?
      00FF3895H   ECODE    ---       oled_init_spi?
      00FF32AEH   ECODE    ---       oled_int16?
      00FF3BE7H   ECODE    ---       oled_int16_spi?
      00FF30FBH   ECODE    ---       oled_p6x8str?
      00FF3A34H   ECODE    ---       oled_p6x8str_spi?
      00FF31A5H   ECODE    ---       oled_p8x16str?
      00FF3ADEH   ECODE    ---       oled_p8x16str_spi?
      00FF37BBH   ECODE    ---       oled_print_chinese?
      00FF40DEH   ECODE    ---       oled_print_chinese_spi?
      00FF3381H   ECODE    ---       oled_printf_float?
      00FF3CBAH   ECODE    ---       oled_printf_float_spi?
      00FF32FCH   ECODE    ---       oled_printf_int32?
      00FF3C35H   ECODE    ---       oled_printf_int32_spi?
      00FF3092H   ECODE    ---       oled_putpixel?
      00FF39CFH   ECODE    ---       oled_putpixel_spi?
      00FF3035H   ECODE    ---       oled_set_pos?
      00FF3974H   ECODE    ---       oled_set_pos_spi?
      00FF328FH   ECODE    ---       oled_uint16?
      00FF3BC8H   ECODE    ---       oled_uint16_spi?
      00FF2F18H   ECODE    ---       oled_wrcmd?
      00FF3858H   ECODE    ---       oled_wrcmd_spi?
      00FF2EEFH   ECODE    ---       oled_wrdat?
      00FF384DH   ECODE    ---       oled_wrdat_spi?
      00FFAC63H   ECODE    ---       Ordinary_trace?
*SFR* 00000080H   DATA     BYTE      P0
*SFR* 00000080H.7 DATA     BIT       P07
*SFR* 00000094H   DATA     BYTE      P0M0
*SFR* 00000093H   DATA     BYTE      P0M1
*SFR* 00000090H   DATA     BYTE      P1
*SFR* 00000092H   DATA     BYTE      P1M0
*SFR* 00000091H   DATA     BYTE      P1M1
*SFR* 000000A0H   DATA     BYTE      P2
*SFR* 000000A0H.0 DATA     BIT       P20
L251 LINKER/LOCATER V4.66.93.0                                                        07/23/2023  00:26:15  PAGE 24


*SFR* 000000A0H.1 DATA     BIT       P21
*SFR* 000000A0H.2 DATA     BIT       P22
*SFR* 000000A0H.3 DATA     BIT       P23
*SFR* 000000A0H.4 DATA     BIT       P24
*SFR* 000000A0H.5 DATA     BIT       P25
*SFR* 000000A0H.6 DATA     BIT       P26
*SFR* 000000A0H.7 DATA     BIT       P27
*SFR* 00000096H   DATA     BYTE      P2M0
*SFR* 00000095H   DATA     BYTE      P2M1
*SFR* 000000B0H   DATA     BYTE      P3
*SFR* 000000B0H.2 DATA     BIT       P32
*SFR* 000000B0H.3 DATA     BIT       P33
*SFR* 000000B0H.5 DATA     BIT       P35
*SFR* 000000B2H   DATA     BYTE      P3M0
*SFR* 000000B1H   DATA     BYTE      P3M1
*SFR* 000000C0H   DATA     BYTE      P4
*SFR* 000000C0H.0 DATA     BIT       P40
*SFR* 000000C0H.1 DATA     BIT       P41
*SFR* 000000C0H.2 DATA     BIT       P42
*SFR* 000000C0H.3 DATA     BIT       P43
*SFR* 000000C0H.5 DATA     BIT       P45
*SFR* 000000C0H.7 DATA     BIT       P47
*SFR* 000000B4H   DATA     BYTE      P4M0
*SFR* 000000B3H   DATA     BYTE      P4M1
*SFR* 000000C8H   DATA     BYTE      P5
*SFR* 000000C8H.2 DATA     BIT       P52
*SFR* 000000C8H.3 DATA     BIT       P53
*SFR* 000000CAH   DATA     BYTE      P5M0
*SFR* 000000C9H   DATA     BYTE      P5M1
*SFR* 000000E8H   DATA     BYTE      P6
*SFR* 000000E8H.0 DATA     BIT       P60
*SFR* 000000E8H.1 DATA     BIT       P61
*SFR* 000000E8H.3 DATA     BIT       P63
*SFR* 000000E8H.4 DATA     BIT       P64
*SFR* 000000E8H.5 DATA     BIT       P65
*SFR* 000000E8H.7 DATA     BIT       P67
*SFR* 000000CCH   DATA     BYTE      P6M0
*SFR* 000000CBH   DATA     BYTE      P6M1
*SFR* 000000F8H   DATA     BYTE      P7
*SFR* 000000F8H.0 DATA     BIT       P70
*SFR* 000000F8H.1 DATA     BIT       P71
*SFR* 000000F8H.2 DATA     BIT       P72
*SFR* 000000F8H.3 DATA     BIT       P73
*SFR* 000000F8H.5 DATA     BIT       P75
*SFR* 000000F8H.6 DATA     BIT       P76
*SFR* 000000E2H   DATA     BYTE      P7M0
*SFR* 000000E1H   DATA     BYTE      P7M1
*SFR* 000000A2H   DATA     BYTE      P_SW1
*SFR* 000000BAH   DATA     BYTE      P_SW2
*SFR* 000000BBH   DATA     BYTE      P_SW3
      000007BCH   EDATA    INT       park_number
*SFR* 00000087H   DATA     BYTE      PCON
      00FFD34EH   ECODE    ---       pit_timer_ms?
      00FFD87CH   ECODE    ---       pow??
      00FF80FAH   ECODE    FAR LAB   printf?
      00FF9D7BH   ECODE    ---       printf_reverse_order?
*SFR* 000000D0H   DATA     BYTE      PSW
      00FFD087H   ECODE    ---       putchar?
      00FFE18BH   HCONST   ---       PWM_ARR_ADDR
      00FFE193H   HCONST   ---       PWM_CCER_ADDR
      00FFE1A3H   HCONST   ---       PWM_CCMR_ADDR
      00FFE16BH   HCONST   ---       PWM_CCR_ADDR
      00FF9AE0H   ECODE    ---       pwm_duty?
      00FF9BADH   ECODE    ---       pwm_freq?
      00FF97DCH   ECODE    ---       pwm_init?
L251 LINKER/LOCATER V4.66.93.0                                                        07/23/2023  00:26:15  PAGE 25


      00FF953AH   ECODE    ---       pwm_set_gpio?
      00FFB858H   ECODE    ---       Re_Start?
      00FFA2CFH   ECODE    ---       Read_ADC?
      00FFDD3DH   ECODE    ---       read_encoder?
      00FFD74FH   ECODE    ---       read_float?
      00FFD6EAH   ECODE    ---       read_int?
      00000790H   EDATA    INT       real_obstacle_flag
      00FFB940H   ECODE    ---       recv_ack?
      00FFB951H   ECODE    ---       recv_data?
      00000569H   EDATA    INT       rightP
      0000056FH   EDATA    INT       rightS
      00000571H   EDATA    INT       rightV
      00000768H   EDATA    INT       round1_type
      0000076AH   EDATA    INT       round2_type
      0000076CH   EDATA    INT       round3_type
      00000770H   EDATA    INT       round4_type
      00FF8CE7H   ECODE    ---       Round_Deal?
      0000077AH   EDATA    INT       round_number
      00000794H   EDATA    INT       round_number_MAX
      000005C9H   EDATA    INT       round_speed
      00000792H   EDATA    INT       roundcount
      00000774H   EDATA    INT       roundcount2
      000007C6H   EDATA    INT       roundcount2_k
      00000776H   EDATA    INT       roundcount3
      000007C0H   EDATA    INT       roundcount_k
*SFR* 000000FFH   DATA     BYTE      RSTCFG
      00FFB5BDH   ECODE    ---       RuKu?
      00FFB6C3H   ECODE    ---       RuKu_Back_Into?
      00FFB7B4H   ECODE    ---       RuKu_Encoder_Round_After?
      000007B8H   EDATA    INT       ruku_encoder_round_after_flag
*SFR* 0000009BH   DATA     BYTE      S2BUF
*SFR* 0000009AH   DATA     BYTE      S2CON
*SFR* 000000ADH   DATA     BYTE      S3BUF
*SFR* 000000ACH   DATA     BYTE      S3CON
*SFR* 000000FEH   DATA     BYTE      S4BUF
*SFR* 000000FDH   DATA     BYTE      S4CON
      00FFD717H   ECODE    ---       save_float?
      00FFD6B2H   ECODE    ---       save_int?
*SFR* 00000099H   DATA     BYTE      SBUF
*SFR* 00000098H   DATA     BYTE      SCON
      00000525H   EDATA    INT       second_leftp
      0000056BH   EDATA    INT       second_rightp
      00FFB96EH   ECODE    ---       send_ack?
      00FFB928H   ECODE    ---       send_data?
      00FFB987H   ECODE    ---       send_nak?
      00000819H   EDATA    FLOAT     servo
      00FFCECDH   ECODE    ---       set_clk?
      00FFC222H   ECODE    ---       set_zero_position_simspi?
      00FFC341H   ECODE    ---       set_zero_position_spi?
      00FF5216H   ECODE    ---       showimage?
      00FFC193H   ECODE    ---       simspi_r_reg_byte?
      00FFC177H   ECODE    ---       simspi_w_reg_byte?
      00FFC158H   ECODE    ---       simspi_wr_byte?
      00FF9110H   ECODE    ---       Slope?
      0000077EH   EDATA    INT       slope_flag
*SFR* 000000CEH   DATA     BYTE      SPCTL
*SFR* 000000CFH   DATA     BYTE      SPDAT
      0000087DH   EDATA    INT       speed1
      0000087FH   EDATA    INT       speed2
      00FFA9A3H   ECODE    ---       speedL_pid?
      00FFAA2BH   ECODE    ---       speedR_pid?
      00FFD249H   ECODE    ---       spi_change_mode?
      00FFD192H   ECODE    ---       spi_change_pin?
      00FFD09CH   ECODE    ---       spi_init?
      00FFD184H   ECODE    ---       spi_mosi?
L251 LINKER/LOCATER V4.66.93.0                                                        07/23/2023  00:26:15  PAGE 26


      00FFC2B2H   ECODE    ---       spi_r_reg_byte?
      00FFC296H   ECODE    ---       spi_w_reg_byte?
      00FFC291H   ECODE    ---       spi_wr_byte?
*SFR* 000000CDH   DATA     BYTE      SPSTAT
      00FF8127H   ECODE    ---       sqrt??
      00FFB917H   ECODE    ---       start?
      000007C8H   EDATA    INT       Start_Flag
      00FFB9A1H   ECODE    ---       stop?
      000007A6H   EDATA    BYTE      sw1_status
      000007A7H   EDATA    BYTE      sw2_status
      0000083DH   EDATA    LONG      sys_clk
*SFR* 000000D6H   DATA     BYTE      T2H
*SFR* 000000D7H   DATA     BYTE      T2L
*SFR* 000000D4H   DATA     BYTE      T3H
*SFR* 000000D5H   DATA     BYTE      T3L
*SFR* 000000D2H   DATA     BYTE      T4H
*SFR* 000000D3H   DATA     BYTE      T4L
*SFR* 000000DDH   DATA     BYTE      T4T3M
      000005B1H   EDATA    FLOAT     Target_speed1
      000005B5H   EDATA    FLOAT     Target_speed2
      00FFA8BEH   ECODE    ---       Target_speed?
      000007A9H   EDATA    BYTE      target_value_bit
*SFR* 00000088H   DATA     BYTE      TCON
      00FF2697H   CODE     ---       tft_ascii
*SFR* 0000008CH   DATA     BYTE      TH0
*SFR* 0000008DH   DATA     BYTE      TH1
      000007A0H   EDATA    INT       This_Codename
*SFR* 0000008AH   DATA     BYTE      TL0
*SFR* 0000008BH   DATA     BYTE      TL1
      00FFC977H   ECODE    ---       TM0_Isr?
      00FFC978H   ECODE    ---       TM1_Isr?
      00FFC979H   ECODE    ---       TM2_Isr?
      00FFC97DH   ECODE    ---       TM3_Isr?
      00FFC981H   ECODE    ---       TM4_Isr?
*SFR* 00000089H   DATA     BYTE      TMOD
*SFR* 00000088H.4 DATA     BIT       TR0
*SFR* 00000088H.6 DATA     BIT       TR1
      00000357H   EDATA    BYTE      tsl1401_finish_flag
      00FFC892H   ECODE    ---       UART1_Isr?
      00000458H   EDATA    ---       uart1_rx_buff
      000004BCH   EDATA    ---       uart1_tx_buff
      00FFC8CBH   ECODE    ---       UART2_Isr?
      00FFC8E5H   ECODE    ---       UART3_Isr?
      00FFC8FFH   ECODE    ---       UART4_Isr?
      00FFC631H   ECODE    ---       uart_init?
      00FFC845H   ECODE    ---       uart_putbuff?
      00FFC7F1H   ECODE    ---       uart_putchar?
      00FFC873H   ECODE    ---       uart_putstr?
*SFR* 000000F4H   DATA     BYTE      USBCON
      000005F1H   EDATA    FLOAT     v_angle
      000005ADH   EDATA    FLOAT     v_angle_P
      0000080FH   EDATA    ---       virtual_scope_data
*SFR* 000000A6H   DATA     BYTE      VRTRIM
      00FFB8D1H   ECODE    ---       wait?
*SFR* 000000C1H   DATA     BYTE      WDT_CONTR
      00FFD97BH   ECODE    ---       wireless_ch573_callback?
      00FFDA17H   ECODE    ---       wireless_ch573_init?
      00FFD9F4H   ECODE    ---       wireless_ch573_read_buff?
      00FFD995H   ECODE    ---       wireless_ch573_send_buff?
      00000887H   EDATA    INT       wireless_type
      00FFDA55H   ECODE    ---       wireless_uart_callback?
      00FFDAEDH   ECODE    ---       wireless_uart_init?
      00FFDACAH   ECODE    ---       wireless_uart_read_buff?
      00FFDA6FH   ECODE    ---       wireless_uart_send_buff?
*SFR* 000000E9H   DATA     BYTE      WTST
L251 LINKER/LOCATER V4.66.93.0                                                        07/23/2023  00:26:15  PAGE 27


      000007BEH   EDATA    INT       XJ
      000005D7H   EDATA    FLOAT     y_v_angle
      000005FDH   EDATA    FLOAT     y_v_angle_P
      00000841H   EDATA    WORD      zf_delay_ms
      00000843H   EDATA    WORD      zf_delay_us
      00FF9DB9H   ECODE    ---       zf_sprintf?
      00000549H   EDATA    INT       zhidaoflag



SYMBOL TABLE OF MODULE:  .\Out_File\SEEKFREE (board)

      VALUE       REP       CLASS    TYPE      SYMBOL NAME
      ====================================================
      ---         MODULE    ---      ---       board
      00FFD099H   PUBLIC    ECODE    ---       EnableGlobalIRQ?
      00FFCFEFH   PUBLIC    ECODE    ---       board_init?
      00FFCECDH   PUBLIC    ECODE    ---       set_clk?
      00FFD096H   PUBLIC    ECODE    ---       DisableGlobalIRQ?
      00FFD087H   PUBLIC    ECODE    ---       putchar?
      0000083DH   PUBLIC    EDATA    LONG      sys_clk
      00000094H   SFRSYM    DATA     BYTE      P0M0
      000000D0H   SFRSYM    DATA     BYTE      PSW
      000000BAH.7 SFRSYM    DATA     BIT       EAXFR
      0000009DH   SFRSYM    DATA     BYTE      IRCBAND
      00000097H   SFRSYM    DATA     BYTE      AUXR2
      000000EAH   SFRSYM    DATA     BYTE      CKCON
      000000EFH   SFRSYM    DATA     BYTE      AUXINTIF
      000000FDH   SFRSYM    DATA     BYTE      S4CON
      000000ACH   SFRSYM    DATA     BYTE      S3CON
      0000009AH   SFRSYM    DATA     BYTE      S2CON
      000000A6H   SFRSYM    DATA     BYTE      VRTRIM
      000000B7H   SFRSYM    DATA     BYTE      IPH
      000000CDH   SFRSYM    DATA     BYTE      SPSTAT
      000000DDH   SFRSYM    DATA     BYTE      T4T3M
      0000009FH   SFRSYM    DATA     BYTE      IRTRIM
      000000C1H   SFRSYM    DATA     BYTE      WDT_CONTR
      000000E9H   SFRSYM    DATA     BYTE      WTST
      000000DFH   SFRSYM    DATA     BYTE      IP3
      000000F4H   SFRSYM    DATA     BYTE      USBCON
      000000B5H   SFRSYM    DATA     BYTE      IP2
      000000FFH   SFRSYM    DATA     BYTE      RSTCFG
      000000F9H   SFRSYM    DATA     BYTE      LINICR
      0000008EH   SFRSYM    DATA     BYTE      AUXR
      000000AFH   SFRSYM    DATA     BYTE      IE2
      00000088H   SFRSYM    DATA     BYTE      TCON
      00000089H   SFRSYM    DATA     BYTE      TMOD
      00000098H   SFRSYM    DATA     BYTE      SCON
      000000F1H   SFRSYM    DATA     BYTE      CANICR
      00000087H   SFRSYM    DATA     BYTE      PCON
      000000BCH   SFRSYM    DATA     BYTE      ADC_CONTR
      000000E7H   SFRSYM    DATA     BYTE      CMPCR2
      000000E6H   SFRSYM    DATA     BYTE      CMPCR1
      000000DEH   SFRSYM    DATA     BYTE      ADCCFG
      000000B8H   SFRSYM    DATA     BYTE      IP
      0000008FH   SFRSYM    DATA     BYTE      INTCLKO
      000000EEH   SFRSYM    DATA     BYTE      IP3H
      000000B6H   SFRSYM    DATA     BYTE      IP2H
      000000A8H   SFRSYM    DATA     BYTE      IE
      000000BBH   SFRSYM    DATA     BYTE      P_SW3
      000000BAH   SFRSYM    DATA     BYTE      P_SW2
      000000A2H   SFRSYM    DATA     BYTE      P_SW1
      000000CEH   SFRSYM    DATA     BYTE      SPCTL
      000000F8H   SFRSYM    DATA     BYTE      P7
      000000A8H.7 SFRSYM    DATA     BIT       EA
L251 LINKER/LOCATER V4.66.93.0                                                        07/23/2023  00:26:15  PAGE 28


      000000E1H   SFRSYM    DATA     BYTE      P7M1
      000000E8H   SFRSYM    DATA     BYTE      P6
      000000C8H   SFRSYM    DATA     BYTE      P5
      000000CBH   SFRSYM    DATA     BYTE      P6M1
      000000E2H   SFRSYM    DATA     BYTE      P7M0
      000000C0H   SFRSYM    DATA     BYTE      P4
      000000C9H   SFRSYM    DATA     BYTE      P5M1
      000000CCH   SFRSYM    DATA     BYTE      P6M0
      000000B0H   SFRSYM    DATA     BYTE      P3
      000000B3H   SFRSYM    DATA     BYTE      P4M1
      000000CAH   SFRSYM    DATA     BYTE      P5M0
      000000A0H   SFRSYM    DATA     BYTE      P2
      000000B1H   SFRSYM    DATA     BYTE      P3M1
      000000B4H   SFRSYM    DATA     BYTE      P4M0
      00000090H   SFRSYM    DATA     BYTE      P1
      00000095H   SFRSYM    DATA     BYTE      P2M1
      000000B2H   SFRSYM    DATA     BYTE      P3M0
      00000080H   SFRSYM    DATA     BYTE      P0
      00000091H   SFRSYM    DATA     BYTE      P1M1
      00000096H   SFRSYM    DATA     BYTE      P2M0
      00000092H   SFRSYM    DATA     BYTE      P1M0
      00000093H   SFRSYM    DATA     BYTE      P0M1

      00FFCECDH   BLOCK     ECODE    ---       LVL=0
      00FFCECDH   LINE      ECODE    ---       #43
      00FFCECDH   LINE      ECODE    ---       #46
      00FFCED0H   LINE      ECODE    ---       #48
      00FFCEE0H   LINE      ECODE    ---       #51
      00FFCEEDH   LINE      ECODE    ---       #52
      00FFCEF1H   LINE      ECODE    ---       #53
      00FFCEF1H   LINE      ECODE    ---       #54
      00FFCEF1H   LINE      ECODE    ---       #55
      00FFCEF1H   LINE      ECODE    ---       #56
      00FFCEF3H   LINE      ECODE    ---       #57
      00FFCEFFH   LINE      ECODE    ---       #60
      00FFCF0CH   LINE      ECODE    ---       #61
      00FFCF10H   LINE      ECODE    ---       #62
      00FFCF10H   LINE      ECODE    ---       #63
      00FFCF10H   LINE      ECODE    ---       #64
      00FFCF10H   LINE      ECODE    ---       #65
      00FFCF12H   LINE      ECODE    ---       #66
      00FFCF1EH   LINE      ECODE    ---       #69
      00FFCF2BH   LINE      ECODE    ---       #70
      00FFCF2FH   LINE      ECODE    ---       #71
      00FFCF2FH   LINE      ECODE    ---       #72
      00FFCF2FH   LINE      ECODE    ---       #73
      00FFCF2FH   LINE      ECODE    ---       #74
      00FFCF31H   LINE      ECODE    ---       #75
      00FFCF3DH   LINE      ECODE    ---       #79
      00FFCF4AH   LINE      ECODE    ---       #80
      00FFCF4EH   LINE      ECODE    ---       #81
      00FFCF4EH   LINE      ECODE    ---       #82
      00FFCF4EH   LINE      ECODE    ---       #83
      00FFCF4EH   LINE      ECODE    ---       #84
      00FFCF50H   LINE      ECODE    ---       #85
      00FFCF5CH   LINE      ECODE    ---       #88
      00FFCF69H   LINE      ECODE    ---       #89
      00FFCF76H   LINE      ECODE    ---       #90
      00FFCF7FH   LINE      ECODE    ---       #91
      00FFCF82H   LINE      ECODE    ---       #92
      00FFCF82H   LINE      ECODE    ---       #93
      00FFCF84H   LINE      ECODE    ---       #94
      00FFCF90H   LINE      ECODE    ---       #97
      00FFCF9DH   LINE      ECODE    ---       #98
      00FFCFAAH   LINE      ECODE    ---       #99
L251 LINKER/LOCATER V4.66.93.0                                                        07/23/2023  00:26:15  PAGE 29


      00FFCFB3H   LINE      ECODE    ---       #100
      00FFCFB6H   LINE      ECODE    ---       #101
      00FFCFBAH   LINE      ECODE    ---       #102
      00FFCFBCH   LINE      ECODE    ---       #105
      00FFCFC0H   LINE      ECODE    ---       #107
      00FFCFCDH   LINE      ECODE    ---       #108
      00FFCFDAH   LINE      ECODE    ---       #109
      00FFCFE3H   LINE      ECODE    ---       #110
      00FFCFE6H   LINE      ECODE    ---       #111
      00FFCFEAH   LINE      ECODE    ---       #112
      00FFCFEAH   LINE      ECODE    ---       #114
      00FFCFEEH   LINE      ECODE    ---       #115
      ---         BLOCKEND  ---      ---       LVL=0

      00FFCFEFH   BLOCK     ECODE    ---       LVL=0
      00FFCFEFH   LINE      ECODE    ---       #121
      00FFCFEFH   LINE      ECODE    ---       #123
      00FFCFF2H   LINE      ECODE    ---       #124
      00FFCFF5H   LINE      ECODE    ---       #125
      00FFCFF8H   LINE      ECODE    ---       #126
      00FFCFFBH   LINE      ECODE    ---       #127
      00FFCFFEH   LINE      ECODE    ---       #137
      00FFD006H   LINE      ECODE    ---       #143
      00FFD00AH   LINE      ECODE    ---       #145
      00FFD00DH   LINE      ECODE    ---       #146
      00FFD010H   LINE      ECODE    ---       #147
      00FFD01CH   LINE      ECODE    ---       #149
      00FFD01FH   LINE      ECODE    ---       #150
      00FFD022H   LINE      ECODE    ---       #151
      00FFD025H   LINE      ECODE    ---       #152
      00FFD028H   LINE      ECODE    ---       #153
      00FFD02BH   LINE      ECODE    ---       #154
      00FFD02EH   LINE      ECODE    ---       #155
      00FFD031H   LINE      ECODE    ---       #156
      00FFD034H   LINE      ECODE    ---       #157
      00FFD037H   LINE      ECODE    ---       #158
      00FFD03AH   LINE      ECODE    ---       #159
      00FFD03DH   LINE      ECODE    ---       #160
      00FFD040H   LINE      ECODE    ---       #161
      00FFD043H   LINE      ECODE    ---       #162
      00FFD046H   LINE      ECODE    ---       #163
      00FFD049H   LINE      ECODE    ---       #164
      00FFD04CH   LINE      ECODE    ---       #166
      00FFD04FH   LINE      ECODE    ---       #167
      00FFD052H   LINE      ECODE    ---       #168
      00FFD055H   LINE      ECODE    ---       #169
      00FFD058H   LINE      ECODE    ---       #170
      00FFD05BH   LINE      ECODE    ---       #171
      00FFD05EH   LINE      ECODE    ---       #172
      00FFD061H   LINE      ECODE    ---       #173
      00FFD064H   LINE      ECODE    ---       #174
      00FFD067H   LINE      ECODE    ---       #176
      00FFD083H   LINE      ECODE    ---       #177
      ---         BLOCKEND  ---      ---       LVL=0

      00FFD087H   BLOCK     ECODE    ---       LVL=0
      R15         REGSYM    ---      CHAR      c
      00FFD087H   LINE      ECODE    ---       #183
      00FFD08BH   LINE      ECODE    ---       #185
      00FFD091H   LINE      ECODE    ---       #187
      00FFD093H   LINE      ECODE    ---       #188
      ---         BLOCKEND  ---      ---       LVL=0

      00FFD096H   BLOCK     ECODE    ---       LVL=0
      00FFD096H   LINE      ECODE    ---       #191
L251 LINKER/LOCATER V4.66.93.0                                                        07/23/2023  00:26:15  PAGE 30


      00FFD096H   LINE      ECODE    ---       #193
      00FFD098H   LINE      ECODE    ---       #194
      ---         BLOCKEND  ---      ---       LVL=0

      00FFD099H   BLOCK     ECODE    ---       LVL=0
      00FFD099H   LINE      ECODE    ---       #197
      00FFD099H   LINE      ECODE    ---       #199
      00FFD09BH   LINE      ECODE    ---       #200
      ---         BLOCKEND  ---      ---       LVL=0

      ---         MODULE    ---      ---       common
      00000887H   PUBLIC    EDATA    INT       wireless_type
      000000D0H   SFRSYM    DATA     BYTE      PSW
      0000009DH   SFRSYM    DATA     BYTE      IRCBAND
      00000097H   SFRSYM    DATA     BYTE      AUXR2
      000000EFH   SFRSYM    DATA     BYTE      AUXINTIF
      000000FDH   SFRSYM    DATA     BYTE      S4CON
      000000ACH   SFRSYM    DATA     BYTE      S3CON
      0000009AH   SFRSYM    DATA     BYTE      S2CON
      000000B7H   SFRSYM    DATA     BYTE      IPH
      000000CDH   SFRSYM    DATA     BYTE      SPSTAT
      000000DDH   SFRSYM    DATA     BYTE      T4T3M
      000000C1H   SFRSYM    DATA     BYTE      WDT_CONTR
      000000DFH   SFRSYM    DATA     BYTE      IP3
      000000F4H   SFRSYM    DATA     BYTE      USBCON
      000000B5H   SFRSYM    DATA     BYTE      IP2
      000000FFH   SFRSYM    DATA     BYTE      RSTCFG
      000000F9H   SFRSYM    DATA     BYTE      LINICR
      0000008EH   SFRSYM    DATA     BYTE      AUXR
      000000AFH   SFRSYM    DATA     BYTE      IE2
      00000088H   SFRSYM    DATA     BYTE      TCON
      00000098H   SFRSYM    DATA     BYTE      SCON
      000000F1H   SFRSYM    DATA     BYTE      CANICR
      00000087H   SFRSYM    DATA     BYTE      PCON
      000000BCH   SFRSYM    DATA     BYTE      ADC_CONTR
      000000E7H   SFRSYM    DATA     BYTE      CMPCR2
      000000E6H   SFRSYM    DATA     BYTE      CMPCR1
      000000B8H   SFRSYM    DATA     BYTE      IP
      0000008FH   SFRSYM    DATA     BYTE      INTCLKO
      000000EEH   SFRSYM    DATA     BYTE      IP3H
      000000B6H   SFRSYM    DATA     BYTE      IP2H
      000000A8H   SFRSYM    DATA     BYTE      IE
      000000BBH   SFRSYM    DATA     BYTE      P_SW3
      000000BAH   SFRSYM    DATA     BYTE      P_SW2
      000000A2H   SFRSYM    DATA     BYTE      P_SW1
      000000CEH   SFRSYM    DATA     BYTE      SPCTL
      000000F8H   SFRSYM    DATA     BYTE      P7
      000000E8H   SFRSYM    DATA     BYTE      P6
      000000C8H   SFRSYM    DATA     BYTE      P5
      000000C0H   SFRSYM    DATA     BYTE      P4
      000000B0H   SFRSYM    DATA     BYTE      P3
      000000A0H   SFRSYM    DATA     BYTE      P2
      00000090H   SFRSYM    DATA     BYTE      P1
      00000080H   SFRSYM    DATA     BYTE      P0

      ---         MODULE    ---      ---       zf_adc
      00FFDC2BH   PUBLIC    ECODE    ---       adc_once?
      00FFDBCDH   PUBLIC    ECODE    ---       adc_init?
      00000094H   SFRSYM    DATA     BYTE      P0M0
      000000D0H   SFRSYM    DATA     BYTE      PSW
      0000009DH   SFRSYM    DATA     BYTE      IRCBAND
      00000097H   SFRSYM    DATA     BYTE      AUXR2
      000000EFH   SFRSYM    DATA     BYTE      AUXINTIF
      000000FDH   SFRSYM    DATA     BYTE      S4CON
      000000ACH   SFRSYM    DATA     BYTE      S3CON
L251 LINKER/LOCATER V4.66.93.0                                                        07/23/2023  00:26:15  PAGE 31


      0000009AH   SFRSYM    DATA     BYTE      S2CON
      000000B7H   SFRSYM    DATA     BYTE      IPH
      000000CDH   SFRSYM    DATA     BYTE      SPSTAT
      000000BEH   SFRSYM    DATA     BYTE      ADC_RESL
      000000DDH   SFRSYM    DATA     BYTE      T4T3M
      000000C1H   SFRSYM    DATA     BYTE      WDT_CONTR
      000000DFH   SFRSYM    DATA     BYTE      IP3
      000000F4H   SFRSYM    DATA     BYTE      USBCON
      000000B5H   SFRSYM    DATA     BYTE      IP2
      000000FFH   SFRSYM    DATA     BYTE      RSTCFG
      000000F9H   SFRSYM    DATA     BYTE      LINICR
      0000008EH   SFRSYM    DATA     BYTE      AUXR
      000000AFH   SFRSYM    DATA     BYTE      IE2
      00000088H   SFRSYM    DATA     BYTE      TCON
      00000098H   SFRSYM    DATA     BYTE      SCON
      000000F1H   SFRSYM    DATA     BYTE      CANICR
      00000087H   SFRSYM    DATA     BYTE      PCON
      000000BCH   SFRSYM    DATA     BYTE      ADC_CONTR
      000000E7H   SFRSYM    DATA     BYTE      CMPCR2
      000000E6H   SFRSYM    DATA     BYTE      CMPCR1
      000000DEH   SFRSYM    DATA     BYTE      ADCCFG
      000000B8H   SFRSYM    DATA     BYTE      IP
      0000008FH   SFRSYM    DATA     BYTE      INTCLKO
      000000EEH   SFRSYM    DATA     BYTE      IP3H
      000000B6H   SFRSYM    DATA     BYTE      IP2H
      000000BDH   SFRSYM    DATA     BYTE      ADC_RES
      000000A8H   SFRSYM    DATA     BYTE      IE
      000000BBH   SFRSYM    DATA     BYTE      P_SW3
      000000BAH   SFRSYM    DATA     BYTE      P_SW2
      000000A2H   SFRSYM    DATA     BYTE      P_SW1
      000000CEH   SFRSYM    DATA     BYTE      SPCTL
      000000F8H   SFRSYM    DATA     BYTE      P7
      000000E8H   SFRSYM    DATA     BYTE      P6
      000000C8H   SFRSYM    DATA     BYTE      P5
      000000C0H   SFRSYM    DATA     BYTE      P4
      000000B0H   SFRSYM    DATA     BYTE      P3
      000000A0H   SFRSYM    DATA     BYTE      P2
      00000090H   SFRSYM    DATA     BYTE      P1
      00000080H   SFRSYM    DATA     BYTE      P0
      00000091H   SFRSYM    DATA     BYTE      P1M1
      00000092H   SFRSYM    DATA     BYTE      P1M0
      00000093H   SFRSYM    DATA     BYTE      P0M1

      00FFDBCDH   BLOCK     ECODE    ---       LVL=0
      WR4         REGSYM    ---      INT       adcn
      WR2         REGSYM    ---      INT       speed
      00FFDBCDH   LINE      ECODE    ---       #32
      00FFDBD1H   LINE      ECODE    ---       #34
      00FFDBD4H   LINE      ECODE    ---       #36
      00FFDBD7H   LINE      ECODE    ---       #37
      00FFDBDDH   LINE      ECODE    ---       #39
      00FFDBE9H   LINE      ECODE    ---       #42
      00FFDBFEH   LINE      ECODE    ---       #43
      00FFDC02H   LINE      ECODE    ---       #44
      00FFDC04H   LINE      ECODE    ---       #45
      00FFDC08H   LINE      ECODE    ---       #48
      00FFDC1DH   LINE      ECODE    ---       #49
      00FFDC21H   LINE      ECODE    ---       #50
      00FFDC21H   LINE      ECODE    ---       #52
      00FFDC27H   LINE      ECODE    ---       #54
      00FFDC2AH   LINE      ECODE    ---       #55
      ---         BLOCKEND  ---      ---       LVL=0

      00FFDC2BH   BLOCK     ECODE    ---       LVL=0
      WR6         REGSYM    ---      INT       adcn
L251 LINKER/LOCATER V4.66.93.0                                                        07/23/2023  00:26:15  PAGE 32


      WR4         REGSYM    ---      INT       resolution
      WR6         REGSYM    ---      WORD      adc_value
      00FFDC2BH   LINE      ECODE    ---       #66
      00FFDC2BH   LINE      ECODE    ---       #67
      00FFDC2BH   LINE      ECODE    ---       #70
      00FFDC2EH   LINE      ECODE    ---       #71
      00FFDC32H   LINE      ECODE    ---       #73
      00FFDC35H   LINE      ECODE    ---       #74
      00FFDC3AH   LINE      ECODE    ---       #75
      00FFDC3DH   LINE      ECODE    ---       #77
      00FFDC3FH   LINE      ECODE    ---       #78
      00FFDC43H   LINE      ECODE    ---       #79
      00FFDC49H   LINE      ECODE    ---       #81
      00FFDC4CH   LINE      ECODE    ---       #82
      00FFDC4FH   LINE      ECODE    ---       #84
      00FFDC58H   LINE      ECODE    ---       #87
      00FFDC58H   LINE      ECODE    ---       #88
      ---         BLOCKEND  ---      ---       LVL=0

      ---         MODULE    ---      ---       zf_delay
      00FFDCD2H   PUBLIC    ECODE    ---       delay_init?
      00FFDD0DH   PUBLIC    ECODE    ---       delay_ms?
      00FFDD24H   PUBLIC    ECODE    ---       delay_us?
      00000841H   PUBLIC    EDATA    WORD      zf_delay_ms
      00000843H   PUBLIC    EDATA    WORD      zf_delay_us
      000000D0H   SFRSYM    DATA     BYTE      PSW
      0000009DH   SFRSYM    DATA     BYTE      IRCBAND
      00000097H   SFRSYM    DATA     BYTE      AUXR2
      000000EFH   SFRSYM    DATA     BYTE      AUXINTIF
      000000FDH   SFRSYM    DATA     BYTE      S4CON
      000000ACH   SFRSYM    DATA     BYTE      S3CON
      0000009AH   SFRSYM    DATA     BYTE      S2CON
      000000B7H   SFRSYM    DATA     BYTE      IPH
      000000CDH   SFRSYM    DATA     BYTE      SPSTAT
      000000DDH   SFRSYM    DATA     BYTE      T4T3M
      000000C1H   SFRSYM    DATA     BYTE      WDT_CONTR
      000000DFH   SFRSYM    DATA     BYTE      IP3
      000000F4H   SFRSYM    DATA     BYTE      USBCON
      000000B5H   SFRSYM    DATA     BYTE      IP2
      000000FFH   SFRSYM    DATA     BYTE      RSTCFG
      000000F9H   SFRSYM    DATA     BYTE      LINICR
      0000008EH   SFRSYM    DATA     BYTE      AUXR
      000000AFH   SFRSYM    DATA     BYTE      IE2
      00000088H   SFRSYM    DATA     BYTE      TCON
      00000098H   SFRSYM    DATA     BYTE      SCON
      000000F1H   SFRSYM    DATA     BYTE      CANICR
      00000087H   SFRSYM    DATA     BYTE      PCON
      000000BCH   SFRSYM    DATA     BYTE      ADC_CONTR
      000000E7H   SFRSYM    DATA     BYTE      CMPCR2
      000000E6H   SFRSYM    DATA     BYTE      CMPCR1
      000000B8H   SFRSYM    DATA     BYTE      IP
      0000008FH   SFRSYM    DATA     BYTE      INTCLKO
      000000EEH   SFRSYM    DATA     BYTE      IP3H
      000000B6H   SFRSYM    DATA     BYTE      IP2H
      000000A8H   SFRSYM    DATA     BYTE      IE
      000000BBH   SFRSYM    DATA     BYTE      P_SW3
      000000BAH   SFRSYM    DATA     BYTE      P_SW2
      000000A2H   SFRSYM    DATA     BYTE      P_SW1
      000000CEH   SFRSYM    DATA     BYTE      SPCTL
      000000F8H   SFRSYM    DATA     BYTE      P7
      000000E8H   SFRSYM    DATA     BYTE      P6
      000000C8H   SFRSYM    DATA     BYTE      P5
      000000C0H   SFRSYM    DATA     BYTE      P4
      000000B0H   SFRSYM    DATA     BYTE      P3
      000000A0H   SFRSYM    DATA     BYTE      P2
L251 LINKER/LOCATER V4.66.93.0                                                        07/23/2023  00:26:15  PAGE 33


      00000090H   SFRSYM    DATA     BYTE      P1
      00000080H   SFRSYM    DATA     BYTE      P0

      00FFDCD2H   BLOCK     ECODE    ---       LVL=0
      00FFDCD2H   LINE      ECODE    ---       #34
      00FFDCD2H   LINE      ECODE    ---       #36
      00FFDCE4H   LINE      ECODE    ---       #37
      00FFDCF6H   LINE      ECODE    ---       #38
      00FFDD0CH   LINE      ECODE    ---       #40
      ---         BLOCKEND  ---      ---       LVL=0

      00FFDD0DH   BLOCK     ECODE    ---       LVL=0
      WR4         REGSYM    ---      WORD      ms
      00FFDD0FH   BLOCK     ECODE    NEAR LAB  LVL=1
      WR6         REGSYM    ---      WORD      i
      ---         BLOCKEND  ---      ---       LVL=1
      00FFDD0DH   LINE      ECODE    ---       #48
      00FFDD0FH   LINE      ECODE    ---       #49
      00FFDD0FH   LINE      ECODE    ---       #51
      00FFDD0FH   LINE      ECODE    ---       #52
      00FFDD13H   LINE      ECODE    ---       #54
      00FFDD1BH   LINE      ECODE    ---       #55
      00FFDD23H   LINE      ECODE    ---       #56
      ---         BLOCKEND  ---      ---       LVL=0

      00FFDD24H   BLOCK     ECODE    ---       LVL=0
      DR0         REGSYM    ---      DWORD     us
      00FFDD26H   BLOCK     ECODE    NEAR LAB  LVL=1
      WR6         REGSYM    ---      WORD      i
      ---         BLOCKEND  ---      ---       LVL=1
      00FFDD24H   LINE      ECODE    ---       #64
      00FFDD26H   LINE      ECODE    ---       #65
      00FFDD26H   LINE      ECODE    ---       #67
      00FFDD26H   LINE      ECODE    ---       #68
      00FFDD2AH   LINE      ECODE    ---       #70
      00FFDD32H   LINE      ECODE    ---       #71
      00FFDD3CH   LINE      ECODE    ---       #72
      ---         BLOCKEND  ---      ---       LVL=0

      ---         MODULE    ---      ---       zf_eeprom
      00FFD40FH   PUBLIC    ECODE    ---       iap_set_tps?
      00FFD3E3H   PUBLIC    ECODE    ---       eeprom_trig?
      00FFD4B6H   PUBLIC    ECODE    ---       iap_erase_page?
      00FFD3FFH   PUBLIC    ECODE    ---       iap_idle?
      00FFD426H   PUBLIC    ECODE    ---       iap_read_bytes?
      00FFD4C5H   PUBLIC    ECODE    ---       extern_iap_write_bytes?
      00FFD3F8H   PUBLIC    ECODE    ---       iap_init?
      00FFD46EH   PUBLIC    ECODE    ---       iap_write_bytes?
      00FFD403H   PUBLIC    ECODE    ---       iap_get_cmd_state?
      000000D0H   SFRSYM    DATA     BYTE      PSW
      0000009DH   SFRSYM    DATA     BYTE      IRCBAND
      000000D0H.5 SFRSYM    DATA     BIT       F0
      00000097H   SFRSYM    DATA     BYTE      AUXR2
      000000C6H   SFRSYM    DATA     BYTE      IAP_TRIG
      000000EFH   SFRSYM    DATA     BYTE      AUXINTIF
      000000FDH   SFRSYM    DATA     BYTE      S4CON
      000000ACH   SFRSYM    DATA     BYTE      S3CON
      0000009AH   SFRSYM    DATA     BYTE      S2CON
      000000B7H   SFRSYM    DATA     BYTE      IPH
      000000CDH   SFRSYM    DATA     BYTE      SPSTAT
      000000DDH   SFRSYM    DATA     BYTE      T4T3M
      000000C1H   SFRSYM    DATA     BYTE      WDT_CONTR
      000000C2H   SFRSYM    DATA     BYTE      IAP_DATA
      000000DFH   SFRSYM    DATA     BYTE      IP3
      000000F4H   SFRSYM    DATA     BYTE      USBCON
L251 LINKER/LOCATER V4.66.93.0                                                        07/23/2023  00:26:15  PAGE 34


      000000B5H   SFRSYM    DATA     BYTE      IP2
      000000FFH   SFRSYM    DATA     BYTE      RSTCFG
      000000C7H   SFRSYM    DATA     BYTE      IAP_CONTR
      000000F9H   SFRSYM    DATA     BYTE      LINICR
      0000008EH   SFRSYM    DATA     BYTE      AUXR
      000000AFH   SFRSYM    DATA     BYTE      IE2
      00000088H   SFRSYM    DATA     BYTE      TCON
      00000098H   SFRSYM    DATA     BYTE      SCON
      000000F5H   SFRSYM    DATA     BYTE      IAP_TPS
      000000F1H   SFRSYM    DATA     BYTE      CANICR
      00000087H   SFRSYM    DATA     BYTE      PCON
      000000BCH   SFRSYM    DATA     BYTE      ADC_CONTR
      000000E7H   SFRSYM    DATA     BYTE      CMPCR2
      000000E6H   SFRSYM    DATA     BYTE      CMPCR1
      000000C4H   SFRSYM    DATA     BYTE      IAP_ADDRL
      000000C3H   SFRSYM    DATA     BYTE      IAP_ADDRH
      000000F6H   SFRSYM    DATA     BYTE      IAP_ADDRE
      000000B8H   SFRSYM    DATA     BYTE      IP
      0000008FH   SFRSYM    DATA     BYTE      INTCLKO
      000000EEH   SFRSYM    DATA     BYTE      IP3H
      000000B6H   SFRSYM    DATA     BYTE      IP2H
      000000C5H   SFRSYM    DATA     BYTE      IAP_CMD
      000000A8H   SFRSYM    DATA     BYTE      IE
      000000BBH   SFRSYM    DATA     BYTE      P_SW3
      000000BAH   SFRSYM    DATA     BYTE      P_SW2
      000000A2H   SFRSYM    DATA     BYTE      P_SW1
      000000CEH   SFRSYM    DATA     BYTE      SPCTL
      000000F8H   SFRSYM    DATA     BYTE      P7
      000000A8H.7 SFRSYM    DATA     BIT       EA
      000000E8H   SFRSYM    DATA     BYTE      P6
      000000C8H   SFRSYM    DATA     BYTE      P5
      000000C0H   SFRSYM    DATA     BYTE      P4
      000000B0H   SFRSYM    DATA     BYTE      P3
      000000A0H   SFRSYM    DATA     BYTE      P2
      00000090H   SFRSYM    DATA     BYTE      P1
      00000080H   SFRSYM    DATA     BYTE      P0

      00FFD3E3H   BLOCK     ECODE    ---       LVL=0
      00FFD3E3H   LINE      ECODE    ---       #30
      00FFD3E3H   LINE      ECODE    ---       #32
      00FFD3E7H   LINE      ECODE    ---       #33
      00FFD3E9H   LINE      ECODE    ---       #34
      00FFD3ECH   LINE      ECODE    ---       #35
      00FFD3EFH   LINE      ECODE    ---       #38
      00FFD3F0H   LINE      ECODE    ---       #39
      00FFD3F1H   LINE      ECODE    ---       #40
      00FFD3F2H   LINE      ECODE    ---       #41
      00FFD3F3H   LINE      ECODE    ---       #42
      00FFD3F7H   LINE      ECODE    ---       #43
      ---         BLOCKEND  ---      ---       LVL=0

      00FFD3F8H   BLOCK     ECODE    ---       LVL=0
      00FFD3F8H   LINE      ECODE    ---       #52
      00FFD3F8H   LINE      ECODE    ---       #54
      00FFD3FBH   LINE      ECODE    ---       #55
      ---         BLOCKEND  ---      ---       LVL=0

      00FFD3FFH   BLOCK     ECODE    ---       LVL=0
      00FFD3FFH   LINE      ECODE    ---       #64
      00FFD3FFH   LINE      ECODE    ---       #66
      00FFD402H   LINE      ECODE    ---       #67
      ---         BLOCKEND  ---      ---       LVL=0

      00FFD403H   BLOCK     ECODE    ---       LVL=0
      00FFD403H   LINE      ECODE    ---       #77
L251 LINKER/LOCATER V4.66.93.0                                                        07/23/2023  00:26:15  PAGE 35


      00FFD403H   LINE      ECODE    ---       #79
      00FFD40EH   LINE      ECODE    ---       #80
      ---         BLOCKEND  ---      ---       LVL=0

      00FFD40FH   BLOCK     ECODE    ---       LVL=0
      R11         REGSYM    ---      BYTE      write_time
      00FFD40FH   LINE      ECODE    ---       #89
      00FFD40FH   LINE      ECODE    ---       #90
      00FFD40FH   LINE      ECODE    ---       #92
      00FFD423H   LINE      ECODE    ---       #93
      00FFD425H   LINE      ECODE    ---       #94
      ---         BLOCKEND  ---      ---       LVL=0

      00FFD426H   BLOCK     ECODE    ---       LVL=0
      00000845H   SYMBOL    EDATA    WORD      addr
      REG=3       REGSYM    ---      ---       buf
      00000847H   SYMBOL    EDATA    WORD      len
      00FFD426H   LINE      ECODE    ---       #107
      00FFD432H   LINE      ECODE    ---       #109
      00FFD435H   LINE      ECODE    ---       #111
      00FFD437H   LINE      ECODE    ---       #113
      00FFD43AH   LINE      ECODE    ---       #114
      00FFD442H   LINE      ECODE    ---       #115
      00FFD446H   LINE      ECODE    ---       #116
      00FFD44AH   LINE      ECODE    ---       #117
      00FFD451H   LINE      ECODE    ---       #118
      00FFD45BH   LINE      ECODE    ---       #120
      00FFD46BH   LINE      ECODE    ---       #121
      ---         BLOCKEND  ---      ---       LVL=0

      00FFD46EH   BLOCK     ECODE    ---       LVL=0
      00000849H   SYMBOL    EDATA    WORD      addr
      REG=3       REGSYM    ---      ---       buf
      0000084BH   SYMBOL    EDATA    WORD      len
      00FFD46EH   LINE      ECODE    ---       #133
      00FFD47AH   LINE      ECODE    ---       #135
      00FFD47DH   LINE      ECODE    ---       #137
      00FFD47FH   LINE      ECODE    ---       #139
      00FFD482H   LINE      ECODE    ---       #140
      00FFD48AH   LINE      ECODE    ---       #141
      00FFD48EH   LINE      ECODE    ---       #142
      00FFD495H   LINE      ECODE    ---       #143
      00FFD49FH   LINE      ECODE    ---       #145
      00FFD4A3H   LINE      ECODE    ---       #146
      00FFD4B3H   LINE      ECODE    ---       #147
      ---         BLOCKEND  ---      ---       LVL=0

      00FFD4B6H   BLOCK     ECODE    ---       LVL=0
      WR6         REGSYM    ---      WORD      addr
      00FFD4B6H   LINE      ECODE    ---       #158
      00FFD4B6H   LINE      ECODE    ---       #160
      00FFD4B9H   LINE      ECODE    ---       #161
      00FFD4BDH   LINE      ECODE    ---       #162
      00FFD4C1H   LINE      ECODE    ---       #163
      ---         BLOCKEND  ---      ---       LVL=0

      00FFD4C5H   BLOCK     ECODE    ---       LVL=0
      0000001AH   SYMBOL    EDATA    WORD      addr
      REG=3       REGSYM    ---      ---       buf
      0000001CH   SYMBOL    EDATA    WORD      len
      00FFD4D1H   BLOCK     ECODE    NEAR LAB  LVL=1
      0000001EH   SYMBOL    EDATA    ---       temp
      WR6         REGSYM    ---      WORD      i
      ---         BLOCKEND  ---      ---       LVL=1
      00FFD4C5H   LINE      ECODE    ---       #180
L251 LINKER/LOCATER V4.66.93.0                                                        07/23/2023  00:26:15  PAGE 36


      00FFD4D1H   LINE      ECODE    ---       #181
      00FFD4D1H   LINE      ECODE    ---       #185
      00FFD4E0H   LINE      ECODE    ---       #186
      00FFD4F4H   LINE      ECODE    ---       #187
      00FFD516H   LINE      ECODE    ---       #188
      00FFD51EH   LINE      ECODE    ---       #189
      00FFD532H   LINE      ECODE    ---       #190
      ---         BLOCKEND  ---      ---       LVL=0

      ---         MODULE    ---      ---       zf_exti
      000000D0H   SFRSYM    DATA     BYTE      PSW
      0000009DH   SFRSYM    DATA     BYTE      IRCBAND
      00000097H   SFRSYM    DATA     BYTE      AUXR2
      000000EFH   SFRSYM    DATA     BYTE      AUXINTIF
      000000FDH   SFRSYM    DATA     BYTE      S4CON
      000000ACH   SFRSYM    DATA     BYTE      S3CON
      0000009AH   SFRSYM    DATA     BYTE      S2CON
      000000B7H   SFRSYM    DATA     BYTE      IPH
      000000CDH   SFRSYM    DATA     BYTE      SPSTAT
      000000DDH   SFRSYM    DATA     BYTE      T4T3M
      000000C1H   SFRSYM    DATA     BYTE      WDT_CONTR
      00000088H.2 SFRSYM    DATA     BIT       IT1
      000000A8H.2 SFRSYM    DATA     BIT       EX1
      00000088H.0 SFRSYM    DATA     BIT       IT0
      000000A8H.0 SFRSYM    DATA     BIT       EX0
      000000DFH   SFRSYM    DATA     BYTE      IP3
      000000F4H   SFRSYM    DATA     BYTE      USBCON
      000000B5H   SFRSYM    DATA     BYTE      IP2
      000000FFH   SFRSYM    DATA     BYTE      RSTCFG
      000000F9H   SFRSYM    DATA     BYTE      LINICR
      0000008EH   SFRSYM    DATA     BYTE      AUXR
      000000AFH   SFRSYM    DATA     BYTE      IE2
      00000088H   SFRSYM    DATA     BYTE      TCON
      00000098H   SFRSYM    DATA     BYTE      SCON
      000000F1H   SFRSYM    DATA     BYTE      CANICR
      00000087H   SFRSYM    DATA     BYTE      PCON
      000000BCH   SFRSYM    DATA     BYTE      ADC_CONTR
      000000E7H   SFRSYM    DATA     BYTE      CMPCR2
      000000E6H   SFRSYM    DATA     BYTE      CMPCR1
      000000B8H   SFRSYM    DATA     BYTE      IP
      0000008FH   SFRSYM    DATA     BYTE      INTCLKO
      000000EEH   SFRSYM    DATA     BYTE      IP3H
      000000B6H   SFRSYM    DATA     BYTE      IP2H
      000000A8H   SFRSYM    DATA     BYTE      IE
      000000BBH   SFRSYM    DATA     BYTE      P_SW3
      000000BAH   SFRSYM    DATA     BYTE      P_SW2
      000000A2H   SFRSYM    DATA     BYTE      P_SW1
      000000CEH   SFRSYM    DATA     BYTE      SPCTL
      000000F8H   SFRSYM    DATA     BYTE      P7
      000000E8H   SFRSYM    DATA     BYTE      P6
      000000C8H   SFRSYM    DATA     BYTE      P5
      000000C0H   SFRSYM    DATA     BYTE      P4
      000000B0H   SFRSYM    DATA     BYTE      P3
      000000A0H   SFRSYM    DATA     BYTE      P2
      00000090H   SFRSYM    DATA     BYTE      P1
      00000080H   SFRSYM    DATA     BYTE      P0
      WR4         REGSYM    ---      INT       int_n
      WR2         REGSYM    ---      INT       mode

      ---         MODULE    ---      ---       zf_gpio
      00FFACF6H   PUBLIC    ECODE    ---       gpio_pull_set?
      00FFAD64H   PUBLIC    ECODE    ---       gpio_mode?
      00000094H   SFRSYM    DATA     BYTE      P0M0
      000000D0H   SFRSYM    DATA     BYTE      PSW
      0000009DH   SFRSYM    DATA     BYTE      IRCBAND
L251 LINKER/LOCATER V4.66.93.0                                                        07/23/2023  00:26:15  PAGE 37


      00000097H   SFRSYM    DATA     BYTE      AUXR2
      000000EFH   SFRSYM    DATA     BYTE      AUXINTIF
      000000FDH   SFRSYM    DATA     BYTE      S4CON
      000000ACH   SFRSYM    DATA     BYTE      S3CON
      0000009AH   SFRSYM    DATA     BYTE      S2CON
      000000B7H   SFRSYM    DATA     BYTE      IPH
      000000CDH   SFRSYM    DATA     BYTE      SPSTAT
      000000DDH   SFRSYM    DATA     BYTE      T4T3M
      000000C1H   SFRSYM    DATA     BYTE      WDT_CONTR
      000000DFH   SFRSYM    DATA     BYTE      IP3
      000000F4H   SFRSYM    DATA     BYTE      USBCON
      000000B5H   SFRSYM    DATA     BYTE      IP2
      000000FFH   SFRSYM    DATA     BYTE      RSTCFG
      000000F9H   SFRSYM    DATA     BYTE      LINICR
      0000008EH   SFRSYM    DATA     BYTE      AUXR
      000000AFH   SFRSYM    DATA     BYTE      IE2
      00000088H   SFRSYM    DATA     BYTE      TCON
      00000098H   SFRSYM    DATA     BYTE      SCON
      000000F1H   SFRSYM    DATA     BYTE      CANICR
      00000087H   SFRSYM    DATA     BYTE      PCON
      000000BCH   SFRSYM    DATA     BYTE      ADC_CONTR
      000000E7H   SFRSYM    DATA     BYTE      CMPCR2
      000000E6H   SFRSYM    DATA     BYTE      CMPCR1
      000000B8H   SFRSYM    DATA     BYTE      IP
      0000008FH   SFRSYM    DATA     BYTE      INTCLKO
      000000EEH   SFRSYM    DATA     BYTE      IP3H
      000000B6H   SFRSYM    DATA     BYTE      IP2H
      000000A8H   SFRSYM    DATA     BYTE      IE
      000000BBH   SFRSYM    DATA     BYTE      P_SW3
      000000BAH   SFRSYM    DATA     BYTE      P_SW2
      000000A2H   SFRSYM    DATA     BYTE      P_SW1
      000000CEH   SFRSYM    DATA     BYTE      SPCTL
      000000F8H   SFRSYM    DATA     BYTE      P7
      000000E1H   SFRSYM    DATA     BYTE      P7M1
      000000E8H   SFRSYM    DATA     BYTE      P6
      000000C8H   SFRSYM    DATA     BYTE      P5
      000000CBH   SFRSYM    DATA     BYTE      P6M1
      000000E2H   SFRSYM    DATA     BYTE      P7M0
      000000C0H   SFRSYM    DATA     BYTE      P4
      000000C9H   SFRSYM    DATA     BYTE      P5M1
      000000CCH   SFRSYM    DATA     BYTE      P6M0
      000000B0H   SFRSYM    DATA     BYTE      P3
      000000B3H   SFRSYM    DATA     BYTE      P4M1
      000000CAH   SFRSYM    DATA     BYTE      P5M0
      000000A0H   SFRSYM    DATA     BYTE      P2
      000000B1H   SFRSYM    DATA     BYTE      P3M1
      000000B4H   SFRSYM    DATA     BYTE      P4M0
      00000090H   SFRSYM    DATA     BYTE      P1
      00000095H   SFRSYM    DATA     BYTE      P2M1
      000000B2H   SFRSYM    DATA     BYTE      P3M0
      00000080H   SFRSYM    DATA     BYTE      P0
      00000091H   SFRSYM    DATA     BYTE      P1M1
      00000096H   SFRSYM    DATA     BYTE      P2M0
      00000092H   SFRSYM    DATA     BYTE      P1M0
      00000093H   SFRSYM    DATA     BYTE      P0M1

      00FFACF6H   BLOCK     ECODE    ---       LVL=0
      WR4         REGSYM    ---      INT       pin
      WR2         REGSYM    ---      INT       pull
      00FFACF6H   LINE      ECODE    ---       #33
      00FFACFAH   LINE      ECODE    ---       #35
      00FFAD00H   LINE      ECODE    ---       #37
      00FFAD2CH   LINE      ECODE    ---       #38
      00FFAD2EH   LINE      ECODE    ---       #39
      00FFAD32H   LINE      ECODE    ---       #41
L251 LINKER/LOCATER V4.66.93.0                                                        07/23/2023  00:26:15  PAGE 38


      00FFAD63H   LINE      ECODE    ---       #42
      ---         BLOCKEND  ---      ---       LVL=0

      00FFAD64H   BLOCK     ECODE    ---       LVL=0
      WR4         REGSYM    ---      INT       pin
      WR2         REGSYM    ---      INT       mode
      00FFAD64H   LINE      ECODE    ---       #54
      00FFAD68H   LINE      ECODE    ---       #56
      00FFAD6FH   LINE      ECODE    ---       #58
      00FFAD77H   LINE      ECODE    ---       #60
      00FFAD8FH   LINE      ECODE    ---       #61
      00FFAD91H   LINE      ECODE    ---       #62
      00FFAD91H   LINE      ECODE    ---       #63
      00FFAD97H   LINE      ECODE    ---       #65
      00FFADAFH   LINE      ECODE    ---       #66
      00FFADB1H   LINE      ECODE    ---       #67
      00FFADB1H   LINE      ECODE    ---       #68
      00FFADB7H   LINE      ECODE    ---       #70
      00FFADCFH   LINE      ECODE    ---       #71
      00FFADD1H   LINE      ECODE    ---       #72
      00FFADD1H   LINE      ECODE    ---       #74
      00FFADD7H   LINE      ECODE    ---       #76
      00FFADEFH   LINE      ECODE    ---       #77
      00FFADF1H   LINE      ECODE    ---       #78
      00FFADF1H   LINE      ECODE    ---       #79
      00FFADF7H   LINE      ECODE    ---       #81
      00FFAE0FH   LINE      ECODE    ---       #82
      00FFAE11H   LINE      ECODE    ---       #83
      00FFAE11H   LINE      ECODE    ---       #84
      00FFAE17H   LINE      ECODE    ---       #86
      00FFAE2FH   LINE      ECODE    ---       #87
      00FFAE31H   LINE      ECODE    ---       #88
      00FFAE31H   LINE      ECODE    ---       #89
      00FFAE37H   LINE      ECODE    ---       #91
      00FFAE4FH   LINE      ECODE    ---       #92
      00FFAE51H   LINE      ECODE    ---       #93
      00FFAE51H   LINE      ECODE    ---       #94
      00FFAE5AH   LINE      ECODE    ---       #96
      00FFAE72H   LINE      ECODE    ---       #97
      00FFAE74H   LINE      ECODE    ---       #98
      00FFAE75H   LINE      ECODE    ---       #100
      00FFAE7EH   LINE      ECODE    ---       #102
      00FFAE86H   LINE      ECODE    ---       #104
      00FFAE9BH   LINE      ECODE    ---       #105
      00FFAE9FH   LINE      ECODE    ---       #106
      00FFAE9FH   LINE      ECODE    ---       #107
      00FFAEA5H   LINE      ECODE    ---       #109
      00FFAEBAH   LINE      ECODE    ---       #110
      00FFAEBEH   LINE      ECODE    ---       #111
      00FFAEBEH   LINE      ECODE    ---       #112
      00FFAEC4H   LINE      ECODE    ---       #114
      00FFAED9H   LINE      ECODE    ---       #115
      00FFAEDDH   LINE      ECODE    ---       #116
      00FFAEDDH   LINE      ECODE    ---       #118
      00FFAEE3H   LINE      ECODE    ---       #120
      00FFAEF8H   LINE      ECODE    ---       #121
      00FFAEFCH   LINE      ECODE    ---       #122
      00FFAEFCH   LINE      ECODE    ---       #123
      00FFAF02H   LINE      ECODE    ---       #125
      00FFAF17H   LINE      ECODE    ---       #126
      00FFAF1BH   LINE      ECODE    ---       #127
      00FFAF1BH   LINE      ECODE    ---       #128
      00FFAF21H   LINE      ECODE    ---       #130
      00FFAF36H   LINE      ECODE    ---       #131
      00FFAF3AH   LINE      ECODE    ---       #132
L251 LINKER/LOCATER V4.66.93.0                                                        07/23/2023  00:26:15  PAGE 39


      00FFAF3AH   LINE      ECODE    ---       #133
      00FFAF40H   LINE      ECODE    ---       #135
      00FFAF55H   LINE      ECODE    ---       #136
      00FFAF59H   LINE      ECODE    ---       #137
      00FFAF59H   LINE      ECODE    ---       #138
      00FFAF62H   LINE      ECODE    ---       #140
      00FFAF79H   LINE      ECODE    ---       #141
      00FFAF79H   LINE      ECODE    ---       #142
      00FFAF7CH   LINE      ECODE    ---       #145
      00FFAF85H   LINE      ECODE    ---       #147
      00FFAF8DH   LINE      ECODE    ---       #149
      00FFAFA0H   LINE      ECODE    ---       #150
      00FFAFA4H   LINE      ECODE    ---       #151
      00FFAFA4H   LINE      ECODE    ---       #152
      00FFAFAAH   LINE      ECODE    ---       #154
      00FFAFBDH   LINE      ECODE    ---       #155
      00FFAFC1H   LINE      ECODE    ---       #156
      00FFAFC1H   LINE      ECODE    ---       #157
      00FFAFC7H   LINE      ECODE    ---       #159
      00FFAFDAH   LINE      ECODE    ---       #160
      00FFAFDEH   LINE      ECODE    ---       #161
      00FFAFDEH   LINE      ECODE    ---       #163
      00FFAFE4H   LINE      ECODE    ---       #165
      00FFAFF7H   LINE      ECODE    ---       #166
      00FFAFFBH   LINE      ECODE    ---       #167
      00FFAFFBH   LINE      ECODE    ---       #168
      00FFB001H   LINE      ECODE    ---       #170
      00FFB014H   LINE      ECODE    ---       #171
      00FFB018H   LINE      ECODE    ---       #172
      00FFB018H   LINE      ECODE    ---       #173
      00FFB01EH   LINE      ECODE    ---       #175
      00FFB031H   LINE      ECODE    ---       #176
      00FFB035H   LINE      ECODE    ---       #177
      00FFB035H   LINE      ECODE    ---       #178
      00FFB03BH   LINE      ECODE    ---       #180
      00FFB04EH   LINE      ECODE    ---       #181
      00FFB052H   LINE      ECODE    ---       #182
      00FFB052H   LINE      ECODE    ---       #183
      00FFB05BH   LINE      ECODE    ---       #185
      00FFB06EH   LINE      ECODE    ---       #186
      00FFB072H   LINE      ECODE    ---       #187
      00FFB073H   LINE      ECODE    ---       #189
      00FFB07CH   LINE      ECODE    ---       #191
      00FFB084H   LINE      ECODE    ---       #193
      00FFB097H   LINE      ECODE    ---       #194
      00FFB099H   LINE      ECODE    ---       #195
      00FFB099H   LINE      ECODE    ---       #196
      00FFB09FH   LINE      ECODE    ---       #198
      00FFB0B2H   LINE      ECODE    ---       #199
      00FFB0B4H   LINE      ECODE    ---       #200
      00FFB0B4H   LINE      ECODE    ---       #201
      00FFB0BAH   LINE      ECODE    ---       #203
      00FFB0CDH   LINE      ECODE    ---       #204
      00FFB0CFH   LINE      ECODE    ---       #205
      00FFB0CFH   LINE      ECODE    ---       #207
      00FFB0D5H   LINE      ECODE    ---       #209
      00FFB0E8H   LINE      ECODE    ---       #210
      00FFB0EAH   LINE      ECODE    ---       #211
      00FFB0EAH   LINE      ECODE    ---       #212
      00FFB0F0H   LINE      ECODE    ---       #214
      00FFB103H   LINE      ECODE    ---       #215
      00FFB105H   LINE      ECODE    ---       #216
      00FFB105H   LINE      ECODE    ---       #217
      00FFB10BH   LINE      ECODE    ---       #219
      00FFB11EH   LINE      ECODE    ---       #220
L251 LINKER/LOCATER V4.66.93.0                                                        07/23/2023  00:26:15  PAGE 40


      00FFB120H   LINE      ECODE    ---       #221
      00FFB120H   LINE      ECODE    ---       #222
      00FFB126H   LINE      ECODE    ---       #224
      00FFB139H   LINE      ECODE    ---       #225
      00FFB13BH   LINE      ECODE    ---       #226
      00FFB13BH   LINE      ECODE    ---       #227
      00FFB141H   LINE      ECODE    ---       #229
      00FFB156H   LINE      ECODE    ---       #230
      00FFB15AH   LINE      ECODE    ---       #231
      00FFB15AH   LINE      ECODE    ---       #233
      ---         BLOCKEND  ---      ---       LVL=0

      ---         MODULE    ---      ---       zf_iic
      00FFB928H   PUBLIC    ECODE    ---       send_data?
      00FFBB9FH   PUBLIC    ECODE    ---       iic_change_pin?
      00FFB951H   PUBLIC    ECODE    ---       recv_data?
      00FFB917H   PUBLIC    ECODE    ---       start?
      00FFB8D1H   PUBLIC    ECODE    ---       wait?
      00FFB96EH   PUBLIC    ECODE    ---       send_ack?
      00FFB940H   PUBLIC    ECODE    ---       recv_ack?
      00FFB9A1H   PUBLIC    ECODE    ---       stop?
      00FFB987H   PUBLIC    ECODE    ---       send_nak?
      00FFB9B2H   PUBLIC    ECODE    ---       iic_init?
      00FFBA78H   PUBLIC    ECODE    ---       iic_read_reg?
      00FFBAF7H   PUBLIC    ECODE    ---       iic_read_reg_bytes?
      00FFBA10H   PUBLIC    ECODE    ---       iic_write_reg?
      00FFB8BCH   PUBLIC    ECODE    ---       iic_delay_us?
      000000D0H   SFRSYM    DATA     BYTE      PSW
      0000009DH   SFRSYM    DATA     BYTE      IRCBAND
      00000097H   SFRSYM    DATA     BYTE      AUXR2
      000000EFH   SFRSYM    DATA     BYTE      AUXINTIF
      000000FDH   SFRSYM    DATA     BYTE      S4CON
      000000ACH   SFRSYM    DATA     BYTE      S3CON
      0000009AH   SFRSYM    DATA     BYTE      S2CON
      000000B7H   SFRSYM    DATA     BYTE      IPH
      000000CDH   SFRSYM    DATA     BYTE      SPSTAT
      000000DDH   SFRSYM    DATA     BYTE      T4T3M
      000000C1H   SFRSYM    DATA     BYTE      WDT_CONTR
      000000DFH   SFRSYM    DATA     BYTE      IP3
      000000F4H   SFRSYM    DATA     BYTE      USBCON
      000000B5H   SFRSYM    DATA     BYTE      IP2
      000000FFH   SFRSYM    DATA     BYTE      RSTCFG
      000000F9H   SFRSYM    DATA     BYTE      LINICR
      0000008EH   SFRSYM    DATA     BYTE      AUXR
      000000AFH   SFRSYM    DATA     BYTE      IE2
      00000088H   SFRSYM    DATA     BYTE      TCON
      00000098H   SFRSYM    DATA     BYTE      SCON
      000000F1H   SFRSYM    DATA     BYTE      CANICR
      00000087H   SFRSYM    DATA     BYTE      PCON
      000000BCH   SFRSYM    DATA     BYTE      ADC_CONTR
      000000E7H   SFRSYM    DATA     BYTE      CMPCR2
      000000E6H   SFRSYM    DATA     BYTE      CMPCR1
      000000B8H   SFRSYM    DATA     BYTE      IP
      0000008FH   SFRSYM    DATA     BYTE      INTCLKO
      000000EEH   SFRSYM    DATA     BYTE      IP3H
      000000B6H   SFRSYM    DATA     BYTE      IP2H
      000000A8H   SFRSYM    DATA     BYTE      IE
      000000BBH   SFRSYM    DATA     BYTE      P_SW3
      000000BAH   SFRSYM    DATA     BYTE      P_SW2
      000000A2H   SFRSYM    DATA     BYTE      P_SW1
      000000CEH   SFRSYM    DATA     BYTE      SPCTL
      000000F8H   SFRSYM    DATA     BYTE      P7
      000000E8H   SFRSYM    DATA     BYTE      P6
      000000C8H   SFRSYM    DATA     BYTE      P5
      000000C0H   SFRSYM    DATA     BYTE      P4
L251 LINKER/LOCATER V4.66.93.0                                                        07/23/2023  00:26:15  PAGE 41


      000000B0H   SFRSYM    DATA     BYTE      P3
      000000A0H   SFRSYM    DATA     BYTE      P2
      00000090H   SFRSYM    DATA     BYTE      P1
      00000080H   SFRSYM    DATA     BYTE      P0

      00FFB8BCH   BLOCK     ECODE    ---       LVL=0
      WR6         REGSYM    ---      WORD      x
      R10         REGSYM    ---      BYTE      i
      00FFB8BCH   LINE      ECODE    ---       #30
      00FFB8BCH   LINE      ECODE    ---       #31
      00FFB8BCH   LINE      ECODE    ---       #33
      00FFB8BEH   LINE      ECODE    ---       #35
      00FFB8C1H   LINE      ECODE    ---       #36
      00FFB8C8H   LINE      ECODE    ---       #37
      00FFB8D0H   LINE      ECODE    ---       #38
      ---         BLOCKEND  ---      ---       LVL=0

      00FFB8D1H   BLOCK     ECODE    ---       LVL=0
      00FFB8D5H   BLOCK     ECODE    NEAR LAB  LVL=1
      WR12        REGSYM    ---      WORD      count
      R15         REGSYM    ---      BYTE      ret
      ---         BLOCKEND  ---      ---       LVL=1
      00FFB8D1H   LINE      ECODE    ---       #47
      00FFB8D5H   LINE      ECODE    ---       #48
      00FFB8D5H   LINE      ECODE    ---       #49
      00FFB8D7H   LINE      ECODE    ---       #50
      00FFB8D9H   LINE      ECODE    ---       #51
      00FFB8DBH   LINE      ECODE    ---       #53
      00FFB8E3H   LINE      ECODE    ---       #54
      00FFB8EDH   LINE      ECODE    ---       #56
      00FFB8F0H   LINE      ECODE    ---       #57
      00FFB8F2H   LINE      ECODE    ---       #58
      00FFB900H   LINE      ECODE    ---       #60
      00FFB910H   LINE      ECODE    ---       #61
      00FFB912H   LINE      ECODE    ---       #62
      ---         BLOCKEND  ---      ---       LVL=0

      00FFB917H   BLOCK     ECODE    ---       LVL=0
      R11         REGSYM    ---      BYTE      ret
      00FFB917H   LINE      ECODE    ---       #70
      00FFB917H   LINE      ECODE    ---       #71
      00FFB917H   LINE      ECODE    ---       #73
      00FFB924H   LINE      ECODE    ---       #74
      00FFB928H   LINE      ECODE    ---       #75
      00FFB928H   LINE      ECODE    ---       #76
      ---         BLOCKEND  ---      ---       LVL=0

      00FFB928H   BLOCK     ECODE    ---       LVL=0
      R11         REGSYM    ---      CHAR      dat
      R11         REGSYM    ---      BYTE      ret
      00FFB928H   LINE      ECODE    ---       #84
      00FFB928H   LINE      ECODE    ---       #85
      00FFB928H   LINE      ECODE    ---       #87
      00FFB933H   LINE      ECODE    ---       #88
      00FFB93CH   LINE      ECODE    ---       #89
      00FFB940H   LINE      ECODE    ---       #90
      00FFB940H   LINE      ECODE    ---       #91
      ---         BLOCKEND  ---      ---       LVL=0

      00FFB940H   BLOCK     ECODE    ---       LVL=0
      R11         REGSYM    ---      BYTE      ret
      00FFB940H   LINE      ECODE    ---       #99
      00FFB940H   LINE      ECODE    ---       #100
      00FFB940H   LINE      ECODE    ---       #102
      00FFB94DH   LINE      ECODE    ---       #103
L251 LINKER/LOCATER V4.66.93.0                                                        07/23/2023  00:26:15  PAGE 42


      00FFB951H   LINE      ECODE    ---       #104
      00FFB951H   LINE      ECODE    ---       #105
      ---         BLOCKEND  ---      ---       LVL=0

      00FFB951H   BLOCK     ECODE    ---       LVL=0
      00FFB951H   LINE      ECODE    ---       #113
      00FFB951H   LINE      ECODE    ---       #115
      00FFB95EH   LINE      ECODE    ---       #116
      00FFB962H   LINE      ECODE    ---       #117
      00FFB96DH   LINE      ECODE    ---       #118
      ---         BLOCKEND  ---      ---       LVL=0

      00FFB96EH   BLOCK     ECODE    ---       LVL=0
      R11         REGSYM    ---      BYTE      ret
      00FFB96EH   LINE      ECODE    ---       #126
      00FFB96EH   LINE      ECODE    ---       #127
      00FFB96EH   LINE      ECODE    ---       #129
      00FFB97AH   LINE      ECODE    ---       #130
      00FFB983H   LINE      ECODE    ---       #131
      00FFB987H   LINE      ECODE    ---       #132
      00FFB987H   LINE      ECODE    ---       #133
      ---         BLOCKEND  ---      ---       LVL=0

      00FFB987H   BLOCK     ECODE    ---       LVL=0
      00FFB987H   LINE      ECODE    ---       #141
      00FFB987H   LINE      ECODE    ---       #143
      00FFB994H   LINE      ECODE    ---       #144
      00FFB99DH   LINE      ECODE    ---       #145
      ---         BLOCKEND  ---      ---       LVL=0

      00FFB9A1H   BLOCK     ECODE    ---       LVL=0
      R11         REGSYM    ---      BYTE      ret
      00FFB9A1H   LINE      ECODE    ---       #154
      00FFB9A1H   LINE      ECODE    ---       #155
      00FFB9A1H   LINE      ECODE    ---       #157
      00FFB9AEH   LINE      ECODE    ---       #158
      00FFB9B2H   LINE      ECODE    ---       #159
      00FFB9B2H   LINE      ECODE    ---       #160
      ---         BLOCKEND  ---      ---       LVL=0

      00FFB9B2H   BLOCK     ECODE    ---       LVL=0
      WR6         REGSYM    ---      INT       iic_n
      00FFB9B2H   LINE      ECODE    ---       #173
      00FFB9B2H   LINE      ECODE    ---       #179
      00FFB9B5H   LINE      ECODE    ---       #180
      00FFB9B8H   LINE      ECODE    ---       #181
      00FFB9CAH   LINE      ECODE    ---       #183
      00FFB9CAH   LINE      ECODE    ---       #184
      00FFB9CEH   LINE      ECODE    ---       #185
      00FFB9D0H   LINE      ECODE    ---       #186
      00FFB9D0H   LINE      ECODE    ---       #187
      00FFB9D3H   LINE      ECODE    ---       #188
      00FFB9D5H   LINE      ECODE    ---       #189
      00FFB9D5H   LINE      ECODE    ---       #190
      00FFB9D8H   LINE      ECODE    ---       #191
      00FFB9DAH   LINE      ECODE    ---       #192
      00FFB9DAH   LINE      ECODE    ---       #193
      00FFB9DDH   LINE      ECODE    ---       #194
      00FFB9DDH   LINE      ECODE    ---       #195
      00FFB9DDH   LINE      ECODE    ---       #197
      00FFB9EDH   LINE      ECODE    ---       #198
      00FFB9F5H   LINE      ECODE    ---       #199
      00FFBA03H   LINE      ECODE    ---       #200
      00FFBA0FH   LINE      ECODE    ---       #202
      ---         BLOCKEND  ---      ---       LVL=0
L251 LINKER/LOCATER V4.66.93.0                                                        07/23/2023  00:26:15  PAGE 43



      00FFBA10H   BLOCK     ECODE    ---       LVL=0
      R13         REGSYM    ---      BYTE      dev_add
      R14         REGSYM    ---      BYTE      reg
      R15         REGSYM    ---      BYTE      dat
      00FFBA10H   LINE      ECODE    ---       #214
      00FFBA1AH   LINE      ECODE    ---       #216
      00FFBA20H   LINE      ECODE    ---       #217
      00FFBA24H   LINE      ECODE    ---       #218
      00FFBA2EH   LINE      ECODE    ---       #219
      00FFBA32H   LINE      ECODE    ---       #220
      00FFBA38H   LINE      ECODE    ---       #221
      00FFBA3CH   LINE      ECODE    ---       #222
      00FFBA44H   LINE      ECODE    ---       #223
      00FFBA48H   LINE      ECODE    ---       #224
      00FFBA4EH   LINE      ECODE    ---       #225
      00FFBA52H   LINE      ECODE    ---       #226
      00FFBA5AH   LINE      ECODE    ---       #227
      00FFBA5EH   LINE      ECODE    ---       #228
      00FFBA64H   LINE      ECODE    ---       #229
      00FFBA68H   LINE      ECODE    ---       #230
      00FFBA6EH   LINE      ECODE    ---       #231
      00FFBA72H   LINE      ECODE    ---       #234
      00FFBA73H   LINE      ECODE    ---       #235
      ---         BLOCKEND  ---      ---       LVL=0

      00FFBA78H   BLOCK     ECODE    ---       LVL=0
      R15         REGSYM    ---      BYTE      dev_add
      R14         REGSYM    ---      BYTE      reg
      00FFBA78H   LINE      ECODE    ---       #247
      00FFBA82H   LINE      ECODE    ---       #249
      00FFBA88H   LINE      ECODE    ---       #250
      00FFBA8CH   LINE      ECODE    ---       #252
      00FFBA96H   LINE      ECODE    ---       #253
      00FFBA9AH   LINE      ECODE    ---       #254
      00FFBAA0H   LINE      ECODE    ---       #255
      00FFBAA4H   LINE      ECODE    ---       #257
      00FFBAACH   LINE      ECODE    ---       #258
      00FFBAB0H   LINE      ECODE    ---       #259
      00FFBAB6H   LINE      ECODE    ---       #260
      00FFBABAH   LINE      ECODE    ---       #266
      00FFBAC6H   LINE      ECODE    ---       #267
      00FFBACAH   LINE      ECODE    ---       #269
      00FFBAD0H   LINE      ECODE    ---       #270
      00FFBAD4H   LINE      ECODE    ---       #273
      00FFBADFH   LINE      ECODE    ---       #276
      00FFBAE5H   LINE      ECODE    ---       #277
      00FFBAE9H   LINE      ECODE    ---       #279
      00FFBAEFH   LINE      ECODE    ---       #280
      00FFBAF3H   LINE      ECODE    ---       #282
      00FFBAF4H   LINE      ECODE    ---       #283
      ---         BLOCKEND  ---      ---       LVL=0

      00FFBAF7H   BLOCK     ECODE    ---       LVL=0
      REG=3       REGSYM    ---      ---       dat
      00FFBAF7H   LINE      ECODE    ---       #296
      00FFBB07H   LINE      ECODE    ---       #300
      00FFBB0DH   LINE      ECODE    ---       #301
      00FFBB12H   LINE      ECODE    ---       #303
      00FFBB1EH   LINE      ECODE    ---       #304
      00FFBB22H   LINE      ECODE    ---       #305
      00FFBB28H   LINE      ECODE    ---       #306
      00FFBB2CH   LINE      ECODE    ---       #308
      00FFBB36H   LINE      ECODE    ---       #309
      00FFBB3AH   LINE      ECODE    ---       #310
L251 LINKER/LOCATER V4.66.93.0                                                        07/23/2023  00:26:15  PAGE 44


      00FFBB40H   LINE      ECODE    ---       #311
      00FFBB44H   LINE      ECODE    ---       #313
      00FFBB52H   LINE      ECODE    ---       #314
      00FFBB56H   LINE      ECODE    ---       #315
      00FFBB5CH   LINE      ECODE    ---       #316
      00FFBB60H   LINE      ECODE    ---       #318
      00FFBB62H   LINE      ECODE    ---       #320
      00FFBB69H   LINE      ECODE    ---       #321
      00FFBB6FH   LINE      ECODE    ---       #323
      00FFBB73H   LINE      ECODE    ---       #324
      00FFBB73H   LINE      ECODE    ---       #325
      00FFBB75H   LINE      ECODE    ---       #326
      00FFBB80H   LINE      ECODE    ---       #328
      00FFBB87H   LINE      ECODE    ---       #330
      00FFBB8DH   LINE      ECODE    ---       #331
      00FFBB91H   LINE      ECODE    ---       #333
      00FFBB97H   LINE      ECODE    ---       #334
      00FFBB9BH   LINE      ECODE    ---       #336
      00FFBB9CH   LINE      ECODE    ---       #337
      ---         BLOCKEND  ---      ---       LVL=0

      00FFBB9FH   BLOCK     ECODE    ---       LVL=0
      WR6         REGSYM    ---      INT       iic_n
      00FFBB9FH   LINE      ECODE    ---       #347
      00FFBB9FH   LINE      ECODE    ---       #349
      00FFBBA2H   LINE      ECODE    ---       #351
      00FFBBA5H   LINE      ECODE    ---       #352
      00FFBBB7H   LINE      ECODE    ---       #354
      00FFBBB7H   LINE      ECODE    ---       #355
      00FFBBBBH   LINE      ECODE    ---       #356
      00FFBBBDH   LINE      ECODE    ---       #357
      00FFBBBDH   LINE      ECODE    ---       #358
      00FFBBC0H   LINE      ECODE    ---       #359
      00FFBBC2H   LINE      ECODE    ---       #360
      00FFBBC2H   LINE      ECODE    ---       #361
      00FFBBC5H   LINE      ECODE    ---       #362
      00FFBBC7H   LINE      ECODE    ---       #363
      00FFBBC7H   LINE      ECODE    ---       #364
      00FFBBCAH   LINE      ECODE    ---       #365
      00FFBBCAH   LINE      ECODE    ---       #366
      00FFBBCAH   LINE      ECODE    ---       #368
      00FFBBCDH   LINE      ECODE    ---       #370
      ---         BLOCKEND  ---      ---       LVL=0

      ---         MODULE    ---      ---       zf_nvic
      000000D0H   SFRSYM    DATA     BYTE      PSW
      0000009DH   SFRSYM    DATA     BYTE      IRCBAND
      00000097H   SFRSYM    DATA     BYTE      AUXR2
      000000EFH   SFRSYM    DATA     BYTE      AUXINTIF
      000000FDH   SFRSYM    DATA     BYTE      S4CON
      000000ACH   SFRSYM    DATA     BYTE      S3CON
      0000009AH   SFRSYM    DATA     BYTE      S2CON
      000000B7H   SFRSYM    DATA     BYTE      IPH
      000000CDH   SFRSYM    DATA     BYTE      SPSTAT
      000000DDH   SFRSYM    DATA     BYTE      T4T3M
      000000C1H   SFRSYM    DATA     BYTE      WDT_CONTR
      000000DFH   SFRSYM    DATA     BYTE      IP3
      000000F4H   SFRSYM    DATA     BYTE      USBCON
      000000B5H   SFRSYM    DATA     BYTE      IP2
      000000FFH   SFRSYM    DATA     BYTE      RSTCFG
      000000F9H   SFRSYM    DATA     BYTE      LINICR
      0000008EH   SFRSYM    DATA     BYTE      AUXR
      000000AFH   SFRSYM    DATA     BYTE      IE2
      00000088H   SFRSYM    DATA     BYTE      TCON
      00000098H   SFRSYM    DATA     BYTE      SCON
L251 LINKER/LOCATER V4.66.93.0                                                        07/23/2023  00:26:15  PAGE 45


      000000F1H   SFRSYM    DATA     BYTE      CANICR
      00000087H   SFRSYM    DATA     BYTE      PCON
      000000BCH   SFRSYM    DATA     BYTE      ADC_CONTR
      000000E7H   SFRSYM    DATA     BYTE      CMPCR2
      000000E6H   SFRSYM    DATA     BYTE      CMPCR1
      000000B8H   SFRSYM    DATA     BYTE      IP
      0000008FH   SFRSYM    DATA     BYTE      INTCLKO
      000000EEH   SFRSYM    DATA     BYTE      IP3H
      000000B6H   SFRSYM    DATA     BYTE      IP2H
      000000A8H   SFRSYM    DATA     BYTE      IE
      000000BBH   SFRSYM    DATA     BYTE      P_SW3
      000000BAH   SFRSYM    DATA     BYTE      P_SW2
      000000A2H   SFRSYM    DATA     BYTE      P_SW1
      000000CEH   SFRSYM    DATA     BYTE      SPCTL
      000000F8H   SFRSYM    DATA     BYTE      P7
      000000E8H   SFRSYM    DATA     BYTE      P6
      000000C8H   SFRSYM    DATA     BYTE      P5
      000000C0H   SFRSYM    DATA     BYTE      P4
      000000B0H   SFRSYM    DATA     BYTE      P3
      000000A0H   SFRSYM    DATA     BYTE      P2
      00000090H   SFRSYM    DATA     BYTE      P1
      00000080H   SFRSYM    DATA     BYTE      P0
      WR4         REGSYM    ---      INT       irqn
      R3          REGSYM    ---      BYTE      priority

      ---         MODULE    ---      ---       zf_pwm
      00FF9AE0H   PUBLIC    ECODE    ---       pwm_duty?
      00FF953AH   PUBLIC    ECODE    ---       pwm_set_gpio?
      00FF9BADH   PUBLIC    ECODE    ---       pwm_freq?
      00FF97DCH   PUBLIC    ECODE    ---       pwm_init?
      00FFE16BH   PUBLIC    HCONST   ---       PWM_CCR_ADDR
      00FFE18BH   PUBLIC    HCONST   ---       PWM_ARR_ADDR
      00FFE193H   PUBLIC    HCONST   ---       PWM_CCER_ADDR
      00FFE1A3H   PUBLIC    HCONST   ---       PWM_CCMR_ADDR
      000002CAH   PUBLIC    EDATA    BYTE      ?pwm_init??BYTE
      000000D0H   SFRSYM    DATA     BYTE      PSW
      0000009DH   SFRSYM    DATA     BYTE      IRCBAND
      00000097H   SFRSYM    DATA     BYTE      AUXR2
      000000EFH   SFRSYM    DATA     BYTE      AUXINTIF
      000000FDH   SFRSYM    DATA     BYTE      S4CON
      000000ACH   SFRSYM    DATA     BYTE      S3CON
      0000009AH   SFRSYM    DATA     BYTE      S2CON
      000000B7H   SFRSYM    DATA     BYTE      IPH
      000000CDH   SFRSYM    DATA     BYTE      SPSTAT
      000000DDH   SFRSYM    DATA     BYTE      T4T3M
      000000C1H   SFRSYM    DATA     BYTE      WDT_CONTR
      000000DFH   SFRSYM    DATA     BYTE      IP3
      000000F4H   SFRSYM    DATA     BYTE      USBCON
      000000B5H   SFRSYM    DATA     BYTE      IP2
      000000FFH   SFRSYM    DATA     BYTE      RSTCFG
      000000F9H   SFRSYM    DATA     BYTE      LINICR
      0000008EH   SFRSYM    DATA     BYTE      AUXR
      000000AFH   SFRSYM    DATA     BYTE      IE2
      00000088H   SFRSYM    DATA     BYTE      TCON
      00000098H   SFRSYM    DATA     BYTE      SCON
      000000F1H   SFRSYM    DATA     BYTE      CANICR
      00000087H   SFRSYM    DATA     BYTE      PCON
      000000BCH   SFRSYM    DATA     BYTE      ADC_CONTR
      000000E7H   SFRSYM    DATA     BYTE      CMPCR2
      000000E6H   SFRSYM    DATA     BYTE      CMPCR1
      000000B8H   SFRSYM    DATA     BYTE      IP
      0000008FH   SFRSYM    DATA     BYTE      INTCLKO
      000000EEH   SFRSYM    DATA     BYTE      IP3H
      000000B6H   SFRSYM    DATA     BYTE      IP2H
      000000A8H   SFRSYM    DATA     BYTE      IE
L251 LINKER/LOCATER V4.66.93.0                                                        07/23/2023  00:26:15  PAGE 46


      000000BBH   SFRSYM    DATA     BYTE      P_SW3
      000000BAH   SFRSYM    DATA     BYTE      P_SW2
      000000A2H   SFRSYM    DATA     BYTE      P_SW1
      000000CEH   SFRSYM    DATA     BYTE      SPCTL
      000000F8H   SFRSYM    DATA     BYTE      P7
      000000E8H   SFRSYM    DATA     BYTE      P6
      000000C8H   SFRSYM    DATA     BYTE      P5
      000000C0H   SFRSYM    DATA     BYTE      P4
      000000B0H   SFRSYM    DATA     BYTE      P3
      000000A0H   SFRSYM    DATA     BYTE      P2
      00000090H   SFRSYM    DATA     BYTE      P1
      00000080H   SFRSYM    DATA     BYTE      P0

      00FF953AH   BLOCK     ECODE    ---       LVL=0
      WR6         REGSYM    ---      INT       pwmch
      00FF953AH   LINE      ECODE    ---       #49
      00FF953AH   LINE      ECODE    ---       #51
      00FF96ADH   LINE      ECODE    ---       #53
      00FF96ADH   LINE      ECODE    ---       #55
      00FF96B1H   LINE      ECODE    ---       #56
      00FF96B4H   LINE      ECODE    ---       #58
      00FF96B4H   LINE      ECODE    ---       #60
      00FF96B8H   LINE      ECODE    ---       #61
      00FF96BBH   LINE      ECODE    ---       #63
      00FF96BBH   LINE      ECODE    ---       #65
      00FF96BFH   LINE      ECODE    ---       #66
      00FF96C2H   LINE      ECODE    ---       #68
      00FF96C2H   LINE      ECODE    ---       #70
      00FF96C6H   LINE      ECODE    ---       #71
      00FF96C9H   LINE      ECODE    ---       #73
      00FF96C9H   LINE      ECODE    ---       #75
      00FF96CDH   LINE      ECODE    ---       #76
      00FF96D0H   LINE      ECODE    ---       #78
      00FF96D0H   LINE      ECODE    ---       #80
      00FF96D4H   LINE      ECODE    ---       #81
      00FF96D7H   LINE      ECODE    ---       #84
      00FF96D7H   LINE      ECODE    ---       #86
      00FF96DBH   LINE      ECODE    ---       #87
      00FF96DEH   LINE      ECODE    ---       #89
      00FF96DEH   LINE      ECODE    ---       #91
      00FF96E2H   LINE      ECODE    ---       #92
      00FF96E5H   LINE      ECODE    ---       #94
      00FF96E5H   LINE      ECODE    ---       #96
      00FF96E9H   LINE      ECODE    ---       #97
      00FF96ECH   LINE      ECODE    ---       #99
      00FF96ECH   LINE      ECODE    ---       #101
      00FF96F0H   LINE      ECODE    ---       #102
      00FF96F3H   LINE      ECODE    ---       #104
      00FF96F3H   LINE      ECODE    ---       #106
      00FF96F7H   LINE      ECODE    ---       #107
      00FF96FAH   LINE      ECODE    ---       #109
      00FF96FAH   LINE      ECODE    ---       #111
      00FF96FEH   LINE      ECODE    ---       #112
      00FF9701H   LINE      ECODE    ---       #115
      00FF9701H   LINE      ECODE    ---       #117
      00FF9705H   LINE      ECODE    ---       #118
      00FF9707H   LINE      ECODE    ---       #120
      00FF9707H   LINE      ECODE    ---       #122
      00FF970BH   LINE      ECODE    ---       #123
      00FF970DH   LINE      ECODE    ---       #125
      00FF970DH   LINE      ECODE    ---       #127
      00FF9711H   LINE      ECODE    ---       #128
      00FF9713H   LINE      ECODE    ---       #130
      00FF9713H   LINE      ECODE    ---       #132
      00FF9717H   LINE      ECODE    ---       #133
L251 LINKER/LOCATER V4.66.93.0                                                        07/23/2023  00:26:15  PAGE 47


      00FF9719H   LINE      ECODE    ---       #135
      00FF9719H   LINE      ECODE    ---       #137
      00FF971DH   LINE      ECODE    ---       #138
      00FF971FH   LINE      ECODE    ---       #140
      00FF971FH   LINE      ECODE    ---       #142
      00FF9723H   LINE      ECODE    ---       #143
      00FF9725H   LINE      ECODE    ---       #147
      00FF9725H   LINE      ECODE    ---       #149
      00FF9729H   LINE      ECODE    ---       #150
      00FF972BH   LINE      ECODE    ---       #152
      00FF972BH   LINE      ECODE    ---       #154
      00FF972FH   LINE      ECODE    ---       #155
      00FF9731H   LINE      ECODE    ---       #157
      00FF9731H   LINE      ECODE    ---       #159
      00FF9735H   LINE      ECODE    ---       #160
      00FF9737H   LINE      ECODE    ---       #162
      00FF9737H   LINE      ECODE    ---       #164
      00FF973BH   LINE      ECODE    ---       #165
      00FF973DH   LINE      ECODE    ---       #167
      00FF973DH   LINE      ECODE    ---       #169
      00FF9741H   LINE      ECODE    ---       #170
      00FF9743H   LINE      ECODE    ---       #172
      00FF9743H   LINE      ECODE    ---       #174
      00FF9747H   LINE      ECODE    ---       #175
      00FF9749H   LINE      ECODE    ---       #177
      00FF9749H   LINE      ECODE    ---       #179
      00FF974DH   LINE      ECODE    ---       #180
      00FF974FH   LINE      ECODE    ---       #182
      00FF974FH   LINE      ECODE    ---       #184
      00FF9753H   LINE      ECODE    ---       #185
      00FF9755H   LINE      ECODE    ---       #189
      00FF9755H   LINE      ECODE    ---       #191
      00FF9759H   LINE      ECODE    ---       #192
      00FF975BH   LINE      ECODE    ---       #194
      00FF975BH   LINE      ECODE    ---       #196
      00FF975FH   LINE      ECODE    ---       #197
      00FF9761H   LINE      ECODE    ---       #199
      00FF9761H   LINE      ECODE    ---       #201
      00FF9763H   LINE      ECODE    ---       #202
      00FF9765H   LINE      ECODE    ---       #204
      00FF9765H   LINE      ECODE    ---       #206
      00FF9769H   LINE      ECODE    ---       #207
      00FF976BH   LINE      ECODE    ---       #210
      00FF976BH   LINE      ECODE    ---       #212
      00FF976FH   LINE      ECODE    ---       #213
      00FF9771H   LINE      ECODE    ---       #215
      00FF9771H   LINE      ECODE    ---       #217
      00FF9775H   LINE      ECODE    ---       #218
      00FF9777H   LINE      ECODE    ---       #220
      00FF9777H   LINE      ECODE    ---       #222
      00FF977DH   LINE      ECODE    ---       #223
      00FF977FH   LINE      ECODE    ---       #225
      00FF977FH   LINE      ECODE    ---       #227
      00FF9787H   LINE      ECODE    ---       #228
      00FF9789H   LINE      ECODE    ---       #232
      00FF9789H   LINE      ECODE    ---       #234
      00FF9791H   LINE      ECODE    ---       #235
      00FF9793H   LINE      ECODE    ---       #237
      00FF9793H   LINE      ECODE    ---       #239
      00FF979BH   LINE      ECODE    ---       #240
      00FF979DH   LINE      ECODE    ---       #242
      00FF979DH   LINE      ECODE    ---       #244
      00FF97A5H   LINE      ECODE    ---       #245
      00FF97A7H   LINE      ECODE    ---       #247
      00FF97A7H   LINE      ECODE    ---       #249
L251 LINKER/LOCATER V4.66.93.0                                                        07/23/2023  00:26:15  PAGE 48


      00FF97AFH   LINE      ECODE    ---       #250
      00FF97B1H   LINE      ECODE    ---       #254
      00FF97B1H   LINE      ECODE    ---       #256
      00FF97B9H   LINE      ECODE    ---       #257
      00FF97BBH   LINE      ECODE    ---       #259
      00FF97BBH   LINE      ECODE    ---       #261
      00FF97C3H   LINE      ECODE    ---       #262
      00FF97C5H   LINE      ECODE    ---       #264
      00FF97C5H   LINE      ECODE    ---       #266
      00FF97CDH   LINE      ECODE    ---       #267
      00FF97CFH   LINE      ECODE    ---       #269
      00FF97CFH   LINE      ECODE    ---       #271
      00FF97DBH   LINE      ECODE    ---       #272
      00FF97DBH   LINE      ECODE    ---       #275
      00FF97DBH   LINE      ECODE    ---       #277
      ---         BLOCKEND  ---      ---       LVL=0

      00FF97DCH   BLOCK     ECODE    ---       LVL=0
      WR14        REGSYM    ---      INT       pwmch
      000002CCH   SYMBOL    EDATA    DWORD     freq
      000002D0H   SYMBOL    EDATA    DWORD     duty
      00FF97E4H   BLOCK     ECODE    NEAR LAB  LVL=1
      000002D4H   SYMBOL    EDATA    DWORD     match_temp
      DR28        REGSYM    ---      DWORD     period_temp
      WR26        REGSYM    ---      WORD      freq_div
      ---         BLOCKEND  ---      ---       LVL=1
      00FF97DCH   LINE      ECODE    ---       #290
      00FF97E4H   LINE      ECODE    ---       #291
      00FF97E4H   LINE      ECODE    ---       #295
      00FF97E4H   LINE      ECODE    ---       #298
      00FF97E7H   LINE      ECODE    ---       #301
      00FF97EBH   LINE      ECODE    ---       #305
      00FF97FDH   LINE      ECODE    ---       #306
      00FF97FDH   LINE      ECODE    ---       #307
      00FF9807H   LINE      ECODE    ---       #309
      00FF9811H   LINE      ECODE    ---       #311
      00FF9833H   LINE      ECODE    ---       #312
      00FF9835H   LINE      ECODE    ---       #315
      00FF983DH   LINE      ECODE    ---       #316
      00FF983DH   LINE      ECODE    ---       #319
      00FF9846H   LINE      ECODE    ---       #322
      00FF9871H   LINE      ECODE    ---       #323
      00FF9892H   LINE      ECODE    ---       #326
      00FF98DEH   LINE      ECODE    ---       #329
      00FF98EDH   LINE      ECODE    ---       #330
      00FF98F8H   LINE      ECODE    ---       #332
      00FF9901H   LINE      ECODE    ---       #333
      00FF9907H   LINE      ECODE    ---       #334
      00FF990AH   LINE      ECODE    ---       #337
      00FF9942H   LINE      ECODE    ---       #338
      00FF9965H   LINE      ECODE    ---       #341
      00FF99B7H   LINE      ECODE    ---       #345
      00FF99C6H   LINE      ECODE    ---       #346
      00FF99D1H   LINE      ECODE    ---       #348
      00FF99DAH   LINE      ECODE    ---       #349
      00FF99E7H   LINE      ECODE    ---       #350
      00FF99E7H   LINE      ECODE    ---       #353
      00FF9A13H   LINE      ECODE    ---       #354
      00FF9A41H   LINE      ECODE    ---       #357
      00FF9A6DH   LINE      ECODE    ---       #358
      00FF9A9BH   LINE      ECODE    ---       #361
      00FF9AB2H   LINE      ECODE    ---       #362
      00FF9ADDH   LINE      ECODE    ---       #367
      ---         BLOCKEND  ---      ---       LVL=0

L251 LINKER/LOCATER V4.66.93.0                                                        07/23/2023  00:26:15  PAGE 49


      00FF9AE0H   BLOCK     ECODE    ---       LVL=0
      WR30        REGSYM    ---      INT       pwmch
      DR24        REGSYM    ---      DWORD     duty
      00FF9AE4H   BLOCK     ECODE    NEAR LAB  LVL=1
      DR20        REGSYM    ---      DWORD     match_temp
      DR16        REGSYM    ---      DWORD     arr
      ---         BLOCKEND  ---      ---       LVL=1
      00FF9AE0H   LINE      ECODE    ---       #377
      00FF9AE4H   LINE      ECODE    ---       #378
      00FF9AE4H   LINE      ECODE    ---       #380
      00FF9B28H   LINE      ECODE    ---       #384
      00FF9B2EH   LINE      ECODE    ---       #386
      00FF9B54H   LINE      ECODE    ---       #387
      00FF9B56H   LINE      ECODE    ---       #390
      00FF9B5AH   LINE      ECODE    ---       #391
      00FF9B5AH   LINE      ECODE    ---       #396
      00FF9B82H   LINE      ECODE    ---       #397
      00FF9BACH   LINE      ECODE    ---       #401
      ---         BLOCKEND  ---      ---       LVL=0

      00FF9BADH   BLOCK     ECODE    ---       LVL=0
      WR30        REGSYM    ---      INT       pwmch
      DR24        REGSYM    ---      DWORD     freq
      00FF9BAFH   BLOCK     ECODE    NEAR LAB  LVL=1
      DR20        REGSYM    ---      DWORD     match_temp
      DR24        REGSYM    ---      DWORD     period_temp
      WR28        REGSYM    ---      WORD      freq_div
      ---         BLOCKEND  ---      ---       LVL=1
      00FF9BADH   LINE      ECODE    ---       #412
      00FF9BAFH   LINE      ECODE    ---       #413
      00FF9BAFH   LINE      ECODE    ---       #416
      00FF9BAFH   LINE      ECODE    ---       #421
      00FF9BBDH   LINE      ECODE    ---       #422
      00FF9BBDH   LINE      ECODE    ---       #423
      00FF9BC7H   LINE      ECODE    ---       #425
      00FF9BD1H   LINE      ECODE    ---       #427
      00FF9BF5H   LINE      ECODE    ---       #428
      00FF9BF7H   LINE      ECODE    ---       #431
      00FF9BFBH   LINE      ECODE    ---       #432
      00FF9BFBH   LINE      ECODE    ---       #439
      00FF9C01H   LINE      ECODE    ---       #442
      00FF9C10H   LINE      ECODE    ---       #443
      00FF9C18H   LINE      ECODE    ---       #444
      00FF9C1AH   LINE      ECODE    ---       #448
      00FF9C29H   LINE      ECODE    ---       #449
      00FF9C38H   LINE      ECODE    ---       #450
      00FF9C38H   LINE      ECODE    ---       #453
      00FF9C64H   LINE      ECODE    ---       #454
      00FF9C92H   LINE      ECODE    ---       #457
      00FF9CBAH   LINE      ECODE    ---       #458
      00FF9CE4H   LINE      ECODE    ---       #461
      ---         BLOCKEND  ---      ---       LVL=0

      ---         MODULE    ---      ---       zf_spi
      00FFD249H   PUBLIC    ECODE    ---       spi_change_mode?
      00FFD192H   PUBLIC    ECODE    ---       spi_change_pin?
      00FFD09CH   PUBLIC    ECODE    ---       spi_init?
      00FFD184H   PUBLIC    ECODE    ---       spi_mosi?
      000002C3H   PUBLIC    EDATA    BYTE      ?spi_init??BYTE
      000000CFH   SFRSYM    DATA     BYTE      SPDAT
      000000D0H   SFRSYM    DATA     BYTE      PSW
      0000009DH   SFRSYM    DATA     BYTE      IRCBAND
      00000097H   SFRSYM    DATA     BYTE      AUXR2
      000000EFH   SFRSYM    DATA     BYTE      AUXINTIF
      000000FDH   SFRSYM    DATA     BYTE      S4CON
L251 LINKER/LOCATER V4.66.93.0                                                        07/23/2023  00:26:15  PAGE 50


      000000ACH   SFRSYM    DATA     BYTE      S3CON
      0000009AH   SFRSYM    DATA     BYTE      S2CON
      000000B7H   SFRSYM    DATA     BYTE      IPH
      000000CDH   SFRSYM    DATA     BYTE      SPSTAT
      000000DDH   SFRSYM    DATA     BYTE      T4T3M
      000000C1H   SFRSYM    DATA     BYTE      WDT_CONTR
      000000DFH   SFRSYM    DATA     BYTE      IP3
      000000F4H   SFRSYM    DATA     BYTE      USBCON
      000000B5H   SFRSYM    DATA     BYTE      IP2
      000000FFH   SFRSYM    DATA     BYTE      RSTCFG
      000000F9H   SFRSYM    DATA     BYTE      LINICR
      0000008EH   SFRSYM    DATA     BYTE      AUXR
      000000AFH   SFRSYM    DATA     BYTE      IE2
      00000088H   SFRSYM    DATA     BYTE      TCON
      00000098H   SFRSYM    DATA     BYTE      SCON
      000000F1H   SFRSYM    DATA     BYTE      CANICR
      00000087H   SFRSYM    DATA     BYTE      PCON
      000000BCH   SFRSYM    DATA     BYTE      ADC_CONTR
      000000E7H   SFRSYM    DATA     BYTE      CMPCR2
      000000E6H   SFRSYM    DATA     BYTE      CMPCR1
      000000B8H   SFRSYM    DATA     BYTE      IP
      0000008FH   SFRSYM    DATA     BYTE      INTCLKO
      000000EEH   SFRSYM    DATA     BYTE      IP3H
      000000B6H   SFRSYM    DATA     BYTE      IP2H
      000000A8H   SFRSYM    DATA     BYTE      IE
      000000BBH   SFRSYM    DATA     BYTE      P_SW3
      000000BAH   SFRSYM    DATA     BYTE      P_SW2
      000000A2H   SFRSYM    DATA     BYTE      P_SW1
      000000CEH   SFRSYM    DATA     BYTE      SPCTL
      000000F8H   SFRSYM    DATA     BYTE      P7
      000000E8H   SFRSYM    DATA     BYTE      P6
      000000C8H   SFRSYM    DATA     BYTE      P5
      000000C0H   SFRSYM    DATA     BYTE      P4
      000000B0H   SFRSYM    DATA     BYTE      P3
      000000A0H   SFRSYM    DATA     BYTE      P2
      00000090H   SFRSYM    DATA     BYTE      P1
      00000080H   SFRSYM    DATA     BYTE      P0

      00FFD09CH   BLOCK     ECODE    ---       LVL=0
      WR14        REGSYM    ---      INT       spi_n
      R13         REGSYM    ---      BYTE      mode
      000002CCH   SYMBOL    EDATA    INT       mstr
      000002CEH   SYMBOL    EDATA    INT       baud
      00FFD09CH   LINE      ECODE    ---       #39
      00FFD0A4H   LINE      ECODE    ---       #47
      00FFD0B6H   LINE      ECODE    ---       #50
      00FFD0B6H   LINE      ECODE    ---       #51
      00FFD0C0H   LINE      ECODE    ---       #52
      00FFD0CAH   LINE      ECODE    ---       #53
      00FFD0CEH   LINE      ECODE    ---       #54
      00FFD0D0H   LINE      ECODE    ---       #55
      00FFD0D0H   LINE      ECODE    ---       #56
      00FFD0DAH   LINE      ECODE    ---       #57
      00FFD0E4H   LINE      ECODE    ---       #58
      00FFD0E8H   LINE      ECODE    ---       #59
      00FFD0EAH   LINE      ECODE    ---       #60
      00FFD0EAH   LINE      ECODE    ---       #61
      00FFD0F4H   LINE      ECODE    ---       #62
      00FFD0FEH   LINE      ECODE    ---       #63
      00FFD102H   LINE      ECODE    ---       #64
      00FFD104H   LINE      ECODE    ---       #65
      00FFD104H   LINE      ECODE    ---       #66
      00FFD10EH   LINE      ECODE    ---       #67
      00FFD118H   LINE      ECODE    ---       #68
      00FFD122H   LINE      ECODE    ---       #69
L251 LINKER/LOCATER V4.66.93.0                                                        07/23/2023  00:26:15  PAGE 51


      00FFD122H   LINE      ECODE    ---       #70
      00FFD122H   LINE      ECODE    ---       #72
      00FFD125H   LINE      ECODE    ---       #73
      00FFD137H   LINE      ECODE    ---       #75
      00FFD137H   LINE      ECODE    ---       #76
      00FFD13BH   LINE      ECODE    ---       #77
      00FFD13DH   LINE      ECODE    ---       #78
      00FFD13DH   LINE      ECODE    ---       #79
      00FFD140H   LINE      ECODE    ---       #80
      00FFD142H   LINE      ECODE    ---       #81
      00FFD142H   LINE      ECODE    ---       #82
      00FFD145H   LINE      ECODE    ---       #83
      00FFD147H   LINE      ECODE    ---       #84
      00FFD147H   LINE      ECODE    ---       #85
      00FFD14AH   LINE      ECODE    ---       #86
      00FFD14AH   LINE      ECODE    ---       #87
      00FFD14AH   LINE      ECODE    ---       #89
      00FFD14DH   LINE      ECODE    ---       #90
      00FFD159H   LINE      ECODE    ---       #92
      00FFD159H   LINE      ECODE    ---       #94
      00FFD159H   LINE      ECODE    ---       #95
      00FFD159H   LINE      ECODE    ---       #96
      00FFD15CH   LINE      ECODE    ---       #97
      00FFD15EH   LINE      ECODE    ---       #98
      00FFD15EH   LINE      ECODE    ---       #99
      00FFD161H   LINE      ECODE    ---       #100
      00FFD163H   LINE      ECODE    ---       #101
      00FFD163H   LINE      ECODE    ---       #102
      00FFD166H   LINE      ECODE    ---       #103
      00FFD166H   LINE      ECODE    ---       #104
      00FFD166H   LINE      ECODE    ---       #107
      00FFD16EH   LINE      ECODE    ---       #109
      00FFD176H   LINE      ECODE    ---       #111
      00FFD179H   LINE      ECODE    ---       #112
      00FFD17CH   LINE      ECODE    ---       #113
      00FFD17CH   LINE      ECODE    ---       #117
      00FFD17CH   LINE      ECODE    ---       #118
      00FFD17FH   LINE      ECODE    ---       #119
      ---         BLOCKEND  ---      ---       LVL=0

      00FFD184H   BLOCK     ECODE    ---       LVL=0
      R11         REGSYM    ---      BYTE      dat
      00FFD184H   LINE      ECODE    ---       #129
      00FFD184H   LINE      ECODE    ---       #131
      00FFD187H   LINE      ECODE    ---       #132
      00FFD18CH   LINE      ECODE    ---       #133
      00FFD18FH   LINE      ECODE    ---       #134
      00FFD191H   LINE      ECODE    ---       #135
      ---         BLOCKEND  ---      ---       LVL=0

      00FFD192H   BLOCK     ECODE    ---       LVL=0
      WR14        REGSYM    ---      INT       spi_n
      00FFD192H   LINE      ECODE    ---       #147
      00FFD196H   LINE      ECODE    ---       #149
      00FFD199H   LINE      ECODE    ---       #150
      00FFD1ABH   LINE      ECODE    ---       #153
      00FFD1ABH   LINE      ECODE    ---       #154
      00FFD1B7H   LINE      ECODE    ---       #155
      00FFD1C1H   LINE      ECODE    ---       #156
      00FFD1C5H   LINE      ECODE    ---       #157
      00FFD1C7H   LINE      ECODE    ---       #158
      00FFD1C7H   LINE      ECODE    ---       #159
      00FFD1D3H   LINE      ECODE    ---       #160
      00FFD1DDH   LINE      ECODE    ---       #161
      00FFD1E1H   LINE      ECODE    ---       #162
L251 LINKER/LOCATER V4.66.93.0                                                        07/23/2023  00:26:15  PAGE 52


      00FFD1E3H   LINE      ECODE    ---       #163
      00FFD1E3H   LINE      ECODE    ---       #164
      00FFD1EFH   LINE      ECODE    ---       #165
      00FFD1F9H   LINE      ECODE    ---       #166
      00FFD1FDH   LINE      ECODE    ---       #167
      00FFD1FFH   LINE      ECODE    ---       #168
      00FFD1FFH   LINE      ECODE    ---       #169
      00FFD20BH   LINE      ECODE    ---       #170
      00FFD215H   LINE      ECODE    ---       #171
      00FFD221H   LINE      ECODE    ---       #172
      00FFD221H   LINE      ECODE    ---       #173
      00FFD221H   LINE      ECODE    ---       #176
      00FFD233H   LINE      ECODE    ---       #178
      00FFD233H   LINE      ECODE    ---       #179
      00FFD237H   LINE      ECODE    ---       #180
      00FFD239H   LINE      ECODE    ---       #181
      00FFD239H   LINE      ECODE    ---       #182
      00FFD23CH   LINE      ECODE    ---       #183
      00FFD23EH   LINE      ECODE    ---       #184
      00FFD23EH   LINE      ECODE    ---       #185
      00FFD241H   LINE      ECODE    ---       #186
      00FFD243H   LINE      ECODE    ---       #187
      00FFD243H   LINE      ECODE    ---       #188
      00FFD246H   LINE      ECODE    ---       #189
      00FFD246H   LINE      ECODE    ---       #190
      00FFD246H   LINE      ECODE    ---       #191
      ---         BLOCKEND  ---      ---       LVL=0

      00FFD249H   BLOCK     ECODE    ---       LVL=0
      R7          REGSYM    ---      BYTE      mode
      00FFD249H   LINE      ECODE    ---       #200
      00FFD24BH   LINE      ECODE    ---       #202
      00FFD24EH   LINE      ECODE    ---       #203
      00FFD25AH   LINE      ECODE    ---       #205
      00FFD25AH   LINE      ECODE    ---       #207
      00FFD25AH   LINE      ECODE    ---       #208
      00FFD25AH   LINE      ECODE    ---       #209
      00FFD25DH   LINE      ECODE    ---       #210
      00FFD25EH   LINE      ECODE    ---       #211
      00FFD25EH   LINE      ECODE    ---       #212
      00FFD261H   LINE      ECODE    ---       #213
      00FFD262H   LINE      ECODE    ---       #214
      00FFD262H   LINE      ECODE    ---       #215
      00FFD265H   LINE      ECODE    ---       #216
      00FFD265H   LINE      ECODE    ---       #217
      00FFD265H   LINE      ECODE    ---       #218
      ---         BLOCKEND  ---      ---       LVL=0

      ---         MODULE    ---      ---       zf_tim
      00FFD2B0H   PUBLIC    ECODE    ---       ctimer_count_read?
      00FFD34EH   PUBLIC    ECODE    ---       pit_timer_ms?
      00FFD266H   PUBLIC    ECODE    ---       ctimer_count_init?
      00FFD2FDH   PUBLIC    ECODE    ---       ctimer_count_clean?
      000000D0H   SFRSYM    DATA     BYTE      PSW
      0000009DH   SFRSYM    DATA     BYTE      IRCBAND
      00000097H   SFRSYM    DATA     BYTE      AUXR2
      000000EFH   SFRSYM    DATA     BYTE      AUXINTIF
      000000FDH   SFRSYM    DATA     BYTE      S4CON
      000000ACH   SFRSYM    DATA     BYTE      S3CON
      0000009AH   SFRSYM    DATA     BYTE      S2CON
      000000B7H   SFRSYM    DATA     BYTE      IPH
      000000CDH   SFRSYM    DATA     BYTE      SPSTAT
      000000DDH   SFRSYM    DATA     BYTE      T4T3M
      000000C1H   SFRSYM    DATA     BYTE      WDT_CONTR
      00000088H.6 SFRSYM    DATA     BIT       TR1
L251 LINKER/LOCATER V4.66.93.0                                                        07/23/2023  00:26:15  PAGE 53


      00000088H.4 SFRSYM    DATA     BIT       TR0
      000000D3H   SFRSYM    DATA     BYTE      T4L
      000000D5H   SFRSYM    DATA     BYTE      T3L
      000000D7H   SFRSYM    DATA     BYTE      T2L
      0000008BH   SFRSYM    DATA     BYTE      TL1
      0000008AH   SFRSYM    DATA     BYTE      TL0
      000000D2H   SFRSYM    DATA     BYTE      T4H
      000000D4H   SFRSYM    DATA     BYTE      T3H
      000000D6H   SFRSYM    DATA     BYTE      T2H
      0000008DH   SFRSYM    DATA     BYTE      TH1
      0000008CH   SFRSYM    DATA     BYTE      TH0
      000000DFH   SFRSYM    DATA     BYTE      IP3
      000000F4H   SFRSYM    DATA     BYTE      USBCON
      000000B5H   SFRSYM    DATA     BYTE      IP2
      000000FFH   SFRSYM    DATA     BYTE      RSTCFG
      000000A8H.3 SFRSYM    DATA     BIT       ET1
      000000A8H.1 SFRSYM    DATA     BIT       ET0
      000000F9H   SFRSYM    DATA     BYTE      LINICR
      0000008EH   SFRSYM    DATA     BYTE      AUXR
      000000AFH   SFRSYM    DATA     BYTE      IE2
      00000088H   SFRSYM    DATA     BYTE      TCON
      00000089H   SFRSYM    DATA     BYTE      TMOD
      00000098H   SFRSYM    DATA     BYTE      SCON
      000000F1H   SFRSYM    DATA     BYTE      CANICR
      00000087H   SFRSYM    DATA     BYTE      PCON
      000000BCH   SFRSYM    DATA     BYTE      ADC_CONTR
      000000E7H   SFRSYM    DATA     BYTE      CMPCR2
      000000E6H   SFRSYM    DATA     BYTE      CMPCR1
      000000B8H   SFRSYM    DATA     BYTE      IP
      0000008FH   SFRSYM    DATA     BYTE      INTCLKO
      000000EEH   SFRSYM    DATA     BYTE      IP3H
      000000B6H   SFRSYM    DATA     BYTE      IP2H
      000000A8H   SFRSYM    DATA     BYTE      IE
      000000BBH   SFRSYM    DATA     BYTE      P_SW3
      000000BAH   SFRSYM    DATA     BYTE      P_SW2
      000000A2H   SFRSYM    DATA     BYTE      P_SW1
      000000CEH   SFRSYM    DATA     BYTE      SPCTL
      000000F8H   SFRSYM    DATA     BYTE      P7
      000000E8H   SFRSYM    DATA     BYTE      P6
      000000C8H   SFRSYM    DATA     BYTE      P5
      000000C0H   SFRSYM    DATA     BYTE      P4
      000000B0H   SFRSYM    DATA     BYTE      P3
      000000A0H   SFRSYM    DATA     BYTE      P2
      00000090H   SFRSYM    DATA     BYTE      P1
      00000080H   SFRSYM    DATA     BYTE      P0

      00FFD266H   BLOCK     ECODE    ---       LVL=0
      WR6         REGSYM    ---      INT       tim_n
      00FFD266H   LINE      ECODE    ---       #39
      00FFD266H   LINE      ECODE    ---       #42
      00FFD27AH   LINE      ECODE    ---       #44
      00FFD27AH   LINE      ECODE    ---       #46
      00FFD27DH   LINE      ECODE    ---       #47
      00FFD280H   LINE      ECODE    ---       #48
      00FFD283H   LINE      ECODE    ---       #49
      00FFD285H   LINE      ECODE    ---       #50
      00FFD286H   LINE      ECODE    ---       #53
      00FFD286H   LINE      ECODE    ---       #55
      00FFD289H   LINE      ECODE    ---       #56
      00FFD28CH   LINE      ECODE    ---       #57
      00FFD28FH   LINE      ECODE    ---       #58
      00FFD291H   LINE      ECODE    ---       #59
      00FFD292H   LINE      ECODE    ---       #62
      00FFD292H   LINE      ECODE    ---       #64
      00FFD295H   LINE      ECODE    ---       #65
L251 LINKER/LOCATER V4.66.93.0                                                        07/23/2023  00:26:15  PAGE 54


      00FFD298H   LINE      ECODE    ---       #66
      00FFD29BH   LINE      ECODE    ---       #67
      00FFD29CH   LINE      ECODE    ---       #70
      00FFD29CH   LINE      ECODE    ---       #72
      00FFD29FH   LINE      ECODE    ---       #73
      00FFD2A2H   LINE      ECODE    ---       #74
      00FFD2A5H   LINE      ECODE    ---       #75
      00FFD2A6H   LINE      ECODE    ---       #78
      00FFD2A6H   LINE      ECODE    ---       #80
      00FFD2A9H   LINE      ECODE    ---       #81
      00FFD2ACH   LINE      ECODE    ---       #82
      00FFD2AFH   LINE      ECODE    ---       #83
      00FFD2AFH   LINE      ECODE    ---       #86
      00FFD2AFH   LINE      ECODE    ---       #87
      ---         BLOCKEND  ---      ---       LVL=0

      00FFD2B0H   BLOCK     ECODE    ---       LVL=0
      WR4         REGSYM    ---      INT       tim_n
      00FFD2B2H   BLOCK     ECODE    NEAR LAB  LVL=1
      WR6         REGSYM    ---      WORD      dat
      ---         BLOCKEND  ---      ---       LVL=1
      00FFD2B0H   LINE      ECODE    ---       #95
      00FFD2B2H   LINE      ECODE    ---       #96
      00FFD2B2H   LINE      ECODE    ---       #97
      00FFD2B4H   LINE      ECODE    ---       #99
      00FFD2C8H   LINE      ECODE    ---       #101
      00FFD2C8H   LINE      ECODE    ---       #103
      00FFD2CEH   LINE      ECODE    ---       #104
      00FFD2D0H   LINE      ECODE    ---       #105
      00FFD2D2H   LINE      ECODE    ---       #107
      00FFD2D2H   LINE      ECODE    ---       #109
      00FFD2D8H   LINE      ECODE    ---       #110
      00FFD2DAH   LINE      ECODE    ---       #111
      00FFD2DCH   LINE      ECODE    ---       #113
      00FFD2DCH   LINE      ECODE    ---       #115
      00FFD2E2H   LINE      ECODE    ---       #116
      00FFD2E4H   LINE      ECODE    ---       #117
      00FFD2E6H   LINE      ECODE    ---       #119
      00FFD2E6H   LINE      ECODE    ---       #121
      00FFD2ECH   LINE      ECODE    ---       #122
      00FFD2EEH   LINE      ECODE    ---       #123
      00FFD2F0H   LINE      ECODE    ---       #125
      00FFD2F0H   LINE      ECODE    ---       #127
      00FFD2F6H   LINE      ECODE    ---       #128
      00FFD2FCH   LINE      ECODE    ---       #129
      00FFD2FCH   LINE      ECODE    ---       #132
      00FFD2FCH   LINE      ECODE    ---       #133
      00FFD2FCH   LINE      ECODE    ---       #134
      ---         BLOCKEND  ---      ---       LVL=0

      00FFD2FDH   BLOCK     ECODE    ---       LVL=0
      WR6         REGSYM    ---      INT       tim_n
      00FFD2FDH   LINE      ECODE    ---       #143
      00FFD2FDH   LINE      ECODE    ---       #145
      00FFD311H   LINE      ECODE    ---       #147
      00FFD311H   LINE      ECODE    ---       #149
      00FFD313H   LINE      ECODE    ---       #150
      00FFD316H   LINE      ECODE    ---       #151
      00FFD319H   LINE      ECODE    ---       #152
      00FFD31BH   LINE      ECODE    ---       #153
      00FFD31CH   LINE      ECODE    ---       #155
      00FFD31CH   LINE      ECODE    ---       #157
      00FFD31EH   LINE      ECODE    ---       #158
      00FFD321H   LINE      ECODE    ---       #159
      00FFD324H   LINE      ECODE    ---       #160
L251 LINKER/LOCATER V4.66.93.0                                                        07/23/2023  00:26:15  PAGE 55


      00FFD326H   LINE      ECODE    ---       #161
      00FFD327H   LINE      ECODE    ---       #163
      00FFD327H   LINE      ECODE    ---       #165
      00FFD32AH   LINE      ECODE    ---       #166
      00FFD32DH   LINE      ECODE    ---       #167
      00FFD330H   LINE      ECODE    ---       #168
      00FFD333H   LINE      ECODE    ---       #169
      00FFD334H   LINE      ECODE    ---       #171
      00FFD334H   LINE      ECODE    ---       #173
      00FFD337H   LINE      ECODE    ---       #174
      00FFD33AH   LINE      ECODE    ---       #175
      00FFD33DH   LINE      ECODE    ---       #176
      00FFD340H   LINE      ECODE    ---       #177
      00FFD341H   LINE      ECODE    ---       #179
      00FFD341H   LINE      ECODE    ---       #181
      00FFD344H   LINE      ECODE    ---       #182
      00FFD347H   LINE      ECODE    ---       #183
      00FFD34AH   LINE      ECODE    ---       #184
      00FFD34DH   LINE      ECODE    ---       #185
      00FFD34DH   LINE      ECODE    ---       #187
      00FFD34DH   LINE      ECODE    ---       #188
      ---         BLOCKEND  ---      ---       LVL=0

      00FFD34EH   BLOCK     ECODE    ---       LVL=0
      WR30        REGSYM    ---      INT       tim_n
      WR28        REGSYM    ---      WORD      time_ms
      00FFD350H   BLOCK     ECODE    NEAR LAB  LVL=1
      WR28        REGSYM    ---      WORD      temp
      ---         BLOCKEND  ---      ---       LVL=1
      00FFD34EH   LINE      ECODE    ---       #198
      00FFD350H   LINE      ECODE    ---       #199
      00FFD350H   LINE      ECODE    ---       #201
      00FFD36EH   LINE      ECODE    ---       #203
      00FFD372H   LINE      ECODE    ---       #205
      00FFD376H   LINE      ECODE    ---       #206
      00FFD37CH   LINE      ECODE    ---       #207
      00FFD380H   LINE      ECODE    ---       #208
      00FFD382H   LINE      ECODE    ---       #209
      00FFD384H   LINE      ECODE    ---       #210
      00FFD385H   LINE      ECODE    ---       #211
      00FFD38BH   LINE      ECODE    ---       #213
      00FFD38FH   LINE      ECODE    ---       #214
      00FFD395H   LINE      ECODE    ---       #215
      00FFD399H   LINE      ECODE    ---       #216
      00FFD39BH   LINE      ECODE    ---       #217
      00FFD39DH   LINE      ECODE    ---       #218
      00FFD39EH   LINE      ECODE    ---       #219
      00FFD3A4H   LINE      ECODE    ---       #221
      00FFD3AAH   LINE      ECODE    ---       #222
      00FFD3AEH   LINE      ECODE    ---       #223
      00FFD3B1H   LINE      ECODE    ---       #224
      00FFD3B4H   LINE      ECODE    ---       #225
      00FFD3B5H   LINE      ECODE    ---       #226
      00FFD3BBH   LINE      ECODE    ---       #228
      00FFD3C1H   LINE      ECODE    ---       #229
      00FFD3C5H   LINE      ECODE    ---       #230
      00FFD3C8H   LINE      ECODE    ---       #231
      00FFD3CBH   LINE      ECODE    ---       #232
      00FFD3CCH   LINE      ECODE    ---       #233
      00FFD3D2H   LINE      ECODE    ---       #235
      00FFD3D8H   LINE      ECODE    ---       #236
      00FFD3DCH   LINE      ECODE    ---       #237
      00FFD3DFH   LINE      ECODE    ---       #238
      00FFD3E2H   LINE      ECODE    ---       #239
      ---         BLOCKEND  ---      ---       LVL=0
L251 LINKER/LOCATER V4.66.93.0                                                        07/23/2023  00:26:15  PAGE 56



      ---         MODULE    ---      ---       zf_uart
      00FFC7F1H   PUBLIC    ECODE    ---       uart_putchar?
      00FFC845H   PUBLIC    ECODE    ---       uart_putbuff?
      00FFC873H   PUBLIC    ECODE    ---       uart_putstr?
      00FFC631H   PUBLIC    ECODE    ---       uart_init?
      00000458H   PUBLIC    EDATA    ---       uart1_rx_buff
      000004BCH   PUBLIC    EDATA    ---       uart1_tx_buff
      00000520H   PUBLIC    EDATA    ---       busy
      000002C6H   PUBLIC    EDATA    BYTE      ?uart_init??BYTE
      000000D0H   SFRSYM    DATA     BYTE      PSW
      0000009DH   SFRSYM    DATA     BYTE      IRCBAND
      00000097H   SFRSYM    DATA     BYTE      AUXR2
      000000EFH   SFRSYM    DATA     BYTE      AUXINTIF
      000000FDH   SFRSYM    DATA     BYTE      S4CON
      000000ACH   SFRSYM    DATA     BYTE      S3CON
      0000009AH   SFRSYM    DATA     BYTE      S2CON
      000000FEH   SFRSYM    DATA     BYTE      S4BUF
      000000ADH   SFRSYM    DATA     BYTE      S3BUF
      0000009BH   SFRSYM    DATA     BYTE      S2BUF
      000000B7H   SFRSYM    DATA     BYTE      IPH
      000000CDH   SFRSYM    DATA     BYTE      SPSTAT
      000000DDH   SFRSYM    DATA     BYTE      T4T3M
      000000C1H   SFRSYM    DATA     BYTE      WDT_CONTR
      00000088H.6 SFRSYM    DATA     BIT       TR1
      000000D3H   SFRSYM    DATA     BYTE      T4L
      000000D5H   SFRSYM    DATA     BYTE      T3L
      000000D7H   SFRSYM    DATA     BYTE      T2L
      0000008BH   SFRSYM    DATA     BYTE      TL1
      000000D2H   SFRSYM    DATA     BYTE      T4H
      000000D4H   SFRSYM    DATA     BYTE      T3H
      000000D6H   SFRSYM    DATA     BYTE      T2H
      0000008DH   SFRSYM    DATA     BYTE      TH1
      000000DFH   SFRSYM    DATA     BYTE      IP3
      000000F4H   SFRSYM    DATA     BYTE      USBCON
      000000B5H   SFRSYM    DATA     BYTE      IP2
      000000FFH   SFRSYM    DATA     BYTE      RSTCFG
      000000F9H   SFRSYM    DATA     BYTE      LINICR
      0000008EH   SFRSYM    DATA     BYTE      AUXR
      000000AFH   SFRSYM    DATA     BYTE      IE2
      00000088H   SFRSYM    DATA     BYTE      TCON
      00000089H   SFRSYM    DATA     BYTE      TMOD
      00000098H   SFRSYM    DATA     BYTE      SCON
      000000F1H   SFRSYM    DATA     BYTE      CANICR
      00000087H   SFRSYM    DATA     BYTE      PCON
      00000099H   SFRSYM    DATA     BYTE      SBUF
      000000BCH   SFRSYM    DATA     BYTE      ADC_CONTR
      000000E7H   SFRSYM    DATA     BYTE      CMPCR2
      000000E6H   SFRSYM    DATA     BYTE      CMPCR1
      000000B8H   SFRSYM    DATA     BYTE      IP
      000000A8H.4 SFRSYM    DATA     BIT       ES
      0000008FH   SFRSYM    DATA     BYTE      INTCLKO
      000000EEH   SFRSYM    DATA     BYTE      IP3H
      000000B6H   SFRSYM    DATA     BYTE      IP2H
      000000A8H   SFRSYM    DATA     BYTE      IE
      000000BBH   SFRSYM    DATA     BYTE      P_SW3
      000000BAH   SFRSYM    DATA     BYTE      P_SW2
      000000A2H   SFRSYM    DATA     BYTE      P_SW1
      000000CEH   SFRSYM    DATA     BYTE      SPCTL
      000000F8H   SFRSYM    DATA     BYTE      P7
      000000E8H   SFRSYM    DATA     BYTE      P6
      000000C8H   SFRSYM    DATA     BYTE      P5
      000000C0H   SFRSYM    DATA     BYTE      P4
      000000C9H   SFRSYM    DATA     BYTE      P5M1
      000000B0H   SFRSYM    DATA     BYTE      P3
L251 LINKER/LOCATER V4.66.93.0                                                        07/23/2023  00:26:15  PAGE 57


      000000CAH   SFRSYM    DATA     BYTE      P5M0
      000000A0H   SFRSYM    DATA     BYTE      P2
      00000090H   SFRSYM    DATA     BYTE      P1
      00000080H   SFRSYM    DATA     BYTE      P0

      00FFC631H   BLOCK     ECODE    ---       LVL=0
      WR24        REGSYM    ---      INT       uart_n
      WR28        REGSYM    ---      INT       uart_rx_pin
      WR30        REGSYM    ---      INT       uart_tx_pin
      000002CCH   SYMBOL    EDATA    DWORD     baud
      WR26        REGSYM    ---      INT       tim_n
      00FFC639H   BLOCK     ECODE    NEAR LAB  LVL=1
      WR6         REGSYM    ---      WORD      brt
      ---         BLOCKEND  ---      ---       LVL=1
      00FFC631H   LINE      ECODE    ---       #48
      00FFC639H   LINE      ECODE    ---       #49
      00FFC639H   LINE      ECODE    ---       #52
      00FFC65DH   LINE      ECODE    ---       #55
      00FFC67BH   LINE      ECODE    ---       #57
      00FFC67BH   LINE      ECODE    ---       #59
      00FFC681H   LINE      ECODE    ---       #61
      00FFC684H   LINE      ECODE    ---       #62
      00FFC688H   LINE      ECODE    ---       #63
      00FFC68CH   LINE      ECODE    ---       #64
      00FFC690H   LINE      ECODE    ---       #65
      00FFC693H   LINE      ECODE    ---       #66
      00FFC695H   LINE      ECODE    ---       #67
      00FFC69AH   LINE      ECODE    ---       #68
      00FFC69CH   LINE      ECODE    ---       #69
      00FFC6A2H   LINE      ECODE    ---       #71
      00FFC6A5H   LINE      ECODE    ---       #72
      00FFC6A9H   LINE      ECODE    ---       #73
      00FFC6ADH   LINE      ECODE    ---       #74
      00FFC6B0H   LINE      ECODE    ---       #75
      00FFC6B0H   LINE      ECODE    ---       #76
      00FFC6B3H   LINE      ECODE    ---       #77
      00FFC6BDH   LINE      ECODE    ---       #79
      00FFC6C1H   LINE      ECODE    ---       #80
      00FFC6C3H   LINE      ECODE    ---       #81
      00FFC6CFH   LINE      ECODE    ---       #83
      00FFC6D2H   LINE      ECODE    ---       #84
      00FFC6D4H   LINE      ECODE    ---       #85
      00FFC6E0H   LINE      ECODE    ---       #87
      00FFC6E3H   LINE      ECODE    ---       #88
      00FFC6E5H   LINE      ECODE    ---       #89
      00FFC6F1H   LINE      ECODE    ---       #91
      00FFC6F4H   LINE      ECODE    ---       #92
      00FFC6F4H   LINE      ECODE    ---       #93
      00FFC6F9H   LINE      ECODE    ---       #94
      00FFC6FBH   LINE      ECODE    ---       #95
      00FFC6FCH   LINE      ECODE    ---       #98
      00FFC6FCH   LINE      ECODE    ---       #100
      00FFC702H   LINE      ECODE    ---       #102
      00FFC705H   LINE      ECODE    ---       #103
      00FFC709H   LINE      ECODE    ---       #104
      00FFC70DH   LINE      ECODE    ---       #105
      00FFC710H   LINE      ECODE    ---       #106
      00FFC710H   LINE      ECODE    ---       #108
      00FFC713H   LINE      ECODE    ---       #109
      00FFC71FH   LINE      ECODE    ---       #111
      00FFC723H   LINE      ECODE    ---       #112
      00FFC725H   LINE      ECODE    ---       #113
      00FFC731H   LINE      ECODE    ---       #115
      00FFC734H   LINE      ECODE    ---       #116
      00FFC734H   LINE      ECODE    ---       #118
L251 LINKER/LOCATER V4.66.93.0                                                        07/23/2023  00:26:15  PAGE 58


      00FFC737H   LINE      ECODE    ---       #119
      00FFC73CH   LINE      ECODE    ---       #120
      00FFC73DH   LINE      ECODE    ---       #123
      00FFC73DH   LINE      ECODE    ---       #125
      00FFC743H   LINE      ECODE    ---       #127
      00FFC746H   LINE      ECODE    ---       #128
      00FFC74AH   LINE      ECODE    ---       #129
      00FFC74EH   LINE      ECODE    ---       #130
      00FFC751H   LINE      ECODE    ---       #131
      00FFC753H   LINE      ECODE    ---       #132
      00FFC759H   LINE      ECODE    ---       #134
      00FFC75CH   LINE      ECODE    ---       #135
      00FFC760H   LINE      ECODE    ---       #136
      00FFC764H   LINE      ECODE    ---       #137
      00FFC767H   LINE      ECODE    ---       #138
      00FFC767H   LINE      ECODE    ---       #140
      00FFC76AH   LINE      ECODE    ---       #141
      00FFC776H   LINE      ECODE    ---       #143
      00FFC77AH   LINE      ECODE    ---       #144
      00FFC77CH   LINE      ECODE    ---       #145
      00FFC788H   LINE      ECODE    ---       #147
      00FFC78BH   LINE      ECODE    ---       #148
      00FFC78BH   LINE      ECODE    ---       #150
      00FFC78EH   LINE      ECODE    ---       #151
      00FFC793H   LINE      ECODE    ---       #152
      00FFC794H   LINE      ECODE    ---       #155
      00FFC794H   LINE      ECODE    ---       #157
      00FFC79AH   LINE      ECODE    ---       #159
      00FFC79DH   LINE      ECODE    ---       #160
      00FFC7A1H   LINE      ECODE    ---       #161
      00FFC7A5H   LINE      ECODE    ---       #162
      00FFC7A8H   LINE      ECODE    ---       #163
      00FFC7AAH   LINE      ECODE    ---       #164
      00FFC7B0H   LINE      ECODE    ---       #166
      00FFC7B3H   LINE      ECODE    ---       #167
      00FFC7B7H   LINE      ECODE    ---       #168
      00FFC7BBH   LINE      ECODE    ---       #169
      00FFC7BEH   LINE      ECODE    ---       #170
      00FFC7BEH   LINE      ECODE    ---       #172
      00FFC7C1H   LINE      ECODE    ---       #173
      00FFC7CDH   LINE      ECODE    ---       #175
      00FFC7D1H   LINE      ECODE    ---       #176
      00FFC7D3H   LINE      ECODE    ---       #177
      00FFC7DFH   LINE      ECODE    ---       #179
      00FFC7E2H   LINE      ECODE    ---       #180
      00FFC7E5H   LINE      ECODE    ---       #181
      00FFC7E8H   LINE      ECODE    ---       #182
      00FFC7E8H   LINE      ECODE    ---       #183
      00FFC7EBH   LINE      ECODE    ---       #184
      00FFC7F0H   LINE      ECODE    ---       #185
      00FFC7F0H   LINE      ECODE    ---       #188
      00FFC7F0H   LINE      ECODE    ---       #190
      ---         BLOCKEND  ---      ---       LVL=0

      00FFC7F1H   BLOCK     ECODE    ---       LVL=0
      WR6         REGSYM    ---      INT       uart_n
      R10         REGSYM    ---      BYTE      dat
      00FFC7F1H   LINE      ECODE    ---       #199
      00FFC7F3H   LINE      ECODE    ---       #201
      00FFC805H   LINE      ECODE    ---       #203
      00FFC805H   LINE      ECODE    ---       #204
      00FFC80BH   LINE      ECODE    ---       #205
      00FFC811H   LINE      ECODE    ---       #206
      00FFC814H   LINE      ECODE    ---       #207
      00FFC815H   LINE      ECODE    ---       #208
L251 LINKER/LOCATER V4.66.93.0                                                        07/23/2023  00:26:15  PAGE 59


      00FFC815H   LINE      ECODE    ---       #209
      00FFC81BH   LINE      ECODE    ---       #210
      00FFC821H   LINE      ECODE    ---       #211
      00FFC824H   LINE      ECODE    ---       #212
      00FFC825H   LINE      ECODE    ---       #213
      00FFC825H   LINE      ECODE    ---       #214
      00FFC82BH   LINE      ECODE    ---       #215
      00FFC831H   LINE      ECODE    ---       #216
      00FFC834H   LINE      ECODE    ---       #217
      00FFC835H   LINE      ECODE    ---       #218
      00FFC835H   LINE      ECODE    ---       #219
      00FFC83BH   LINE      ECODE    ---       #220
      00FFC841H   LINE      ECODE    ---       #221
      00FFC844H   LINE      ECODE    ---       #222
      00FFC844H   LINE      ECODE    ---       #223
      00FFC844H   LINE      ECODE    ---       #224
      ---         BLOCKEND  ---      ---       LVL=0

      00FFC845H   BLOCK     ECODE    ---       LVL=0
      0000084DH   SYMBOL    EDATA    INT       uart_n
      REG=3       REGSYM    ---      ---       p
      0000084FH   SYMBOL    EDATA    WORD      len
      00FFC845H   LINE      ECODE    ---       #235
      00FFC851H   LINE      ECODE    ---       #237
      00FFC870H   LINE      ECODE    ---       #239
      ---         BLOCKEND  ---      ---       LVL=0

      00FFC873H   BLOCK     ECODE    ---       LVL=0
      REG=3       REGSYM    ---      ---       str
      00FFC873H   LINE      ECODE    ---       #249
      00FFC87BH   LINE      ECODE    ---       #251
      00FFC87DH   LINE      ECODE    ---       #253
      00FFC88AH   LINE      ECODE    ---       #254
      00FFC88FH   LINE      ECODE    ---       #255
      ---         BLOCKEND  ---      ---       LVL=0

      ---         MODULE    ---      ---       zf_fifo
      00FFBDB8H   PUBLIC    ECODE    ---       fifo_read_buffer?
      00FFBC11H   PUBLIC    ECODE    ---       fifo_head_offset?
      00FFBC99H   PUBLIC    ECODE    ---       fifo_clear?
      00FFBCD3H   PUBLIC    ECODE    ---       fifo_write_buffer?
      00FFBC53H   PUBLIC    ECODE    ---       fifo_end_offset?
      00FFBCBEH   PUBLIC    ECODE    ---       fifo_used?
      00FFBBCEH   PUBLIC    ECODE    ---       fifo_init?
      00000849H   PUBLIC    EDATA    BYTE      ?fifo_init??BYTE
      0000021AH   PUBLIC    EDATA    BYTE      ?fifo_write_buffer??BYTE
      000007D8H   PUBLIC    EDATA    BYTE      ?fifo_read_buffer??BYTE
      000000D0H   SFRSYM    DATA     BYTE      PSW
      0000009DH   SFRSYM    DATA     BYTE      IRCBAND
      00000097H   SFRSYM    DATA     BYTE      AUXR2
      000000EFH   SFRSYM    DATA     BYTE      AUXINTIF
      000000FDH   SFRSYM    DATA     BYTE      S4CON
      000000ACH   SFRSYM    DATA     BYTE      S3CON
      0000009AH   SFRSYM    DATA     BYTE      S2CON
      000000B7H   SFRSYM    DATA     BYTE      IPH
      000000CDH   SFRSYM    DATA     BYTE      SPSTAT
      000000DDH   SFRSYM    DATA     BYTE      T4T3M
      000000C1H   SFRSYM    DATA     BYTE      WDT_CONTR
      000000DFH   SFRSYM    DATA     BYTE      IP3
      000000F4H   SFRSYM    DATA     BYTE      USBCON
      000000B5H   SFRSYM    DATA     BYTE      IP2
      000000FFH   SFRSYM    DATA     BYTE      RSTCFG
      000000F9H   SFRSYM    DATA     BYTE      LINICR
      0000008EH   SFRSYM    DATA     BYTE      AUXR
      000000AFH   SFRSYM    DATA     BYTE      IE2
L251 LINKER/LOCATER V4.66.93.0                                                        07/23/2023  00:26:15  PAGE 60


      00000088H   SFRSYM    DATA     BYTE      TCON
      00000098H   SFRSYM    DATA     BYTE      SCON
      000000F1H   SFRSYM    DATA     BYTE      CANICR
      00000087H   SFRSYM    DATA     BYTE      PCON
      000000BCH   SFRSYM    DATA     BYTE      ADC_CONTR
      000000E7H   SFRSYM    DATA     BYTE      CMPCR2
      000000E6H   SFRSYM    DATA     BYTE      CMPCR1
      000000B8H   SFRSYM    DATA     BYTE      IP
      0000008FH   SFRSYM    DATA     BYTE      INTCLKO
      000000EEH   SFRSYM    DATA     BYTE      IP3H
      000000B6H   SFRSYM    DATA     BYTE      IP2H
      000000A8H   SFRSYM    DATA     BYTE      IE
      000000BBH   SFRSYM    DATA     BYTE      P_SW3
      000000BAH   SFRSYM    DATA     BYTE      P_SW2
      000000A2H   SFRSYM    DATA     BYTE      P_SW1
      000000CEH   SFRSYM    DATA     BYTE      SPCTL
      000000F8H   SFRSYM    DATA     BYTE      P7
      000000E8H   SFRSYM    DATA     BYTE      P6
      000000C8H   SFRSYM    DATA     BYTE      P5
      000000C0H   SFRSYM    DATA     BYTE      P4
      000000B0H   SFRSYM    DATA     BYTE      P3
      000000A0H   SFRSYM    DATA     BYTE      P2
      00000090H   SFRSYM    DATA     BYTE      P1
      00000080H   SFRSYM    DATA     BYTE      P0

      00FFBBCEH   BLOCK     ECODE    ---       LVL=0
      REG=2       REGSYM    ---      ---       fifo
      REG=7       REGSYM    ---      ---       buffer_addr
      00000851H   SYMBOL    EDATA    DWORD     size
      00FFBBCEH   LINE      ECODE    ---       #42
      00FFBBD2H   LINE      ECODE    ---       #44
      00FFBBD8H   LINE      ECODE    ---       #45
      00FFBBDDH   LINE      ECODE    ---       #46
      00FFBBE4H   LINE      ECODE    ---       #47
      00FFBBEEH   LINE      ECODE    ---       #48
      00FFBBF6H   LINE      ECODE    ---       #49
      00FFBC02H   LINE      ECODE    ---       #50
      00FFBC0EH   LINE      ECODE    ---       #51
      00FFBC10H   LINE      ECODE    ---       #52
      ---         BLOCKEND  ---      ---       LVL=0

      00FFBC11H   BLOCK     ECODE    ---       LVL=0
      REG=7       REGSYM    ---      ---       fifo
      DR24        REGSYM    ---      DWORD     offset
      00FFBC11H   LINE      ECODE    ---       #61
      00FFBC15H   LINE      ECODE    ---       #63
      00FFBC20H   LINE      ECODE    ---       #65
      00FFBC22H   LINE      ECODE    ---       #67
      00FFBC3EH   LINE      ECODE    ---       #68
      00FFBC52H   LINE      ECODE    ---       #69
      ---         BLOCKEND  ---      ---       LVL=0

      00FFBC53H   BLOCK     ECODE    ---       LVL=0
      REG=7       REGSYM    ---      ---       fifo
      DR24        REGSYM    ---      DWORD     offset
      00FFBC53H   LINE      ECODE    ---       #78
      00FFBC57H   LINE      ECODE    ---       #80
      00FFBC64H   LINE      ECODE    ---       #82
      00FFBC66H   LINE      ECODE    ---       #84
      00FFBC84H   LINE      ECODE    ---       #85
      00FFBC98H   LINE      ECODE    ---       #86
      ---         BLOCKEND  ---      ---       LVL=0

      00FFBC99H   BLOCK     ECODE    ---       LVL=0
      REG=2       REGSYM    ---      ---       fifo
L251 LINKER/LOCATER V4.66.93.0                                                        07/23/2023  00:26:15  PAGE 61


      00FFBC99H   LINE      ECODE    ---       #94
      00FFBC9BH   LINE      ECODE    ---       #96
      00FFBCA5H   LINE      ECODE    ---       #97
      00FFBCADH   LINE      ECODE    ---       #98
      00FFBCBDH   LINE      ECODE    ---       #99
      ---         BLOCKEND  ---      ---       LVL=0

      00FFBCBEH   BLOCK     ECODE    ---       LVL=0
      REG=7       REGSYM    ---      ---       fifo
      00FFBCBEH   LINE      ECODE    ---       #107
      00FFBCC0H   LINE      ECODE    ---       #109
      00FFBCD2H   LINE      ECODE    ---       #110
      ---         BLOCKEND  ---      ---       LVL=0

      00FFBCD3H   BLOCK     ECODE    ---       LVL=0
      REG=3       REGSYM    ---      ---       fifo
      0000021EH   SYMBOL    EDATA    ---       dat
      00000222H   SYMBOL    EDATA    DWORD     length
      00FFBCDBH   BLOCK     ECODE    NEAR LAB  LVL=1
      00000226H   SYMBOL    EDATA    DWORD     temp_length
      ---         BLOCKEND  ---      ---       LVL=1
      00FFBCD3H   LINE      ECODE    ---       #120
      00FFBCDBH   LINE      ECODE    ---       #121
      00FFBCDBH   LINE      ECODE    ---       #124
      00FFBCEEH   LINE      ECODE    ---       #126
      00FFBD04H   LINE      ECODE    ---       #128
      00FFBD08H   LINE      ECODE    ---       #130
      00FFBD21H   LINE      ECODE    ---       #131
      00FFBD2BH   LINE      ECODE    ---       #132
      00FFBD3BH   LINE      ECODE    ---       #133
      00FFBD5CH   LINE      ECODE    ---       #134
      00FFBD68H   LINE      ECODE    ---       #135
      00FFBD6AH   LINE      ECODE    ---       #138
      00FFBD87H   LINE      ECODE    ---       #139
      00FFBD91H   LINE      ECODE    ---       #140
      00FFBD91H   LINE      ECODE    ---       #142
      00FFBDABH   LINE      ECODE    ---       #143
      00FFBDADH   LINE      ECODE    ---       #146
      00FFBDB3H   LINE      ECODE    ---       #147
      00FFBDB3H   LINE      ECODE    ---       #149
      00FFBDB5H   LINE      ECODE    ---       #150
      ---         BLOCKEND  ---      ---       LVL=0

      00FFBDB8H   BLOCK     ECODE    ---       LVL=0
      REG=3       REGSYM    ---      ---       fifo
      000007DCH   SYMBOL    EDATA    ---       dat
      000007E0H   SYMBOL    EDATA    ---       length
      000007E4H   SYMBOL    EDATA    INT       flag
      00FFBDC0H   BLOCK     ECODE    NEAR LAB  LVL=1
      000007E6H   SYMBOL    EDATA    BYTE      data_check
      000007E7H   SYMBOL    EDATA    DWORD     temp_length
      ---         BLOCKEND  ---      ---       LVL=1
      00FFBDB8H   LINE      ECODE    ---       #161
      00FFBDC0H   LINE      ECODE    ---       #162
      00FFBDC0H   LINE      ECODE    ---       #163
      00FFBDC5H   LINE      ECODE    ---       #166
      00FFBDDAH   LINE      ECODE    ---       #168
      00FFBDF3H   LINE      ECODE    ---       #169
      00FFBDF9H   LINE      ECODE    ---       #170
      00FFBDF9H   LINE      ECODE    ---       #172
      00FFBE0FH   LINE      ECODE    ---       #173
      00FFBE1EH   LINE      ECODE    ---       #175
      00FFBE35H   LINE      ECODE    ---       #176
      00FFBE37H   LINE      ECODE    ---       #179
      00FFBE41H   LINE      ECODE    ---       #181
L251 LINKER/LOCATER V4.66.93.0                                                        07/23/2023  00:26:15  PAGE 62


      00FFBE5CH   LINE      ECODE    ---       #182
      00FFBE84H   LINE      ECODE    ---       #183
      00FFBE84H   LINE      ECODE    ---       #186
      00FFBE8CH   LINE      ECODE    ---       #188
      00FFBE9DH   LINE      ECODE    ---       #189
      00FFBEBEH   LINE      ECODE    ---       #190
      00FFBEBEH   LINE      ECODE    ---       #192
      00FFBECCH   LINE      ECODE    ---       #193
      ---         BLOCKEND  ---      ---       LVL=0

      ---         MODULE    ---      ---       SEEKFREE_18TFT
      00FF5008H   PUBLIC    ECODE    ---       lcd_showuint16?
      00FF4864H   PUBLIC    ECODE    ---       lcd_showint32_simspi?
      00FF46F0H   PUBLIC    ECODE    ---       lcd_showint16_simspi?
      00FF5094H   PUBLIC    ECODE    ---       lcd_showint32?
      00FF4F20H   PUBLIC    ECODE    ---       lcd_showint16?
      00FF4245H   PUBLIC    ECODE    ---       lcd_clear_simspi?
      00FF4A78H   PUBLIC    ECODE    ---       lcd_clear?
      00FF4563H   PUBLIC    ECODE    ---       lcd_showstr_simspi?
      00FF4D93H   PUBLIC    ECODE    ---       lcd_showstr?
      00FF4170H   PUBLIC    ECODE    ---       lcd_writeIndex_simspi?
      00FF4199H   PUBLIC    ECODE    ---       lcd_writeData_simspi?
      00FF49E6H   PUBLIC    ECODE    ---       lcd_writeIndex?
      00FF49F1H   PUBLIC    ECODE    ---       lcd_writeData?
      00FF41C2H   PUBLIC    ECODE    ---       lcd_writeData_16bit_simspi?
      00FF41EEH   PUBLIC    ECODE    ---       lcd_set_region_simspi?
      00FF4272H   PUBLIC    ECODE    ---       lcd_init_simspi?
      00FF5216H   PUBLIC    ECODE    ---       showimage?
      00FF4A1DH   PUBLIC    ECODE    ---       lcd_set_region?
      00FF4AA5H   PUBLIC    ECODE    ---       lcd_init?
      00FF4672H   PUBLIC    ECODE    ---       lcd_showuint8_simspi?
      00FF4EA2H   PUBLIC    ECODE    ---       lcd_showuint8?
      00FF45B2H   PUBLIC    ECODE    ---       lcd_showint8_simspi?
      00FF4DE2H   PUBLIC    ECODE    ---       lcd_showint8?
      00FF49FCH   PUBLIC    ECODE    ---       lcd_writedata_16bit?
      00FF48E9H   PUBLIC    ECODE    ---       lcd_showfloat_simspi?
      00FF44BFH   PUBLIC    ECODE    ---       lcd_drawpoint_simspi?
      00FF5119H   PUBLIC    ECODE    ---       lcd_showfloat?
      00FF4CEFH   PUBLIC    ECODE    ---       lcd_drawpoint?
      00FF44D4H   PUBLIC    ECODE    ---       lcd_showchar_simspi?
      00FF4D04H   PUBLIC    ECODE    ---       lcd_showchar?
      00FF47D8H   PUBLIC    ECODE    ---       lcd_showuint16_simspi?
      000002C8H   PUBLIC    EDATA    BYTE      ?lcd_showfloat??BYTE
      000000D0H   SFRSYM    DATA     BYTE      PSW
      0000009DH   SFRSYM    DATA     BYTE      IRCBAND
      00000097H   SFRSYM    DATA     BYTE      AUXR2
      000000EFH   SFRSYM    DATA     BYTE      AUXINTIF
      000000FDH   SFRSYM    DATA     BYTE      S4CON
      000000ACH   SFRSYM    DATA     BYTE      S3CON
      0000009AH   SFRSYM    DATA     BYTE      S2CON
      000000B7H   SFRSYM    DATA     BYTE      IPH
      000000CDH   SFRSYM    DATA     BYTE      SPSTAT
      000000DDH   SFRSYM    DATA     BYTE      T4T3M
      000000C1H   SFRSYM    DATA     BYTE      WDT_CONTR
      000000DFH   SFRSYM    DATA     BYTE      IP3
      000000F4H   SFRSYM    DATA     BYTE      USBCON
      000000B5H   SFRSYM    DATA     BYTE      IP2
      000000FFH   SFRSYM    DATA     BYTE      RSTCFG
      000000F9H   SFRSYM    DATA     BYTE      LINICR
      0000008EH   SFRSYM    DATA     BYTE      AUXR
      000000AFH   SFRSYM    DATA     BYTE      IE2
      000000E8H.7 SFRSYM    DATA     BIT       P67
      000000E8H.5 SFRSYM    DATA     BIT       P65
      000000A0H.5 SFRSYM    DATA     BIT       P25
      00000088H   SFRSYM    DATA     BYTE      TCON
L251 LINKER/LOCATER V4.66.93.0                                                        07/23/2023  00:26:15  PAGE 63


      000000A0H.3 SFRSYM    DATA     BIT       P23
      00000098H   SFRSYM    DATA     BYTE      SCON
      000000A0H.2 SFRSYM    DATA     BIT       P22
      000000A0H.1 SFRSYM    DATA     BIT       P21
      000000A0H.0 SFRSYM    DATA     BIT       P20
      000000F1H   SFRSYM    DATA     BYTE      CANICR
      00000087H   SFRSYM    DATA     BYTE      PCON
      000000BCH   SFRSYM    DATA     BYTE      ADC_CONTR
      000000E7H   SFRSYM    DATA     BYTE      CMPCR2
      000000E6H   SFRSYM    DATA     BYTE      CMPCR1
      000000B8H   SFRSYM    DATA     BYTE      IP
      0000008FH   SFRSYM    DATA     BYTE      INTCLKO
      000000EEH   SFRSYM    DATA     BYTE      IP3H
      000000B6H   SFRSYM    DATA     BYTE      IP2H
      000000A8H   SFRSYM    DATA     BYTE      IE
      000000BBH   SFRSYM    DATA     BYTE      P_SW3
      000000BAH   SFRSYM    DATA     BYTE      P_SW2
      000000A2H   SFRSYM    DATA     BYTE      P_SW1
      000000CEH   SFRSYM    DATA     BYTE      SPCTL
      000000F8H   SFRSYM    DATA     BYTE      P7
      000000E8H   SFRSYM    DATA     BYTE      P6
      000000C8H   SFRSYM    DATA     BYTE      P5
      000000C0H   SFRSYM    DATA     BYTE      P4
      000000B0H   SFRSYM    DATA     BYTE      P3
      000000A0H   SFRSYM    DATA     BYTE      P2
      00000090H   SFRSYM    DATA     BYTE      P1
      00000080H   SFRSYM    DATA     BYTE      P0

      00FF4170H   BLOCK     ECODE    ---       LVL=0
      R7          REGSYM    ---      BYTE      dat
      00FF4172H   BLOCK     ECODE    NEAR LAB  LVL=1
      R6          REGSYM    ---      BYTE      i
      ---         BLOCKEND  ---      ---       LVL=1
      00FF4170H   LINE      ECODE    ---       #60
      00FF4172H   LINE      ECODE    ---       #61
      00FF4172H   LINE      ECODE    ---       #62
      00FF4175H   LINE      ECODE    ---       #64
      00FF4177H   LINE      ECODE    ---       #65
      00FF4179H   LINE      ECODE    ---       #66
      00FF417BH   LINE      ECODE    ---       #68
      00FF417DH   LINE      ECODE    ---       #70
      00FF4186H   LINE      ECODE    ---       #71
      00FF4188H   LINE      ECODE    ---       #72
      00FF418AH   LINE      ECODE    ---       #74
      00FF418CH   LINE      ECODE    ---       #75
      00FF418EH   LINE      ECODE    ---       #76
      00FF4196H   LINE      ECODE    ---       #77
      00FF4198H   LINE      ECODE    ---       #78
      ---         BLOCKEND  ---      ---       LVL=0

      00FF4199H   BLOCK     ECODE    ---       LVL=0
      R7          REGSYM    ---      BYTE      dat
      00FF419BH   BLOCK     ECODE    NEAR LAB  LVL=1
      R6          REGSYM    ---      BYTE      i
      ---         BLOCKEND  ---      ---       LVL=1
      00FF4199H   LINE      ECODE    ---       #87
      00FF419BH   LINE      ECODE    ---       #88
      00FF419BH   LINE      ECODE    ---       #89
      00FF419EH   LINE      ECODE    ---       #91
      00FF41A0H   LINE      ECODE    ---       #92
      00FF41A2H   LINE      ECODE    ---       #93
      00FF41A4H   LINE      ECODE    ---       #94
      00FF41A6H   LINE      ECODE    ---       #96
      00FF41AFH   LINE      ECODE    ---       #97
      00FF41B1H   LINE      ECODE    ---       #98
L251 LINKER/LOCATER V4.66.93.0                                                        07/23/2023  00:26:15  PAGE 64


      00FF41B3H   LINE      ECODE    ---       #100
      00FF41B5H   LINE      ECODE    ---       #101
      00FF41B7H   LINE      ECODE    ---       #102
      00FF41BFH   LINE      ECODE    ---       #103
      00FF41C1H   LINE      ECODE    ---       #104
      ---         BLOCKEND  ---      ---       LVL=0

      00FF41C2H   BLOCK     ECODE    ---       LVL=0
      WR4         REGSYM    ---      WORD      dat
      00FF41C4H   BLOCK     ECODE    NEAR LAB  LVL=1
      R10         REGSYM    ---      BYTE      i
      ---         BLOCKEND  ---      ---       LVL=1
      00FF41C2H   LINE      ECODE    ---       #113
      00FF41C4H   LINE      ECODE    ---       #114
      00FF41C4H   LINE      ECODE    ---       #115
      00FF41C7H   LINE      ECODE    ---       #117
      00FF41C9H   LINE      ECODE    ---       #118
      00FF41CBH   LINE      ECODE    ---       #119
      00FF41CDH   LINE      ECODE    ---       #121
      00FF41CFH   LINE      ECODE    ---       #123
      00FF41DBH   LINE      ECODE    ---       #124
      00FF41DDH   LINE      ECODE    ---       #125
      00FF41DFH   LINE      ECODE    ---       #127
      00FF41E1H   LINE      ECODE    ---       #128
      00FF41E3H   LINE      ECODE    ---       #129
      00FF41EBH   LINE      ECODE    ---       #131
      00FF41EDH   LINE      ECODE    ---       #133
      ---         BLOCKEND  ---      ---       LVL=0

      00FF41EEH   BLOCK     ECODE    ---       LVL=0
      00000855H   SYMBOL    EDATA    WORD      x_start
      00000857H   SYMBOL    EDATA    WORD      y_start
      WR12        REGSYM    ---      WORD      x_end
      WR14        REGSYM    ---      WORD      y_end
      00FF41EEH   LINE      ECODE    ---       #145
      00FF41F8H   LINE      ECODE    ---       #150
      00FF41FEH   LINE      ECODE    ---       #151
      00FF4203H   LINE      ECODE    ---       #152
      00FF420DH   LINE      ECODE    ---       #153
      00FF4212H   LINE      ECODE    ---       #154
      00FF421AH   LINE      ECODE    ---       #156
      00FF4220H   LINE      ECODE    ---       #157
      00FF4225H   LINE      ECODE    ---       #158
      00FF422FH   LINE      ECODE    ---       #159
      00FF4234H   LINE      ECODE    ---       #160
      00FF423CH   LINE      ECODE    ---       #177
      00FF4242H   LINE      ECODE    ---       #178
      ---         BLOCKEND  ---      ---       LVL=0

      00FF4245H   BLOCK     ECODE    ---       LVL=0
      WR14        REGSYM    ---      INT       color
      00FF4249H   BLOCK     ECODE    NEAR LAB  LVL=1
      R13         REGSYM    ---      BYTE      i
      R12         REGSYM    ---      BYTE      j
      ---         BLOCKEND  ---      ---       LVL=1
      00FF4245H   LINE      ECODE    ---       #187
      00FF4249H   LINE      ECODE    ---       #188
      00FF4249H   LINE      ECODE    ---       #190
      00FF4259H   LINE      ECODE    ---       #191
      00FF425CH   LINE      ECODE    ---       #192
      00FF425EH   LINE      ECODE    ---       #193
      00FF426FH   LINE      ECODE    ---       #194
      ---         BLOCKEND  ---      ---       LVL=0

      00FF4272H   BLOCK     ECODE    ---       LVL=0
L251 LINKER/LOCATER V4.66.93.0                                                        07/23/2023  00:26:15  PAGE 65


      00FF4272H   LINE      ECODE    ---       #203
      00FF4272H   LINE      ECODE    ---       #207
      00FF4274H   LINE      ECODE    ---       #208
      00FF427CH   LINE      ECODE    ---       #209
      00FF427EH   LINE      ECODE    ---       #210
      00FF4286H   LINE      ECODE    ---       #211
      00FF428CH   LINE      ECODE    ---       #212
      00FF4294H   LINE      ECODE    ---       #214
      00FF429AH   LINE      ECODE    ---       #215
      00FF42A0H   LINE      ECODE    ---       #216
      00FF42A6H   LINE      ECODE    ---       #217
      00FF42ACH   LINE      ECODE    ---       #219
      00FF42B2H   LINE      ECODE    ---       #220
      00FF42B8H   LINE      ECODE    ---       #221
      00FF42BEH   LINE      ECODE    ---       #222
      00FF42C4H   LINE      ECODE    ---       #224
      00FF42CAH   LINE      ECODE    ---       #225
      00FF42D0H   LINE      ECODE    ---       #226
      00FF42D6H   LINE      ECODE    ---       #227
      00FF42DCH   LINE      ECODE    ---       #228
      00FF42E2H   LINE      ECODE    ---       #229
      00FF42E8H   LINE      ECODE    ---       #230
      00FF42EEH   LINE      ECODE    ---       #232
      00FF42F4H   LINE      ECODE    ---       #233
      00FF42FAH   LINE      ECODE    ---       #235
      00FF4300H   LINE      ECODE    ---       #236
      00FF4306H   LINE      ECODE    ---       #237
      00FF430CH   LINE      ECODE    ---       #238
      00FF4312H   LINE      ECODE    ---       #239
      00FF4318H   LINE      ECODE    ---       #240
      00FF431EH   LINE      ECODE    ---       #242
      00FF4324H   LINE      ECODE    ---       #243
      00FF432AH   LINE      ECODE    ---       #244
      00FF432FH   LINE      ECODE    ---       #246
      00FF4335H   LINE      ECODE    ---       #247
      00FF433BH   LINE      ECODE    ---       #248
      00FF4341H   LINE      ECODE    ---       #249
      00FF4347H   LINE      ECODE    ---       #250
      00FF434DH   LINE      ECODE    ---       #251
      00FF4353H   LINE      ECODE    ---       #253
      00FF4359H   LINE      ECODE    ---       #254
      00FF435FH   LINE      ECODE    ---       #256
      00FF4365H   LINE      ECODE    ---       #257
      00FF437BH   LINE      ECODE    ---       #259
      00FF437FH   LINE      ECODE    ---       #260
      00FF4382H   LINE      ECODE    ---       #261
      00FF4386H   LINE      ECODE    ---       #262
      00FF438CH   LINE      ECODE    ---       #263
      00FF438CH   LINE      ECODE    ---       #265
      00FF4392H   LINE      ECODE    ---       #266
      00FF4398H   LINE      ECODE    ---       #267
      00FF439EH   LINE      ECODE    ---       #268
      00FF43A4H   LINE      ECODE    ---       #269
      00FF43AAH   LINE      ECODE    ---       #270
      00FF43B0H   LINE      ECODE    ---       #271
      00FF43B6H   LINE      ECODE    ---       #272
      00FF43BCH   LINE      ECODE    ---       #273
      00FF43C2H   LINE      ECODE    ---       #274
      00FF43C8H   LINE      ECODE    ---       #275
      00FF43CEH   LINE      ECODE    ---       #276
      00FF43D4H   LINE      ECODE    ---       #277
      00FF43DAH   LINE      ECODE    ---       #278
      00FF43DFH   LINE      ECODE    ---       #279
      00FF43E5H   LINE      ECODE    ---       #280
      00FF43EBH   LINE      ECODE    ---       #281
L251 LINKER/LOCATER V4.66.93.0                                                        07/23/2023  00:26:15  PAGE 66


      00FF43F1H   LINE      ECODE    ---       #283
      00FF43F7H   LINE      ECODE    ---       #284
      00FF43FDH   LINE      ECODE    ---       #285
      00FF4403H   LINE      ECODE    ---       #286
      00FF4409H   LINE      ECODE    ---       #287
      00FF440FH   LINE      ECODE    ---       #288
      00FF4415H   LINE      ECODE    ---       #289
      00FF441BH   LINE      ECODE    ---       #290
      00FF4421H   LINE      ECODE    ---       #291
      00FF4427H   LINE      ECODE    ---       #292
      00FF442DH   LINE      ECODE    ---       #293
      00FF4433H   LINE      ECODE    ---       #294
      00FF4439H   LINE      ECODE    ---       #295
      00FF443FH   LINE      ECODE    ---       #296
      00FF4444H   LINE      ECODE    ---       #297
      00FF444AH   LINE      ECODE    ---       #298
      00FF4450H   LINE      ECODE    ---       #299
      00FF4456H   LINE      ECODE    ---       #301
      00FF445CH   LINE      ECODE    ---       #302
      00FF4461H   LINE      ECODE    ---       #303
      00FF4467H   LINE      ECODE    ---       #304
      00FF446CH   LINE      ECODE    ---       #305
      00FF4472H   LINE      ECODE    ---       #307
      00FF4478H   LINE      ECODE    ---       #308
      00FF447DH   LINE      ECODE    ---       #309
      00FF4483H   LINE      ECODE    ---       #310
      00FF4488H   LINE      ECODE    ---       #311
      00FF448EH   LINE      ECODE    ---       #313
      00FF4494H   LINE      ECODE    ---       #314
      00FF449AH   LINE      ECODE    ---       #315
      00FF44A0H   LINE      ECODE    ---       #316
      00FF44A5H   LINE      ECODE    ---       #318
      00FF44ABH   LINE      ECODE    ---       #319
      00FF44B1H   LINE      ECODE    ---       #320
      00FF44B7H   LINE      ECODE    ---       #322
      ---         BLOCKEND  ---      ---       LVL=0

      00FF44BFH   BLOCK     ECODE    ---       LVL=0
      WR2         REGSYM    ---      WORD      x
      WR0         REGSYM    ---      WORD      y
      WR14        REGSYM    ---      WORD      color
      00FF44BFH   LINE      ECODE    ---       #334
      00FF44C7H   LINE      ECODE    ---       #336
      00FF44CBH   LINE      ECODE    ---       #337
      00FF44D1H   LINE      ECODE    ---       #338
      ---         BLOCKEND  ---      ---       LVL=0

      00FF44D4H   BLOCK     ECODE    ---       LVL=0
      WR12        REGSYM    ---      WORD      x
      WR14        REGSYM    ---      WORD      y
      00000859H   SYMBOL    EDATA    CHAR      dat
      00FF44DEH   BLOCK     ECODE    NEAR LAB  LVL=1
      0000085AH   SYMBOL    EDATA    BYTE      i
      0000085BH   SYMBOL    EDATA    BYTE      j
      0000085CH   SYMBOL    EDATA    BYTE      temp
      ---         BLOCKEND  ---      ---       LVL=1
      00FF44D4H   LINE      ECODE    ---       #351
      00FF44DEH   LINE      ECODE    ---       #352
      00FF44DEH   LINE      ECODE    ---       #356
      00FF44E3H   LINE      ECODE    ---       #358
      00FF44F9H   LINE      ECODE    ---       #359
      00FF451EH   LINE      ECODE    ---       #360
      00FF4523H   LINE      ECODE    ---       #362
      00FF4530H   LINE      ECODE    ---       #363
      00FF4538H   LINE      ECODE    ---       #364
L251 LINKER/LOCATER V4.66.93.0                                                        07/23/2023  00:26:15  PAGE 67


      00FF4542H   LINE      ECODE    ---       #365
      00FF454EH   LINE      ECODE    ---       #366
      00FF4560H   LINE      ECODE    ---       #367
      ---         BLOCKEND  ---      ---       LVL=0

      00FF4563H   BLOCK     ECODE    ---       LVL=0
      00000821H   SYMBOL    EDATA    WORD      x
      00000823H   SYMBOL    EDATA    WORD      y
      REG=3       REGSYM    ---      ---       dat
      00FF456FH   BLOCK     ECODE    NEAR LAB  LVL=1
      00000825H   SYMBOL    EDATA    WORD      j
      ---         BLOCKEND  ---      ---       LVL=1
      00FF4563H   LINE      ECODE    ---       #378
      00FF456FH   LINE      ECODE    ---       #379
      00FF456FH   LINE      ECODE    ---       #382
      00FF4571H   LINE      ECODE    ---       #383
      00FF4573H   LINE      ECODE    ---       #385
      00FF459AH   LINE      ECODE    ---       #386
      00FF45A4H   LINE      ECODE    ---       #387
      00FF45AFH   LINE      ECODE    ---       #388
      ---         BLOCKEND  ---      ---       LVL=0

      00FF45B2H   BLOCK     ECODE    ---       LVL=0
      WR12        REGSYM    ---      WORD      x
      WR14        REGSYM    ---      WORD      y
      00FF45BCH   BLOCK     ECODE    NEAR LAB  LVL=1
      ---         BLOCKEND  ---      ---       LVL=1
      00FF45B2H   LINE      ECODE    ---       #399
      00FF45BCH   LINE      ECODE    ---       #400
      00FF45BCH   LINE      ECODE    ---       #403
      00FF45C5H   LINE      ECODE    ---       #405
      00FF45D7H   LINE      ECODE    ---       #406
      00FF45E0H   LINE      ECODE    ---       #407
      00FF45E2H   LINE      ECODE    ---       #408
      00FF45F4H   LINE      ECODE    ---       #410
      00FF4608H   LINE      ECODE    ---       #411
      00FF461EH   LINE      ECODE    ---       #412
      00FF462AH   LINE      ECODE    ---       #413
      00FF462FH   LINE      ECODE    ---       #414
      00FF462FH   LINE      ECODE    ---       #416
      00FF465DH   LINE      ECODE    ---       #417
      00FF4666H   LINE      ECODE    ---       #418
      00FF466FH   LINE      ECODE    ---       #419
      ---         BLOCKEND  ---      ---       LVL=0

      00FF4672H   BLOCK     ECODE    ---       LVL=0
      WR12        REGSYM    ---      WORD      x
      WR14        REGSYM    ---      WORD      y
      R10         REGSYM    ---      BYTE      dat
      00FF467AH   BLOCK     ECODE    NEAR LAB  LVL=1
      ---         BLOCKEND  ---      ---       LVL=1
      00FF4672H   LINE      ECODE    ---       #430
      00FF467AH   LINE      ECODE    ---       #431
      00FF467AH   LINE      ECODE    ---       #435
      00FF4688H   LINE      ECODE    ---       #436
      00FF469CH   LINE      ECODE    ---       #437
      00FF46A8H   LINE      ECODE    ---       #438
      00FF46ADH   LINE      ECODE    ---       #439
      00FF46ADH   LINE      ECODE    ---       #441
      00FF46DBH   LINE      ECODE    ---       #442
      00FF46E4H   LINE      ECODE    ---       #443
      00FF46EDH   LINE      ECODE    ---       #445
      ---         BLOCKEND  ---      ---       LVL=0

      00FF46F0H   BLOCK     ECODE    ---       LVL=0
L251 LINKER/LOCATER V4.66.93.0                                                        07/23/2023  00:26:15  PAGE 68


      WR12        REGSYM    ---      WORD      x
      WR14        REGSYM    ---      WORD      y
      00FF46FAH   BLOCK     ECODE    NEAR LAB  LVL=1
      ---         BLOCKEND  ---      ---       LVL=1
      00FF46F0H   LINE      ECODE    ---       #456
      00FF46FAH   LINE      ECODE    ---       #457
      00FF46FAH   LINE      ECODE    ---       #460
      00FF4704H   LINE      ECODE    ---       #462
      00FF4716H   LINE      ECODE    ---       #463
      00FF4720H   LINE      ECODE    ---       #464
      00FF4722H   LINE      ECODE    ---       #465
      00FF4734H   LINE      ECODE    ---       #467
      00FF4746H   LINE      ECODE    ---       #468
      00FF475EH   LINE      ECODE    ---       #469
      00FF4772H   LINE      ECODE    ---       #470
      00FF4784H   LINE      ECODE    ---       #471
      00FF4790H   LINE      ECODE    ---       #473
      00FF4795H   LINE      ECODE    ---       #474
      00FF4795H   LINE      ECODE    ---       #476
      00FF47C3H   LINE      ECODE    ---       #477
      00FF47CCH   LINE      ECODE    ---       #478
      00FF47D5H   LINE      ECODE    ---       #479
      ---         BLOCKEND  ---      ---       LVL=0

      00FF47D8H   BLOCK     ECODE    ---       LVL=0
      WR12        REGSYM    ---      WORD      x
      WR14        REGSYM    ---      WORD      y
      WR2         REGSYM    ---      WORD      dat
      00FF47DEH   BLOCK     ECODE    NEAR LAB  LVL=1
      ---         BLOCKEND  ---      ---       LVL=1
      00FF47D8H   LINE      ECODE    ---       #490
      00FF47DEH   LINE      ECODE    ---       #491
      00FF47DEH   LINE      ECODE    ---       #495
      00FF47EAH   LINE      ECODE    ---       #496
      00FF47FCH   LINE      ECODE    ---       #497
      00FF480AH   LINE      ECODE    ---       #498
      00FF4814H   LINE      ECODE    ---       #499
      00FF481CH   LINE      ECODE    ---       #501
      00FF4821H   LINE      ECODE    ---       #502
      00FF4821H   LINE      ECODE    ---       #504
      00FF484FH   LINE      ECODE    ---       #505
      00FF4858H   LINE      ECODE    ---       #506
      00FF4861H   LINE      ECODE    ---       #507
      ---         BLOCKEND  ---      ---       LVL=0

      00FF4864H   BLOCK     ECODE    ---       LVL=0
      WR12        REGSYM    ---      WORD      y
      R15         REGSYM    ---      BYTE      num
      00FF4872H   BLOCK     ECODE    NEAR LAB  LVL=1
      R14         REGSYM    ---      BYTE      length
      ---         BLOCKEND  ---      ---       LVL=1
      00FF4864H   LINE      ECODE    ---       #520
      00FF4872H   LINE      ECODE    ---       #521
      00FF4872H   LINE      ECODE    ---       #525
      00FF487AH   LINE      ECODE    ---       #527
      00FF487CH   LINE      ECODE    ---       #528
      00FF489EH   LINE      ECODE    ---       #531
      00FF48A4H   LINE      ECODE    ---       #532
      00FF48BEH   LINE      ECODE    ---       #533
      00FF48C0H   LINE      ECODE    ---       #534
      00FF48C0H   LINE      ECODE    ---       #535
      00FF48C5H   LINE      ECODE    ---       #537
      00FF48CBH   LINE      ECODE    ---       #538
      00FF48CDH   LINE      ECODE    ---       #539
      00FF48D1H   LINE      ECODE    ---       #540
L251 LINKER/LOCATER V4.66.93.0                                                        07/23/2023  00:26:15  PAGE 69


      00FF48D8H   LINE      ECODE    ---       #542
      00FF48E6H   LINE      ECODE    ---       #543
      ---         BLOCKEND  ---      ---       LVL=0

      00FF48E9H   BLOCK     ECODE    ---       LVL=0
      DR12        REGSYM    ---      FLOAT     dat
      00FF48F9H   BLOCK     ECODE    NEAR LAB  LVL=1
      R7          REGSYM    ---      CHAR      point
      ---         BLOCKEND  ---      ---       LVL=1
      00FF48E9H   LINE      ECODE    ---       #561
      00FF48F9H   LINE      ECODE    ---       #562
      00FF48F9H   LINE      ECODE    ---       #567
      00FF4908H   LINE      ECODE    ---       #568
      00FF4917H   LINE      ECODE    ---       #570
      00FF493BH   LINE      ECODE    ---       #573
      00FF4955H   LINE      ECODE    ---       #574
      00FF495AH   LINE      ECODE    ---       #575
      00FF495AH   LINE      ECODE    ---       #576
      00FF4964H   LINE      ECODE    ---       #577
      00FF4974H   LINE      ECODE    ---       #578
      00FF4984H   LINE      ECODE    ---       #579
      00FF4989H   LINE      ECODE    ---       #581
      00FF4993H   LINE      ECODE    ---       #582
      00FF499CH   LINE      ECODE    ---       #583
      00FF49A5H   LINE      ECODE    ---       #584
      00FF49AEH   LINE      ECODE    ---       #586
      00FF49BCH   LINE      ECODE    ---       #587
      00FF49C8H   LINE      ECODE    ---       #589
      00FF49D3H   LINE      ECODE    ---       #591
      00FF49E3H   LINE      ECODE    ---       #592
      ---         BLOCKEND  ---      ---       LVL=0

      00FF49E6H   BLOCK     ECODE    ---       LVL=0
      R7          REGSYM    ---      BYTE      dat
      00FF49E6H   LINE      ECODE    ---       #607
      00FF49E6H   LINE      ECODE    ---       #610
      00FF49E8H   LINE      ECODE    ---       #611
      00FF49EAH   LINE      ECODE    ---       #612
      00FF49EEH   LINE      ECODE    ---       #613
      00FF49F0H   LINE      ECODE    ---       #614
      ---         BLOCKEND  ---      ---       LVL=0

      00FF49F1H   BLOCK     ECODE    ---       LVL=0
      R7          REGSYM    ---      BYTE      dat
      00FF49F1H   LINE      ECODE    ---       #623
      00FF49F1H   LINE      ECODE    ---       #625
      00FF49F3H   LINE      ECODE    ---       #626
      00FF49F5H   LINE      ECODE    ---       #627
      00FF49F9H   LINE      ECODE    ---       #628
      00FF49FBH   LINE      ECODE    ---       #629
      ---         BLOCKEND  ---      ---       LVL=0

      00FF49FCH   BLOCK     ECODE    ---       LVL=0
      WR4         REGSYM    ---      WORD      dat
      00FF49FEH   BLOCK     ECODE    NEAR LAB  LVL=1
      00000301H   SYMBOL    EDATA    ---       dat1
      ---         BLOCKEND  ---      ---       LVL=1
      00FF49FCH   LINE      ECODE    ---       #638
      00FF49FEH   LINE      ECODE    ---       #639
      00FF49FEH   LINE      ECODE    ---       #642
      00FF4A02H   LINE      ECODE    ---       #643
      00FF4A06H   LINE      ECODE    ---       #645
      00FF4A08H   LINE      ECODE    ---       #646
      00FF4A0AH   LINE      ECODE    ---       #647
      00FF4A12H   LINE      ECODE    ---       #648
L251 LINKER/LOCATER V4.66.93.0                                                        07/23/2023  00:26:15  PAGE 70


      00FF4A1AH   LINE      ECODE    ---       #649
      00FF4A1CH   LINE      ECODE    ---       #651
      ---         BLOCKEND  ---      ---       LVL=0

      00FF4A1DH   BLOCK     ECODE    ---       LVL=0
      00000301H   SYMBOL    EDATA    WORD      x_start
      00000303H   SYMBOL    EDATA    WORD      y_start
      WR12        REGSYM    ---      WORD      x_end
      WR14        REGSYM    ---      WORD      y_end
      00FF4A1DH   LINE      ECODE    ---       #663
      00FF4A2BH   LINE      ECODE    ---       #668
      00FF4A31H   LINE      ECODE    ---       #669
      00FF4A36H   LINE      ECODE    ---       #670
      00FF4A40H   LINE      ECODE    ---       #671
      00FF4A45H   LINE      ECODE    ---       #672
      00FF4A4DH   LINE      ECODE    ---       #674
      00FF4A53H   LINE      ECODE    ---       #675
      00FF4A58H   LINE      ECODE    ---       #676
      00FF4A62H   LINE      ECODE    ---       #677
      00FF4A67H   LINE      ECODE    ---       #678
      00FF4A6FH   LINE      ECODE    ---       #695
      00FF4A75H   LINE      ECODE    ---       #696
      ---         BLOCKEND  ---      ---       LVL=0

      00FF4A78H   BLOCK     ECODE    ---       LVL=0
      WR14        REGSYM    ---      INT       color
      00FF4A7CH   BLOCK     ECODE    NEAR LAB  LVL=1
      R13         REGSYM    ---      BYTE      i
      R12         REGSYM    ---      BYTE      j
      ---         BLOCKEND  ---      ---       LVL=1
      00FF4A78H   LINE      ECODE    ---       #705
      00FF4A7CH   LINE      ECODE    ---       #706
      00FF4A7CH   LINE      ECODE    ---       #708
      00FF4A8CH   LINE      ECODE    ---       #709
      00FF4A8FH   LINE      ECODE    ---       #710
      00FF4A91H   LINE      ECODE    ---       #711
      00FF4AA2H   LINE      ECODE    ---       #712
      ---         BLOCKEND  ---      ---       LVL=0

      00FF4AA5H   BLOCK     ECODE    ---       LVL=0
      00FF4AA5H   LINE      ECODE    ---       #721
      00FF4AA5H   LINE      ECODE    ---       #723
      00FF4AC4H   LINE      ECODE    ---       #725
      00FF4AC6H   LINE      ECODE    ---       #726
      00FF4ACEH   LINE      ECODE    ---       #727
      00FF4AD0H   LINE      ECODE    ---       #728
      00FF4AD8H   LINE      ECODE    ---       #729
      00FF4ADEH   LINE      ECODE    ---       #730
      00FF4AE6H   LINE      ECODE    ---       #732
      00FF4AECH   LINE      ECODE    ---       #733
      00FF4AF2H   LINE      ECODE    ---       #734
      00FF4AF8H   LINE      ECODE    ---       #735
      00FF4AFEH   LINE      ECODE    ---       #737
      00FF4B04H   LINE      ECODE    ---       #738
      00FF4B0AH   LINE      ECODE    ---       #739
      00FF4B10H   LINE      ECODE    ---       #740
      00FF4B16H   LINE      ECODE    ---       #742
      00FF4B1CH   LINE      ECODE    ---       #743
      00FF4B22H   LINE      ECODE    ---       #744
      00FF4B28H   LINE      ECODE    ---       #745
      00FF4B2EH   LINE      ECODE    ---       #746
      00FF4B34H   LINE      ECODE    ---       #747
      00FF4B3AH   LINE      ECODE    ---       #748
      00FF4B40H   LINE      ECODE    ---       #750
      00FF4B46H   LINE      ECODE    ---       #751
L251 LINKER/LOCATER V4.66.93.0                                                        07/23/2023  00:26:15  PAGE 71


      00FF4B4CH   LINE      ECODE    ---       #753
      00FF4B52H   LINE      ECODE    ---       #754
      00FF4B58H   LINE      ECODE    ---       #755
      00FF4B5EH   LINE      ECODE    ---       #756
      00FF4B64H   LINE      ECODE    ---       #757
      00FF4B6AH   LINE      ECODE    ---       #758
      00FF4B70H   LINE      ECODE    ---       #760
      00FF4B76H   LINE      ECODE    ---       #761
      00FF4B7CH   LINE      ECODE    ---       #762
      00FF4B81H   LINE      ECODE    ---       #764
      00FF4B87H   LINE      ECODE    ---       #765
      00FF4B8DH   LINE      ECODE    ---       #766
      00FF4B93H   LINE      ECODE    ---       #767
      00FF4B99H   LINE      ECODE    ---       #768
      00FF4B9FH   LINE      ECODE    ---       #769
      00FF4BA5H   LINE      ECODE    ---       #771
      00FF4BABH   LINE      ECODE    ---       #772
      00FF4BB1H   LINE      ECODE    ---       #774
      00FF4BB7H   LINE      ECODE    ---       #779
      00FF4BBCH   LINE      ECODE    ---       #786
      00FF4BC2H   LINE      ECODE    ---       #787
      00FF4BC8H   LINE      ECODE    ---       #788
      00FF4BCEH   LINE      ECODE    ---       #789
      00FF4BD4H   LINE      ECODE    ---       #790
      00FF4BDAH   LINE      ECODE    ---       #791
      00FF4BE0H   LINE      ECODE    ---       #792
      00FF4BE6H   LINE      ECODE    ---       #793
      00FF4BECH   LINE      ECODE    ---       #794
      00FF4BF2H   LINE      ECODE    ---       #795
      00FF4BF8H   LINE      ECODE    ---       #796
      00FF4BFEH   LINE      ECODE    ---       #797
      00FF4C04H   LINE      ECODE    ---       #798
      00FF4C0AH   LINE      ECODE    ---       #799
      00FF4C0FH   LINE      ECODE    ---       #800
      00FF4C15H   LINE      ECODE    ---       #801
      00FF4C1BH   LINE      ECODE    ---       #802
      00FF4C21H   LINE      ECODE    ---       #804
      00FF4C27H   LINE      ECODE    ---       #805
      00FF4C2DH   LINE      ECODE    ---       #806
      00FF4C33H   LINE      ECODE    ---       #807
      00FF4C39H   LINE      ECODE    ---       #808
      00FF4C3FH   LINE      ECODE    ---       #809
      00FF4C45H   LINE      ECODE    ---       #810
      00FF4C4BH   LINE      ECODE    ---       #811
      00FF4C51H   LINE      ECODE    ---       #812
      00FF4C57H   LINE      ECODE    ---       #813
      00FF4C5DH   LINE      ECODE    ---       #814
      00FF4C63H   LINE      ECODE    ---       #815
      00FF4C69H   LINE      ECODE    ---       #816
      00FF4C6FH   LINE      ECODE    ---       #817
      00FF4C74H   LINE      ECODE    ---       #818
      00FF4C7AH   LINE      ECODE    ---       #819
      00FF4C80H   LINE      ECODE    ---       #820
      00FF4C86H   LINE      ECODE    ---       #822
      00FF4C8CH   LINE      ECODE    ---       #823
      00FF4C91H   LINE      ECODE    ---       #824
      00FF4C97H   LINE      ECODE    ---       #825
      00FF4C9CH   LINE      ECODE    ---       #826
      00FF4CA2H   LINE      ECODE    ---       #828
      00FF4CA8H   LINE      ECODE    ---       #829
      00FF4CADH   LINE      ECODE    ---       #830
      00FF4CB3H   LINE      ECODE    ---       #831
      00FF4CB8H   LINE      ECODE    ---       #832
      00FF4CBEH   LINE      ECODE    ---       #834
      00FF4CC4H   LINE      ECODE    ---       #835
L251 LINKER/LOCATER V4.66.93.0                                                        07/23/2023  00:26:15  PAGE 72


      00FF4CCAH   LINE      ECODE    ---       #836
      00FF4CD0H   LINE      ECODE    ---       #837
      00FF4CD5H   LINE      ECODE    ---       #839
      00FF4CDBH   LINE      ECODE    ---       #840
      00FF4CE1H   LINE      ECODE    ---       #841
      00FF4CE7H   LINE      ECODE    ---       #843
      ---         BLOCKEND  ---      ---       LVL=0

      00FF4CEFH   BLOCK     ECODE    ---       LVL=0
      WR2         REGSYM    ---      WORD      x
      WR0         REGSYM    ---      WORD      y
      WR14        REGSYM    ---      WORD      color
      00FF4CEFH   LINE      ECODE    ---       #855
      00FF4CF7H   LINE      ECODE    ---       #857
      00FF4CFBH   LINE      ECODE    ---       #858
      00FF4D01H   LINE      ECODE    ---       #859
      ---         BLOCKEND  ---      ---       LVL=0

      00FF4D04H   BLOCK     ECODE    ---       LVL=0
      WR12        REGSYM    ---      WORD      x
      WR14        REGSYM    ---      WORD      y
      000002FDH   SYMBOL    EDATA    CHAR      dat
      00FF4D0EH   BLOCK     ECODE    NEAR LAB  LVL=1
      000002FEH   SYMBOL    EDATA    BYTE      i
      000002FFH   SYMBOL    EDATA    BYTE      j
      00000300H   SYMBOL    EDATA    BYTE      temp
      ---         BLOCKEND  ---      ---       LVL=1
      00FF4D04H   LINE      ECODE    ---       #872
      00FF4D0EH   LINE      ECODE    ---       #873
      00FF4D0EH   LINE      ECODE    ---       #877
      00FF4D13H   LINE      ECODE    ---       #879
      00FF4D29H   LINE      ECODE    ---       #880
      00FF4D4EH   LINE      ECODE    ---       #881
      00FF4D53H   LINE      ECODE    ---       #883
      00FF4D60H   LINE      ECODE    ---       #884
      00FF4D68H   LINE      ECODE    ---       #885
      00FF4D72H   LINE      ECODE    ---       #886
      00FF4D7EH   LINE      ECODE    ---       #887
      00FF4D90H   LINE      ECODE    ---       #888
      ---         BLOCKEND  ---      ---       LVL=0

      00FF4D93H   BLOCK     ECODE    ---       LVL=0
      000002F7H   SYMBOL    EDATA    WORD      x
      000002F9H   SYMBOL    EDATA    WORD      y
      REG=3       REGSYM    ---      ---       dat
      00FF4D9FH   BLOCK     ECODE    NEAR LAB  LVL=1
      000002FBH   SYMBOL    EDATA    WORD      j
      ---         BLOCKEND  ---      ---       LVL=1
      00FF4D93H   LINE      ECODE    ---       #899
      00FF4D9FH   LINE      ECODE    ---       #900
      00FF4D9FH   LINE      ECODE    ---       #903
      00FF4DA1H   LINE      ECODE    ---       #904
      00FF4DA3H   LINE      ECODE    ---       #906
      00FF4DCAH   LINE      ECODE    ---       #907
      00FF4DD4H   LINE      ECODE    ---       #908
      00FF4DDFH   LINE      ECODE    ---       #909
      ---         BLOCKEND  ---      ---       LVL=0

      00FF4DE2H   BLOCK     ECODE    ---       LVL=0
      WR12        REGSYM    ---      WORD      x
      WR14        REGSYM    ---      WORD      y
      00FF4DECH   BLOCK     ECODE    NEAR LAB  LVL=1
      ---         BLOCKEND  ---      ---       LVL=1
      00FF4DE2H   LINE      ECODE    ---       #920
      00FF4DECH   LINE      ECODE    ---       #921
L251 LINKER/LOCATER V4.66.93.0                                                        07/23/2023  00:26:15  PAGE 73


      00FF4DECH   LINE      ECODE    ---       #924
      00FF4DF5H   LINE      ECODE    ---       #926
      00FF4E07H   LINE      ECODE    ---       #927
      00FF4E10H   LINE      ECODE    ---       #928
      00FF4E12H   LINE      ECODE    ---       #929
      00FF4E24H   LINE      ECODE    ---       #931
      00FF4E38H   LINE      ECODE    ---       #932
      00FF4E4EH   LINE      ECODE    ---       #933
      00FF4E5AH   LINE      ECODE    ---       #934
      00FF4E5FH   LINE      ECODE    ---       #935
      00FF4E5FH   LINE      ECODE    ---       #937
      00FF4E8DH   LINE      ECODE    ---       #938
      00FF4E96H   LINE      ECODE    ---       #939
      00FF4E9FH   LINE      ECODE    ---       #940
      ---         BLOCKEND  ---      ---       LVL=0

      00FF4EA2H   BLOCK     ECODE    ---       LVL=0
      WR12        REGSYM    ---      WORD      x
      WR14        REGSYM    ---      WORD      y
      R10         REGSYM    ---      BYTE      dat
      00FF4EAAH   BLOCK     ECODE    NEAR LAB  LVL=1
      ---         BLOCKEND  ---      ---       LVL=1
      00FF4EA2H   LINE      ECODE    ---       #951
      00FF4EAAH   LINE      ECODE    ---       #952
      00FF4EAAH   LINE      ECODE    ---       #956
      00FF4EB8H   LINE      ECODE    ---       #957
      00FF4ECCH   LINE      ECODE    ---       #958
      00FF4ED8H   LINE      ECODE    ---       #959
      00FF4EDDH   LINE      ECODE    ---       #960
      00FF4EDDH   LINE      ECODE    ---       #962
      00FF4F0BH   LINE      ECODE    ---       #963
      00FF4F14H   LINE      ECODE    ---       #964
      00FF4F1DH   LINE      ECODE    ---       #966
      ---         BLOCKEND  ---      ---       LVL=0

      00FF4F20H   BLOCK     ECODE    ---       LVL=0
      WR12        REGSYM    ---      WORD      x
      WR14        REGSYM    ---      WORD      y
      00FF4F2AH   BLOCK     ECODE    NEAR LAB  LVL=1
      ---         BLOCKEND  ---      ---       LVL=1
      00FF4F20H   LINE      ECODE    ---       #977
      00FF4F2AH   LINE      ECODE    ---       #978
      00FF4F2AH   LINE      ECODE    ---       #981
      00FF4F34H   LINE      ECODE    ---       #983
      00FF4F46H   LINE      ECODE    ---       #984
      00FF4F50H   LINE      ECODE    ---       #985
      00FF4F52H   LINE      ECODE    ---       #986
      00FF4F64H   LINE      ECODE    ---       #988
      00FF4F76H   LINE      ECODE    ---       #989
      00FF4F8EH   LINE      ECODE    ---       #990
      00FF4FA2H   LINE      ECODE    ---       #991
      00FF4FB4H   LINE      ECODE    ---       #992
      00FF4FC0H   LINE      ECODE    ---       #994
      00FF4FC5H   LINE      ECODE    ---       #995
      00FF4FC5H   LINE      ECODE    ---       #997
      00FF4FF3H   LINE      ECODE    ---       #998
      00FF4FFCH   LINE      ECODE    ---       #999
      00FF5005H   LINE      ECODE    ---       #1000
      ---         BLOCKEND  ---      ---       LVL=0

      00FF5008H   BLOCK     ECODE    ---       LVL=0
      WR12        REGSYM    ---      WORD      x
      WR14        REGSYM    ---      WORD      y
      WR2         REGSYM    ---      WORD      dat
      00FF500EH   BLOCK     ECODE    NEAR LAB  LVL=1
L251 LINKER/LOCATER V4.66.93.0                                                        07/23/2023  00:26:15  PAGE 74


      ---         BLOCKEND  ---      ---       LVL=1
      00FF5008H   LINE      ECODE    ---       #1011
      00FF500EH   LINE      ECODE    ---       #1012
      00FF500EH   LINE      ECODE    ---       #1016
      00FF501AH   LINE      ECODE    ---       #1017
      00FF502CH   LINE      ECODE    ---       #1018
      00FF503AH   LINE      ECODE    ---       #1019
      00FF5044H   LINE      ECODE    ---       #1020
      00FF504CH   LINE      ECODE    ---       #1022
      00FF5051H   LINE      ECODE    ---       #1023
      00FF5051H   LINE      ECODE    ---       #1025
      00FF507FH   LINE      ECODE    ---       #1026
      00FF5088H   LINE      ECODE    ---       #1027
      00FF5091H   LINE      ECODE    ---       #1028
      ---         BLOCKEND  ---      ---       LVL=0

      00FF5094H   BLOCK     ECODE    ---       LVL=0
      000002CCH   SYMBOL    EDATA    WORD      x
      WR12        REGSYM    ---      WORD      y
      000002CEH   SYMBOL    EDATA    LONG      dat
      R15         REGSYM    ---      BYTE      num
      00FF50A2H   BLOCK     ECODE    NEAR LAB  LVL=1
      000002D2H   SYMBOL    EDATA    ---       buff
      R14         REGSYM    ---      BYTE      length
      ---         BLOCKEND  ---      ---       LVL=1
      00FF5094H   LINE      ECODE    ---       #1041
      00FF50A2H   LINE      ECODE    ---       #1042
      00FF50A2H   LINE      ECODE    ---       #1046
      00FF50AAH   LINE      ECODE    ---       #1048
      00FF50ACH   LINE      ECODE    ---       #1049
      00FF50CEH   LINE      ECODE    ---       #1052
      00FF50D4H   LINE      ECODE    ---       #1053
      00FF50EEH   LINE      ECODE    ---       #1054
      00FF50F0H   LINE      ECODE    ---       #1055
      00FF50F0H   LINE      ECODE    ---       #1056
      00FF50F5H   LINE      ECODE    ---       #1058
      00FF50FBH   LINE      ECODE    ---       #1059
      00FF50FDH   LINE      ECODE    ---       #1060
      00FF5101H   LINE      ECODE    ---       #1061
      00FF5108H   LINE      ECODE    ---       #1063
      00FF5116H   LINE      ECODE    ---       #1064
      ---         BLOCKEND  ---      ---       LVL=0

      00FF5119H   BLOCK     ECODE    ---       LVL=0
      000002CCH   SYMBOL    EDATA    WORD      x
      000002CEH   SYMBOL    EDATA    WORD      y
      DR12        REGSYM    ---      FLOAT     dat
      000002D0H   SYMBOL    EDATA    BYTE      num
      000002D1H   SYMBOL    EDATA    BYTE      pointnum
      00FF5129H   BLOCK     ECODE    NEAR LAB  LVL=1
      000002D2H   SYMBOL    EDATA    BYTE      length
      000002D3H   SYMBOL    EDATA    ---       buff
      000002F5H   SYMBOL    EDATA    CHAR      start
      000002F6H   SYMBOL    EDATA    CHAR      end
      R7          REGSYM    ---      CHAR      point
      ---         BLOCKEND  ---      ---       LVL=1
      00FF5119H   LINE      ECODE    ---       #1082
      00FF5129H   LINE      ECODE    ---       #1083
      00FF5129H   LINE      ECODE    ---       #1088
      00FF5138H   LINE      ECODE    ---       #1089
      00FF5147H   LINE      ECODE    ---       #1091
      00FF516BH   LINE      ECODE    ---       #1094
      00FF5185H   LINE      ECODE    ---       #1095
      00FF518AH   LINE      ECODE    ---       #1096
      00FF518AH   LINE      ECODE    ---       #1097
L251 LINKER/LOCATER V4.66.93.0                                                        07/23/2023  00:26:15  PAGE 75


      00FF5194H   LINE      ECODE    ---       #1098
      00FF51A4H   LINE      ECODE    ---       #1099
      00FF51B4H   LINE      ECODE    ---       #1100
      00FF51B9H   LINE      ECODE    ---       #1102
      00FF51C3H   LINE      ECODE    ---       #1103
      00FF51CCH   LINE      ECODE    ---       #1104
      00FF51D5H   LINE      ECODE    ---       #1105
      00FF51DEH   LINE      ECODE    ---       #1107
      00FF51ECH   LINE      ECODE    ---       #1108
      00FF51F8H   LINE      ECODE    ---       #1110
      00FF5203H   LINE      ECODE    ---       #1112
      00FF5213H   LINE      ECODE    ---       #1113
      ---         BLOCKEND  ---      ---       LVL=0

      00FF5216H   BLOCK     ECODE    ---       LVL=0
      REG=3       REGSYM    ---      ---       p
      00FF521AH   BLOCK     ECODE    NEAR LAB  LVL=1
      ---         BLOCKEND  ---      ---       LVL=1
      00FF5216H   LINE      ECODE    ---       #1124
      00FF521AH   LINE      ECODE    ---       #1125
      00FF521AH   LINE      ECODE    ---       #1128
      00FF5222H   LINE      ECODE    ---       #1130
      00FF5228H   LINE      ECODE    ---       #1132
      00FF522EH   LINE      ECODE    ---       #1134
      00FF525AH   LINE      ECODE    ---       #1135
      00FF5260H   LINE      ECODE    ---       #1137
      00FF5271H   LINE      ECODE    ---       #1138
      00FF5279H   LINE      ECODE    ---       #1139
      00FF527DH   LINE      ECODE    ---       #1140
      00FF528DH   LINE      ECODE    ---       #1141
      00FF529DH   LINE      ECODE    ---       #1142
      00FF52B0H   LINE      ECODE    ---       #1143
      ---         BLOCKEND  ---      ---       LVL=0

      ---         MODULE    ---      ---       SEEKFREE_ABSOLUTE_ENCODER
      00FFC26DH   PUBLIC    ECODE    ---       encoder_self4_check?
      00FFC38CH   PUBLIC    ECODE    ---       encoder_self5_check?
      00FFC30DH   PUBLIC    ECODE    ---       encoder_spi_r_reg_byte?
      00FFC152H   PUBLIC    ECODE    ---       encoder_delay_us?
      00FFC2D0H   PUBLIC    ECODE    ---       encoder_spi_w_reg_byte?
      00FFC193H   PUBLIC    ECODE    ---       simspi_r_reg_byte?
      00FFC177H   PUBLIC    ECODE    ---       simspi_w_reg_byte?
      00FFC39EH   PUBLIC    ECODE    ---       encoder_init_spi?
      00FFC291H   PUBLIC    ECODE    ---       spi_wr_byte?
      00FFC222H   PUBLIC    ECODE    ---       set_zero_position_simspi?
      00FFC248H   PUBLIC    ECODE    ---       encoder_angle_simspi?
      00FFC2B2H   PUBLIC    ECODE    ---       spi_r_reg_byte?
      00FFC296H   PUBLIC    ECODE    ---       spi_w_reg_byte?
      00FFC1EEH   PUBLIC    ECODE    ---       encoder_simspi_r_reg_byte?
      00FFC1B1H   PUBLIC    ECODE    ---       encoder_simspi_w_reg_byte?
      00FFC27FH   PUBLIC    ECODE    ---       encoder_init_simspi?
      00FFC341H   PUBLIC    ECODE    ---       set_zero_position_spi?
      00FFC158H   PUBLIC    ECODE    ---       simspi_wr_byte?
      00FFC367H   PUBLIC    ECODE    ---       encoder_angle_spi?
      000000D0H   SFRSYM    DATA     BYTE      PSW
      0000009DH   SFRSYM    DATA     BYTE      IRCBAND
      00000097H   SFRSYM    DATA     BYTE      AUXR2
      000000EFH   SFRSYM    DATA     BYTE      AUXINTIF
      000000FDH   SFRSYM    DATA     BYTE      S4CON
      000000ACH   SFRSYM    DATA     BYTE      S3CON
      0000009AH   SFRSYM    DATA     BYTE      S2CON
      000000B7H   SFRSYM    DATA     BYTE      IPH
      000000CDH   SFRSYM    DATA     BYTE      SPSTAT
      000000DDH   SFRSYM    DATA     BYTE      T4T3M
      000000C1H   SFRSYM    DATA     BYTE      WDT_CONTR
L251 LINKER/LOCATER V4.66.93.0                                                        07/23/2023  00:26:15  PAGE 76


      000000DFH   SFRSYM    DATA     BYTE      IP3
      000000F4H   SFRSYM    DATA     BYTE      USBCON
      000000B5H   SFRSYM    DATA     BYTE      IP2
      000000FFH   SFRSYM    DATA     BYTE      RSTCFG
      000000F9H   SFRSYM    DATA     BYTE      LINICR
      0000008EH   SFRSYM    DATA     BYTE      AUXR
      000000AFH   SFRSYM    DATA     BYTE      IE2
      000000A0H.7 SFRSYM    DATA     BIT       P27
      000000A0H.6 SFRSYM    DATA     BIT       P26
      000000A0H.5 SFRSYM    DATA     BIT       P25
      000000A0H.4 SFRSYM    DATA     BIT       P24
      00000088H   SFRSYM    DATA     BYTE      TCON
      00000098H   SFRSYM    DATA     BYTE      SCON
      000000A0H.2 SFRSYM    DATA     BIT       P22
      000000F1H   SFRSYM    DATA     BYTE      CANICR
      00000087H   SFRSYM    DATA     BYTE      PCON
      000000BCH   SFRSYM    DATA     BYTE      ADC_CONTR
      000000E7H   SFRSYM    DATA     BYTE      CMPCR2
      000000E6H   SFRSYM    DATA     BYTE      CMPCR1
      000000B8H   SFRSYM    DATA     BYTE      IP
      0000008FH   SFRSYM    DATA     BYTE      INTCLKO
      000000EEH   SFRSYM    DATA     BYTE      IP3H
      000000B6H   SFRSYM    DATA     BYTE      IP2H
      000000A8H   SFRSYM    DATA     BYTE      IE
      000000BBH   SFRSYM    DATA     BYTE      P_SW3
      000000BAH   SFRSYM    DATA     BYTE      P_SW2
      000000A2H   SFRSYM    DATA     BYTE      P_SW1
      000000CEH   SFRSYM    DATA     BYTE      SPCTL
      000000F8H   SFRSYM    DATA     BYTE      P7
      000000E8H   SFRSYM    DATA     BYTE      P6
      000000C8H   SFRSYM    DATA     BYTE      P5
      000000C0H   SFRSYM    DATA     BYTE      P4
      000000B0H   SFRSYM    DATA     BYTE      P3
      000000A0H   SFRSYM    DATA     BYTE      P2
      00000090H   SFRSYM    DATA     BYTE      P1
      00000080H   SFRSYM    DATA     BYTE      P0

      00FFC152H   BLOCK     ECODE    ---       LVL=0
      WR6         REGSYM    ---      WORD      x
      00FFC152H   LINE      ECODE    ---       #43
      00FFC152H   LINE      ECODE    ---       #45
      ---         BLOCKEND  ---      ---       LVL=0

      00FFC158H   BLOCK     ECODE    ---       LVL=0
      R6          REGSYM    ---      BYTE      byte
      00FFC15AH   BLOCK     ECODE    NEAR LAB  LVL=1
      R7          REGSYM    ---      BYTE      i
      ---         BLOCKEND  ---      ---       LVL=1
      00FFC158H   LINE      ECODE    ---       #56
      00FFC15AH   LINE      ECODE    ---       #57
      00FFC15AH   LINE      ECODE    ---       #59
      00FFC15CH   LINE      ECODE    ---       #61
      00FFC161H   LINE      ECODE    ---       #62
      00FFC163H   LINE      ECODE    ---       #63
      00FFC165H   LINE      ECODE    ---       #65
      00FFC167H   LINE      ECODE    ---       #66
      00FFC16DH   LINE      ECODE    ---       #67
      00FFC174H   LINE      ECODE    ---       #68
      00FFC176H   LINE      ECODE    ---       #69
      ---         BLOCKEND  ---      ---       LVL=0

      00FFC177H   BLOCK     ECODE    ---       LVL=0
      R7          REGSYM    ---      BYTE      cmd
      R15         REGSYM    ---      BYTE      val
      00FFC177H   LINE      ECODE    ---       #78
L251 LINKER/LOCATER V4.66.93.0                                                        07/23/2023  00:26:15  PAGE 77


      00FFC17DH   LINE      ECODE    ---       #80
      00FFC17FH   LINE      ECODE    ---       #81
      00FFC182H   LINE      ECODE    ---       #82
      00FFC188H   LINE      ECODE    ---       #83
      00FFC18EH   LINE      ECODE    ---       #84
      00FFC190H   LINE      ECODE    ---       #85
      ---         BLOCKEND  ---      ---       LVL=0

      00FFC193H   BLOCK     ECODE    ---       LVL=0
      R7          REGSYM    ---      BYTE      cmd
      REG=3       REGSYM    ---      ---       val
      00FFC193H   LINE      ECODE    ---       #94
      00FFC199H   LINE      ECODE    ---       #96
      00FFC19BH   LINE      ECODE    ---       #97
      00FFC19EH   LINE      ECODE    ---       #98
      00FFC1A4H   LINE      ECODE    ---       #99
      00FFC1ACH   LINE      ECODE    ---       #100
      00FFC1AEH   LINE      ECODE    ---       #101
      ---         BLOCKEND  ---      ---       LVL=0

      00FFC1B1H   BLOCK     ECODE    ---       LVL=0
      R7          REGSYM    ---      BYTE      cmd
      R15         REGSYM    ---      BYTE      val
      00FFC1B7H   BLOCK     ECODE    NEAR LAB  LVL=1
      R14         REGSYM    ---      BYTE      dat
      ---         BLOCKEND  ---      ---       LVL=1
      00FFC1B1H   LINE      ECODE    ---       #112
      00FFC1B7H   LINE      ECODE    ---       #113
      00FFC1B7H   LINE      ECODE    ---       #116
      00FFC1B9H   LINE      ECODE    ---       #117
      00FFC1BCH   LINE      ECODE    ---       #118
      00FFC1C2H   LINE      ECODE    ---       #119
      00FFC1C8H   LINE      ECODE    ---       #120
      00FFC1CAH   LINE      ECODE    ---       #121
      00FFC1D2H   LINE      ECODE    ---       #122
      00FFC1D4H   LINE      ECODE    ---       #123
      00FFC1DBH   LINE      ECODE    ---       #124
      00FFC1E0H   LINE      ECODE    ---       #125
      00FFC1E2H   LINE      ECODE    ---       #127
      00FFC1EAH   LINE      ECODE    ---       #128
      00FFC1EBH   LINE      ECODE    ---       #129
      ---         BLOCKEND  ---      ---       LVL=0

      00FFC1EEH   BLOCK     ECODE    ---       LVL=0
      R7          REGSYM    ---      BYTE      cmd
      REG=3       REGSYM    ---      ---       val
      00FFC1EEH   LINE      ECODE    ---       #139
      00FFC1F4H   LINE      ECODE    ---       #141
      00FFC1F6H   LINE      ECODE    ---       #142
      00FFC1F9H   LINE      ECODE    ---       #143
      00FFC1FFH   LINE      ECODE    ---       #144
      00FFC204H   LINE      ECODE    ---       #145
      00FFC206H   LINE      ECODE    ---       #146
      00FFC20EH   LINE      ECODE    ---       #147
      00FFC210H   LINE      ECODE    ---       #148
      00FFC218H   LINE      ECODE    ---       #149
      00FFC21DH   LINE      ECODE    ---       #150
      00FFC21FH   LINE      ECODE    ---       #151
      ---         BLOCKEND  ---      ---       LVL=0

      00FFC222H   BLOCK     ECODE    ---       LVL=0
      WR14        REGSYM    ---      WORD      zero_position
      00FFC222H   LINE      ECODE    ---       #160
      00FFC226H   LINE      ECODE    ---       #162
      00FFC22EH   LINE      ECODE    ---       #163
L251 LINKER/LOCATER V4.66.93.0                                                        07/23/2023  00:26:15  PAGE 78


      00FFC236H   LINE      ECODE    ---       #164
      00FFC23DH   LINE      ECODE    ---       #165
      00FFC245H   LINE      ECODE    ---       #166
      ---         BLOCKEND  ---      ---       LVL=0

      00FFC248H   BLOCK     ECODE    ---       LVL=0
      00FFC24AH   BLOCK     ECODE    NEAR LAB  LVL=1
      WR14        REGSYM    ---      WORD      angle
      ---         BLOCKEND  ---      ---       LVL=1
      00FFC248H   LINE      ECODE    ---       #175
      00FFC24AH   LINE      ECODE    ---       #176
      00FFC24AH   LINE      ECODE    ---       #179
      00FFC24CH   LINE      ECODE    ---       #180
      00FFC251H   LINE      ECODE    ---       #181
      00FFC255H   LINE      ECODE    ---       #182
      00FFC25EH   LINE      ECODE    ---       #183
      00FFC260H   LINE      ECODE    ---       #185
      00FFC26AH   LINE      ECODE    ---       #186
      ---         BLOCKEND  ---      ---       LVL=0

      00FFC26DH   BLOCK     ECODE    ---       LVL=0
      0000088DH   SYMBOL    EDATA    BYTE      val
      00FFC26DH   LINE      ECODE    ---       #197
      00FFC26DH   LINE      ECODE    ---       #198
      00FFC26DH   LINE      ECODE    ---       #200
      00FFC26DH   LINE      ECODE    ---       #202
      00FFC277H   LINE      ECODE    ---       #207
      00FFC27EH   LINE      ECODE    ---       #208
      ---         BLOCKEND  ---      ---       LVL=0

      00FFC27FH   BLOCK     ECODE    ---       LVL=0
      00FFC27FH   LINE      ECODE    ---       #217
      00FFC27FH   LINE      ECODE    ---       #219
      00FFC283H   LINE      ECODE    ---       #221
      00FFC28BH   LINE      ECODE    ---       #223
      ---         BLOCKEND  ---      ---       LVL=0

      00FFC291H   BLOCK     ECODE    ---       LVL=0
      R10         REGSYM    ---      BYTE      byte
      00FFC291H   LINE      ECODE    ---       #243
      00FFC291H   LINE      ECODE    ---       #245
      00FFC295H   LINE      ECODE    ---       #246
      00FFC295H   LINE      ECODE    ---       #247
      ---         BLOCKEND  ---      ---       LVL=0

      00FFC296H   BLOCK     ECODE    ---       LVL=0
      R7          REGSYM    ---      BYTE      cmd
      R15         REGSYM    ---      BYTE      val
      00FFC296H   LINE      ECODE    ---       #256
      00FFC29CH   LINE      ECODE    ---       #258
      00FFC29EH   LINE      ECODE    ---       #259
      00FFC2A1H   LINE      ECODE    ---       #260
      00FFC2A7H   LINE      ECODE    ---       #261
      00FFC2ADH   LINE      ECODE    ---       #262
      00FFC2AFH   LINE      ECODE    ---       #263
      ---         BLOCKEND  ---      ---       LVL=0

      00FFC2B2H   BLOCK     ECODE    ---       LVL=0
      R7          REGSYM    ---      BYTE      cmd
      REG=3       REGSYM    ---      ---       val
      00FFC2B2H   LINE      ECODE    ---       #272
      00FFC2B8H   LINE      ECODE    ---       #274
      00FFC2BAH   LINE      ECODE    ---       #275
      00FFC2BDH   LINE      ECODE    ---       #276
      00FFC2C3H   LINE      ECODE    ---       #277
L251 LINKER/LOCATER V4.66.93.0                                                        07/23/2023  00:26:15  PAGE 79


      00FFC2CBH   LINE      ECODE    ---       #278
      00FFC2CDH   LINE      ECODE    ---       #279
      ---         BLOCKEND  ---      ---       LVL=0

      00FFC2D0H   BLOCK     ECODE    ---       LVL=0
      R7          REGSYM    ---      BYTE      cmd
      R15         REGSYM    ---      BYTE      val
      00FFC2D6H   BLOCK     ECODE    NEAR LAB  LVL=1
      R14         REGSYM    ---      BYTE      dat
      ---         BLOCKEND  ---      ---       LVL=1
      00FFC2D0H   LINE      ECODE    ---       #290
      00FFC2D6H   LINE      ECODE    ---       #291
      00FFC2D6H   LINE      ECODE    ---       #293
      00FFC2D8H   LINE      ECODE    ---       #294
      00FFC2DBH   LINE      ECODE    ---       #295
      00FFC2E1H   LINE      ECODE    ---       #296
      00FFC2E7H   LINE      ECODE    ---       #297
      00FFC2E9H   LINE      ECODE    ---       #298
      00FFC2F1H   LINE      ECODE    ---       #299
      00FFC2F3H   LINE      ECODE    ---       #300
      00FFC2FAH   LINE      ECODE    ---       #301
      00FFC2FFH   LINE      ECODE    ---       #302
      00FFC301H   LINE      ECODE    ---       #304
      00FFC309H   LINE      ECODE    ---       #305
      00FFC30AH   LINE      ECODE    ---       #306
      ---         BLOCKEND  ---      ---       LVL=0

      00FFC30DH   BLOCK     ECODE    ---       LVL=0
      R7          REGSYM    ---      BYTE      cmd
      REG=3       REGSYM    ---      ---       val
      00FFC30DH   LINE      ECODE    ---       #316
      00FFC313H   LINE      ECODE    ---       #318
      00FFC315H   LINE      ECODE    ---       #319
      00FFC318H   LINE      ECODE    ---       #320
      00FFC31EH   LINE      ECODE    ---       #321
      00FFC323H   LINE      ECODE    ---       #323
      00FFC325H   LINE      ECODE    ---       #324
      00FFC32DH   LINE      ECODE    ---       #325
      00FFC32FH   LINE      ECODE    ---       #326
      00FFC337H   LINE      ECODE    ---       #327
      00FFC33CH   LINE      ECODE    ---       #328
      00FFC33EH   LINE      ECODE    ---       #329
      ---         BLOCKEND  ---      ---       LVL=0

      00FFC341H   BLOCK     ECODE    ---       LVL=0
      WR14        REGSYM    ---      WORD      zero_position
      00FFC341H   LINE      ECODE    ---       #338
      00FFC345H   LINE      ECODE    ---       #340
      00FFC34DH   LINE      ECODE    ---       #341
      00FFC355H   LINE      ECODE    ---       #342
      00FFC35CH   LINE      ECODE    ---       #343
      00FFC364H   LINE      ECODE    ---       #344
      ---         BLOCKEND  ---      ---       LVL=0

      00FFC367H   BLOCK     ECODE    ---       LVL=0
      00FFC369H   BLOCK     ECODE    NEAR LAB  LVL=1
      WR14        REGSYM    ---      WORD      angle
      ---         BLOCKEND  ---      ---       LVL=1
      00FFC367H   LINE      ECODE    ---       #353
      00FFC369H   LINE      ECODE    ---       #354
      00FFC369H   LINE      ECODE    ---       #356
      00FFC36BH   LINE      ECODE    ---       #357
      00FFC370H   LINE      ECODE    ---       #358
      00FFC374H   LINE      ECODE    ---       #359
      00FFC37DH   LINE      ECODE    ---       #360
L251 LINKER/LOCATER V4.66.93.0                                                        07/23/2023  00:26:15  PAGE 80


      00FFC37FH   LINE      ECODE    ---       #362
      00FFC389H   LINE      ECODE    ---       #363
      ---         BLOCKEND  ---      ---       LVL=0

      00FFC38CH   BLOCK     ECODE    ---       LVL=0
      0000088EH   SYMBOL    EDATA    BYTE      val
      00FFC38CH   LINE      ECODE    ---       #373
      00FFC38CH   LINE      ECODE    ---       #374
      00FFC38CH   LINE      ECODE    ---       #376
      00FFC38CH   LINE      ECODE    ---       #378
      00FFC396H   LINE      ECODE    ---       #382
      00FFC39DH   LINE      ECODE    ---       #383
      ---         BLOCKEND  ---      ---       LVL=0

      00FFC39EH   BLOCK     ECODE    ---       LVL=0
      00FFC39EH   LINE      ECODE    ---       #392
      00FFC39EH   LINE      ECODE    ---       #394
      00FFC3B9H   LINE      ECODE    ---       #396
      00FFC3BDH   LINE      ECODE    ---       #397
      00FFC3C5H   LINE      ECODE    ---       #398
      ---         BLOCKEND  ---      ---       LVL=0

      ---         MODULE    ---      ---       SEEKFREE_AT24C02
      00FFCE6DH   PUBLIC    ECODE    ---       at24c02_read_bytes?
      00FFCDFBH   PUBLIC    ECODE    ---       at24c02_read_byte?
      00FFCE11H   PUBLIC    ECODE    ---       at24c02_write_bytes?
      00FFCDE1H   PUBLIC    ECODE    ---       at24c02_write_byte?
      000000D0H   SFRSYM    DATA     BYTE      PSW
      0000009DH   SFRSYM    DATA     BYTE      IRCBAND
      00000097H   SFRSYM    DATA     BYTE      AUXR2
      000000EFH   SFRSYM    DATA     BYTE      AUXINTIF
      000000FDH   SFRSYM    DATA     BYTE      S4CON
      000000ACH   SFRSYM    DATA     BYTE      S3CON
      0000009AH   SFRSYM    DATA     BYTE      S2CON
      000000B7H   SFRSYM    DATA     BYTE      IPH
      000000CDH   SFRSYM    DATA     BYTE      SPSTAT
      000000DDH   SFRSYM    DATA     BYTE      T4T3M
      000000C1H   SFRSYM    DATA     BYTE      WDT_CONTR
      000000DFH   SFRSYM    DATA     BYTE      IP3
      000000F4H   SFRSYM    DATA     BYTE      USBCON
      000000B5H   SFRSYM    DATA     BYTE      IP2
      000000FFH   SFRSYM    DATA     BYTE      RSTCFG
      000000F9H   SFRSYM    DATA     BYTE      LINICR
      0000008EH   SFRSYM    DATA     BYTE      AUXR
      000000AFH   SFRSYM    DATA     BYTE      IE2
      00000088H   SFRSYM    DATA     BYTE      TCON
      000000A0H.3 SFRSYM    DATA     BIT       P23
      00000098H   SFRSYM    DATA     BYTE      SCON
      000000A0H.2 SFRSYM    DATA     BIT       P22
      000000F1H   SFRSYM    DATA     BYTE      CANICR
      00000087H   SFRSYM    DATA     BYTE      PCON
      000000BCH   SFRSYM    DATA     BYTE      ADC_CONTR
      000000E7H   SFRSYM    DATA     BYTE      CMPCR2
      000000E6H   SFRSYM    DATA     BYTE      CMPCR1
      000000B8H   SFRSYM    DATA     BYTE      IP
      0000008FH   SFRSYM    DATA     BYTE      INTCLKO
      000000EEH   SFRSYM    DATA     BYTE      IP3H
      000000B6H   SFRSYM    DATA     BYTE      IP2H
      000000A8H   SFRSYM    DATA     BYTE      IE
      000000BBH   SFRSYM    DATA     BYTE      P_SW3
      000000BAH   SFRSYM    DATA     BYTE      P_SW2
      000000A2H   SFRSYM    DATA     BYTE      P_SW1
      000000CEH   SFRSYM    DATA     BYTE      SPCTL
      000000F8H   SFRSYM    DATA     BYTE      P7
      000000E8H   SFRSYM    DATA     BYTE      P6
L251 LINKER/LOCATER V4.66.93.0                                                        07/23/2023  00:26:15  PAGE 81


      000000C8H   SFRSYM    DATA     BYTE      P5
      000000C0H   SFRSYM    DATA     BYTE      P4
      000000B0H   SFRSYM    DATA     BYTE      P3
      000000A0H   SFRSYM    DATA     BYTE      P2
      00000090H   SFRSYM    DATA     BYTE      P1
      00000080H   SFRSYM    DATA     BYTE      P0
      00FFCDB8H   SYMBOL    ECODE    ---       at24c02_simiic_read_reg
      00FFCCE0H   SYMBOL    ECODE    ---       at24c02_simiic_stop
      00FFCD96H   SYMBOL    ECODE    ---       at24c02_simiic_write_reg
      00FFCCF1H   SYMBOL    ECODE    ---       at24c02_simiic_sendack
      00FFCD5BH   SYMBOL    ECODE    ---       at24c02_read_ch
      00FFCD2DH   SYMBOL    ECODE    ---       at24c02_send_ch
      00FFCD11H   SYMBOL    ECODE    ---       at24c02_sccb_waitack
      00FFCCC4H   SYMBOL    ECODE    ---       at24c02_simiic_delay
      00FFCCD1H   SYMBOL    ECODE    ---       at24c02_simiic_start

      00FFCCC4H   BLOCK     ECODE    ---       LVL=0
      WR6         REGSYM    ---      WORD      j
      00FFCCC4H   LINE      ECODE    ---       #45
      00FFCCC4H   LINE      ECODE    ---       #46
      00FFCCC4H   LINE      ECODE    ---       #47
      00FFCCC8H   LINE      ECODE    ---       #48
      00FFCCD0H   LINE      ECODE    ---       #49
      ---         BLOCKEND  ---      ---       LVL=0

      00FFCCD1H   BLOCK     ECODE    ---       LVL=0
      00FFCCD1H   LINE      ECODE    ---       #52
      00FFCCD1H   LINE      ECODE    ---       #54
      00FFCCD3H   LINE      ECODE    ---       #55
      00FFCCD5H   LINE      ECODE    ---       #56
      00FFCCD8H   LINE      ECODE    ---       #57
      00FFCCDAH   LINE      ECODE    ---       #58
      00FFCCDDH   LINE      ECODE    ---       #59
      00FFCCDFH   LINE      ECODE    ---       #60
      ---         BLOCKEND  ---      ---       LVL=0

      00FFCCE0H   BLOCK     ECODE    ---       LVL=0
      00FFCCE0H   LINE      ECODE    ---       #63
      00FFCCE0H   LINE      ECODE    ---       #65
      00FFCCE2H   LINE      ECODE    ---       #66
      00FFCCE4H   LINE      ECODE    ---       #67
      00FFCCE7H   LINE      ECODE    ---       #68
      00FFCCE9H   LINE      ECODE    ---       #69
      00FFCCECH   LINE      ECODE    ---       #70
      00FFCCEEH   LINE      ECODE    ---       #71
      ---         BLOCKEND  ---      ---       LVL=0

      00FFCCF1H   BLOCK     ECODE    ---       LVL=0
      R15         REGSYM    ---      BYTE      ack_dat
      00FFCCF1H   LINE      ECODE    ---       #76
      00FFCCF5H   LINE      ECODE    ---       #78
      00FFCCF7H   LINE      ECODE    ---       #79
      00FFCCFAH   LINE      ECODE    ---       #80
      00FFCD02H   LINE      ECODE    ---       #81
      00FFCD04H   LINE      ECODE    ---       #83
      00FFCD06H   LINE      ECODE    ---       #84
      00FFCD09H   LINE      ECODE    ---       #85
      00FFCD0BH   LINE      ECODE    ---       #86
      00FFCD0EH   LINE      ECODE    ---       #87
      ---         BLOCKEND  ---      ---       LVL=0

      00FFCD11H   BLOCK     ECODE    ---       LVL=0
      00FFCD11H   LINE      ECODE    ---       #90
      00FFCD11H   LINE      ECODE    ---       #92
      00FFCD13H   LINE      ECODE    ---       #94
L251 LINKER/LOCATER V4.66.93.0                                                        07/23/2023  00:26:15  PAGE 82


      00FFCD16H   LINE      ECODE    ---       #96
      00FFCD18H   LINE      ECODE    ---       #97
      00FFCD1BH   LINE      ECODE    ---       #99
      00FFCD1EH   LINE      ECODE    ---       #102
      00FFCD20H   LINE      ECODE    ---       #103
      00FFCD23H   LINE      ECODE    ---       #104
      00FFCD23H   LINE      ECODE    ---       #106
      00FFCD25H   LINE      ECODE    ---       #107
      00FFCD28H   LINE      ECODE    ---       #108
      00FFCD2CH   LINE      ECODE    ---       #109
      ---         BLOCKEND  ---      ---       LVL=0

      00FFCD2DH   BLOCK     ECODE    ---       LVL=0
      R15         REGSYM    ---      BYTE      c
      00FFCD31H   BLOCK     ECODE    NEAR LAB  LVL=1
      R14         REGSYM    ---      BYTE      i
      ---         BLOCKEND  ---      ---       LVL=1
      00FFCD2DH   LINE      ECODE    ---       #115
      00FFCD31H   LINE      ECODE    ---       #116
      00FFCD31H   LINE      ECODE    ---       #117
      00FFCD34H   LINE      ECODE    ---       #118
      00FFCD36H   LINE      ECODE    ---       #120
      00FFCD3FH   LINE      ECODE    ---       #121
      00FFCD41H   LINE      ECODE    ---       #122
      00FFCD43H   LINE      ECODE    ---       #123
      00FFCD46H   LINE      ECODE    ---       #124
      00FFCD48H   LINE      ECODE    ---       #125
      00FFCD4BH   LINE      ECODE    ---       #126
      00FFCD4DH   LINE      ECODE    ---       #127
      00FFCD55H   LINE      ECODE    ---       #128
      00FFCD58H   LINE      ECODE    ---       #129
      ---         BLOCKEND  ---      ---       LVL=0

      00FFCD5BH   BLOCK     ECODE    ---       LVL=0
      R15         REGSYM    ---      BYTE      ack_x
      00FFCD61H   BLOCK     ECODE    NEAR LAB  LVL=1
      R13         REGSYM    ---      BYTE      i
      R14         REGSYM    ---      BYTE      c
      ---         BLOCKEND  ---      ---       LVL=1
      00FFCD5BH   LINE      ECODE    ---       #135
      00FFCD61H   LINE      ECODE    ---       #136
      00FFCD61H   LINE      ECODE    ---       #139
      00FFCD63H   LINE      ECODE    ---       #140
      00FFCD65H   LINE      ECODE    ---       #141
      00FFCD68H   LINE      ECODE    ---       #142
      00FFCD6AH   LINE      ECODE    ---       #144
      00FFCD6DH   LINE      ECODE    ---       #146
      00FFCD70H   LINE      ECODE    ---       #147
      00FFCD72H   LINE      ECODE    ---       #148
      00FFCD75H   LINE      ECODE    ---       #149
      00FFCD77H   LINE      ECODE    ---       #150
      00FFCD7AH   LINE      ECODE    ---       #151
      00FFCD7CH   LINE      ECODE    ---       #152
      00FFCD7FH   LINE      ECODE    ---       #154
      00FFCD81H   LINE      ECODE    ---       #155
      00FFCD85H   LINE      ECODE    ---       #158
      00FFCD87H   LINE      ECODE    ---       #159
      00FFCD8AH   LINE      ECODE    ---       #160
      00FFCD8FH   LINE      ECODE    ---       #162
      00FFCD91H   LINE      ECODE    ---       #163
      ---         BLOCKEND  ---      ---       LVL=0

      00FFCD96H   BLOCK     ECODE    ---       LVL=0
      R13         REGSYM    ---      BYTE      dev_add
      R14         REGSYM    ---      BYTE      reg
L251 LINKER/LOCATER V4.66.93.0                                                        07/23/2023  00:26:15  PAGE 83


      R15         REGSYM    ---      BYTE      dat
      00FFCD96H   LINE      ECODE    ---       #175
      00FFCD9EH   LINE      ECODE    ---       #177
      00FFCDA1H   LINE      ECODE    ---       #178
      00FFCDA6H   LINE      ECODE    ---       #179
      00FFCDABH   LINE      ECODE    ---       #180
      00FFCDB0H   LINE      ECODE    ---       #181
      00FFCDB3H   LINE      ECODE    ---       #182
      ---         BLOCKEND  ---      ---       LVL=0

      00FFCDB8H   BLOCK     ECODE    ---       LVL=0
      R15         REGSYM    ---      BYTE      dev_add
      R14         REGSYM    ---      BYTE      reg
      00FFCDBEH   BLOCK     ECODE    NEAR LAB  LVL=1
      R15         REGSYM    ---      BYTE      dat
      ---         BLOCKEND  ---      ---       LVL=1
      00FFCDB8H   LINE      ECODE    ---       #217
      00FFCDBEH   LINE      ECODE    ---       #218
      00FFCDBEH   LINE      ECODE    ---       #220
      00FFCDC1H   LINE      ECODE    ---       #221
      00FFCDC6H   LINE      ECODE    ---       #222
      00FFCDCBH   LINE      ECODE    ---       #224
      00FFCDCEH   LINE      ECODE    ---       #225
      00FFCDD7H   LINE      ECODE    ---       #226
      00FFCDDBH   LINE      ECODE    ---       #227
      00FFCDDEH   LINE      ECODE    ---       #229
      00FFCDDEH   LINE      ECODE    ---       #230
      ---         BLOCKEND  ---      ---       LVL=0

      00FFCDE1H   BLOCK     ECODE    ---       LVL=0
      R14         REGSYM    ---      BYTE      byte_reg
      R15         REGSYM    ---      BYTE      dat
      00FFCDE1H   LINE      ECODE    ---       #271
      00FFCDE7H   LINE      ECODE    ---       #273
      00FFCDEFH   LINE      ECODE    ---       #274
      00FFCDF8H   LINE      ECODE    ---       #275
      ---         BLOCKEND  ---      ---       LVL=0

      00FFCDFBH   BLOCK     ECODE    ---       LVL=0
      R15         REGSYM    ---      BYTE      byte_reg
      00FFCDFBH   LINE      ECODE    ---       #285
      00FFCDFFH   LINE      ECODE    ---       #287
      00FFCE07H   LINE      ECODE    ---       #288
      00FFCE0EH   LINE      ECODE    ---       #289
      ---         BLOCKEND  ---      ---       LVL=0

      00FFCE11H   BLOCK     ECODE    ---       LVL=0
      REG=3       REGSYM    ---      ---       dat_add
      00FFCE11H   LINE      ECODE    ---       #301
      00FFCE1DH   LINE      ECODE    ---       #303
      00FFCE1DH   LINE      ECODE    ---       #304
      00FFCE1DH   LINE      ECODE    ---       #305
      00FFCE1DH   LINE      ECODE    ---       #306
      00FFCE1DH   LINE      ECODE    ---       #308
      00FFCE1FH   LINE      ECODE    ---       #310
      00FFCE27H   LINE      ECODE    ---       #311
      00FFCE30H   LINE      ECODE    ---       #312
      00FFCE3CH   LINE      ECODE    ---       #314
      00FFCE3FH   LINE      ECODE    ---       #315
      00FFCE47H   LINE      ECODE    ---       #316
      00FFCE4AH   LINE      ECODE    ---       #317
      00FFCE4FH   LINE      ECODE    ---       #318
      00FFCE56H   LINE      ECODE    ---       #319
      00FFCE61H   LINE      ECODE    ---       #321
      00FFCE67H   LINE      ECODE    ---       #322
L251 LINKER/LOCATER V4.66.93.0                                                        07/23/2023  00:26:15  PAGE 84


      00FFCE6AH   LINE      ECODE    ---       #323
      ---         BLOCKEND  ---      ---       LVL=0

      00FFCE6DH   BLOCK     ECODE    ---       LVL=0
      REG=3       REGSYM    ---      ---       dat_add
      00FFCE6DH   LINE      ECODE    ---       #335
      00FFCE79H   LINE      ECODE    ---       #337
      00FFCE81H   LINE      ECODE    ---       #338
      00FFCE84H   LINE      ECODE    ---       #339
      00FFCE89H   LINE      ECODE    ---       #340
      00FFCE90H   LINE      ECODE    ---       #341
      00FFCE98H   LINE      ECODE    ---       #342
      00FFCE9BH   LINE      ECODE    ---       #343
      00FFCEA0H   LINE      ECODE    ---       #344
      00FFCEA2H   LINE      ECODE    ---       #346
      00FFCEACH   LINE      ECODE    ---       #347
      00FFCEB5H   LINE      ECODE    ---       #348
      00FFCEC0H   LINE      ECODE    ---       #349
      00FFCEC7H   LINE      ECODE    ---       #350
      00FFCECAH   LINE      ECODE    ---       #351
      ---         BLOCKEND  ---      ---       LVL=0

      ---         MODULE    ---      ---       SEEKFREE_BLUETOOTH_CH9141
      00FFD535H   PUBLIC    ECODE    ---       bluetooth_ch9141_uart_callback?
      00FFD63CH   PUBLIC    ECODE    ---       bluetooth_ch9141_read_buff?
      00FFD58DH   PUBLIC    ECODE    ---       bluetooth_ch9141_send_buff?
      00FFD54FH   PUBLIC    ECODE    ---       bluetooth_ch9141_init?
      000000D0H   SFRSYM    DATA     BYTE      PSW
      0000009DH   SFRSYM    DATA     BYTE      IRCBAND
      00000097H   SFRSYM    DATA     BYTE      AUXR2
      000000EFH   SFRSYM    DATA     BYTE      AUXINTIF
      000000FDH   SFRSYM    DATA     BYTE      S4CON
      000000ACH   SFRSYM    DATA     BYTE      S3CON
      0000009AH   SFRSYM    DATA     BYTE      S2CON
      000000FEH   SFRSYM    DATA     BYTE      S4BUF
      000000B7H   SFRSYM    DATA     BYTE      IPH
      000000CDH   SFRSYM    DATA     BYTE      SPSTAT
      000000DDH   SFRSYM    DATA     BYTE      T4T3M
      000000C1H   SFRSYM    DATA     BYTE      WDT_CONTR
      000000DFH   SFRSYM    DATA     BYTE      IP3
      000000F4H   SFRSYM    DATA     BYTE      USBCON
      000000B5H   SFRSYM    DATA     BYTE      IP2
      000000FFH   SFRSYM    DATA     BYTE      RSTCFG
      000000F9H   SFRSYM    DATA     BYTE      LINICR
      0000008EH   SFRSYM    DATA     BYTE      AUXR
      000000AFH   SFRSYM    DATA     BYTE      IE2
      00000080H.7 SFRSYM    DATA     BIT       P07
      00000088H   SFRSYM    DATA     BYTE      TCON
      00000098H   SFRSYM    DATA     BYTE      SCON
      000000F1H   SFRSYM    DATA     BYTE      CANICR
      00000087H   SFRSYM    DATA     BYTE      PCON
      000000BCH   SFRSYM    DATA     BYTE      ADC_CONTR
      000000E7H   SFRSYM    DATA     BYTE      CMPCR2
      000000E6H   SFRSYM    DATA     BYTE      CMPCR1
      000000B8H   SFRSYM    DATA     BYTE      IP
      0000008FH   SFRSYM    DATA     BYTE      INTCLKO
      000000EEH   SFRSYM    DATA     BYTE      IP3H
      000000B6H   SFRSYM    DATA     BYTE      IP2H
      000000A8H   SFRSYM    DATA     BYTE      IE
      000000BBH   SFRSYM    DATA     BYTE      P_SW3
      000000BAH   SFRSYM    DATA     BYTE      P_SW2
      000000A2H   SFRSYM    DATA     BYTE      P_SW1
      000000CEH   SFRSYM    DATA     BYTE      SPCTL
      000000F8H   SFRSYM    DATA     BYTE      P7
      000000E8H   SFRSYM    DATA     BYTE      P6
L251 LINKER/LOCATER V4.66.93.0                                                        07/23/2023  00:26:15  PAGE 85


      000000C8H   SFRSYM    DATA     BYTE      P5
      000000C0H   SFRSYM    DATA     BYTE      P4
      000000B0H   SFRSYM    DATA     BYTE      P3
      000000A0H   SFRSYM    DATA     BYTE      P2
      00000090H   SFRSYM    DATA     BYTE      P1
      00000080H   SFRSYM    DATA     BYTE      P0
      00000669H   SYMBOL    EDATA    ---       bluetooth_ch9141_buffer
      000006A9H   SYMBOL    EDATA    BYTE      bluetooth_ch9141_data
      000006AAH   SYMBOL    EDATA    ---       bluetooth_ch9141_fifo

      00FFD535H   BLOCK     ECODE    ---       LVL=0
      00FFD535H   LINE      ECODE    ---       #67
      00FFD535H   LINE      ECODE    ---       #70
      00FFD53BH   LINE      ECODE    ---       #71
      ---         BLOCKEND  ---      ---       LVL=0

      00FFD54FH   BLOCK     ECODE    ---       LVL=0
      00FFD54FH   LINE      ECODE    ---       #80
      00FFD54FH   LINE      ECODE    ---       #82
      00FFD557H   LINE      ECODE    ---       #84
      00FFD56BH   LINE      ECODE    ---       #85
      00FFD58BH   LINE      ECODE    ---       #86
      00FFD58CH   LINE      ECODE    ---       #87
      ---         BLOCKEND  ---      ---       LVL=0

      00FFD58DH   BLOCK     ECODE    ---       LVL=0
      DR12        REGSYM    ---      DWORD     len
      00FFD595H   BLOCK     ECODE    NEAR LAB  LVL=1
      ---         BLOCKEND  ---      ---       LVL=1
      00FFD58DH   LINE      ECODE    ---       #98
      00FFD595H   LINE      ECODE    ---       #99
      00FFD595H   LINE      ECODE    ---       #100
      00FFD59BH   LINE      ECODE    ---       #101
      00FFD59DH   LINE      ECODE    ---       #103
      00FFD5A3H   LINE      ECODE    ---       #104
      00FFD5C2H   LINE      ECODE    ---       #106
      00FFD5CCH   LINE      ECODE    ---       #107
      00FFD5D0H   LINE      ECODE    ---       #108
      00FFD5E0H   LINE      ECODE    ---       #110
      00FFD5ECH   LINE      ECODE    ---       #111
      00FFD5F0H   LINE      ECODE    ---       #112
      00FFD5F6H   LINE      ECODE    ---       #114
      00FFD5FCH   LINE      ECODE    ---       #115
      00FFD61BH   LINE      ECODE    ---       #117
      00FFD625H   LINE      ECODE    ---       #118
      00FFD629H   LINE      ECODE    ---       #119
      00FFD637H   LINE      ECODE    ---       #121
      00FFD639H   LINE      ECODE    ---       #122
      ---         BLOCKEND  ---      ---       LVL=0

      00FFD63CH   BLOCK     ECODE    ---       LVL=0
      REG=7       REGSYM    ---      ---       buff
      DR8         REGSYM    ---      DWORD     len
      00FFD63EH   BLOCK     ECODE    NEAR LAB  LVL=1
      ---         BLOCKEND  ---      ---       LVL=1
      00FFD63CH   LINE      ECODE    ---       #131
      00FFD63EH   LINE      ECODE    ---       #132
      00FFD63EH   LINE      ECODE    ---       #133
      00FFD642H   LINE      ECODE    ---       #134
      00FFD65AH   LINE      ECODE    ---       #135
      00FFD65EH   LINE      ECODE    ---       #136
      ---         BLOCKEND  ---      ---       LVL=0

      ---         MODULE    ---      ---       SEEKFREE_DL1A
      00FF69ACH   PUBLIC    ECODE    ---       dl1a_get_distance?
L251 LINKER/LOCATER V4.66.93.0                                                        07/23/2023  00:26:15  PAGE 86


      00FF6A09H   PUBLIC    ECODE    ---       dl1a_init?
      00000881H   PUBLIC    EDATA    WORD      dl1a_distance_mm
      00000883H   PUBLIC    EDATA    BYTE      dl1a_finsh_flag
      000000D0H   SFRSYM    DATA     BYTE      PSW
      0000009DH   SFRSYM    DATA     BYTE      IRCBAND
      00000097H   SFRSYM    DATA     BYTE      AUXR2
      000000EFH   SFRSYM    DATA     BYTE      AUXINTIF
      000000FDH   SFRSYM    DATA     BYTE      S4CON
      000000ACH   SFRSYM    DATA     BYTE      S3CON
      0000009AH   SFRSYM    DATA     BYTE      S2CON
      000000B7H   SFRSYM    DATA     BYTE      IPH
      000000CDH   SFRSYM    DATA     BYTE      SPSTAT
      000000DDH   SFRSYM    DATA     BYTE      T4T3M
      000000C1H   SFRSYM    DATA     BYTE      WDT_CONTR
      000000DFH   SFRSYM    DATA     BYTE      IP3
      000000F4H   SFRSYM    DATA     BYTE      USBCON
      000000B5H   SFRSYM    DATA     BYTE      IP2
      000000FFH   SFRSYM    DATA     BYTE      RSTCFG
      000000F9H   SFRSYM    DATA     BYTE      LINICR
      0000008EH   SFRSYM    DATA     BYTE      AUXR
      000000AFH   SFRSYM    DATA     BYTE      IE2
      000000C0H.7 SFRSYM    DATA     BIT       P47
      000000E8H.5 SFRSYM    DATA     BIT       P65
      000000E8H.3 SFRSYM    DATA     BIT       P63
      00000088H   SFRSYM    DATA     BYTE      TCON
      00000098H   SFRSYM    DATA     BYTE      SCON
      000000F1H   SFRSYM    DATA     BYTE      CANICR
      00000087H   SFRSYM    DATA     BYTE      PCON
      000000BCH   SFRSYM    DATA     BYTE      ADC_CONTR
      000000E7H   SFRSYM    DATA     BYTE      CMPCR2
      000000E6H   SFRSYM    DATA     BYTE      CMPCR1
      000000B8H   SFRSYM    DATA     BYTE      IP
      0000008FH   SFRSYM    DATA     BYTE      INTCLKO
      000000EEH   SFRSYM    DATA     BYTE      IP3H
      000000B6H   SFRSYM    DATA     BYTE      IP2H
      000000A8H   SFRSYM    DATA     BYTE      IE
      000000BBH   SFRSYM    DATA     BYTE      P_SW3
      000000BAH   SFRSYM    DATA     BYTE      P_SW2
      000000A2H   SFRSYM    DATA     BYTE      P_SW1
      000000CEH   SFRSYM    DATA     BYTE      SPCTL
      000000F8H   SFRSYM    DATA     BYTE      P7
      000000E8H   SFRSYM    DATA     BYTE      P6
      000000C8H   SFRSYM    DATA     BYTE      P5
      000000C0H   SFRSYM    DATA     BYTE      P4
      000000B0H   SFRSYM    DATA     BYTE      P3
      000000A0H   SFRSYM    DATA     BYTE      P2
      00000090H   SFRSYM    DATA     BYTE      P1
      00000080H   SFRSYM    DATA     BYTE      P0
      00FF6222H   SYMBOL    ECODE    ---       dl1a_simiic_sendack
      00FF65AFH   SYMBOL    ECODE    ---       dl1a_timeout_microseconds_to_mclks
      00FF656BH   SYMBOL    ECODE    ---       dl1a_timeout_mclks_to_microseconds
      00FF6983H   SYMBOL    ECODE    ---       dl1a_set_signal_rate_limit
      00FF628CH   SYMBOL    ECODE    ---       dl1a_read_ch
      00FF65F1H   SYMBOL    ECODE    ---       dl1a_decode_timeout
      00FF625EH   SYMBOL    ECODE    ---       dl1a_send_ch
      00FF63EFH   SYMBOL    ECODE    ---       dl1a_get_spad_info
      00FF6601H   SYMBOL    ECODE    ---       dl1a_encode_timeout
      00FF6635H   SYMBOL    ECODE    ---       dl1a_get_sequence_step_enables
      00FF6242H   SYMBOL    ECODE    ---       dl1a_sccb_waitack
      00FF61F5H   SYMBOL    ECODE    ---       dl1a_simiic_delay
      00FF67B5H   SYMBOL    ECODE    ---       dl1a_perform_single_ref_calibration
      00FF66DAH   SYMBOL    ECODE    ---       dl1a_get_sequence_step_timeouts
      00FF6202H   SYMBOL    ECODE    ---       dl1a_simiic_start
      00FF6347H   SYMBOL    ECODE    ---       dl1a_simiic_read_regs
      00FF6910H   SYMBOL    ECODE    ---       dl1a_get_measurement_timing_budget
L251 LINKER/LOCATER V4.66.93.0                                                        07/23/2023  00:26:15  PAGE 87


      00FF62C7H   SYMBOL    ECODE    ---       dl1a_simiic_write_dats
      00FF631EH   SYMBOL    ECODE    ---       dl1a_simiic_read_reg
      00FF639BH   SYMBOL    ECODE    ---       dl1a_simiic_read_regs_1
      00FF682CH   SYMBOL    ECODE    ---       dl1a_set_measurement_timing_budget
      00FF6211H   SYMBOL    ECODE    ---       dl1a_simiic_stop
      00FF62FCH   SYMBOL    ECODE    ---       dl1a_simiic_write_reg
      00FF668DH   SYMBOL    ECODE    ---       dl1a_get_vcsel_pulse_period

      00FF61F5H   BLOCK     ECODE    ---       LVL=0
      WR6         REGSYM    ---      WORD      j
      00FF61F5H   LINE      ECODE    ---       #75
      00FF61F5H   LINE      ECODE    ---       #76
      00FF61F5H   LINE      ECODE    ---       #77
      00FF61F9H   LINE      ECODE    ---       #78
      00FF6201H   LINE      ECODE    ---       #79
      ---         BLOCKEND  ---      ---       LVL=0

      00FF6202H   BLOCK     ECODE    ---       LVL=0
      00FF6202H   LINE      ECODE    ---       #82
      00FF6202H   LINE      ECODE    ---       #84
      00FF6204H   LINE      ECODE    ---       #85
      00FF6206H   LINE      ECODE    ---       #86
      00FF6209H   LINE      ECODE    ---       #87
      00FF620BH   LINE      ECODE    ---       #88
      00FF620EH   LINE      ECODE    ---       #89
      00FF6210H   LINE      ECODE    ---       #90
      ---         BLOCKEND  ---      ---       LVL=0

      00FF6211H   BLOCK     ECODE    ---       LVL=0
      00FF6211H   LINE      ECODE    ---       #93
      00FF6211H   LINE      ECODE    ---       #95
      00FF6213H   LINE      ECODE    ---       #96
      00FF6215H   LINE      ECODE    ---       #97
      00FF6218H   LINE      ECODE    ---       #98
      00FF621AH   LINE      ECODE    ---       #99
      00FF621DH   LINE      ECODE    ---       #100
      00FF621FH   LINE      ECODE    ---       #101
      ---         BLOCKEND  ---      ---       LVL=0

      00FF6222H   BLOCK     ECODE    ---       LVL=0
      R15         REGSYM    ---      BYTE      ack_dat
      00FF6222H   LINE      ECODE    ---       #106
      00FF6226H   LINE      ECODE    ---       #108
      00FF6228H   LINE      ECODE    ---       #109
      00FF622BH   LINE      ECODE    ---       #110
      00FF6233H   LINE      ECODE    ---       #111
      00FF6235H   LINE      ECODE    ---       #113
      00FF6237H   LINE      ECODE    ---       #114
      00FF623AH   LINE      ECODE    ---       #115
      00FF623CH   LINE      ECODE    ---       #116
      00FF623FH   LINE      ECODE    ---       #117
      ---         BLOCKEND  ---      ---       LVL=0

      00FF6242H   BLOCK     ECODE    ---       LVL=0
      00FF6242H   LINE      ECODE    ---       #120
      00FF6242H   LINE      ECODE    ---       #122
      00FF6244H   LINE      ECODE    ---       #124
      00FF6247H   LINE      ECODE    ---       #126
      00FF6249H   LINE      ECODE    ---       #127
      00FF624CH   LINE      ECODE    ---       #129
      00FF624FH   LINE      ECODE    ---       #132
      00FF6251H   LINE      ECODE    ---       #133
      00FF6254H   LINE      ECODE    ---       #134
      00FF6254H   LINE      ECODE    ---       #136
      00FF6256H   LINE      ECODE    ---       #137
L251 LINKER/LOCATER V4.66.93.0                                                        07/23/2023  00:26:15  PAGE 88


      00FF6259H   LINE      ECODE    ---       #138
      00FF625DH   LINE      ECODE    ---       #139
      ---         BLOCKEND  ---      ---       LVL=0

      00FF625EH   BLOCK     ECODE    ---       LVL=0
      R15         REGSYM    ---      BYTE      c
      00FF6262H   BLOCK     ECODE    NEAR LAB  LVL=1
      R14         REGSYM    ---      BYTE      i
      ---         BLOCKEND  ---      ---       LVL=1
      00FF625EH   LINE      ECODE    ---       #145
      00FF6262H   LINE      ECODE    ---       #146
      00FF6262H   LINE      ECODE    ---       #147
      00FF6265H   LINE      ECODE    ---       #148
      00FF6267H   LINE      ECODE    ---       #150
      00FF6270H   LINE      ECODE    ---       #151
      00FF6272H   LINE      ECODE    ---       #152
      00FF6274H   LINE      ECODE    ---       #153
      00FF6277H   LINE      ECODE    ---       #154
      00FF6279H   LINE      ECODE    ---       #155
      00FF627CH   LINE      ECODE    ---       #156
      00FF627EH   LINE      ECODE    ---       #157
      00FF6286H   LINE      ECODE    ---       #158
      00FF6289H   LINE      ECODE    ---       #159
      ---         BLOCKEND  ---      ---       LVL=0

      00FF628CH   BLOCK     ECODE    ---       LVL=0
      R15         REGSYM    ---      BYTE      ack_x
      00FF6292H   BLOCK     ECODE    NEAR LAB  LVL=1
      R13         REGSYM    ---      BYTE      i
      R14         REGSYM    ---      BYTE      c
      ---         BLOCKEND  ---      ---       LVL=1
      00FF628CH   LINE      ECODE    ---       #165
      00FF6292H   LINE      ECODE    ---       #166
      00FF6292H   LINE      ECODE    ---       #169
      00FF6294H   LINE      ECODE    ---       #170
      00FF6296H   LINE      ECODE    ---       #171
      00FF6299H   LINE      ECODE    ---       #172
      00FF629BH   LINE      ECODE    ---       #174
      00FF629EH   LINE      ECODE    ---       #176
      00FF62A1H   LINE      ECODE    ---       #177
      00FF62A3H   LINE      ECODE    ---       #178
      00FF62A6H   LINE      ECODE    ---       #179
      00FF62A8H   LINE      ECODE    ---       #180
      00FF62ABH   LINE      ECODE    ---       #181
      00FF62ADH   LINE      ECODE    ---       #182
      00FF62B0H   LINE      ECODE    ---       #184
      00FF62B2H   LINE      ECODE    ---       #185
      00FF62B6H   LINE      ECODE    ---       #188
      00FF62B8H   LINE      ECODE    ---       #189
      00FF62BBH   LINE      ECODE    ---       #190
      00FF62C0H   LINE      ECODE    ---       #192
      00FF62C2H   LINE      ECODE    ---       #193
      ---         BLOCKEND  ---      ---       LVL=0

      00FF62C7H   BLOCK     ECODE    ---       LVL=0
      00000301H   SYMBOL    EDATA    BYTE      dev_add
      00000302H   SYMBOL    EDATA    ---       dat
      DR12        REGSYM    ---      DWORD     len
      00FF62C7H   LINE      ECODE    ---       #205
      00FF62D3H   LINE      ECODE    ---       #207
      00FF62D6H   LINE      ECODE    ---       #208
      00FF62DCH   LINE      ECODE    ---       #209
      00FF62DEH   LINE      ECODE    ---       #211
      00FF62EEH   LINE      ECODE    ---       #212
      00FF62F6H   LINE      ECODE    ---       #215
L251 LINKER/LOCATER V4.66.93.0                                                        07/23/2023  00:26:15  PAGE 89


      00FF62F9H   LINE      ECODE    ---       #216
      ---         BLOCKEND  ---      ---       LVL=0

      00FF62FCH   BLOCK     ECODE    ---       LVL=0
      R13         REGSYM    ---      BYTE      dev_add
      R14         REGSYM    ---      BYTE      reg
      R15         REGSYM    ---      BYTE      dat
      00FF62FCH   LINE      ECODE    ---       #228
      00FF6304H   LINE      ECODE    ---       #230
      00FF6307H   LINE      ECODE    ---       #231
      00FF630CH   LINE      ECODE    ---       #232
      00FF6311H   LINE      ECODE    ---       #233
      00FF6316H   LINE      ECODE    ---       #234
      00FF6319H   LINE      ECODE    ---       #235
      ---         BLOCKEND  ---      ---       LVL=0

      00FF631EH   BLOCK     ECODE    ---       LVL=0
      R15         REGSYM    ---      BYTE      dev_add
      R14         REGSYM    ---      BYTE      reg
      00FF6324H   BLOCK     ECODE    NEAR LAB  LVL=1
      R15         REGSYM    ---      BYTE      dat
      ---         BLOCKEND  ---      ---       LVL=1
      00FF631EH   LINE      ECODE    ---       #246
      00FF6324H   LINE      ECODE    ---       #247
      00FF6324H   LINE      ECODE    ---       #249
      00FF6327H   LINE      ECODE    ---       #250
      00FF632CH   LINE      ECODE    ---       #251
      00FF6331H   LINE      ECODE    ---       #254
      00FF6334H   LINE      ECODE    ---       #255
      00FF633DH   LINE      ECODE    ---       #256
      00FF6341H   LINE      ECODE    ---       #257
      00FF6344H   LINE      ECODE    ---       #259
      00FF6344H   LINE      ECODE    ---       #260
      ---         BLOCKEND  ---      ---       LVL=0

      00FF6347H   BLOCK     ECODE    ---       LVL=0
      00000308H   SYMBOL    EDATA    BYTE      dev_add
      00000309H   SYMBOL    EDATA    BYTE      reg
      REG=3       REGSYM    ---      ---       dat_add
      0000030AH   SYMBOL    EDATA    DWORD     num
      00FF6347H   LINE      ECODE    ---       #273
      00FF6353H   LINE      ECODE    ---       #275
      00FF6356H   LINE      ECODE    ---       #276
      00FF635FH   LINE      ECODE    ---       #277
      00FF6366H   LINE      ECODE    ---       #280
      00FF6369H   LINE      ECODE    ---       #281
      00FF6374H   LINE      ECODE    ---       #282
      00FF6376H   LINE      ECODE    ---       #284
      00FF637EH   LINE      ECODE    ---       #285
      00FF6380H   LINE      ECODE    ---       #286
      00FF638EH   LINE      ECODE    ---       #287
      00FF6395H   LINE      ECODE    ---       #288
      00FF6398H   LINE      ECODE    ---       #289
      ---         BLOCKEND  ---      ---       LVL=0

      00FF639BH   BLOCK     ECODE    ---       LVL=0
      0000022DH   SYMBOL    EDATA    BYTE      dev_add
      0000022EH   SYMBOL    EDATA    BYTE      reg
      REG=3       REGSYM    ---      ---       dat_add
      0000022FH   SYMBOL    EDATA    DWORD     num
      00FF639BH   LINE      ECODE    ---       #302
      00FF63A7H   LINE      ECODE    ---       #304
      00FF63AAH   LINE      ECODE    ---       #305
      00FF63B3H   LINE      ECODE    ---       #306
      00FF63BAH   LINE      ECODE    ---       #309
L251 LINKER/LOCATER V4.66.93.0                                                        07/23/2023  00:26:15  PAGE 90


      00FF63BDH   LINE      ECODE    ---       #310
      00FF63C8H   LINE      ECODE    ---       #311
      00FF63CAH   LINE      ECODE    ---       #313
      00FF63D2H   LINE      ECODE    ---       #314
      00FF63D4H   LINE      ECODE    ---       #315
      00FF63E2H   LINE      ECODE    ---       #316
      00FF63E9H   LINE      ECODE    ---       #317
      00FF63ECH   LINE      ECODE    ---       #318
      ---         BLOCKEND  ---      ---       LVL=0

      00FF63EFH   BLOCK     ECODE    ---       LVL=0
      000002DEH   SYMBOL    EDATA    ---       index
      REG=3       REGSYM    ---      ---       type_is_aperture
      00FF63F7H   BLOCK     ECODE    NEAR LAB  LVL=1
      000002E2H   SYMBOL    EDATA    BYTE      tmp
      000002E3H   SYMBOL    EDATA    BYTE      return_state
      000002E4H   SYMBOL    EDATA    WORD      loop_count
      ---         BLOCKEND  ---      ---       LVL=1
      00FF63EFH   LINE      ECODE    ---       #350
      00FF63F7H   LINE      ECODE    ---       #351
      00FF63F7H   LINE      ECODE    ---       #352
      00FF63FCH   LINE      ECODE    ---       #353
      00FF6400H   LINE      ECODE    ---       #354
      00FF6406H   LINE      ECODE    ---       #356
      00FF6406H   LINE      ECODE    ---       #358
      00FF6411H   LINE      ECODE    ---       #359
      00FF641CH   LINE      ECODE    ---       #360
      00FF6425H   LINE      ECODE    ---       #362
      00FF6430H   LINE      ECODE    ---       #363
      00FF6444H   LINE      ECODE    ---       #364
      00FF6453H   LINE      ECODE    ---       #365
      00FF645EH   LINE      ECODE    ---       #366
      00FF6469H   LINE      ECODE    ---       #368
      00FF6474H   LINE      ECODE    ---       #370
      00FF647FH   LINE      ECODE    ---       #371
      00FF6489H   LINE      ECODE    ---       #373
      00FF648EH   LINE      ECODE    ---       #374
      00FF6490H   LINE      ECODE    ---       #376
      00FF64A4H   LINE      ECODE    ---       #377
      00FF64AEH   LINE      ECODE    ---       #378
      00FF64B8H   LINE      ECODE    ---       #380
      00FF64BEH   LINE      ECODE    ---       #381
      00FF64C0H   LINE      ECODE    ---       #382
      00FF64C7H   LINE      ECODE    ---       #385
      00FF64D0H   LINE      ECODE    ---       #387
      00FF64D0H   LINE      ECODE    ---       #388
      00FF64D0H   LINE      ECODE    ---       #389
      00FF64DBH   LINE      ECODE    ---       #390
      00FF64EFH   LINE      ECODE    ---       #392
      00FF64FCH   LINE      ECODE    ---       #393
      00FF6506H   LINE      ECODE    ---       #395
      00FF6510H   LINE      ECODE    ---       #396
      00FF651BH   LINE      ECODE    ---       #397
      00FF652FH   LINE      ECODE    ---       #398
      00FF653BH   LINE      ECODE    ---       #399
      00FF6546H   LINE      ECODE    ---       #400
      00FF6550H   LINE      ECODE    ---       #402
      00FF655AH   LINE      ECODE    ---       #403
      00FF6564H   LINE      ECODE    ---       #404
      00FF6564H   LINE      ECODE    ---       #406
      00FF6568H   LINE      ECODE    ---       #407
      ---         BLOCKEND  ---      ---       LVL=0

      00FF656BH   BLOCK     ECODE    ---       LVL=0
      WR30        REGSYM    ---      WORD      timeout_period_mclks
L251 LINKER/LOCATER V4.66.93.0                                                        07/23/2023  00:26:15  PAGE 91


      R5          REGSYM    ---      BYTE      vcsel_period_pclks
      00FF656DH   BLOCK     ECODE    NEAR LAB  LVL=1
      DR24        REGSYM    ---      DWORD     macro_period_ns
      ---         BLOCKEND  ---      ---       LVL=1
      00FF656BH   LINE      ECODE    ---       #417
      00FF656DH   LINE      ECODE    ---       #418
      00FF656DH   LINE      ECODE    ---       #419
      00FF6591H   LINE      ECODE    ---       #421
      00FF65AEH   LINE      ECODE    ---       #422
      ---         BLOCKEND  ---      ---       LVL=0

      00FF65AFH   BLOCK     ECODE    ---       LVL=0
      DR28        REGSYM    ---      DWORD     timeout_period_us
      R3          REGSYM    ---      BYTE      vcsel_period_pclks
      00FF65B1H   BLOCK     ECODE    NEAR LAB  LVL=1
      DR8         REGSYM    ---      DWORD     macro_period_ns
      ---         BLOCKEND  ---      ---       LVL=1
      00FF65AFH   LINE      ECODE    ---       #432
      00FF65B1H   LINE      ECODE    ---       #433
      00FF65B1H   LINE      ECODE    ---       #434
      00FF65D5H   LINE      ECODE    ---       #436
      00FF65F0H   LINE      ECODE    ---       #437
      ---         BLOCKEND  ---      ---       LVL=0

      00FF65F1H   BLOCK     ECODE    ---       LVL=0
      WR4         REGSYM    ---      WORD      reg_val
      00FF65F1H   LINE      ECODE    ---       #446
      00FF65F3H   LINE      ECODE    ---       #449
      00FF6600H   LINE      ECODE    ---       #451
      ---         BLOCKEND  ---      ---       LVL=0

      00FF6601H   BLOCK     ECODE    ---       LVL=0
      WR2         REGSYM    ---      WORD      timeout_mclks
      00FF6603H   BLOCK     ECODE    NEAR LAB  LVL=1
      DR8         REGSYM    ---      DWORD     ls_byte
      WR4         REGSYM    ---      WORD      ms_byte
      WR6         REGSYM    ---      WORD      return_data
      ---         BLOCKEND  ---      ---       LVL=1
      00FF6601H   LINE      ECODE    ---       #460
      00FF6603H   LINE      ECODE    ---       #461
      00FF6603H   LINE      ECODE    ---       #462
      00FF6603H   LINE      ECODE    ---       #463
      00FF6607H   LINE      ECODE    ---       #464
      00FF6607H   LINE      ECODE    ---       #466
      00FF660DH   LINE      ECODE    ---       #469
      00FF6613H   LINE      ECODE    ---       #470
      00FF6615H   LINE      ECODE    ---       #472
      00FF661EH   LINE      ECODE    ---       #473
      00FF6620H   LINE      ECODE    ---       #474
      00FF662AH   LINE      ECODE    ---       #475
      00FF6634H   LINE      ECODE    ---       #476
      00FF6634H   LINE      ECODE    ---       #477
      00FF6634H   LINE      ECODE    ---       #478
      ---         BLOCKEND  ---      ---       LVL=0

      00FF6635H   BLOCK     ECODE    ---       LVL=0
      REG=3       REGSYM    ---      ---       enables
      00FF6639H   BLOCK     ECODE    NEAR LAB  LVL=1
      00000301H   SYMBOL    EDATA    BYTE      sequence_config
      ---         BLOCKEND  ---      ---       LVL=1
      00FF6635H   LINE      ECODE    ---       #487
      00FF6639H   LINE      ECODE    ---       #488
      00FF6639H   LINE      ECODE    ---       #489
      00FF663EH   LINE      ECODE    ---       #490
      00FF664FH   LINE      ECODE    ---       #492
L251 LINKER/LOCATER V4.66.93.0                                                        07/23/2023  00:26:15  PAGE 92


      00FF6659H   LINE      ECODE    ---       #493
      00FF6665H   LINE      ECODE    ---       #494
      00FF6673H   LINE      ECODE    ---       #495
      00FF667FH   LINE      ECODE    ---       #496
      00FF668AH   LINE      ECODE    ---       #497
      ---         BLOCKEND  ---      ---       LVL=0

      00FF668DH   BLOCK     ECODE    ---       LVL=0
      WR6         REGSYM    ---      INT       type
      00000307H   SYMBOL    EDATA    BYTE      data_buffer
      00FF668DH   LINE      ECODE    ---       #506
      00FF668DH   LINE      ECODE    ---       #507
      00FF668DH   LINE      ECODE    ---       #508
      00FF6692H   LINE      ECODE    ---       #509
      00FF6696H   LINE      ECODE    ---       #511
      00FF66A3H   LINE      ECODE    ---       #512
      00FF66A3H   LINE      ECODE    ---       #513
      00FF66A5H   LINE      ECODE    ---       #514
      00FF66ABH   LINE      ECODE    ---       #516
      00FF66BFH   LINE      ECODE    ---       #517
      00FF66CDH   LINE      ECODE    ---       #518
      00FF66CFH   LINE      ECODE    ---       #521
      00FF66D5H   LINE      ECODE    ---       #522
      00FF66D5H   LINE      ECODE    ---       #523
      00FF66D9H   LINE      ECODE    ---       #524
      ---         BLOCKEND  ---      ---       LVL=0

      00FF66DAH   BLOCK     ECODE    ---       LVL=0
      00000301H   SYMBOL    EDATA    ---       enables
      REG=3       REGSYM    ---      ---       timeouts
      00FF66E2H   BLOCK     ECODE    NEAR LAB  LVL=1
      00000305H   SYMBOL    EDATA    ---       reg_buffer
      WR6         REGSYM    ---      WORD      reg16_buffer
      ---         BLOCKEND  ---      ---       LVL=1
      00FF66DAH   LINE      ECODE    ---       #534
      00FF66E2H   LINE      ECODE    ---       #535
      00FF66E2H   LINE      ECODE    ---       #537
      00FF66E2H   LINE      ECODE    ---       #539
      00FF66ECH   LINE      ECODE    ---       #541
      00FF6700H   LINE      ECODE    ---       #542
      00FF670CH   LINE      ECODE    ---       #543
      00FF671AH   LINE      ECODE    ---       #545
      00FF672EH   LINE      ECODE    ---       #546
      00FF673AH   LINE      ECODE    ---       #547
      00FF6741H   LINE      ECODE    ---       #548
      00FF674FH   LINE      ECODE    ---       #550
      00FF675CH   LINE      ECODE    ---       #552
      00FF6770H   LINE      ECODE    ---       #553
      00FF677CH   LINE      ECODE    ---       #554
      00FF6783H   LINE      ECODE    ---       #556
      00FF678DH   LINE      ECODE    ---       #558
      00FF679FH   LINE      ECODE    ---       #559
      00FF679FH   LINE      ECODE    ---       #561
      00FF67B2H   LINE      ECODE    ---       #562
      ---         BLOCKEND  ---      ---       LVL=0

      00FF67B5H   BLOCK     ECODE    ---       LVL=0
      R10         REGSYM    ---      BYTE      vhv_init_byte
      00FF67B9H   BLOCK     ECODE    NEAR LAB  LVL=1
      R15         REGSYM    ---      BYTE      return_state
      000002DEH   SYMBOL    EDATA    BYTE      data_buffer
      000002DFH   SYMBOL    EDATA    WORD      loop_count
      ---         BLOCKEND  ---      ---       LVL=1
      00FF67B5H   LINE      ECODE    ---       #571
      00FF67B9H   LINE      ECODE    ---       #572
L251 LINKER/LOCATER V4.66.93.0                                                        07/23/2023  00:26:15  PAGE 93


      00FF67B9H   LINE      ECODE    ---       #573
      00FF67BBH   LINE      ECODE    ---       #574
      00FF67C0H   LINE      ECODE    ---       #575
      00FF67C6H   LINE      ECODE    ---       #576
      00FF67C6H   LINE      ECODE    ---       #578
      00FF67D0H   LINE      ECODE    ---       #579
      00FF67D0H   LINE      ECODE    ---       #580
      00FF67D2H   LINE      ECODE    ---       #582
      00FF67DCH   LINE      ECODE    ---       #584
      00FF67DFH   LINE      ECODE    ---       #585
      00FF67E1H   LINE      ECODE    ---       #586
      00FF67E1H   LINE      ECODE    ---       #587
      00FF67F3H   LINE      ECODE    ---       #589
      00FF6807H   LINE      ECODE    ---       #590
      00FF680FH   LINE      ECODE    ---       #592
      00FF6813H   LINE      ECODE    ---       #594
      00FF6813H   LINE      ECODE    ---       #595
      00FF6813H   LINE      ECODE    ---       #596
      00FF681EH   LINE      ECODE    ---       #597
      00FF6827H   LINE      ECODE    ---       #598
      00FF6827H   LINE      ECODE    ---       #600
      00FF6829H   LINE      ECODE    ---       #601
      ---         BLOCKEND  ---      ---       LVL=0

      00FF682CH   BLOCK     ECODE    ---       LVL=0
      DR12        REGSYM    ---      DWORD     budget_us
      00FF6830H   BLOCK     ECODE    NEAR LAB  LVL=1
      000002DEH   SYMBOL    EDATA    BYTE      return_state
      000002DFH   SYMBOL    EDATA    ---       data_buffer
      WR6         REGSYM    ---      WORD      dat
      000002E2H   SYMBOL    EDATA    DWORD     used_budget_us
      DR4         REGSYM    ---      DWORD     final_range_timeout_us
      WR6         REGSYM    ---      WORD      final_range_timeout_mclks
      000002E6H   SYMBOL    EDATA    ---       enables
      000002EBH   SYMBOL    EDATA    ---       timeouts
      ---         BLOCKEND  ---      ---       LVL=1
      00FF682CH   LINE      ECODE    ---       #614
      00FF6830H   LINE      ECODE    ---       #615
      00FF6830H   LINE      ECODE    ---       #616
      00FF6835H   LINE      ECODE    ---       #618
      00FF6835H   LINE      ECODE    ---       #626
      00FF6835H   LINE      ECODE    ---       #628
      00FF683BH   LINE      ECODE    ---       #630
      00FF683BH   LINE      ECODE    ---       #631
      00FF683EH   LINE      ECODE    ---       #632
      00FF683EH   LINE      ECODE    ---       #634
      00FF6846H   LINE      ECODE    ---       #635
      00FF684DH   LINE      ECODE    ---       #636
      00FF6858H   LINE      ECODE    ---       #638
      00FF685EH   LINE      ECODE    ---       #640
      00FF686EH   LINE      ECODE    ---       #641
      00FF686EH   LINE      ECODE    ---       #643
      00FF6874H   LINE      ECODE    ---       #645
      00FF6880H   LINE      ECODE    ---       #646
      00FF6882H   LINE      ECODE    ---       #647
      00FF6888H   LINE      ECODE    ---       #649
      00FF689AH   LINE      ECODE    ---       #650
      00FF689AH   LINE      ECODE    ---       #652
      00FF68A0H   LINE      ECODE    ---       #654
      00FF68B2H   LINE      ECODE    ---       #655
      00FF68B2H   LINE      ECODE    ---       #657
      00FF68B8H   LINE      ECODE    ---       #662
      00FF68C4H   LINE      ECODE    ---       #663
      00FF68CCH   LINE      ECODE    ---       #666
      00FF68D2H   LINE      ECODE    ---       #667
L251 LINKER/LOCATER V4.66.93.0                                                        07/23/2023  00:26:15  PAGE 94


      00FF68D4H   LINE      ECODE    ---       #668
      00FF68D4H   LINE      ECODE    ---       #673
      00FF68D8H   LINE      ECODE    ---       #674
      00FF68DFH   LINE      ECODE    ---       #678
      00FF68E5H   LINE      ECODE    ---       #680
      00FF68EBH   LINE      ECODE    ---       #681
      00FF68EBH   LINE      ECODE    ---       #683
      00FF68EEH   LINE      ECODE    ---       #684
      00FF68F4H   LINE      ECODE    ---       #685
      00FF68F8H   LINE      ECODE    ---       #686
      00FF68FCH   LINE      ECODE    ---       #687
      00FF6909H   LINE      ECODE    ---       #688
      00FF6909H   LINE      ECODE    ---       #690
      00FF690DH   LINE      ECODE    ---       #691
      ---         BLOCKEND  ---      ---       LVL=0

      00FF6910H   BLOCK     ECODE    ---       LVL=0
      00FF6912H   BLOCK     ECODE    NEAR LAB  LVL=1
      000002DEH   SYMBOL    EDATA    ---       enables
      000002E3H   SYMBOL    EDATA    ---       timeouts
      DR12        REGSYM    ---      DWORD     budget_us
      ---         BLOCKEND  ---      ---       LVL=1
      00FF6910H   LINE      ECODE    ---       #700
      00FF6912H   LINE      ECODE    ---       #701
      00FF6912H   LINE      ECODE    ---       #706
      00FF6916H   LINE      ECODE    ---       #708
      00FF691DH   LINE      ECODE    ---       #709
      00FF6928H   LINE      ECODE    ---       #711
      00FF692EH   LINE      ECODE    ---       #713
      00FF693AH   LINE      ECODE    ---       #714
      00FF693AH   LINE      ECODE    ---       #716
      00FF6940H   LINE      ECODE    ---       #718
      00FF694CH   LINE      ECODE    ---       #719
      00FF694EH   LINE      ECODE    ---       #720
      00FF6954H   LINE      ECODE    ---       #722
      00FF695EH   LINE      ECODE    ---       #723
      00FF695EH   LINE      ECODE    ---       #725
      00FF6964H   LINE      ECODE    ---       #727
      00FF696EH   LINE      ECODE    ---       #728
      00FF696EH   LINE      ECODE    ---       #730
      00FF6974H   LINE      ECODE    ---       #732
      00FF697EH   LINE      ECODE    ---       #733
      00FF697EH   LINE      ECODE    ---       #735
      00FF6980H   LINE      ECODE    ---       #736
      ---         BLOCKEND  ---      ---       LVL=0

      00FF6983H   BLOCK     ECODE    ---       LVL=0
      DR4         REGSYM    ---      FLOAT     limit_mcps
      000002DEH   SYMBOL    EDATA    ---       data_buffer
      WR6         REGSYM    ---      WORD      limit_mcps_16bit
      00FF6983H   LINE      ECODE    ---       #749
      00FF6983H   LINE      ECODE    ---       #750
      00FF6983H   LINE      ECODE    ---       #752
      00FF6991H   LINE      ECODE    ---       #756
      00FF6997H   LINE      ECODE    ---       #757
      00FF699BH   LINE      ECODE    ---       #758
      00FF699FH   LINE      ECODE    ---       #760
      ---         BLOCKEND  ---      ---       LVL=0

      00FF69ACH   BLOCK     ECODE    ---       LVL=0
      0000022AH   SYMBOL    EDATA    ---       reg_databuffer
      00FF69ACH   LINE      ECODE    ---       #770
      00FF69ACH   LINE      ECODE    ---       #771
      00FF69ACH   LINE      ECODE    ---       #774
      00FF69C0H   LINE      ECODE    ---       #775
L251 LINKER/LOCATER V4.66.93.0                                                        07/23/2023  00:26:15  PAGE 95


      00FF69C8H   LINE      ECODE    ---       #777
      00FF69C9H   LINE      ECODE    ---       #778
      00FF69CBH   LINE      ECODE    ---       #782
      00FF69DFH   LINE      ECODE    ---       #783
      00FF69E9H   LINE      ECODE    ---       #784
      00FF69F7H   LINE      ECODE    ---       #786
      00FF6A02H   LINE      ECODE    ---       #787
      00FF6A08H   LINE      ECODE    ---       #788
      00FF6A08H   LINE      ECODE    ---       #789
      ---         BLOCKEND  ---      ---       LVL=0

      00FF6A09H   BLOCK     ECODE    ---       LVL=0
      00FF6A0DH   BLOCK     ECODE    NEAR LAB  LVL=1
      000002CCH   SYMBOL    EDATA    DWORD     measurement_timing_budget_us
      000002D0H   SYMBOL    EDATA    BYTE      stop_variable
      R15         REGSYM    ---      BYTE      return_state
      R14         REGSYM    ---      BYTE      reg_data_buffer
      000002D1H   SYMBOL    EDATA    ---       ref_spad_map
      000002D7H   SYMBOL    EDATA    ---       data_buffer
      R13         REGSYM    ---      BYTE      i
      ---         BLOCKEND  ---      ---       LVL=1
      00FF6A09H   LINE      ECODE    ---       #798
      00FF6A0DH   LINE      ECODE    ---       #799
      00FF6A0DH   LINE      ECODE    ---       #800
      00FF6A0DH   LINE      ECODE    ---       #801
      00FF6A12H   LINE      ECODE    ---       #802
      00FF6A14H   LINE      ECODE    ---       #803
      00FF6A14H   LINE      ECODE    ---       #806
      00FF6A14H   LINE      ECODE    ---       #808
      00FF6A20H   LINE      ECODE    ---       #809
      00FF6A2DH   LINE      ECODE    ---       #813
      00FF6A2DH   LINE      ECODE    ---       #815
      00FF6A35H   LINE      ECODE    ---       #816
      00FF6A37H   LINE      ECODE    ---       #817
      00FF6A3FH   LINE      ECODE    ---       #818
      00FF6A41H   LINE      ECODE    ---       #819
      00FF6A49H   LINE      ECODE    ---       #822
      00FF6A53H   LINE      ECODE    ---       #823
      00FF6A60H   LINE      ECODE    ---       #825
      00FF6A6AH   LINE      ECODE    ---       #827
      00FF6A75H   LINE      ECODE    ---       #828
      00FF6A80H   LINE      ECODE    ---       #829
      00FF6A89H   LINE      ECODE    ---       #831
      00FF6A9DH   LINE      ECODE    ---       #833
      00FF6AA7H   LINE      ECODE    ---       #834
      00FF6AB1H   LINE      ECODE    ---       #835
      00FF6ABBH   LINE      ECODE    ---       #838
      00FF6AC5H   LINE      ECODE    ---       #839
      00FF6AD2H   LINE      ECODE    ---       #841
      00FF6ADBH   LINE      ECODE    ---       #842
      00FF6AE6H   LINE      ECODE    ---       #846
      00FF6AF3H   LINE      ECODE    ---       #848
      00FF6AF6H   LINE      ECODE    ---       #853
      00FF6B02H   LINE      ECODE    ---       #854
      00FF6B05H   LINE      ECODE    ---       #855
      00FF6B05H   LINE      ECODE    ---       #858
      00FF6B19H   LINE      ECODE    ---       #860
      00FF6B24H   LINE      ECODE    ---       #861
      00FF6B2EH   LINE      ECODE    ---       #862
      00FF6B39H   LINE      ECODE    ---       #863
      00FF6B43H   LINE      ECODE    ---       #864
      00FF6B4EH   LINE      ECODE    ---       #866
      00FF6B5FH   LINE      ECODE    ---       #867
      00FF6B61H   LINE      ECODE    ---       #869
      00FF6B73H   LINE      ECODE    ---       #874
L251 LINKER/LOCATER V4.66.93.0                                                        07/23/2023  00:26:15  PAGE 96


      00FF6BA2H   LINE      ECODE    ---       #875
      00FF6BA4H   LINE      ECODE    ---       #876
      00FF6BC8H   LINE      ECODE    ---       #878
      00FF6BD1H   LINE      ECODE    ---       #879
      00FF6BD8H   LINE      ECODE    ---       #882
      00FF6BDEH   LINE      ECODE    ---       #883
      00FF6BE1H   LINE      ECODE    ---       #885
      00FF6BEBH   LINE      ECODE    ---       #886
      00FF6BF2H   LINE      ECODE    ---       #887
      00FF6BFFH   LINE      ECODE    ---       #890
      00FF6C0AH   LINE      ECODE    ---       #891
      00FF6C13H   LINE      ECODE    ---       #892
      00FF6C1DH   LINE      ECODE    ---       #893
      00FF6C27H   LINE      ECODE    ---       #894
      00FF6C31H   LINE      ECODE    ---       #895
      00FF6C3BH   LINE      ECODE    ---       #896
      00FF6C46H   LINE      ECODE    ---       #897
      00FF6C51H   LINE      ECODE    ---       #898
      00FF6C5BH   LINE      ECODE    ---       #899
      00FF6C66H   LINE      ECODE    ---       #900
      00FF6C71H   LINE      ECODE    ---       #901
      00FF6C7BH   LINE      ECODE    ---       #902
      00FF6C86H   LINE      ECODE    ---       #903
      00FF6C90H   LINE      ECODE    ---       #904
      00FF6C9BH   LINE      ECODE    ---       #905
      00FF6CA5H   LINE      ECODE    ---       #906
      00FF6CB0H   LINE      ECODE    ---       #907
      00FF6CBBH   LINE      ECODE    ---       #908
      00FF6CC6H   LINE      ECODE    ---       #909
      00FF6CD1H   LINE      ECODE    ---       #910
      00FF6CDBH   LINE      ECODE    ---       #911
      00FF6CE5H   LINE      ECODE    ---       #912
      00FF6CF0H   LINE      ECODE    ---       #913
      00FF6CFAH   LINE      ECODE    ---       #914
      00FF6D05H   LINE      ECODE    ---       #915
      00FF6D10H   LINE      ECODE    ---       #916
      00FF6D1BH   LINE      ECODE    ---       #917
      00FF6D25H   LINE      ECODE    ---       #918
      00FF6D2FH   LINE      ECODE    ---       #919
      00FF6D39H   LINE      ECODE    ---       #920
      00FF6D43H   LINE      ECODE    ---       #921
      00FF6D4EH   LINE      ECODE    ---       #922
      00FF6D59H   LINE      ECODE    ---       #923
      00FF6D64H   LINE      ECODE    ---       #924
      00FF6D6FH   LINE      ECODE    ---       #925
      00FF6D7AH   LINE      ECODE    ---       #926
      00FF6D84H   LINE      ECODE    ---       #927
      00FF6D8EH   LINE      ECODE    ---       #928
      00FF6D99H   LINE      ECODE    ---       #929
      00FF6DA3H   LINE      ECODE    ---       #930
      00FF6DAEH   LINE      ECODE    ---       #931
      00FF6DB9H   LINE      ECODE    ---       #932
      00FF6DC4H   LINE      ECODE    ---       #933
      00FF6DCEH   LINE      ECODE    ---       #934
      00FF6DD9H   LINE      ECODE    ---       #935
      00FF6DE4H   LINE      ECODE    ---       #936
      00FF6DEFH   LINE      ECODE    ---       #937
      00FF6DFAH   LINE      ECODE    ---       #938
      00FF6E05H   LINE      ECODE    ---       #939
      00FF6E10H   LINE      ECODE    ---       #940
      00FF6E1BH   LINE      ECODE    ---       #941
      00FF6E25H   LINE      ECODE    ---       #942
      00FF6E30H   LINE      ECODE    ---       #943
      00FF6E3BH   LINE      ECODE    ---       #944
      00FF6E46H   LINE      ECODE    ---       #945
L251 LINKER/LOCATER V4.66.93.0                                                        07/23/2023  00:26:15  PAGE 97


      00FF6E51H   LINE      ECODE    ---       #946
      00FF6E5CH   LINE      ECODE    ---       #947
      00FF6E67H   LINE      ECODE    ---       #948
      00FF6E72H   LINE      ECODE    ---       #949
      00FF6E7CH   LINE      ECODE    ---       #950
      00FF6E86H   LINE      ECODE    ---       #951
      00FF6E91H   LINE      ECODE    ---       #952
      00FF6E9CH   LINE      ECODE    ---       #953
      00FF6EA7H   LINE      ECODE    ---       #954
      00FF6EB1H   LINE      ECODE    ---       #955
      00FF6EBCH   LINE      ECODE    ---       #956
      00FF6EC7H   LINE      ECODE    ---       #957
      00FF6ED2H   LINE      ECODE    ---       #958
      00FF6EDCH   LINE      ECODE    ---       #959
      00FF6EE6H   LINE      ECODE    ---       #960
      00FF6EF1H   LINE      ECODE    ---       #961
      00FF6EFCH   LINE      ECODE    ---       #962
      00FF6F06H   LINE      ECODE    ---       #963
      00FF6F11H   LINE      ECODE    ---       #964
      00FF6F1CH   LINE      ECODE    ---       #965
      00FF6F27H   LINE      ECODE    ---       #966
      00FF6F32H   LINE      ECODE    ---       #967
      00FF6F3CH   LINE      ECODE    ---       #968
      00FF6F46H   LINE      ECODE    ---       #969
      00FF6F50H   LINE      ECODE    ---       #972
      00FF6F5BH   LINE      ECODE    ---       #973
      00FF6F65H   LINE      ECODE    ---       #974
      00FF6F72H   LINE      ECODE    ---       #975
      00FF6F7DH   LINE      ECODE    ---       #977
      00FF6F84H   LINE      ECODE    ---       #982
      00FF6F8FH   LINE      ECODE    ---       #983
      00FF6F96H   LINE      ECODE    ---       #986
      00FF6FA1H   LINE      ECODE    ---       #987
      00FF6FA8H   LINE      ECODE    ---       #989
      00FF6FA8H   LINE      ECODE    ---       #990
      00FF6FAAH   LINE      ECODE    ---       #991
      00FF6FAAH   LINE      ECODE    ---       #992
      00FF6FB5H   LINE      ECODE    ---       #993
      00FF6FBBH   LINE      ECODE    ---       #995
      00FF6FBEH   LINE      ECODE    ---       #996
      00FF6FC0H   LINE      ECODE    ---       #997
      00FF6FC0H   LINE      ECODE    ---       #998
      00FF6FCBH   LINE      ECODE    ---       #1000
      00FF6FD3H   LINE      ECODE    ---       #1002
      00FF6FDEH   LINE      ECODE    ---       #1003
      00FF6FE9H   LINE      ECODE    ---       #1004
      00FF6FF2H   LINE      ECODE    ---       #1005
      00FF6FFEH   LINE      ECODE    ---       #1006
      00FF7008H   LINE      ECODE    ---       #1007
      00FF7012H   LINE      ECODE    ---       #1008
      00FF701CH   LINE      ECODE    ---       #1010
      00FF7026H   LINE      ECODE    ---       #1011
      00FF7026H   LINE      ECODE    ---       #1013
      00FF7028H   LINE      ECODE    ---       #1014
      ---         BLOCKEND  ---      ---       LVL=0

      ---         MODULE    ---      ---       SEEKFREE_FONT
      00FF20A7H   PUBLIC    CODE     ---       oled_8x16
      00FF2697H   PUBLIC    CODE     ---       tft_ascii
      00FF2C87H   PUBLIC    CODE     ---       oled_6x8
      000000D0H   SFRSYM    DATA     BYTE      PSW
      0000009DH   SFRSYM    DATA     BYTE      IRCBAND
      00000097H   SFRSYM    DATA     BYTE      AUXR2
      000000EFH   SFRSYM    DATA     BYTE      AUXINTIF
      000000FDH   SFRSYM    DATA     BYTE      S4CON
L251 LINKER/LOCATER V4.66.93.0                                                        07/23/2023  00:26:15  PAGE 98


      000000ACH   SFRSYM    DATA     BYTE      S3CON
      0000009AH   SFRSYM    DATA     BYTE      S2CON
      000000B7H   SFRSYM    DATA     BYTE      IPH
      000000CDH   SFRSYM    DATA     BYTE      SPSTAT
      000000DDH   SFRSYM    DATA     BYTE      T4T3M
      000000C1H   SFRSYM    DATA     BYTE      WDT_CONTR
      000000DFH   SFRSYM    DATA     BYTE      IP3
      000000F4H   SFRSYM    DATA     BYTE      USBCON
      000000B5H   SFRSYM    DATA     BYTE      IP2
      000000FFH   SFRSYM    DATA     BYTE      RSTCFG
      000000F9H   SFRSYM    DATA     BYTE      LINICR
      0000008EH   SFRSYM    DATA     BYTE      AUXR
      000000AFH   SFRSYM    DATA     BYTE      IE2
      00000088H   SFRSYM    DATA     BYTE      TCON
      00000098H   SFRSYM    DATA     BYTE      SCON
      000000F1H   SFRSYM    DATA     BYTE      CANICR
      00000087H   SFRSYM    DATA     BYTE      PCON
      000000BCH   SFRSYM    DATA     BYTE      ADC_CONTR
      000000E7H   SFRSYM    DATA     BYTE      CMPCR2
      000000E6H   SFRSYM    DATA     BYTE      CMPCR1
      000000B8H   SFRSYM    DATA     BYTE      IP
      0000008FH   SFRSYM    DATA     BYTE      INTCLKO
      000000EEH   SFRSYM    DATA     BYTE      IP3H
      000000B6H   SFRSYM    DATA     BYTE      IP2H
      000000A8H   SFRSYM    DATA     BYTE      IE
      000000BBH   SFRSYM    DATA     BYTE      P_SW3
      000000BAH   SFRSYM    DATA     BYTE      P_SW2
      000000A2H   SFRSYM    DATA     BYTE      P_SW1
      000000CEH   SFRSYM    DATA     BYTE      SPCTL
      000000F8H   SFRSYM    DATA     BYTE      P7
      000000E8H   SFRSYM    DATA     BYTE      P6
      000000C8H   SFRSYM    DATA     BYTE      P5
      000000C0H   SFRSYM    DATA     BYTE      P4
      000000B0H   SFRSYM    DATA     BYTE      P3
      000000A0H   SFRSYM    DATA     BYTE      P2
      00000090H   SFRSYM    DATA     BYTE      P1
      00000080H   SFRSYM    DATA     BYTE      P0

      ---         MODULE    ---      ---       SEEKFREE_ICM20602
      00FFCC14H   PUBLIC    ECODE    ---       icm20602_gyro_transition?
      00FFCC28H   PUBLIC    ECODE    ---       icm20602_init?
      00FFCB82H   PUBLIC    ECODE    ---       icm20602_get_acc?
      00FFCC02H   PUBLIC    ECODE    ---       icm20602_acc_transition?
      00FFCBC2H   PUBLIC    ECODE    ---       icm20602_get_gyro?
      000007EBH   PUBLIC    EDATA    INT       icm20602_acc_x
      000007EDH   PUBLIC    EDATA    INT       icm20602_acc_y
      000007EFH   PUBLIC    EDATA    INT       icm20602_acc_z
      000007F1H   PUBLIC    EDATA    INT       icm20602_gyro_x
      000007F3H   PUBLIC    EDATA    INT       icm20602_gyro_y
      000007F5H   PUBLIC    EDATA    INT       icm20602_gyro_z
      000000D0H   SFRSYM    DATA     BYTE      PSW
      0000009DH   SFRSYM    DATA     BYTE      IRCBAND
      00000097H   SFRSYM    DATA     BYTE      AUXR2
      000000EFH   SFRSYM    DATA     BYTE      AUXINTIF
      000000FDH   SFRSYM    DATA     BYTE      S4CON
      000000ACH   SFRSYM    DATA     BYTE      S3CON
      0000009AH   SFRSYM    DATA     BYTE      S2CON
      000000B7H   SFRSYM    DATA     BYTE      IPH
      000000CDH   SFRSYM    DATA     BYTE      SPSTAT
      000000DDH   SFRSYM    DATA     BYTE      T4T3M
      000000C1H   SFRSYM    DATA     BYTE      WDT_CONTR
      000000DFH   SFRSYM    DATA     BYTE      IP3
      000000F4H   SFRSYM    DATA     BYTE      USBCON
      000000B5H   SFRSYM    DATA     BYTE      IP2
      000000FFH   SFRSYM    DATA     BYTE      RSTCFG
L251 LINKER/LOCATER V4.66.93.0                                                        07/23/2023  00:26:15  PAGE 99


      000000F9H   SFRSYM    DATA     BYTE      LINICR
      0000008EH   SFRSYM    DATA     BYTE      AUXR
      000000AFH   SFRSYM    DATA     BYTE      IE2
      000000C0H.3 SFRSYM    DATA     BIT       P43
      000000C0H.2 SFRSYM    DATA     BIT       P42
      00000088H   SFRSYM    DATA     BYTE      TCON
      000000C0H.1 SFRSYM    DATA     BIT       P41
      00000098H   SFRSYM    DATA     BYTE      SCON
      000000C0H.0 SFRSYM    DATA     BIT       P40
      000000F1H   SFRSYM    DATA     BYTE      CANICR
      00000087H   SFRSYM    DATA     BYTE      PCON
      000000BCH   SFRSYM    DATA     BYTE      ADC_CONTR
      000000E7H   SFRSYM    DATA     BYTE      CMPCR2
      000000E6H   SFRSYM    DATA     BYTE      CMPCR1
      000000B8H   SFRSYM    DATA     BYTE      IP
      0000008FH   SFRSYM    DATA     BYTE      INTCLKO
      000000EEH   SFRSYM    DATA     BYTE      IP3H
      000000B6H   SFRSYM    DATA     BYTE      IP2H
      000000A8H   SFRSYM    DATA     BYTE      IE
      000000BBH   SFRSYM    DATA     BYTE      P_SW3
      000000BAH   SFRSYM    DATA     BYTE      P_SW2
      000000A2H   SFRSYM    DATA     BYTE      P_SW1
      000000CEH   SFRSYM    DATA     BYTE      SPCTL
      000000F8H   SFRSYM    DATA     BYTE      P7
      000000E8H   SFRSYM    DATA     BYTE      P6
      000000C8H   SFRSYM    DATA     BYTE      P5
      000000C0H   SFRSYM    DATA     BYTE      P4
      000000B0H   SFRSYM    DATA     BYTE      P3
      000000A0H   SFRSYM    DATA     BYTE      P2
      00000090H   SFRSYM    DATA     BYTE      P1
      00000080H   SFRSYM    DATA     BYTE      P0
      00FFCB32H   SYMBOL    ECODE    ---       icm20602_read_register
      00FFCB2AH   SYMBOL    ECODE    ---       icm20602_write_register
      00FFCAB0H   SYMBOL    ECODE    ---       icm20602_simspi_wr_byte
      00FFCB54H   SYMBOL    ECODE    ---       icm20602_self_check
      00FFCAFAH   SYMBOL    ECODE    ---       icm20602_simspi_r_reg_bytes
      00FFCAE2H   SYMBOL    ECODE    ---       icm20602_simspi_r_reg_byte
      00FFCAD3H   SYMBOL    ECODE    ---       icm20602_simspi_w_reg_byte
      00FFCB44H   SYMBOL    ECODE    ---       icm20602_read_registers

      00FFCAB0H   BLOCK     ECODE    ---       LVL=0
      R6          REGSYM    ---      BYTE      byte
      00FFCAB2H   BLOCK     ECODE    NEAR LAB  LVL=1
      R7          REGSYM    ---      BYTE      i
      ---         BLOCKEND  ---      ---       LVL=1
      00FFCAB0H   LINE      ECODE    ---       #270
      00FFCAB2H   LINE      ECODE    ---       #271
      00FFCAB2H   LINE      ECODE    ---       #274
      00FFCAB4H   LINE      ECODE    ---       #276
      00FFCAB9H   LINE      ECODE    ---       #277
      00FFCABBH   LINE      ECODE    ---       #278
      00FFCABDH   LINE      ECODE    ---       #279
      00FFCABFH   LINE      ECODE    ---       #281
      00FFCAC1H   LINE      ECODE    ---       #282
      00FFCAC3H   LINE      ECODE    ---       #283
      00FFCAC9H   LINE      ECODE    ---       #284
      00FFCAD0H   LINE      ECODE    ---       #285
      00FFCAD2H   LINE      ECODE    ---       #286
      ---         BLOCKEND  ---      ---       LVL=0

      00FFCAD3H   BLOCK     ECODE    ---       LVL=0
      R7          REGSYM    ---      BYTE      cmd
      R15         REGSYM    ---      BYTE      val
      00FFCAD3H   LINE      ECODE    ---       #294
      00FFCAD7H   LINE      ECODE    ---       #297
L251 LINKER/LOCATER V4.66.93.0                                                        07/23/2023  00:26:15  PAGE 100


      00FFCAD7H   LINE      ECODE    ---       #298
      00FFCADAH   LINE      ECODE    ---       #299
      00FFCADFH   LINE      ECODE    ---       #301
      ---         BLOCKEND  ---      ---       LVL=0

      00FFCAE2H   BLOCK     ECODE    ---       LVL=0
      R7          REGSYM    ---      BYTE      cmd
      REG=3       REGSYM    ---      ---       val
      00FFCAE2H   LINE      ECODE    ---       #332
      00FFCAE8H   LINE      ECODE    ---       #335
      00FFCAEBH   LINE      ECODE    ---       #336
      00FFCAF0H   LINE      ECODE    ---       #337
      00FFCAF7H   LINE      ECODE    ---       #339
      ---         BLOCKEND  ---      ---       LVL=0

      00FFCAFAH   BLOCK     ECODE    ---       LVL=0
      R7          REGSYM    ---      BYTE      cmd
      REG=3       REGSYM    ---      ---       val
      0000085DH   SYMBOL    EDATA    DWORD     num
      00FFCB04H   BLOCK     ECODE    NEAR LAB  LVL=1
      ---         BLOCKEND  ---      ---       LVL=1
      00FFCAFAH   LINE      ECODE    ---       #349
      00FFCB04H   LINE      ECODE    ---       #350
      00FFCB04H   LINE      ECODE    ---       #351
      00FFCB04H   LINE      ECODE    ---       #352
      00FFCB07H   LINE      ECODE    ---       #353
      00FFCB0CH   LINE      ECODE    ---       #355
      00FFCB0EH   LINE      ECODE    ---       #357
      00FFCB17H   LINE      ECODE    ---       #358
      00FFCB27H   LINE      ECODE    ---       #359
      ---         BLOCKEND  ---      ---       LVL=0

      00FFCB2AH   BLOCK     ECODE    ---       LVL=0
      R11         REGSYM    ---      BYTE      reg
      R7          REGSYM    ---      BYTE      dat
      00FFCB2AH   LINE      ECODE    ---       #370
      00FFCB2AH   LINE      ECODE    ---       #372
      00FFCB2CH   LINE      ECODE    ---       #373
      00FFCB2FH   LINE      ECODE    ---       #374
      00FFCB31H   LINE      ECODE    ---       #375
      ---         BLOCKEND  ---      ---       LVL=0

      00FFCB32H   BLOCK     ECODE    ---       LVL=0
      R7          REGSYM    ---      BYTE      reg
      0000088FH   SYMBOL    EDATA    BYTE      dat
      00FFCB32H   LINE      ECODE    ---       #399
      00FFCB32H   LINE      ECODE    ---       #400
      00FFCB32H   LINE      ECODE    ---       #402
      00FFCB34H   LINE      ECODE    ---       #403
      00FFCB3DH   LINE      ECODE    ---       #404
      00FFCB3FH   LINE      ECODE    ---       #405
      00FFCB43H   LINE      ECODE    ---       #406
      ---         BLOCKEND  ---      ---       LVL=0

      00FFCB44H   BLOCK     ECODE    ---       LVL=0
      R3          REGSYM    ---      BYTE      reg
      REG=1       REGSYM    ---      ---       dat
      DR28        REGSYM    ---      DWORD     len
      00FFCB44H   LINE      ECODE    ---       #417
      00FFCB48H   LINE      ECODE    ---       #419
      00FFCB4AH   LINE      ECODE    ---       #420
      00FFCB51H   LINE      ECODE    ---       #421
      00FFCB53H   LINE      ECODE    ---       #422
      ---         BLOCKEND  ---      ---       LVL=0

L251 LINKER/LOCATER V4.66.93.0                                                        07/23/2023  00:26:15  PAGE 101


      00FFCB54H   BLOCK     ECODE    ---       LVL=0
      00FFCB56H   BLOCK     ECODE    NEAR LAB  LVL=1
      R14         REGSYM    ---      BYTE      dat
      R15         REGSYM    ---      BYTE      return_state
      WR12        REGSYM    ---      WORD      timeout_count
      ---         BLOCKEND  ---      ---       LVL=1
      00FFCB54H   LINE      ECODE    ---       #434
      00FFCB56H   LINE      ECODE    ---       #435
      00FFCB56H   LINE      ECODE    ---       #436
      00FFCB58H   LINE      ECODE    ---       #437
      00FFCB5AH   LINE      ECODE    ---       #439
      00FFCB5AH   LINE      ECODE    ---       #441
      00FFCB64H   LINE      ECODE    ---       #443
      00FFCB67H   LINE      ECODE    ---       #444
      00FFCB69H   LINE      ECODE    ---       #445
      00FFCB69H   LINE      ECODE    ---       #446
      00FFCB70H   LINE      ECODE    ---       #448
      00FFCB78H   LINE      ECODE    ---       #449
      00FFCB7DH   LINE      ECODE    ---       #450
      00FFCB7FH   LINE      ECODE    ---       #451
      ---         BLOCKEND  ---      ---       LVL=0

      00FFCB82H   BLOCK     ECODE    ---       LVL=0
      00FFCB82H   LINE      ECODE    ---       #460
      00FFCB82H   LINE      ECODE    ---       #461
      00FFCB82H   LINE      ECODE    ---       #464
      00FFCB8FH   LINE      ECODE    ---       #465
      00FFCBA1H   LINE      ECODE    ---       #466
      00FFCBB1H   LINE      ECODE    ---       #467
      00FFCBC1H   LINE      ECODE    ---       #468
      ---         BLOCKEND  ---      ---       LVL=0

      00FFCBC2H   BLOCK     ECODE    ---       LVL=0
      00FFCBC2H   LINE      ECODE    ---       #477
      00FFCBC2H   LINE      ECODE    ---       #478
      00FFCBC2H   LINE      ECODE    ---       #481
      00FFCBCFH   LINE      ECODE    ---       #482
      00FFCBE1H   LINE      ECODE    ---       #483
      00FFCBF1H   LINE      ECODE    ---       #484
      00FFCC01H   LINE      ECODE    ---       #485
      ---         BLOCKEND  ---      ---       LVL=0

      00FFCC02H   BLOCK     ECODE    ---       LVL=0
      WR8         REGSYM    ---      INT       acc_value
      DR4         REGSYM    ---      FLOAT     acc_data
      00FFCC02H   LINE      ECODE    ---       #494
      00FFCC02H   LINE      ECODE    ---       #495
      00FFCC02H   LINE      ECODE    ---       #496
      00FFCC02H   LINE      ECODE    ---       #497
      00FFCC02H   LINE      ECODE    ---       #499
      00FFCC02H   LINE      ECODE    ---       #500
      00FFCC02H   LINE      ECODE    ---       #501
      00FFCC14H   LINE      ECODE    ---       #502
      00FFCC14H   LINE      ECODE    ---       #503
      00FFCC14H   LINE      ECODE    ---       #504
      00FFCC14H   LINE      ECODE    ---       #505
      00FFCC14H   LINE      ECODE    ---       #506
      ---         BLOCKEND  ---      ---       LVL=0

      00FFCC14H   BLOCK     ECODE    ---       LVL=0
      WR8         REGSYM    ---      INT       gyro_value
      DR4         REGSYM    ---      FLOAT     gyro_data
      00FFCC14H   LINE      ECODE    ---       #515
      00FFCC14H   LINE      ECODE    ---       #516
      00FFCC14H   LINE      ECODE    ---       #517
L251 LINKER/LOCATER V4.66.93.0                                                        07/23/2023  00:26:15  PAGE 102


      00FFCC14H   LINE      ECODE    ---       #518
      00FFCC14H   LINE      ECODE    ---       #520
      00FFCC14H   LINE      ECODE    ---       #521
      00FFCC14H   LINE      ECODE    ---       #522
      00FFCC14H   LINE      ECODE    ---       #523
      00FFCC28H   LINE      ECODE    ---       #524
      00FFCC28H   LINE      ECODE    ---       #525
      00FFCC28H   LINE      ECODE    ---       #526
      00FFCC28H   LINE      ECODE    ---       #527
      ---         BLOCKEND  ---      ---       LVL=0

      00FFCC28H   BLOCK     ECODE    ---       LVL=0
      00FFCC2AH   BLOCK     ECODE    NEAR LAB  LVL=1
      R14         REGSYM    ---      BYTE      val
      R15         REGSYM    ---      BYTE      return_state
      WR12        REGSYM    ---      WORD      timeout_count
      ---         BLOCKEND  ---      ---       LVL=1
      00FFCC28H   LINE      ECODE    ---       #536
      00FFCC2AH   LINE      ECODE    ---       #537
      00FFCC2AH   LINE      ECODE    ---       #538
      00FFCC2CH   LINE      ECODE    ---       #539
      00FFCC2EH   LINE      ECODE    ---       #541
      00FFCC36H   LINE      ECODE    ---       #550
      00FFCC36H   LINE      ECODE    ---       #552
      00FFCC3BH   LINE      ECODE    ---       #560
      00FFCC47H   LINE      ECODE    ---       #563
      00FFCC4AH   LINE      ECODE    ---       #564
      00FFCC4CH   LINE      ECODE    ---       #565
      00FFCC4CH   LINE      ECODE    ---       #567
      00FFCC54H   LINE      ECODE    ---       #568
      00FFCC5CH   LINE      ECODE    ---       #570
      00FFCC5CH   LINE      ECODE    ---       #572
      00FFCC63H   LINE      ECODE    ---       #573
      00FFCC6DH   LINE      ECODE    ---       #580
      00FFCC79H   LINE      ECODE    ---       #583
      00FFCC7CH   LINE      ECODE    ---       #584
      00FFCC7EH   LINE      ECODE    ---       #585
      00FFCC83H   LINE      ECODE    ---       #587
      00FFCC88H   LINE      ECODE    ---       #589
      00FFCC88H   LINE      ECODE    ---       #590
      00FFCC88H   LINE      ECODE    ---       #592
      00FFCC90H   LINE      ECODE    ---       #593
      00FFCC97H   LINE      ECODE    ---       #594
      00FFCC9FH   LINE      ECODE    ---       #595
      00FFCCA7H   LINE      ECODE    ---       #597
      00FFCCAFH   LINE      ECODE    ---       #604
      00FFCCB7H   LINE      ECODE    ---       #611
      00FFCCBFH   LINE      ECODE    ---       #614
      00FFCCBFH   LINE      ECODE    ---       #615
      00FFCCC1H   LINE      ECODE    ---       #616
      ---         BLOCKEND  ---      ---       LVL=0

      ---         MODULE    ---      ---       SEEKFREE_IMU660RA
      00FFC4FBH   PUBLIC    ECODE    ---       imu660ra_get_gyro?
      00FFC54DH   PUBLIC    ECODE    ---       imu660ra_gyro_transition?
      00FFC561H   PUBLIC    ECODE    ---       imu660ra_init?
      00FFC4BBH   PUBLIC    ECODE    ---       imu660ra_get_acc?
      00FFC53BH   PUBLIC    ECODE    ---       imu660ra_acc_transition?
      000007F7H   PUBLIC    EDATA    INT       imu660ra_acc_x
      000007F9H   PUBLIC    EDATA    INT       imu660ra_acc_y
      000007FBH   PUBLIC    EDATA    INT       imu660ra_acc_z
      000007FDH   PUBLIC    EDATA    INT       imu660ra_gyro_x
      000007FFH   PUBLIC    EDATA    INT       imu660ra_gyro_y
      00000801H   PUBLIC    EDATA    INT       imu660ra_gyro_z
      000000D0H   SFRSYM    DATA     BYTE      PSW
L251 LINKER/LOCATER V4.66.93.0                                                        07/23/2023  00:26:15  PAGE 103


      0000009DH   SFRSYM    DATA     BYTE      IRCBAND
      00000097H   SFRSYM    DATA     BYTE      AUXR2
      000000EFH   SFRSYM    DATA     BYTE      AUXINTIF
      000000FDH   SFRSYM    DATA     BYTE      S4CON
      000000ACH   SFRSYM    DATA     BYTE      S3CON
      0000009AH   SFRSYM    DATA     BYTE      S2CON
      000000B7H   SFRSYM    DATA     BYTE      IPH
      000000CDH   SFRSYM    DATA     BYTE      SPSTAT
      000000DDH   SFRSYM    DATA     BYTE      T4T3M
      000000C1H   SFRSYM    DATA     BYTE      WDT_CONTR
      000000DFH   SFRSYM    DATA     BYTE      IP3
      000000F4H   SFRSYM    DATA     BYTE      USBCON
      000000B5H   SFRSYM    DATA     BYTE      IP2
      000000FFH   SFRSYM    DATA     BYTE      RSTCFG
      000000F9H   SFRSYM    DATA     BYTE      LINICR
      0000008EH   SFRSYM    DATA     BYTE      AUXR
      000000AFH   SFRSYM    DATA     BYTE      IE2
      000000C0H.3 SFRSYM    DATA     BIT       P43
      000000C0H.2 SFRSYM    DATA     BIT       P42
      00000088H   SFRSYM    DATA     BYTE      TCON
      000000C0H.1 SFRSYM    DATA     BIT       P41
      00000098H   SFRSYM    DATA     BYTE      SCON
      000000C0H.0 SFRSYM    DATA     BIT       P40
      000000F1H   SFRSYM    DATA     BYTE      CANICR
      00000087H   SFRSYM    DATA     BYTE      PCON
      000000BCH   SFRSYM    DATA     BYTE      ADC_CONTR
      000000E7H   SFRSYM    DATA     BYTE      CMPCR2
      000000E6H   SFRSYM    DATA     BYTE      CMPCR1
      000000B8H   SFRSYM    DATA     BYTE      IP
      0000008FH   SFRSYM    DATA     BYTE      INTCLKO
      000000EEH   SFRSYM    DATA     BYTE      IP3H
      000000B6H   SFRSYM    DATA     BYTE      IP2H
      000000A8H   SFRSYM    DATA     BYTE      IE
      000000BBH   SFRSYM    DATA     BYTE      P_SW3
      000000BAH   SFRSYM    DATA     BYTE      P_SW2
      000000A2H   SFRSYM    DATA     BYTE      P_SW1
      000000CEH   SFRSYM    DATA     BYTE      SPCTL
      000000F8H   SFRSYM    DATA     BYTE      P7
      000000E8H   SFRSYM    DATA     BYTE      P6
      000000C8H   SFRSYM    DATA     BYTE      P5
      000000C0H   SFRSYM    DATA     BYTE      P4
      000000B0H   SFRSYM    DATA     BYTE      P3
      000000A0H   SFRSYM    DATA     BYTE      P2
      00000090H   SFRSYM    DATA     BYTE      P1
      00000080H   SFRSYM    DATA     BYTE      P0
      00FFC468H   SYMBOL    ECODE    ---       imu660ra_read_register
      00FFC45AH   SYMBOL    ECODE    ---       imu660ra_write_registers
      00FFC452H   SYMBOL    ECODE    ---       imu660ra_write_register
      00FFC3CBH   SYMBOL    ECODE    ---       imu660ra_simspi_wr_byte
      00FFC48EH   SYMBOL    ECODE    ---       imu660ra_self_check
      00FFC422H   SYMBOL    ECODE    ---       imu660ra_simspi_r_reg_bytes
      00FFC3FDH   SYMBOL    ECODE    ---       imu660ra_simspi_w_reg_bytes
      00FFC3EEH   SYMBOL    ECODE    ---       imu660ra_simspi_w_reg_byte
      00FFC47EH   SYMBOL    ECODE    ---       imu660ra_read_registers

      00FFC3CBH   BLOCK     ECODE    ---       LVL=0
      R6          REGSYM    ---      BYTE      byte
      00FFC3CDH   BLOCK     ECODE    NEAR LAB  LVL=1
      R7          REGSYM    ---      BYTE      i
      ---         BLOCKEND  ---      ---       LVL=1
      00FFC3CBH   LINE      ECODE    ---       #309
      00FFC3CDH   LINE      ECODE    ---       #310
      00FFC3CDH   LINE      ECODE    ---       #313
      00FFC3CFH   LINE      ECODE    ---       #315
      00FFC3D4H   LINE      ECODE    ---       #316
L251 LINKER/LOCATER V4.66.93.0                                                        07/23/2023  00:26:15  PAGE 104


      00FFC3D6H   LINE      ECODE    ---       #317
      00FFC3D8H   LINE      ECODE    ---       #318
      00FFC3DAH   LINE      ECODE    ---       #319
      00FFC3DCH   LINE      ECODE    ---       #320
      00FFC3DEH   LINE      ECODE    ---       #322
      00FFC3E4H   LINE      ECODE    ---       #323
      00FFC3EBH   LINE      ECODE    ---       #324
      00FFC3EDH   LINE      ECODE    ---       #325
      ---         BLOCKEND  ---      ---       LVL=0

      00FFC3EEH   BLOCK     ECODE    ---       LVL=0
      R7          REGSYM    ---      BYTE      cmd
      R15         REGSYM    ---      BYTE      val
      00FFC3EEH   LINE      ECODE    ---       #333
      00FFC3F2H   LINE      ECODE    ---       #335
      00FFC3F2H   LINE      ECODE    ---       #336
      00FFC3F5H   LINE      ECODE    ---       #337
      00FFC3FAH   LINE      ECODE    ---       #338
      ---         BLOCKEND  ---      ---       LVL=0

      00FFC3FDH   BLOCK     ECODE    ---       LVL=0
      R11         REGSYM    ---      BYTE      cmd
      000002CCH   SYMBOL    EDATA    ---       dat_addr
      DR12        REGSYM    ---      DWORD     len
      00FFC3FDH   LINE      ECODE    ---       #348
      00FFC405H   LINE      ECODE    ---       #350
      00FFC405H   LINE      ECODE    ---       #351
      00FFC405H   LINE      ECODE    ---       #352
      00FFC407H   LINE      ECODE    ---       #354
      00FFC417H   LINE      ECODE    ---       #355
      00FFC41FH   LINE      ECODE    ---       #356
      ---         BLOCKEND  ---      ---       LVL=0

      00FFC422H   BLOCK     ECODE    ---       LVL=0
      R7          REGSYM    ---      BYTE      cmd
      REG=3       REGSYM    ---      ---       val
      000002CEH   SYMBOL    EDATA    DWORD     num
      00FFC422H   LINE      ECODE    ---       #382
      00FFC42CH   LINE      ECODE    ---       #384
      00FFC42FH   LINE      ECODE    ---       #385
      00FFC434H   LINE      ECODE    ---       #387
      00FFC436H   LINE      ECODE    ---       #389
      00FFC43FH   LINE      ECODE    ---       #390
      00FFC44FH   LINE      ECODE    ---       #391
      ---         BLOCKEND  ---      ---       LVL=0

      00FFC452H   BLOCK     ECODE    ---       LVL=0
      R11         REGSYM    ---      BYTE      reg
      R7          REGSYM    ---      BYTE      dat
      00FFC452H   LINE      ECODE    ---       #402
      00FFC452H   LINE      ECODE    ---       #404
      00FFC454H   LINE      ECODE    ---       #405
      00FFC457H   LINE      ECODE    ---       #406
      00FFC459H   LINE      ECODE    ---       #407
      ---         BLOCKEND  ---      ---       LVL=0

      00FFC45AH   BLOCK     ECODE    ---       LVL=0
      R3          REGSYM    ---      BYTE      reg
      REG=1       REGSYM    ---      ---       dat
      DR28        REGSYM    ---      DWORD     len
      00FFC45AH   LINE      ECODE    ---       #417
      00FFC45EH   LINE      ECODE    ---       #419
      00FFC460H   LINE      ECODE    ---       #421
      00FFC465H   LINE      ECODE    ---       #422
      00FFC467H   LINE      ECODE    ---       #423
L251 LINKER/LOCATER V4.66.93.0                                                        07/23/2023  00:26:15  PAGE 105


      ---         BLOCKEND  ---      ---       LVL=0

      00FFC468H   BLOCK     ECODE    ---       LVL=0
      R7          REGSYM    ---      BYTE      reg
      000002CCH   SYMBOL    EDATA    ---       dat
      00FFC468H   LINE      ECODE    ---       #432
      00FFC468H   LINE      ECODE    ---       #433
      00FFC468H   LINE      ECODE    ---       #435
      00FFC46AH   LINE      ECODE    ---       #436
      00FFC477H   LINE      ECODE    ---       #437
      00FFC479H   LINE      ECODE    ---       #438
      00FFC47DH   LINE      ECODE    ---       #439
      ---         BLOCKEND  ---      ---       LVL=0

      00FFC47EH   BLOCK     ECODE    ---       LVL=0
      R3          REGSYM    ---      BYTE      reg
      REG=1       REGSYM    ---      ---       dat
      DR28        REGSYM    ---      DWORD     len
      00FFC47EH   LINE      ECODE    ---       #450
      00FFC482H   LINE      ECODE    ---       #452
      00FFC484H   LINE      ECODE    ---       #453
      00FFC48BH   LINE      ECODE    ---       #454
      00FFC48DH   LINE      ECODE    ---       #455
      ---         BLOCKEND  ---      ---       LVL=0

      00FFC48EH   BLOCK     ECODE    ---       LVL=0
      00FFC490H   BLOCK     ECODE    NEAR LAB  LVL=1
      R14         REGSYM    ---      BYTE      dat
      R15         REGSYM    ---      BYTE      return_state
      WR12        REGSYM    ---      WORD      timeout_count
      ---         BLOCKEND  ---      ---       LVL=1
      00FFC48EH   LINE      ECODE    ---       #465
      00FFC490H   LINE      ECODE    ---       #466
      00FFC490H   LINE      ECODE    ---       #467
      00FFC492H   LINE      ECODE    ---       #468
      00FFC494H   LINE      ECODE    ---       #469
      00FFC494H   LINE      ECODE    ---       #471
      00FFC49EH   LINE      ECODE    ---       #473
      00FFC4A1H   LINE      ECODE    ---       #474
      00FFC4A3H   LINE      ECODE    ---       #475
      00FFC4A3H   LINE      ECODE    ---       #476
      00FFC4A9H   LINE      ECODE    ---       #477
      00FFC4B1H   LINE      ECODE    ---       #478
      00FFC4B6H   LINE      ECODE    ---       #479
      00FFC4B8H   LINE      ECODE    ---       #480
      ---         BLOCKEND  ---      ---       LVL=0

      00FFC4BBH   BLOCK     ECODE    ---       LVL=0
      00FFC4BBH   LINE      ECODE    ---       #490
      00FFC4BBH   LINE      ECODE    ---       #491
      00FFC4BBH   LINE      ECODE    ---       #501
      00FFC4C8H   LINE      ECODE    ---       #502
      00FFC4DAH   LINE      ECODE    ---       #503
      00FFC4EAH   LINE      ECODE    ---       #504
      00FFC4FAH   LINE      ECODE    ---       #506
      ---         BLOCKEND  ---      ---       LVL=0

      00FFC4FBH   BLOCK     ECODE    ---       LVL=0
      0000023EH   SYMBOL    EDATA    ---       dat
      00FFC4FBH   LINE      ECODE    ---       #515
      00FFC4FBH   LINE      ECODE    ---       #516
      00FFC4FBH   LINE      ECODE    ---       #526
      00FFC508H   LINE      ECODE    ---       #527
      00FFC51AH   LINE      ECODE    ---       #528
      00FFC52AH   LINE      ECODE    ---       #529
L251 LINKER/LOCATER V4.66.93.0                                                        07/23/2023  00:26:15  PAGE 106


      00FFC53AH   LINE      ECODE    ---       #531
      ---         BLOCKEND  ---      ---       LVL=0

      00FFC53BH   BLOCK     ECODE    ---       LVL=0
      WR8         REGSYM    ---      INT       acc_value
      DR4         REGSYM    ---      FLOAT     acc_dat
      00FFC53BH   LINE      ECODE    ---       #540
      00FFC53BH   LINE      ECODE    ---       #541
      00FFC53BH   LINE      ECODE    ---       #542
      00FFC53BH   LINE      ECODE    ---       #543
      00FFC53BH   LINE      ECODE    ---       #545
      00FFC53BH   LINE      ECODE    ---       #546
      00FFC53BH   LINE      ECODE    ---       #547
      00FFC54DH   LINE      ECODE    ---       #548
      00FFC54DH   LINE      ECODE    ---       #549
      00FFC54DH   LINE      ECODE    ---       #550
      00FFC54DH   LINE      ECODE    ---       #551
      00FFC54DH   LINE      ECODE    ---       #552
      ---         BLOCKEND  ---      ---       LVL=0

      00FFC54DH   BLOCK     ECODE    ---       LVL=0
      WR8         REGSYM    ---      INT       gyro_value
      DR4         REGSYM    ---      FLOAT     gyro_dat
      00FFC54DH   LINE      ECODE    ---       #561
      00FFC54DH   LINE      ECODE    ---       #562
      00FFC54DH   LINE      ECODE    ---       #563
      00FFC54DH   LINE      ECODE    ---       #564
      00FFC54DH   LINE      ECODE    ---       #566
      00FFC561H   LINE      ECODE    ---       #567
      00FFC561H   LINE      ECODE    ---       #568
      00FFC561H   LINE      ECODE    ---       #569
      00FFC561H   LINE      ECODE    ---       #570
      00FFC561H   LINE      ECODE    ---       #571
      00FFC561H   LINE      ECODE    ---       #572
      00FFC561H   LINE      ECODE    ---       #573
      00FFC561H   LINE      ECODE    ---       #574
      ---         BLOCKEND  ---      ---       LVL=0

      00FFC561H   BLOCK     ECODE    ---       LVL=0
      00FFC563H   BLOCK     ECODE    NEAR LAB  LVL=1
      R15         REGSYM    ---      BYTE      return_state
      ---         BLOCKEND  ---      ---       LVL=1
      00FFC561H   LINE      ECODE    ---       #583
      00FFC563H   LINE      ECODE    ---       #584
      00FFC563H   LINE      ECODE    ---       #585
      00FFC565H   LINE      ECODE    ---       #587
      00FFC56DH   LINE      ECODE    ---       #598
      00FFC56DH   LINE      ECODE    ---       #599
      00FFC572H   LINE      ECODE    ---       #604
      00FFC572H   LINE      ECODE    ---       #606
      00FFC588H   LINE      ECODE    ---       #607
      00FFC594H   LINE      ECODE    ---       #608
      00FFC59CH   LINE      ECODE    ---       #609
      00FFC59EH   LINE      ECODE    ---       #612
      00FFC59EH   LINE      ECODE    ---       #614
      00FFC5A5H   LINE      ECODE    ---       #615
      00FFC5ADH   LINE      ECODE    ---       #616
      00FFC5B4H   LINE      ECODE    ---       #617
      00FFC5C5H   LINE      ECODE    ---       #618
      00FFC5CDH   LINE      ECODE    ---       #619
      00FFC5D5H   LINE      ECODE    ---       #620
      00FFC5DCH   LINE      ECODE    ---       #627
      00FFC5F6H   LINE      ECODE    ---       #628
      00FFC602H   LINE      ECODE    ---       #631
      00FFC605H   LINE      ECODE    ---       #633
L251 LINKER/LOCATER V4.66.93.0                                                        07/23/2023  00:26:15  PAGE 107


      00FFC605H   LINE      ECODE    ---       #634
      00FFC60DH   LINE      ECODE    ---       #635
      00FFC615H   LINE      ECODE    ---       #636
      00FFC61DH   LINE      ECODE    ---       #638
      00FFC625H   LINE      ECODE    ---       #646
      00FFC62CH   LINE      ECODE    ---       #653
      00FFC62CH   LINE      ECODE    ---       #654
      00FFC62EH   LINE      ECODE    ---       #655
      ---         BLOCKEND  ---      ---       LVL=0

      ---         MODULE    ---      ---       SEEKFREE_IMU963RA
      00FFB427H   PUBLIC    ECODE    ---       imu963ra_acc_transition?
      00FFB390H   PUBLIC    ECODE    ---       imu963ra_get_gyro?
      00FFB42DH   PUBLIC    ECODE    ---       imu963ra_mag_transition?
      00FFB42AH   PUBLIC    ECODE    ---       imu963ra_gyro_transition?
      00FFB441H   PUBLIC    ECODE    ---       imu963ra_init?
      00FFB350H   PUBLIC    ECODE    ---       imu963ra_get_acc?
      00FFB3D0H   PUBLIC    ECODE    ---       imu963ra_get_mag?
      000007CAH   PUBLIC    EDATA    INT       imu963ra_acc_x
      000007CCH   PUBLIC    EDATA    INT       imu963ra_acc_y
      000007CEH   PUBLIC    EDATA    INT       imu963ra_acc_z
      000007D0H   PUBLIC    EDATA    INT       imu963ra_mag_x
      000007D2H   PUBLIC    EDATA    INT       imu963ra_mag_y
      000007D4H   PUBLIC    EDATA    INT       imu963ra_mag_z
      000007D6H   PUBLIC    EDATA    INT       imu963ra_gyro_x
      000007D8H   PUBLIC    EDATA    INT       imu963ra_gyro_y
      000007DAH   PUBLIC    EDATA    INT       imu963ra_gyro_z
      000000D0H   SFRSYM    DATA     BYTE      PSW
      0000009DH   SFRSYM    DATA     BYTE      IRCBAND
      00000097H   SFRSYM    DATA     BYTE      AUXR2
      000000EFH   SFRSYM    DATA     BYTE      AUXINTIF
      000000FDH   SFRSYM    DATA     BYTE      S4CON
      000000ACH   SFRSYM    DATA     BYTE      S3CON
      0000009AH   SFRSYM    DATA     BYTE      S2CON
      000000B7H   SFRSYM    DATA     BYTE      IPH
      000000CDH   SFRSYM    DATA     BYTE      SPSTAT
      000000DDH   SFRSYM    DATA     BYTE      T4T3M
      000000C1H   SFRSYM    DATA     BYTE      WDT_CONTR
      000000DFH   SFRSYM    DATA     BYTE      IP3
      000000F4H   SFRSYM    DATA     BYTE      USBCON
      000000B5H   SFRSYM    DATA     BYTE      IP2
      000000FFH   SFRSYM    DATA     BYTE      RSTCFG
      000000F9H   SFRSYM    DATA     BYTE      LINICR
      0000008EH   SFRSYM    DATA     BYTE      AUXR
      000000AFH   SFRSYM    DATA     BYTE      IE2
      000000C0H.3 SFRSYM    DATA     BIT       P43
      000000C0H.2 SFRSYM    DATA     BIT       P42
      00000088H   SFRSYM    DATA     BYTE      TCON
      000000C0H.1 SFRSYM    DATA     BIT       P41
      00000098H   SFRSYM    DATA     BYTE      SCON
      000000C0H.0 SFRSYM    DATA     BIT       P40
      000000F1H   SFRSYM    DATA     BYTE      CANICR
      00000087H   SFRSYM    DATA     BYTE      PCON
      000000BCH   SFRSYM    DATA     BYTE      ADC_CONTR
      000000E7H   SFRSYM    DATA     BYTE      CMPCR2
      000000E6H   SFRSYM    DATA     BYTE      CMPCR1
      000000B8H   SFRSYM    DATA     BYTE      IP
      0000008FH   SFRSYM    DATA     BYTE      INTCLKO
      000000EEH   SFRSYM    DATA     BYTE      IP3H
      000000B6H   SFRSYM    DATA     BYTE      IP2H
      000000A8H   SFRSYM    DATA     BYTE      IE
      000000BBH   SFRSYM    DATA     BYTE      P_SW3
      000000BAH   SFRSYM    DATA     BYTE      P_SW2
      000000A2H   SFRSYM    DATA     BYTE      P_SW1
      000000CEH   SFRSYM    DATA     BYTE      SPCTL
L251 LINKER/LOCATER V4.66.93.0                                                        07/23/2023  00:26:15  PAGE 108


      000000F8H   SFRSYM    DATA     BYTE      P7
      000000E8H   SFRSYM    DATA     BYTE      P6
      000000C8H   SFRSYM    DATA     BYTE      P5
      000000C0H   SFRSYM    DATA     BYTE      P4
      000000B0H   SFRSYM    DATA     BYTE      P3
      000000A0H   SFRSYM    DATA     BYTE      P2
      00000090H   SFRSYM    DATA     BYTE      P1
      00000080H   SFRSYM    DATA     BYTE      P0
      00FFB15BH   SYMBOL    ECODE    ---       imu963ra_simspi_wr_byte
      00FFB272H   SYMBOL    ECODE    ---       imu963ra_read_mag_register
      00FFB2C5H   SYMBOL    ECODE    ---       imu963ra_connect_mag
      00FFB200H   SYMBOL    ECODE    ---       imu963ra_read_acc_gyro_registers
      00FFB210H   SYMBOL    ECODE    ---       imu963ra_write_mag_register
      00FFB1E5H   SYMBOL    ECODE    ---       imu963ra_read_acc_gyro_register
      00FFB1ADH   SYMBOL    ECODE    ---       imu963ra_simspi_r_reg_bytes
      00FFB191H   SYMBOL    ECODE    ---       imu963ra_simspi_r_reg_byte
      00FFB31FH   SYMBOL    ECODE    ---       imu963ra_mag_self_check
      00FFB1DDH   SYMBOL    ECODE    ---       imu963ra_write_acc_gyro_register
      00FFB17EH   SYMBOL    ECODE    ---       imu963ra_simspi_w_reg_byte
      00FFB2F1H   SYMBOL    ECODE    ---       imu963ra_acc_gyro_self_check

      00FFB15BH   BLOCK     ECODE    ---       LVL=0
      R6          REGSYM    ---      BYTE      byte
      00FFB15DH   BLOCK     ECODE    NEAR LAB  LVL=1
      R7          REGSYM    ---      BYTE      i
      ---         BLOCKEND  ---      ---       LVL=1
      00FFB15BH   LINE      ECODE    ---       #361
      00FFB15DH   LINE      ECODE    ---       #362
      00FFB15DH   LINE      ECODE    ---       #365
      00FFB15FH   LINE      ECODE    ---       #367
      00FFB164H   LINE      ECODE    ---       #368
      00FFB166H   LINE      ECODE    ---       #369
      00FFB168H   LINE      ECODE    ---       #370
      00FFB16AH   LINE      ECODE    ---       #372
      00FFB16CH   LINE      ECODE    ---       #373
      00FFB16EH   LINE      ECODE    ---       #374
      00FFB174H   LINE      ECODE    ---       #375
      00FFB17BH   LINE      ECODE    ---       #376
      00FFB17DH   LINE      ECODE    ---       #377
      ---         BLOCKEND  ---      ---       LVL=0

      00FFB17EH   BLOCK     ECODE    ---       LVL=0
      R7          REGSYM    ---      BYTE      cmd
      R15         REGSYM    ---      BYTE      val
      00FFB17EH   LINE      ECODE    ---       #385
      00FFB182H   LINE      ECODE    ---       #387
      00FFB184H   LINE      ECODE    ---       #388
      00FFB184H   LINE      ECODE    ---       #389
      00FFB187H   LINE      ECODE    ---       #390
      00FFB18CH   LINE      ECODE    ---       #391
      00FFB18EH   LINE      ECODE    ---       #392
      ---         BLOCKEND  ---      ---       LVL=0

      00FFB191H   BLOCK     ECODE    ---       LVL=0
      R7          REGSYM    ---      BYTE      cmd
      REG=3       REGSYM    ---      ---       val
      00FFB191H   LINE      ECODE    ---       #423
      00FFB197H   LINE      ECODE    ---       #425
      00FFB199H   LINE      ECODE    ---       #426
      00FFB19CH   LINE      ECODE    ---       #427
      00FFB1A1H   LINE      ECODE    ---       #428
      00FFB1A8H   LINE      ECODE    ---       #429
      00FFB1AAH   LINE      ECODE    ---       #430
      ---         BLOCKEND  ---      ---       LVL=0

L251 LINKER/LOCATER V4.66.93.0                                                        07/23/2023  00:26:15  PAGE 109


      00FFB1ADH   BLOCK     ECODE    ---       LVL=0
      R7          REGSYM    ---      BYTE      cmd
      REG=3       REGSYM    ---      ---       val
      00000861H   SYMBOL    EDATA    DWORD     num
      00FFB1ADH   LINE      ECODE    ---       #440
      00FFB1B7H   LINE      ECODE    ---       #443
      00FFB1BAH   LINE      ECODE    ---       #444
      00FFB1BFH   LINE      ECODE    ---       #446
      00FFB1C1H   LINE      ECODE    ---       #448
      00FFB1CAH   LINE      ECODE    ---       #449
      00FFB1DAH   LINE      ECODE    ---       #450
      ---         BLOCKEND  ---      ---       LVL=0

      00FFB1DDH   BLOCK     ECODE    ---       LVL=0
      R11         REGSYM    ---      BYTE      reg
      R7          REGSYM    ---      BYTE      dat
      00FFB1DDH   LINE      ECODE    ---       #462
      00FFB1DDH   LINE      ECODE    ---       #464
      00FFB1DFH   LINE      ECODE    ---       #465
      00FFB1E2H   LINE      ECODE    ---       #467
      00FFB1E4H   LINE      ECODE    ---       #468
      ---         BLOCKEND  ---      ---       LVL=0

      00FFB1E5H   BLOCK     ECODE    ---       LVL=0
      R10         REGSYM    ---      BYTE      reg
      00FFB1E7H   BLOCK     ECODE    NEAR LAB  LVL=1
      00000890H   SYMBOL    EDATA    BYTE      dat
      ---         BLOCKEND  ---      ---       LVL=1
      00FFB1E5H   LINE      ECODE    ---       #477
      00FFB1E7H   LINE      ECODE    ---       #478
      00FFB1E7H   LINE      ECODE    ---       #479
      00FFB1ECH   LINE      ECODE    ---       #480
      00FFB1EEH   LINE      ECODE    ---       #481
      00FFB1F9H   LINE      ECODE    ---       #482
      00FFB1FBH   LINE      ECODE    ---       #483
      00FFB1FFH   LINE      ECODE    ---       #484
      ---         BLOCKEND  ---      ---       LVL=0

      00FFB200H   BLOCK     ECODE    ---       LVL=0
      R3          REGSYM    ---      BYTE      reg
      REG=1       REGSYM    ---      ---       dat
      DR28        REGSYM    ---      DWORD     len
      00FFB200H   LINE      ECODE    ---       #495
      00FFB204H   LINE      ECODE    ---       #497
      00FFB206H   LINE      ECODE    ---       #498
      00FFB20DH   LINE      ECODE    ---       #500
      00FFB20FH   LINE      ECODE    ---       #501
      ---         BLOCKEND  ---      ---       LVL=0

      00FFB210H   BLOCK     ECODE    ---       LVL=0
      R15         REGSYM    ---      BYTE      addr
      R13         REGSYM    ---      BYTE      reg
      R14         REGSYM    ---      BYTE      dat
      00FFB218H   BLOCK     ECODE    NEAR LAB  LVL=1
      R12         REGSYM    ---      BYTE      return_state
      00000889H   SYMBOL    EDATA    WORD      timeout_count
      ---         BLOCKEND  ---      ---       LVL=1
      00FFB210H   LINE      ECODE    ---       #513
      00FFB218H   LINE      ECODE    ---       #514
      00FFB218H   LINE      ECODE    ---       #515
      00FFB21AH   LINE      ECODE    ---       #516
      00FFB220H   LINE      ECODE    ---       #518
      00FFB222H   LINE      ECODE    ---       #519
      00FFB227H   LINE      ECODE    ---       #520
      00FFB22EH   LINE      ECODE    ---       #521
L251 LINKER/LOCATER V4.66.93.0                                                        07/23/2023  00:26:15  PAGE 110


      00FFB235H   LINE      ECODE    ---       #522
      00FFB23CH   LINE      ECODE    ---       #523
      00FFB244H   LINE      ECODE    ---       #526
      00FFB246H   LINE      ECODE    ---       #528
      00FFB258H   LINE      ECODE    ---       #530
      00FFB25BH   LINE      ECODE    ---       #531
      00FFB25DH   LINE      ECODE    ---       #532
      00FFB25DH   LINE      ECODE    ---       #533
      00FFB265H   LINE      ECODE    ---       #534
      00FFB26DH   LINE      ECODE    ---       #535
      00FFB26FH   LINE      ECODE    ---       #536
      ---         BLOCKEND  ---      ---       LVL=0

      00FFB272H   BLOCK     ECODE    ---       LVL=0
      R10         REGSYM    ---      BYTE      addr
      R15         REGSYM    ---      BYTE      reg
      00FFB27AH   BLOCK     ECODE    NEAR LAB  LVL=1
      WR12        REGSYM    ---      WORD      timeout_count
      ---         BLOCKEND  ---      ---       LVL=1
      00FFB272H   LINE      ECODE    ---       #546
      00FFB27AH   LINE      ECODE    ---       #547
      00FFB27AH   LINE      ECODE    ---       #548
      00FFB27CH   LINE      ECODE    ---       #550
      00FFB27EH   LINE      ECODE    ---       #551
      00FFB288H   LINE      ECODE    ---       #552
      00FFB28FH   LINE      ECODE    ---       #553
      00FFB297H   LINE      ECODE    ---       #554
      00FFB29FH   LINE      ECODE    ---       #557
      00FFB2A1H   LINE      ECODE    ---       #559
      00FFB2ABH   LINE      ECODE    ---       #561
      00FFB2ABH   LINE      ECODE    ---       #562
      00FFB2ABH   LINE      ECODE    ---       #563
      00FFB2B3H   LINE      ECODE    ---       #564
      00FFB2BBH   LINE      ECODE    ---       #566
      00FFB2C0H   LINE      ECODE    ---       #567
      ---         BLOCKEND  ---      ---       LVL=0

      00FFB2C5H   BLOCK     ECODE    ---       LVL=0
      R10         REGSYM    ---      BYTE      addr
      R15         REGSYM    ---      BYTE      reg
      00FFB2C5H   LINE      ECODE    ---       #577
      00FFB2CBH   LINE      ECODE    ---       #579
      00FFB2CDH   LINE      ECODE    ---       #581
      00FFB2D7H   LINE      ECODE    ---       #582
      00FFB2DEH   LINE      ECODE    ---       #583
      00FFB2E6H   LINE      ECODE    ---       #584
      00FFB2EEH   LINE      ECODE    ---       #585
      ---         BLOCKEND  ---      ---       LVL=0

      00FFB2F1H   BLOCK     ECODE    ---       LVL=0
      00FFB2F3H   BLOCK     ECODE    NEAR LAB  LVL=1
      R15         REGSYM    ---      BYTE      return_state
      R14         REGSYM    ---      BYTE      dat
      WR12        REGSYM    ---      WORD      timeout_count
      ---         BLOCKEND  ---      ---       LVL=1
      00FFB2F1H   LINE      ECODE    ---       #595
      00FFB2F3H   LINE      ECODE    ---       #596
      00FFB2F3H   LINE      ECODE    ---       #597
      00FFB2F5H   LINE      ECODE    ---       #598
      00FFB2F5H   LINE      ECODE    ---       #599
      00FFB2F7H   LINE      ECODE    ---       #601
      00FFB2F7H   LINE      ECODE    ---       #603
      00FFB301H   LINE      ECODE    ---       #605
      00FFB304H   LINE      ECODE    ---       #606
      00FFB306H   LINE      ECODE    ---       #607
L251 LINKER/LOCATER V4.66.93.0                                                        07/23/2023  00:26:15  PAGE 111


      00FFB306H   LINE      ECODE    ---       #608
      00FFB30DH   LINE      ECODE    ---       #609
      00FFB315H   LINE      ECODE    ---       #610
      00FFB31AH   LINE      ECODE    ---       #611
      00FFB31CH   LINE      ECODE    ---       #612
      ---         BLOCKEND  ---      ---       LVL=0

      00FFB31FH   BLOCK     ECODE    ---       LVL=0
      00FFB321H   BLOCK     ECODE    NEAR LAB  LVL=1
      R15         REGSYM    ---      BYTE      return_state
      R14         REGSYM    ---      BYTE      dat
      WR12        REGSYM    ---      WORD      timeout_count
      ---         BLOCKEND  ---      ---       LVL=1
      00FFB31FH   LINE      ECODE    ---       #621
      00FFB321H   LINE      ECODE    ---       #622
      00FFB321H   LINE      ECODE    ---       #623
      00FFB323H   LINE      ECODE    ---       #624
      00FFB323H   LINE      ECODE    ---       #625
      00FFB325H   LINE      ECODE    ---       #627
      00FFB325H   LINE      ECODE    ---       #629
      00FFB32FH   LINE      ECODE    ---       #631
      00FFB332H   LINE      ECODE    ---       #632
      00FFB334H   LINE      ECODE    ---       #633
      00FFB334H   LINE      ECODE    ---       #634
      00FFB33EH   LINE      ECODE    ---       #635
      00FFB346H   LINE      ECODE    ---       #636
      00FFB34BH   LINE      ECODE    ---       #637
      00FFB34DH   LINE      ECODE    ---       #638
      ---         BLOCKEND  ---      ---       LVL=0

      00FFB350H   BLOCK     ECODE    ---       LVL=0
      00FFB350H   LINE      ECODE    ---       #647
      00FFB350H   LINE      ECODE    ---       #648
      00FFB350H   LINE      ECODE    ---       #651
      00FFB35DH   LINE      ECODE    ---       #652
      00FFB36FH   LINE      ECODE    ---       #653
      00FFB37FH   LINE      ECODE    ---       #654
      00FFB38FH   LINE      ECODE    ---       #655
      ---         BLOCKEND  ---      ---       LVL=0

      00FFB390H   BLOCK     ECODE    ---       LVL=0
      00FFB390H   LINE      ECODE    ---       #665
      00FFB390H   LINE      ECODE    ---       #666
      00FFB390H   LINE      ECODE    ---       #669
      00FFB39DH   LINE      ECODE    ---       #670
      00FFB3AFH   LINE      ECODE    ---       #671
      00FFB3BFH   LINE      ECODE    ---       #672
      00FFB3CFH   LINE      ECODE    ---       #673
      ---         BLOCKEND  ---      ---       LVL=0

      00FFB3D0H   BLOCK     ECODE    ---       LVL=0
      R11         REGSYM    ---      BYTE      temp_status
      00FFB3D0H   LINE      ECODE    ---       #683
      00FFB3D0H   LINE      ECODE    ---       #684
      00FFB3D0H   LINE      ECODE    ---       #688
      00FFB3D8H   LINE      ECODE    ---       #689
      00FFB3DDH   LINE      ECODE    ---       #690
      00FFB3E0H   LINE      ECODE    ---       #692
      00FFB3EDH   LINE      ECODE    ---       #693
      00FFB3FFH   LINE      ECODE    ---       #694
      00FFB40FH   LINE      ECODE    ---       #695
      00FFB41FH   LINE      ECODE    ---       #696
      00FFB41FH   LINE      ECODE    ---       #697
      00FFB426H   LINE      ECODE    ---       #698
      ---         BLOCKEND  ---      ---       LVL=0
L251 LINKER/LOCATER V4.66.93.0                                                        07/23/2023  00:26:15  PAGE 112



      00FFB427H   BLOCK     ECODE    ---       LVL=0
      00FFB427H   LINE      ECODE    ---       #707
      00FFB427H   LINE      ECODE    ---       #708
      00FFB427H   LINE      ECODE    ---       #709
      00FFB427H   LINE      ECODE    ---       #710
      00FFB427H   LINE      ECODE    ---       #712
      00FFB427H   LINE      ECODE    ---       #713
      00FFB427H   LINE      ECODE    ---       #714
      00FFB427H   LINE      ECODE    ---       #715
      00FFB427H   LINE      ECODE    ---       #716
      00FFB427H   LINE      ECODE    ---       #717
      00FFB427H   LINE      ECODE    ---       #718
      00FFB429H   LINE      ECODE    ---       #719
      ---         BLOCKEND  ---      ---       LVL=0

      00FFB42AH   BLOCK     ECODE    ---       LVL=0
      00FFB42AH   LINE      ECODE    ---       #728
      00FFB42AH   LINE      ECODE    ---       #729
      00FFB42AH   LINE      ECODE    ---       #730
      00FFB42AH   LINE      ECODE    ---       #731
      00FFB42AH   LINE      ECODE    ---       #733
      00FFB42AH   LINE      ECODE    ---       #734
      00FFB42AH   LINE      ECODE    ---       #735
      00FFB42AH   LINE      ECODE    ---       #736
      00FFB42AH   LINE      ECODE    ---       #737
      00FFB42AH   LINE      ECODE    ---       #738
      00FFB42AH   LINE      ECODE    ---       #739
      00FFB42AH   LINE      ECODE    ---       #740
      00FFB42AH   LINE      ECODE    ---       #741
      00FFB42CH   LINE      ECODE    ---       #742
      ---         BLOCKEND  ---      ---       LVL=0

      00FFB42DH   BLOCK     ECODE    ---       LVL=0
      WR8         REGSYM    ---      INT       mag_value
      DR4         REGSYM    ---      FLOAT     mag_dat
      00FFB42DH   LINE      ECODE    ---       #751
      00FFB42DH   LINE      ECODE    ---       #752
      00FFB42DH   LINE      ECODE    ---       #753
      00FFB42DH   LINE      ECODE    ---       #754
      00FFB42DH   LINE      ECODE    ---       #756
      00FFB441H   LINE      ECODE    ---       #757
      00FFB441H   LINE      ECODE    ---       #758
      00FFB441H   LINE      ECODE    ---       #759
      00FFB441H   LINE      ECODE    ---       #760
      00FFB441H   LINE      ECODE    ---       #761
      ---         BLOCKEND  ---      ---       LVL=0

      00FFB441H   BLOCK     ECODE    ---       LVL=0
      00FFB443H   BLOCK     ECODE    NEAR LAB  LVL=1
      R15         REGSYM    ---      BYTE      return_state
      ---         BLOCKEND  ---      ---       LVL=1
      00FFB441H   LINE      ECODE    ---       #770
      00FFB443H   LINE      ECODE    ---       #771
      00FFB443H   LINE      ECODE    ---       #772
      00FFB445H   LINE      ECODE    ---       #773
      00FFB44DH   LINE      ECODE    ---       #782
      00FFB44DH   LINE      ECODE    ---       #784
      00FFB454H   LINE      ECODE    ---       #785
      00FFB45CH   LINE      ECODE    ---       #786
      00FFB464H   LINE      ECODE    ---       #787
      00FFB46BH   LINE      ECODE    ---       #788
      00FFB470H   LINE      ECODE    ---       #792
      00FFB478H   LINE      ECODE    ---       #797
      00FFB478H   LINE      ECODE    ---       #798
L251 LINKER/LOCATER V4.66.93.0                                                        07/23/2023  00:26:15  PAGE 113


      00FFB47BH   LINE      ECODE    ---       #799
      00FFB47BH   LINE      ECODE    ---       #801
      00FFB483H   LINE      ECODE    ---       #802
      00FFB48BH   LINE      ECODE    ---       #809
      00FFB493H   LINE      ECODE    ---       #818
      00FFB49BH   LINE      ECODE    ---       #819
      00FFB4A3H   LINE      ECODE    ---       #820
      00FFB4AAH   LINE      ECODE    ---       #821
      00FFB4B1H   LINE      ECODE    ---       #822
      00FFB4B8H   LINE      ECODE    ---       #823
      00FFB4C0H   LINE      ECODE    ---       #825
      00FFB4C8H   LINE      ECODE    ---       #826
      00FFB4D0H   LINE      ECODE    ---       #827
      00FFB4D8H   LINE      ECODE    ---       #828
      00FFB4DFH   LINE      ECODE    ---       #829
      00FFB4E7H   LINE      ECODE    ---       #831
      00FFB4F2H   LINE      ECODE    ---       #832
      00FFB4FAH   LINE      ECODE    ---       #833
      00FFB504H   LINE      ECODE    ---       #834
      00FFB50CH   LINE      ECODE    ---       #837
      00FFB511H   LINE      ECODE    ---       #841
      00FFB51DH   LINE      ECODE    ---       #846
      00FFB520H   LINE      ECODE    ---       #847
      00FFB522H   LINE      ECODE    ---       #848
      00FFB522H   LINE      ECODE    ---       #850
      00FFB52DH   LINE      ECODE    ---       #855
      00FFB538H   LINE      ECODE    ---       #856
      00FFB53FH   LINE      ECODE    ---       #858
      00FFB546H   LINE      ECODE    ---       #860
      00FFB54EH   LINE      ECODE    ---       #861
      00FFB54EH   LINE      ECODE    ---       #862
      00FFB550H   LINE      ECODE    ---       #863
      ---         BLOCKEND  ---      ---       LVL=0

      ---         MODULE    ---      ---       SEEKFREE_IPS114_SPI
      00FF56F8H   PUBLIC    ECODE    ---       ips114_showuint8_simspi?
      00FF5E89H   PUBLIC    ECODE    ---       ips114_showuint8?
      00FF5638H   PUBLIC    ECODE    ---       ips114_showint8_simspi?
      00FF5DCDH   PUBLIC    ECODE    ---       ips114_showint8?
      00FF5A82H   PUBLIC    ECODE    ---       ips114_writedata_16bit?
      00FF596FH   PUBLIC    ECODE    ---       ips114_showfloat_simspi?
      00FF5547H   PUBLIC    ECODE    ---       ips114_drawpoint_simspi?
      00FF60F8H   PUBLIC    ECODE    ---       ips114_showfloat?
      00FF5CDCH   PUBLIC    ECODE    ---       ips114_drawpoint?
      00FF555CH   PUBLIC    ECODE    ---       ips114_showchar_simspi?
      00FF5CF1H   PUBLIC    ECODE    ---       ips114_showchar?
      00FF585EH   PUBLIC    ECODE    ---       ips114_showuint16_simspi?
      00FF5FE7H   PUBLIC    ECODE    ---       ips114_showuint16?
      00FF58EAH   PUBLIC    ECODE    ---       ips114_showint32_simspi?
      00FF5776H   PUBLIC    ECODE    ---       ips114_showint16_simspi?
      00FF6073H   PUBLIC    ECODE    ---       ips114_showint32?
      00FF5F03H   PUBLIC    ECODE    ---       ips114_showint16?
      00FF5509H   PUBLIC    ECODE    ---       ips114_clear_simspi?
      00FF5C9EH   PUBLIC    ECODE    ---       ips114_clear?
      00FF5305H   PUBLIC    ECODE    ---       ips114_writeDatai_16bit_simspi?
      00FF55E9H   PUBLIC    ECODE    ---       ips114_showstr_simspi?
      00FF5D7EH   PUBLIC    ECODE    ---       ips114_showstr?
      00FF52B3H   PUBLIC    ECODE    ---       ips114_writeIndex_simspi?
      00FF52DCH   PUBLIC    ECODE    ---       ips114_writeData_simspi?
      00FF5A6CH   PUBLIC    ECODE    ---       ips114_writeIndex?
      00FF5A77H   PUBLIC    ECODE    ---       ips114_writeData?
      00FF54BEH   PUBLIC    ECODE    ---       ips114_set_region_simspi?
      00FF5331H   PUBLIC    ECODE    ---       ips114_init_simspi?
      00FF5C4FH   PUBLIC    ECODE    ---       ips114_set_region?
      00FF5AA3H   PUBLIC    ECODE    ---       ips114_init?
L251 LINKER/LOCATER V4.66.93.0                                                        07/23/2023  00:26:15  PAGE 114


      000000D0H   SFRSYM    DATA     BYTE      PSW
      0000009DH   SFRSYM    DATA     BYTE      IRCBAND
      00000097H   SFRSYM    DATA     BYTE      AUXR2
      000000EFH   SFRSYM    DATA     BYTE      AUXINTIF
      000000FDH   SFRSYM    DATA     BYTE      S4CON
      000000ACH   SFRSYM    DATA     BYTE      S3CON
      0000009AH   SFRSYM    DATA     BYTE      S2CON
      000000B7H   SFRSYM    DATA     BYTE      IPH
      000000CDH   SFRSYM    DATA     BYTE      SPSTAT
      000000DDH   SFRSYM    DATA     BYTE      T4T3M
      000000C1H   SFRSYM    DATA     BYTE      WDT_CONTR
      000000DFH   SFRSYM    DATA     BYTE      IP3
      000000F4H   SFRSYM    DATA     BYTE      USBCON
      000000B5H   SFRSYM    DATA     BYTE      IP2
      000000FFH   SFRSYM    DATA     BYTE      RSTCFG
      000000F9H   SFRSYM    DATA     BYTE      LINICR
      0000008EH   SFRSYM    DATA     BYTE      AUXR
      000000AFH   SFRSYM    DATA     BYTE      IE2
      000000E8H.7 SFRSYM    DATA     BIT       P67
      000000C0H.7 SFRSYM    DATA     BIT       P47
      000000E8H.5 SFRSYM    DATA     BIT       P65
      000000A0H.7 SFRSYM    DATA     BIT       P27
      000000E8H.3 SFRSYM    DATA     BIT       P63
      000000F8H.1 SFRSYM    DATA     BIT       P71
      000000E8H.1 SFRSYM    DATA     BIT       P61
      00000088H   SFRSYM    DATA     BYTE      TCON
      00000098H   SFRSYM    DATA     BYTE      SCON
      000000A0H.2 SFRSYM    DATA     BIT       P22
      000000A0H.1 SFRSYM    DATA     BIT       P21
      000000A0H.0 SFRSYM    DATA     BIT       P20
      000000F1H   SFRSYM    DATA     BYTE      CANICR
      00000087H   SFRSYM    DATA     BYTE      PCON
      000000BCH   SFRSYM    DATA     BYTE      ADC_CONTR
      000000E7H   SFRSYM    DATA     BYTE      CMPCR2
      000000E6H   SFRSYM    DATA     BYTE      CMPCR1
      000000B8H   SFRSYM    DATA     BYTE      IP
      0000008FH   SFRSYM    DATA     BYTE      INTCLKO
      000000EEH   SFRSYM    DATA     BYTE      IP3H
      000000B6H   SFRSYM    DATA     BYTE      IP2H
      000000A8H   SFRSYM    DATA     BYTE      IE
      000000BBH   SFRSYM    DATA     BYTE      P_SW3
      000000BAH   SFRSYM    DATA     BYTE      P_SW2
      000000A2H   SFRSYM    DATA     BYTE      P_SW1
      000000CEH   SFRSYM    DATA     BYTE      SPCTL
      000000F8H   SFRSYM    DATA     BYTE      P7
      000000E8H   SFRSYM    DATA     BYTE      P6
      000000C8H   SFRSYM    DATA     BYTE      P5
      000000C0H   SFRSYM    DATA     BYTE      P4
      000000B0H   SFRSYM    DATA     BYTE      P3
      000000A0H   SFRSYM    DATA     BYTE      P2
      00000090H   SFRSYM    DATA     BYTE      P1
      00000080H   SFRSYM    DATA     BYTE      P0

      00FF52B3H   BLOCK     ECODE    ---       LVL=0
      R7          REGSYM    ---      BYTE      dat
      00FF52B5H   BLOCK     ECODE    NEAR LAB  LVL=1
      R6          REGSYM    ---      BYTE      i
      ---         BLOCKEND  ---      ---       LVL=1
      00FF52B3H   LINE      ECODE    ---       #61
      00FF52B5H   LINE      ECODE    ---       #62
      00FF52B5H   LINE      ECODE    ---       #63
      00FF52B8H   LINE      ECODE    ---       #64
      00FF52BAH   LINE      ECODE    ---       #65
      00FF52BCH   LINE      ECODE    ---       #67
      00FF52BEH   LINE      ECODE    ---       #69
L251 LINKER/LOCATER V4.66.93.0                                                        07/23/2023  00:26:15  PAGE 115


      00FF52C0H   LINE      ECODE    ---       #71
      00FF52C9H   LINE      ECODE    ---       #72
      00FF52CBH   LINE      ECODE    ---       #73
      00FF52CDH   LINE      ECODE    ---       #75
      00FF52CFH   LINE      ECODE    ---       #76
      00FF52D1H   LINE      ECODE    ---       #77
      00FF52D9H   LINE      ECODE    ---       #78
      00FF52DBH   LINE      ECODE    ---       #79
      ---         BLOCKEND  ---      ---       LVL=0

      00FF52DCH   BLOCK     ECODE    ---       LVL=0
      R7          REGSYM    ---      BYTE      dat
      00FF52DEH   BLOCK     ECODE    NEAR LAB  LVL=1
      R6          REGSYM    ---      BYTE      i
      ---         BLOCKEND  ---      ---       LVL=1
      00FF52DCH   LINE      ECODE    ---       #88
      00FF52DEH   LINE      ECODE    ---       #89
      00FF52DEH   LINE      ECODE    ---       #90
      00FF52E1H   LINE      ECODE    ---       #91
      00FF52E3H   LINE      ECODE    ---       #92
      00FF52E5H   LINE      ECODE    ---       #94
      00FF52E7H   LINE      ECODE    ---       #96
      00FF52E9H   LINE      ECODE    ---       #98
      00FF52F2H   LINE      ECODE    ---       #99
      00FF52F4H   LINE      ECODE    ---       #100
      00FF52F6H   LINE      ECODE    ---       #102
      00FF52F8H   LINE      ECODE    ---       #103
      00FF52FAH   LINE      ECODE    ---       #104
      00FF5302H   LINE      ECODE    ---       #105
      00FF5304H   LINE      ECODE    ---       #106
      ---         BLOCKEND  ---      ---       LVL=0

      00FF5305H   BLOCK     ECODE    ---       LVL=0
      WR4         REGSYM    ---      WORD      dat
      00FF5307H   BLOCK     ECODE    NEAR LAB  LVL=1
      R10         REGSYM    ---      BYTE      i
      ---         BLOCKEND  ---      ---       LVL=1
      00FF5305H   LINE      ECODE    ---       #115
      00FF5307H   LINE      ECODE    ---       #116
      00FF5307H   LINE      ECODE    ---       #117
      00FF530AH   LINE      ECODE    ---       #118
      00FF530CH   LINE      ECODE    ---       #119
      00FF530EH   LINE      ECODE    ---       #120
      00FF5310H   LINE      ECODE    ---       #121
      00FF5312H   LINE      ECODE    ---       #123
      00FF531EH   LINE      ECODE    ---       #124
      00FF5320H   LINE      ECODE    ---       #125
      00FF5322H   LINE      ECODE    ---       #127
      00FF5324H   LINE      ECODE    ---       #128
      00FF5326H   LINE      ECODE    ---       #129
      00FF532EH   LINE      ECODE    ---       #130
      00FF5330H   LINE      ECODE    ---       #131
      ---         BLOCKEND  ---      ---       LVL=0

      00FF5331H   BLOCK     ECODE    ---       LVL=0
      00FF5331H   LINE      ECODE    ---       #139
      00FF5331H   LINE      ECODE    ---       #142
      00FF5333H   LINE      ECODE    ---       #143
      00FF5335H   LINE      ECODE    ---       #144
      00FF5337H   LINE      ECODE    ---       #146
      00FF533FH   LINE      ECODE    ---       #148
      00FF5341H   LINE      ECODE    ---       #149
      00FF5349H   LINE      ECODE    ---       #151
      00FF534FH   LINE      ECODE    ---       #160
      00FF5355H   LINE      ECODE    ---       #162
L251 LINKER/LOCATER V4.66.93.0                                                        07/23/2023  00:26:15  PAGE 116


      00FF535BH   LINE      ECODE    ---       #163
      00FF5361H   LINE      ECODE    ---       #165
      00FF5367H   LINE      ECODE    ---       #166
      00FF536DH   LINE      ECODE    ---       #167
      00FF5373H   LINE      ECODE    ---       #168
      00FF5378H   LINE      ECODE    ---       #169
      00FF537EH   LINE      ECODE    ---       #170
      00FF5384H   LINE      ECODE    ---       #172
      00FF538AH   LINE      ECODE    ---       #173
      00FF5390H   LINE      ECODE    ---       #175
      00FF5396H   LINE      ECODE    ---       #176
      00FF539CH   LINE      ECODE    ---       #178
      00FF53A2H   LINE      ECODE    ---       #179
      00FF53A8H   LINE      ECODE    ---       #181
      00FF53AEH   LINE      ECODE    ---       #182
      00FF53B4H   LINE      ECODE    ---       #184
      00FF53BAH   LINE      ECODE    ---       #185
      00FF53C0H   LINE      ECODE    ---       #187
      00FF53C6H   LINE      ECODE    ---       #188
      00FF53CCH   LINE      ECODE    ---       #190
      00FF53D2H   LINE      ECODE    ---       #191
      00FF53D8H   LINE      ECODE    ---       #193
      00FF53DEH   LINE      ECODE    ---       #194
      00FF53E4H   LINE      ECODE    ---       #195
      00FF53EAH   LINE      ECODE    ---       #197
      00FF53F0H   LINE      ECODE    ---       #198
      00FF53F6H   LINE      ECODE    ---       #199
      00FF53FCH   LINE      ECODE    ---       #200
      00FF5402H   LINE      ECODE    ---       #201
      00FF5408H   LINE      ECODE    ---       #202
      00FF540EH   LINE      ECODE    ---       #203
      00FF5414H   LINE      ECODE    ---       #204
      00FF541AH   LINE      ECODE    ---       #205
      00FF5420H   LINE      ECODE    ---       #206
      00FF5426H   LINE      ECODE    ---       #207
      00FF542CH   LINE      ECODE    ---       #208
      00FF5432H   LINE      ECODE    ---       #209
      00FF5438H   LINE      ECODE    ---       #210
      00FF543EH   LINE      ECODE    ---       #211
      00FF5444H   LINE      ECODE    ---       #213
      00FF544AH   LINE      ECODE    ---       #214
      00FF5450H   LINE      ECODE    ---       #215
      00FF5456H   LINE      ECODE    ---       #216
      00FF545CH   LINE      ECODE    ---       #217
      00FF5462H   LINE      ECODE    ---       #218
      00FF5468H   LINE      ECODE    ---       #219
      00FF546EH   LINE      ECODE    ---       #220
      00FF5474H   LINE      ECODE    ---       #221
      00FF547AH   LINE      ECODE    ---       #222
      00FF5480H   LINE      ECODE    ---       #223
      00FF5486H   LINE      ECODE    ---       #224
      00FF548CH   LINE      ECODE    ---       #225
      00FF5492H   LINE      ECODE    ---       #226
      00FF5498H   LINE      ECODE    ---       #227
      00FF549EH   LINE      ECODE    ---       #229
      00FF54A4H   LINE      ECODE    ---       #231
      00FF54AAH   LINE      ECODE    ---       #232
      00FF54B2H   LINE      ECODE    ---       #234
      00FF54B8H   LINE      ECODE    ---       #235
      ---         BLOCKEND  ---      ---       LVL=0

      00FF54BEH   BLOCK     ECODE    ---       LVL=0
      00000865H   SYMBOL    EDATA    WORD      x1
      00000867H   SYMBOL    EDATA    WORD      y1
      WR12        REGSYM    ---      WORD      x2
L251 LINKER/LOCATER V4.66.93.0                                                        07/23/2023  00:26:15  PAGE 117


      WR14        REGSYM    ---      WORD      y2
      00FF54BEH   LINE      ECODE    ---       #240
      00FF54C8H   LINE      ECODE    ---       #274
      00FF54CEH   LINE      ECODE    ---       #275
      00FF54DAH   LINE      ECODE    ---       #276
      00FF54E4H   LINE      ECODE    ---       #277
      00FF54EAH   LINE      ECODE    ---       #278
      00FF54F6H   LINE      ECODE    ---       #279
      00FF5500H   LINE      ECODE    ---       #280
      00FF5506H   LINE      ECODE    ---       #283
      ---         BLOCKEND  ---      ---       LVL=0

      00FF5509H   BLOCK     ECODE    ---       LVL=0
      WR14        REGSYM    ---      WORD      color
      00FF550FH   BLOCK     ECODE    NEAR LAB  LVL=1
      R13         REGSYM    ---      BYTE      i
      ---         BLOCKEND  ---      ---       LVL=1
      00FF5509H   LINE      ECODE    ---       #292
      00FF550FH   LINE      ECODE    ---       #293
      00FF550FH   LINE      ECODE    ---       #295
      00FF551FH   LINE      ECODE    ---       #296
      00FF5522H   LINE      ECODE    ---       #298
      00FF5528H   LINE      ECODE    ---       #300
      00FF552EH   LINE      ECODE    ---       #301
      00FF553EH   LINE      ECODE    ---       #302
      00FF5542H   LINE      ECODE    ---       #303
      ---         BLOCKEND  ---      ---       LVL=0

      00FF5547H   BLOCK     ECODE    ---       LVL=0
      WR2         REGSYM    ---      WORD      x
      WR0         REGSYM    ---      WORD      y
      WR14        REGSYM    ---      WORD      color
      00FF5547H   LINE      ECODE    ---       #314
      00FF554FH   LINE      ECODE    ---       #316
      00FF5553H   LINE      ECODE    ---       #317
      00FF5559H   LINE      ECODE    ---       #318
      ---         BLOCKEND  ---      ---       LVL=0

      00FF555CH   BLOCK     ECODE    ---       LVL=0
      WR12        REGSYM    ---      WORD      x
      WR14        REGSYM    ---      WORD      y
      00000869H   SYMBOL    EDATA    CHAR      dat
      00FF5566H   BLOCK     ECODE    NEAR LAB  LVL=1
      0000086AH   SYMBOL    EDATA    BYTE      i
      0000086BH   SYMBOL    EDATA    BYTE      j
      0000086CH   SYMBOL    EDATA    BYTE      temp
      ---         BLOCKEND  ---      ---       LVL=1
      00FF555CH   LINE      ECODE    ---       #331
      00FF5566H   LINE      ECODE    ---       #332
      00FF5566H   LINE      ECODE    ---       #336
      00FF556BH   LINE      ECODE    ---       #338
      00FF5581H   LINE      ECODE    ---       #339
      00FF55A6H   LINE      ECODE    ---       #340
      00FF55ABH   LINE      ECODE    ---       #342
      00FF55B2H   LINE      ECODE    ---       #344
      00FF55B6H   LINE      ECODE    ---       #345
      00FF55B8H   LINE      ECODE    ---       #346
      00FF55BEH   LINE      ECODE    ---       #347
      00FF55C8H   LINE      ECODE    ---       #348
      00FF55D4H   LINE      ECODE    ---       #349
      00FF55E6H   LINE      ECODE    ---       #350
      ---         BLOCKEND  ---      ---       LVL=0

      00FF55E9H   BLOCK     ECODE    ---       LVL=0
      00000827H   SYMBOL    EDATA    WORD      x
L251 LINKER/LOCATER V4.66.93.0                                                        07/23/2023  00:26:15  PAGE 118


      00000829H   SYMBOL    EDATA    WORD      y
      REG=3       REGSYM    ---      ---       dat
      00FF55F5H   BLOCK     ECODE    NEAR LAB  LVL=1
      0000082BH   SYMBOL    EDATA    WORD      j
      ---         BLOCKEND  ---      ---       LVL=1
      00FF55E9H   LINE      ECODE    ---       #361
      00FF55F5H   LINE      ECODE    ---       #362
      00FF55F5H   LINE      ECODE    ---       #365
      00FF55F7H   LINE      ECODE    ---       #366
      00FF55F9H   LINE      ECODE    ---       #368
      00FF5620H   LINE      ECODE    ---       #369
      00FF562AH   LINE      ECODE    ---       #370
      00FF5635H   LINE      ECODE    ---       #371
      ---         BLOCKEND  ---      ---       LVL=0

      00FF5638H   BLOCK     ECODE    ---       LVL=0
      WR12        REGSYM    ---      WORD      x
      WR14        REGSYM    ---      WORD      y
      00FF5642H   BLOCK     ECODE    NEAR LAB  LVL=1
      ---         BLOCKEND  ---      ---       LVL=1
      00FF5638H   LINE      ECODE    ---       #382
      00FF5642H   LINE      ECODE    ---       #383
      00FF5642H   LINE      ECODE    ---       #386
      00FF564BH   LINE      ECODE    ---       #388
      00FF565DH   LINE      ECODE    ---       #389
      00FF5666H   LINE      ECODE    ---       #390
      00FF5668H   LINE      ECODE    ---       #391
      00FF567AH   LINE      ECODE    ---       #393
      00FF568EH   LINE      ECODE    ---       #394
      00FF56A4H   LINE      ECODE    ---       #395
      00FF56B0H   LINE      ECODE    ---       #396
      00FF56B5H   LINE      ECODE    ---       #397
      00FF56B5H   LINE      ECODE    ---       #399
      00FF56E3H   LINE      ECODE    ---       #400
      00FF56ECH   LINE      ECODE    ---       #401
      00FF56F5H   LINE      ECODE    ---       #402
      ---         BLOCKEND  ---      ---       LVL=0

      00FF56F8H   BLOCK     ECODE    ---       LVL=0
      WR12        REGSYM    ---      WORD      x
      WR14        REGSYM    ---      WORD      y
      R10         REGSYM    ---      BYTE      dat
      00FF5700H   BLOCK     ECODE    NEAR LAB  LVL=1
      ---         BLOCKEND  ---      ---       LVL=1
      00FF56F8H   LINE      ECODE    ---       #413
      00FF5700H   LINE      ECODE    ---       #414
      00FF5700H   LINE      ECODE    ---       #418
      00FF570EH   LINE      ECODE    ---       #419
      00FF5722H   LINE      ECODE    ---       #420
      00FF572EH   LINE      ECODE    ---       #421
      00FF5733H   LINE      ECODE    ---       #422
      00FF5733H   LINE      ECODE    ---       #424
      00FF5761H   LINE      ECODE    ---       #425
      00FF576AH   LINE      ECODE    ---       #426
      00FF5773H   LINE      ECODE    ---       #428
      ---         BLOCKEND  ---      ---       LVL=0

      00FF5776H   BLOCK     ECODE    ---       LVL=0
      WR12        REGSYM    ---      WORD      x
      WR14        REGSYM    ---      WORD      y
      00FF5780H   BLOCK     ECODE    NEAR LAB  LVL=1
      ---         BLOCKEND  ---      ---       LVL=1
      00FF5776H   LINE      ECODE    ---       #439
      00FF5780H   LINE      ECODE    ---       #440
      00FF5780H   LINE      ECODE    ---       #443
L251 LINKER/LOCATER V4.66.93.0                                                        07/23/2023  00:26:15  PAGE 119


      00FF578AH   LINE      ECODE    ---       #445
      00FF579CH   LINE      ECODE    ---       #446
      00FF57A6H   LINE      ECODE    ---       #447
      00FF57A8H   LINE      ECODE    ---       #448
      00FF57BAH   LINE      ECODE    ---       #450
      00FF57CCH   LINE      ECODE    ---       #451
      00FF57E4H   LINE      ECODE    ---       #452
      00FF57F8H   LINE      ECODE    ---       #453
      00FF580AH   LINE      ECODE    ---       #454
      00FF5816H   LINE      ECODE    ---       #456
      00FF581BH   LINE      ECODE    ---       #457
      00FF581BH   LINE      ECODE    ---       #459
      00FF5849H   LINE      ECODE    ---       #460
      00FF5852H   LINE      ECODE    ---       #461
      00FF585BH   LINE      ECODE    ---       #462
      ---         BLOCKEND  ---      ---       LVL=0

      00FF585EH   BLOCK     ECODE    ---       LVL=0
      WR12        REGSYM    ---      WORD      x
      WR14        REGSYM    ---      WORD      y
      WR2         REGSYM    ---      WORD      dat
      00FF5864H   BLOCK     ECODE    NEAR LAB  LVL=1
      ---         BLOCKEND  ---      ---       LVL=1
      00FF585EH   LINE      ECODE    ---       #473
      00FF5864H   LINE      ECODE    ---       #474
      00FF5864H   LINE      ECODE    ---       #478
      00FF5870H   LINE      ECODE    ---       #479
      00FF5882H   LINE      ECODE    ---       #480
      00FF5890H   LINE      ECODE    ---       #481
      00FF589AH   LINE      ECODE    ---       #482
      00FF58A2H   LINE      ECODE    ---       #484
      00FF58A7H   LINE      ECODE    ---       #485
      00FF58A7H   LINE      ECODE    ---       #487
      00FF58D5H   LINE      ECODE    ---       #488
      00FF58DEH   LINE      ECODE    ---       #489
      00FF58E7H   LINE      ECODE    ---       #490
      ---         BLOCKEND  ---      ---       LVL=0

      00FF58EAH   BLOCK     ECODE    ---       LVL=0
      WR12        REGSYM    ---      WORD      y
      R15         REGSYM    ---      BYTE      num
      00FF58F8H   BLOCK     ECODE    NEAR LAB  LVL=1
      R14         REGSYM    ---      BYTE      length
      ---         BLOCKEND  ---      ---       LVL=1
      00FF58EAH   LINE      ECODE    ---       #503
      00FF58F8H   LINE      ECODE    ---       #504
      00FF58F8H   LINE      ECODE    ---       #508
      00FF5900H   LINE      ECODE    ---       #510
      00FF5902H   LINE      ECODE    ---       #511
      00FF5924H   LINE      ECODE    ---       #514
      00FF592AH   LINE      ECODE    ---       #515
      00FF5944H   LINE      ECODE    ---       #516
      00FF5946H   LINE      ECODE    ---       #517
      00FF5946H   LINE      ECODE    ---       #518
      00FF594BH   LINE      ECODE    ---       #520
      00FF5951H   LINE      ECODE    ---       #521
      00FF5953H   LINE      ECODE    ---       #522
      00FF5957H   LINE      ECODE    ---       #523
      00FF595EH   LINE      ECODE    ---       #525
      00FF596CH   LINE      ECODE    ---       #526
      ---         BLOCKEND  ---      ---       LVL=0

      00FF596FH   BLOCK     ECODE    ---       LVL=0
      DR12        REGSYM    ---      FLOAT     dat
      00FF597FH   BLOCK     ECODE    NEAR LAB  LVL=1
L251 LINKER/LOCATER V4.66.93.0                                                        07/23/2023  00:26:15  PAGE 120


      R7          REGSYM    ---      CHAR      point
      ---         BLOCKEND  ---      ---       LVL=1
      00FF596FH   LINE      ECODE    ---       #544
      00FF597FH   LINE      ECODE    ---       #545
      00FF597FH   LINE      ECODE    ---       #550
      00FF598EH   LINE      ECODE    ---       #551
      00FF599DH   LINE      ECODE    ---       #553
      00FF59C1H   LINE      ECODE    ---       #556
      00FF59DBH   LINE      ECODE    ---       #557
      00FF59E0H   LINE      ECODE    ---       #558
      00FF59E0H   LINE      ECODE    ---       #559
      00FF59EAH   LINE      ECODE    ---       #560
      00FF59FAH   LINE      ECODE    ---       #561
      00FF5A0AH   LINE      ECODE    ---       #562
      00FF5A0FH   LINE      ECODE    ---       #564
      00FF5A19H   LINE      ECODE    ---       #565
      00FF5A22H   LINE      ECODE    ---       #566
      00FF5A2BH   LINE      ECODE    ---       #567
      00FF5A34H   LINE      ECODE    ---       #569
      00FF5A42H   LINE      ECODE    ---       #570
      00FF5A4EH   LINE      ECODE    ---       #572
      00FF5A59H   LINE      ECODE    ---       #574
      00FF5A69H   LINE      ECODE    ---       #575
      ---         BLOCKEND  ---      ---       LVL=0

      00FF5A6CH   BLOCK     ECODE    ---       LVL=0
      R7          REGSYM    ---      BYTE      dat
      00FF5A6CH   LINE      ECODE    ---       #594
      00FF5A6CH   LINE      ECODE    ---       #596
      00FF5A6EH   LINE      ECODE    ---       #597
      00FF5A70H   LINE      ECODE    ---       #599
      00FF5A74H   LINE      ECODE    ---       #600
      00FF5A76H   LINE      ECODE    ---       #601
      ---         BLOCKEND  ---      ---       LVL=0

      00FF5A77H   BLOCK     ECODE    ---       LVL=0
      R7          REGSYM    ---      BYTE      dat
      00FF5A77H   LINE      ECODE    ---       #610
      00FF5A77H   LINE      ECODE    ---       #612
      00FF5A79H   LINE      ECODE    ---       #613
      00FF5A7BH   LINE      ECODE    ---       #615
      00FF5A7FH   LINE      ECODE    ---       #616
      00FF5A81H   LINE      ECODE    ---       #617
      ---         BLOCKEND  ---      ---       LVL=0

      00FF5A82H   BLOCK     ECODE    ---       LVL=0
      WR4         REGSYM    ---      WORD      dat
      00FF5A84H   BLOCK     ECODE    NEAR LAB  LVL=1
      0000088BH   SYMBOL    EDATA    ---       dat1
      ---         BLOCKEND  ---      ---       LVL=1
      00FF5A82H   LINE      ECODE    ---       #626
      00FF5A84H   LINE      ECODE    ---       #627
      00FF5A84H   LINE      ECODE    ---       #629
      00FF5A88H   LINE      ECODE    ---       #630
      00FF5A8CH   LINE      ECODE    ---       #631
      00FF5A8EH   LINE      ECODE    ---       #632
      00FF5A90H   LINE      ECODE    ---       #633
      00FF5A98H   LINE      ECODE    ---       #634
      00FF5AA0H   LINE      ECODE    ---       #635
      00FF5AA2H   LINE      ECODE    ---       #636
      ---         BLOCKEND  ---      ---       LVL=0

      00FF5AA3H   BLOCK     ECODE    ---       LVL=0
      00FF5AA3H   LINE      ECODE    ---       #644
      00FF5AA3H   LINE      ECODE    ---       #646
L251 LINKER/LOCATER V4.66.93.0                                                        07/23/2023  00:26:15  PAGE 121


      00FF5AC2H   LINE      ECODE    ---       #648
      00FF5AC4H   LINE      ECODE    ---       #649
      00FF5AC6H   LINE      ECODE    ---       #650
      00FF5AC8H   LINE      ECODE    ---       #652
      00FF5AD0H   LINE      ECODE    ---       #654
      00FF5AD2H   LINE      ECODE    ---       #655
      00FF5ADAH   LINE      ECODE    ---       #657
      00FF5AE0H   LINE      ECODE    ---       #666
      00FF5AE6H   LINE      ECODE    ---       #669
      00FF5AECH   LINE      ECODE    ---       #670
      00FF5AF2H   LINE      ECODE    ---       #672
      00FF5AF8H   LINE      ECODE    ---       #673
      00FF5AFEH   LINE      ECODE    ---       #674
      00FF5B04H   LINE      ECODE    ---       #675
      00FF5B09H   LINE      ECODE    ---       #676
      00FF5B0FH   LINE      ECODE    ---       #677
      00FF5B15H   LINE      ECODE    ---       #679
      00FF5B1BH   LINE      ECODE    ---       #680
      00FF5B21H   LINE      ECODE    ---       #682
      00FF5B27H   LINE      ECODE    ---       #683
      00FF5B2DH   LINE      ECODE    ---       #685
      00FF5B33H   LINE      ECODE    ---       #686
      00FF5B39H   LINE      ECODE    ---       #688
      00FF5B3FH   LINE      ECODE    ---       #689
      00FF5B45H   LINE      ECODE    ---       #691
      00FF5B4BH   LINE      ECODE    ---       #692
      00FF5B51H   LINE      ECODE    ---       #694
      00FF5B57H   LINE      ECODE    ---       #695
      00FF5B5DH   LINE      ECODE    ---       #697
      00FF5B63H   LINE      ECODE    ---       #698
      00FF5B69H   LINE      ECODE    ---       #700
      00FF5B6FH   LINE      ECODE    ---       #701
      00FF5B75H   LINE      ECODE    ---       #702
      00FF5B7BH   LINE      ECODE    ---       #704
      00FF5B81H   LINE      ECODE    ---       #705
      00FF5B87H   LINE      ECODE    ---       #706
      00FF5B8DH   LINE      ECODE    ---       #707
      00FF5B93H   LINE      ECODE    ---       #708
      00FF5B99H   LINE      ECODE    ---       #709
      00FF5B9FH   LINE      ECODE    ---       #710
      00FF5BA5H   LINE      ECODE    ---       #711
      00FF5BABH   LINE      ECODE    ---       #712
      00FF5BB1H   LINE      ECODE    ---       #713
      00FF5BB7H   LINE      ECODE    ---       #714
      00FF5BBDH   LINE      ECODE    ---       #715
      00FF5BC3H   LINE      ECODE    ---       #716
      00FF5BC9H   LINE      ECODE    ---       #717
      00FF5BCFH   LINE      ECODE    ---       #718
      00FF5BD5H   LINE      ECODE    ---       #720
      00FF5BDBH   LINE      ECODE    ---       #721
      00FF5BE1H   LINE      ECODE    ---       #722
      00FF5BE7H   LINE      ECODE    ---       #723
      00FF5BEDH   LINE      ECODE    ---       #724
      00FF5BF3H   LINE      ECODE    ---       #725
      00FF5BF9H   LINE      ECODE    ---       #726
      00FF5BFFH   LINE      ECODE    ---       #727
      00FF5C05H   LINE      ECODE    ---       #728
      00FF5C0BH   LINE      ECODE    ---       #729
      00FF5C11H   LINE      ECODE    ---       #730
      00FF5C17H   LINE      ECODE    ---       #731
      00FF5C1DH   LINE      ECODE    ---       #732
      00FF5C23H   LINE      ECODE    ---       #733
      00FF5C29H   LINE      ECODE    ---       #734
      00FF5C2FH   LINE      ECODE    ---       #736
      00FF5C35H   LINE      ECODE    ---       #738
L251 LINKER/LOCATER V4.66.93.0                                                        07/23/2023  00:26:15  PAGE 122


      00FF5C3BH   LINE      ECODE    ---       #739
      00FF5C43H   LINE      ECODE    ---       #741
      00FF5C49H   LINE      ECODE    ---       #742
      ---         BLOCKEND  ---      ---       LVL=0

      00FF5C4FH   BLOCK     ECODE    ---       LVL=0
      0000086DH   SYMBOL    EDATA    WORD      x1
      0000086FH   SYMBOL    EDATA    WORD      y1
      WR12        REGSYM    ---      WORD      x2
      WR14        REGSYM    ---      WORD      y2
      00FF5C4FH   LINE      ECODE    ---       #747
      00FF5C5DH   LINE      ECODE    ---       #781
      00FF5C63H   LINE      ECODE    ---       #782
      00FF5C6FH   LINE      ECODE    ---       #783
      00FF5C79H   LINE      ECODE    ---       #784
      00FF5C7FH   LINE      ECODE    ---       #785
      00FF5C8BH   LINE      ECODE    ---       #786
      00FF5C95H   LINE      ECODE    ---       #787
      00FF5C9BH   LINE      ECODE    ---       #790
      ---         BLOCKEND  ---      ---       LVL=0

      00FF5C9EH   BLOCK     ECODE    ---       LVL=0
      WR14        REGSYM    ---      WORD      color
      00FF5CA4H   BLOCK     ECODE    NEAR LAB  LVL=1
      R13         REGSYM    ---      BYTE      i
      ---         BLOCKEND  ---      ---       LVL=1
      00FF5C9EH   LINE      ECODE    ---       #799
      00FF5CA4H   LINE      ECODE    ---       #800
      00FF5CA4H   LINE      ECODE    ---       #802
      00FF5CB4H   LINE      ECODE    ---       #803
      00FF5CB7H   LINE      ECODE    ---       #805
      00FF5CBDH   LINE      ECODE    ---       #807
      00FF5CC3H   LINE      ECODE    ---       #808
      00FF5CD3H   LINE      ECODE    ---       #809
      00FF5CD7H   LINE      ECODE    ---       #810
      ---         BLOCKEND  ---      ---       LVL=0

      00FF5CDCH   BLOCK     ECODE    ---       LVL=0
      WR2         REGSYM    ---      WORD      x
      WR0         REGSYM    ---      WORD      y
      WR14        REGSYM    ---      WORD      color
      00FF5CDCH   LINE      ECODE    ---       #821
      00FF5CE4H   LINE      ECODE    ---       #823
      00FF5CE8H   LINE      ECODE    ---       #824
      00FF5CEEH   LINE      ECODE    ---       #825
      ---         BLOCKEND  ---      ---       LVL=0

      00FF5CF1H   BLOCK     ECODE    ---       LVL=0
      WR12        REGSYM    ---      WORD      x
      WR14        REGSYM    ---      WORD      y
      00000871H   SYMBOL    EDATA    CHAR      dat
      00FF5CFBH   BLOCK     ECODE    NEAR LAB  LVL=1
      00000872H   SYMBOL    EDATA    BYTE      i
      00000873H   SYMBOL    EDATA    BYTE      j
      00000874H   SYMBOL    EDATA    BYTE      temp
      ---         BLOCKEND  ---      ---       LVL=1
      00FF5CF1H   LINE      ECODE    ---       #838
      00FF5CFBH   LINE      ECODE    ---       #839
      00FF5CFBH   LINE      ECODE    ---       #843
      00FF5D00H   LINE      ECODE    ---       #845
      00FF5D16H   LINE      ECODE    ---       #846
      00FF5D3BH   LINE      ECODE    ---       #847
      00FF5D40H   LINE      ECODE    ---       #849
      00FF5D47H   LINE      ECODE    ---       #851
      00FF5D4BH   LINE      ECODE    ---       #852
L251 LINKER/LOCATER V4.66.93.0                                                        07/23/2023  00:26:15  PAGE 123


      00FF5D4DH   LINE      ECODE    ---       #853
      00FF5D53H   LINE      ECODE    ---       #854
      00FF5D5DH   LINE      ECODE    ---       #855
      00FF5D69H   LINE      ECODE    ---       #856
      00FF5D7BH   LINE      ECODE    ---       #857
      ---         BLOCKEND  ---      ---       LVL=0

      00FF5D7EH   BLOCK     ECODE    ---       LVL=0
      0000082DH   SYMBOL    EDATA    WORD      x
      0000082FH   SYMBOL    EDATA    WORD      y
      REG=3       REGSYM    ---      ---       dat
      00FF5D8AH   BLOCK     ECODE    NEAR LAB  LVL=1
      00000831H   SYMBOL    EDATA    WORD      j
      ---         BLOCKEND  ---      ---       LVL=1
      00FF5D7EH   LINE      ECODE    ---       #868
      00FF5D8AH   LINE      ECODE    ---       #869
      00FF5D8AH   LINE      ECODE    ---       #872
      00FF5D8CH   LINE      ECODE    ---       #873
      00FF5D8EH   LINE      ECODE    ---       #875
      00FF5DB5H   LINE      ECODE    ---       #876
      00FF5DBFH   LINE      ECODE    ---       #877
      00FF5DCAH   LINE      ECODE    ---       #878
      ---         BLOCKEND  ---      ---       LVL=0

      00FF5DCDH   BLOCK     ECODE    ---       LVL=0
      WR12        REGSYM    ---      WORD      x
      WR14        REGSYM    ---      WORD      y
      00FF5DD7H   BLOCK     ECODE    NEAR LAB  LVL=1
      ---         BLOCKEND  ---      ---       LVL=1
      00FF5DCDH   LINE      ECODE    ---       #889
      00FF5DD7H   LINE      ECODE    ---       #890
      00FF5DD7H   LINE      ECODE    ---       #893
      00FF5DE0H   LINE      ECODE    ---       #895
      00FF5DF2H   LINE      ECODE    ---       #896
      00FF5DFBH   LINE      ECODE    ---       #897
      00FF5DFDH   LINE      ECODE    ---       #898
      00FF5E0FH   LINE      ECODE    ---       #900
      00FF5E23H   LINE      ECODE    ---       #901
      00FF5E39H   LINE      ECODE    ---       #902
      00FF5E45H   LINE      ECODE    ---       #903
      00FF5E4AH   LINE      ECODE    ---       #904
      00FF5E4AH   LINE      ECODE    ---       #906
      00FF5E74H   LINE      ECODE    ---       #907
      00FF5E7DH   LINE      ECODE    ---       #908
      00FF5E86H   LINE      ECODE    ---       #909
      ---         BLOCKEND  ---      ---       LVL=0

      00FF5E89H   BLOCK     ECODE    ---       LVL=0
      WR12        REGSYM    ---      WORD      x
      WR14        REGSYM    ---      WORD      y
      R10         REGSYM    ---      BYTE      dat
      00FF5E91H   BLOCK     ECODE    NEAR LAB  LVL=1
      ---         BLOCKEND  ---      ---       LVL=1
      00FF5E89H   LINE      ECODE    ---       #920
      00FF5E91H   LINE      ECODE    ---       #921
      00FF5E91H   LINE      ECODE    ---       #925
      00FF5E9FH   LINE      ECODE    ---       #926
      00FF5EB3H   LINE      ECODE    ---       #927
      00FF5EBFH   LINE      ECODE    ---       #928
      00FF5EC4H   LINE      ECODE    ---       #929
      00FF5EC4H   LINE      ECODE    ---       #931
      00FF5EEEH   LINE      ECODE    ---       #932
      00FF5EF7H   LINE      ECODE    ---       #933
      00FF5F00H   LINE      ECODE    ---       #935
      ---         BLOCKEND  ---      ---       LVL=0
L251 LINKER/LOCATER V4.66.93.0                                                        07/23/2023  00:26:15  PAGE 124



      00FF5F03H   BLOCK     ECODE    ---       LVL=0
      WR12        REGSYM    ---      WORD      x
      WR14        REGSYM    ---      WORD      y
      00FF5F0DH   BLOCK     ECODE    NEAR LAB  LVL=1
      ---         BLOCKEND  ---      ---       LVL=1
      00FF5F03H   LINE      ECODE    ---       #946
      00FF5F0DH   LINE      ECODE    ---       #947
      00FF5F0DH   LINE      ECODE    ---       #950
      00FF5F17H   LINE      ECODE    ---       #952
      00FF5F29H   LINE      ECODE    ---       #953
      00FF5F33H   LINE      ECODE    ---       #954
      00FF5F35H   LINE      ECODE    ---       #955
      00FF5F47H   LINE      ECODE    ---       #957
      00FF5F59H   LINE      ECODE    ---       #958
      00FF5F71H   LINE      ECODE    ---       #959
      00FF5F85H   LINE      ECODE    ---       #960
      00FF5F97H   LINE      ECODE    ---       #961
      00FF5FA3H   LINE      ECODE    ---       #963
      00FF5FA8H   LINE      ECODE    ---       #964
      00FF5FA8H   LINE      ECODE    ---       #966
      00FF5FD2H   LINE      ECODE    ---       #967
      00FF5FDBH   LINE      ECODE    ---       #968
      00FF5FE4H   LINE      ECODE    ---       #969
      ---         BLOCKEND  ---      ---       LVL=0

      00FF5FE7H   BLOCK     ECODE    ---       LVL=0
      WR12        REGSYM    ---      WORD      x
      WR14        REGSYM    ---      WORD      y
      WR2         REGSYM    ---      WORD      dat
      00FF5FEDH   BLOCK     ECODE    NEAR LAB  LVL=1
      ---         BLOCKEND  ---      ---       LVL=1
      00FF5FE7H   LINE      ECODE    ---       #980
      00FF5FEDH   LINE      ECODE    ---       #981
      00FF5FEDH   LINE      ECODE    ---       #985
      00FF5FF9H   LINE      ECODE    ---       #986
      00FF600BH   LINE      ECODE    ---       #987
      00FF6019H   LINE      ECODE    ---       #988
      00FF6023H   LINE      ECODE    ---       #989
      00FF602BH   LINE      ECODE    ---       #991
      00FF6030H   LINE      ECODE    ---       #992
      00FF6030H   LINE      ECODE    ---       #994
      00FF605EH   LINE      ECODE    ---       #995
      00FF6067H   LINE      ECODE    ---       #996
      00FF6070H   LINE      ECODE    ---       #997
      ---         BLOCKEND  ---      ---       LVL=0

      00FF6073H   BLOCK     ECODE    ---       LVL=0
      WR12        REGSYM    ---      WORD      y
      R15         REGSYM    ---      BYTE      num
      00FF6081H   BLOCK     ECODE    NEAR LAB  LVL=1
      R14         REGSYM    ---      BYTE      length
      ---         BLOCKEND  ---      ---       LVL=1
      00FF6073H   LINE      ECODE    ---       #1010
      00FF6081H   LINE      ECODE    ---       #1011
      00FF6081H   LINE      ECODE    ---       #1015
      00FF6089H   LINE      ECODE    ---       #1017
      00FF608BH   LINE      ECODE    ---       #1018
      00FF60ADH   LINE      ECODE    ---       #1021
      00FF60B3H   LINE      ECODE    ---       #1022
      00FF60CDH   LINE      ECODE    ---       #1023
      00FF60CFH   LINE      ECODE    ---       #1024
      00FF60CFH   LINE      ECODE    ---       #1025
      00FF60D4H   LINE      ECODE    ---       #1027
      00FF60DAH   LINE      ECODE    ---       #1028
L251 LINKER/LOCATER V4.66.93.0                                                        07/23/2023  00:26:15  PAGE 125


      00FF60DCH   LINE      ECODE    ---       #1029
      00FF60E0H   LINE      ECODE    ---       #1030
      00FF60E7H   LINE      ECODE    ---       #1032
      00FF60F5H   LINE      ECODE    ---       #1033
      ---         BLOCKEND  ---      ---       LVL=0

      00FF60F8H   BLOCK     ECODE    ---       LVL=0
      DR12        REGSYM    ---      FLOAT     dat
      00FF6108H   BLOCK     ECODE    NEAR LAB  LVL=1
      R7          REGSYM    ---      CHAR      point
      ---         BLOCKEND  ---      ---       LVL=1
      00FF60F8H   LINE      ECODE    ---       #1051
      00FF6108H   LINE      ECODE    ---       #1052
      00FF6108H   LINE      ECODE    ---       #1057
      00FF6117H   LINE      ECODE    ---       #1058
      00FF6126H   LINE      ECODE    ---       #1060
      00FF614AH   LINE      ECODE    ---       #1063
      00FF6164H   LINE      ECODE    ---       #1064
      00FF6169H   LINE      ECODE    ---       #1065
      00FF6169H   LINE      ECODE    ---       #1066
      00FF6173H   LINE      ECODE    ---       #1067
      00FF6183H   LINE      ECODE    ---       #1068
      00FF6193H   LINE      ECODE    ---       #1069
      00FF6198H   LINE      ECODE    ---       #1071
      00FF61A2H   LINE      ECODE    ---       #1072
      00FF61ABH   LINE      ECODE    ---       #1073
      00FF61B4H   LINE      ECODE    ---       #1074
      00FF61BDH   LINE      ECODE    ---       #1076
      00FF61CBH   LINE      ECODE    ---       #1077
      00FF61D7H   LINE      ECODE    ---       #1079
      00FF61E2H   LINE      ECODE    ---       #1081
      00FF61F2H   LINE      ECODE    ---       #1082
      ---         BLOCKEND  ---      ---       LVL=0

      ---         MODULE    ---      ---       SEEKFREE_MPU6050
      00FFBFEAH   PUBLIC    ECODE    ---       mpu6050_simiic_read_regs?
      00FFBFC1H   PUBLIC    ECODE    ---       mpu6050_simiic_read_reg?
      00FFC073H   PUBLIC    ECODE    ---       mpu6050_init?
      00FFC111H   PUBLIC    ECODE    ---       mpu6050_get_gyro?
      00FFC0D0H   PUBLIC    ECODE    ---       mpu6050_get_accdata?
      00000803H   PUBLIC    EDATA    INT       mpu6050_acc_x
      00000805H   PUBLIC    EDATA    INT       mpu6050_acc_y
      00000807H   PUBLIC    EDATA    INT       mpu6050_acc_z
      00000809H   PUBLIC    EDATA    INT       mpu6050_gyro_x
      0000080BH   PUBLIC    EDATA    INT       mpu6050_gyro_y
      0000080DH   PUBLIC    EDATA    INT       mpu6050_gyro_z
      000000D0H   SFRSYM    DATA     BYTE      PSW
      0000009DH   SFRSYM    DATA     BYTE      IRCBAND
      00000097H   SFRSYM    DATA     BYTE      AUXR2
      000000EFH   SFRSYM    DATA     BYTE      AUXINTIF
      000000FDH   SFRSYM    DATA     BYTE      S4CON
      000000ACH   SFRSYM    DATA     BYTE      S3CON
      0000009AH   SFRSYM    DATA     BYTE      S2CON
      000000B7H   SFRSYM    DATA     BYTE      IPH
      000000CDH   SFRSYM    DATA     BYTE      SPSTAT
      000000DDH   SFRSYM    DATA     BYTE      T4T3M
      000000C1H   SFRSYM    DATA     BYTE      WDT_CONTR
      000000DFH   SFRSYM    DATA     BYTE      IP3
      000000F4H   SFRSYM    DATA     BYTE      USBCON
      000000B5H   SFRSYM    DATA     BYTE      IP2
      000000FFH   SFRSYM    DATA     BYTE      RSTCFG
      000000F9H   SFRSYM    DATA     BYTE      LINICR
      0000008EH   SFRSYM    DATA     BYTE      AUXR
      000000AFH   SFRSYM    DATA     BYTE      IE2
      00000088H   SFRSYM    DATA     BYTE      TCON
L251 LINKER/LOCATER V4.66.93.0                                                        07/23/2023  00:26:15  PAGE 126


      000000C0H.1 SFRSYM    DATA     BIT       P41
      00000098H   SFRSYM    DATA     BYTE      SCON
      000000C0H.0 SFRSYM    DATA     BIT       P40
      000000F1H   SFRSYM    DATA     BYTE      CANICR
      00000087H   SFRSYM    DATA     BYTE      PCON
      000000BCH   SFRSYM    DATA     BYTE      ADC_CONTR
      000000E7H   SFRSYM    DATA     BYTE      CMPCR2
      000000E6H   SFRSYM    DATA     BYTE      CMPCR1
      000000B8H   SFRSYM    DATA     BYTE      IP
      0000008FH   SFRSYM    DATA     BYTE      INTCLKO
      000000EEH   SFRSYM    DATA     BYTE      IP3H
      000000B6H   SFRSYM    DATA     BYTE      IP2H
      000000A8H   SFRSYM    DATA     BYTE      IE
      000000BBH   SFRSYM    DATA     BYTE      P_SW3
      000000BAH   SFRSYM    DATA     BYTE      P_SW2
      000000A2H   SFRSYM    DATA     BYTE      P_SW1
      000000CEH   SFRSYM    DATA     BYTE      SPCTL
      000000F8H   SFRSYM    DATA     BYTE      P7
      000000E8H   SFRSYM    DATA     BYTE      P6
      000000C8H   SFRSYM    DATA     BYTE      P5
      000000C0H   SFRSYM    DATA     BYTE      P4
      000000B0H   SFRSYM    DATA     BYTE      P3
      000000A0H   SFRSYM    DATA     BYTE      P2
      00000090H   SFRSYM    DATA     BYTE      P1
      00000080H   SFRSYM    DATA     BYTE      P0
      00FFBEDAH   SYMBOL    ECODE    ---       mpu6050_simiic_start
      00FFBEE9H   SYMBOL    ECODE    ---       mpu6050_simiic_stop
      00FFBF9FH   SYMBOL    ECODE    ---       mpu6050_simiic_write_reg
      00FFC03FH   SYMBOL    ECODE    ---       mpu6050_self1_check
      00FFBEFAH   SYMBOL    ECODE    ---       mpu6050_simiic_sendack
      00FFBF64H   SYMBOL    ECODE    ---       mpu6050_read_ch
      00FFBF36H   SYMBOL    ECODE    ---       mpu6050_send_ch
      00FFBF1AH   SYMBOL    ECODE    ---       mpu6050_sccb_waitack
      00FFBECFH   SYMBOL    ECODE    ---       mpu6050_simiic_delay

      00FFBECFH   BLOCK     ECODE    ---       LVL=0
      WR6         REGSYM    ---      WORD      j
      00FFBECFH   LINE      ECODE    ---       #52
      00FFBECFH   LINE      ECODE    ---       #53
      00FFBECFH   LINE      ECODE    ---       #54
      00FFBED1H   LINE      ECODE    ---       #55
      00FFBED9H   LINE      ECODE    ---       #56
      ---         BLOCKEND  ---      ---       LVL=0

      00FFBEDAH   BLOCK     ECODE    ---       LVL=0
      00FFBEDAH   LINE      ECODE    ---       #59
      00FFBEDAH   LINE      ECODE    ---       #61
      00FFBEDCH   LINE      ECODE    ---       #62
      00FFBEDEH   LINE      ECODE    ---       #63
      00FFBEE1H   LINE      ECODE    ---       #64
      00FFBEE3H   LINE      ECODE    ---       #65
      00FFBEE6H   LINE      ECODE    ---       #66
      00FFBEE8H   LINE      ECODE    ---       #67
      ---         BLOCKEND  ---      ---       LVL=0

      00FFBEE9H   BLOCK     ECODE    ---       LVL=0
      00FFBEE9H   LINE      ECODE    ---       #70
      00FFBEE9H   LINE      ECODE    ---       #72
      00FFBEEBH   LINE      ECODE    ---       #73
      00FFBEEDH   LINE      ECODE    ---       #74
      00FFBEF0H   LINE      ECODE    ---       #75
      00FFBEF2H   LINE      ECODE    ---       #76
      00FFBEF5H   LINE      ECODE    ---       #77
      00FFBEF7H   LINE      ECODE    ---       #78
      ---         BLOCKEND  ---      ---       LVL=0
L251 LINKER/LOCATER V4.66.93.0                                                        07/23/2023  00:26:15  PAGE 127



      00FFBEFAH   BLOCK     ECODE    ---       LVL=0
      R15         REGSYM    ---      BYTE      ack_dat
      00FFBEFAH   LINE      ECODE    ---       #83
      00FFBEFEH   LINE      ECODE    ---       #85
      00FFBF00H   LINE      ECODE    ---       #86
      00FFBF03H   LINE      ECODE    ---       #87
      00FFBF0BH   LINE      ECODE    ---       #88
      00FFBF0DH   LINE      ECODE    ---       #90
      00FFBF0FH   LINE      ECODE    ---       #91
      00FFBF12H   LINE      ECODE    ---       #92
      00FFBF14H   LINE      ECODE    ---       #93
      00FFBF17H   LINE      ECODE    ---       #94
      ---         BLOCKEND  ---      ---       LVL=0

      00FFBF1AH   BLOCK     ECODE    ---       LVL=0
      00FFBF1AH   LINE      ECODE    ---       #97
      00FFBF1AH   LINE      ECODE    ---       #99
      00FFBF1CH   LINE      ECODE    ---       #101
      00FFBF1FH   LINE      ECODE    ---       #103
      00FFBF21H   LINE      ECODE    ---       #104
      00FFBF24H   LINE      ECODE    ---       #106
      00FFBF27H   LINE      ECODE    ---       #109
      00FFBF29H   LINE      ECODE    ---       #110
      00FFBF2CH   LINE      ECODE    ---       #111
      00FFBF2CH   LINE      ECODE    ---       #113
      00FFBF2EH   LINE      ECODE    ---       #114
      00FFBF31H   LINE      ECODE    ---       #115
      00FFBF35H   LINE      ECODE    ---       #116
      ---         BLOCKEND  ---      ---       LVL=0

      00FFBF36H   BLOCK     ECODE    ---       LVL=0
      R15         REGSYM    ---      BYTE      c
      00FFBF3AH   BLOCK     ECODE    NEAR LAB  LVL=1
      R14         REGSYM    ---      BYTE      i
      ---         BLOCKEND  ---      ---       LVL=1
      00FFBF36H   LINE      ECODE    ---       #122
      00FFBF3AH   LINE      ECODE    ---       #123
      00FFBF3AH   LINE      ECODE    ---       #124
      00FFBF3DH   LINE      ECODE    ---       #125
      00FFBF3FH   LINE      ECODE    ---       #127
      00FFBF48H   LINE      ECODE    ---       #128
      00FFBF4AH   LINE      ECODE    ---       #129
      00FFBF4CH   LINE      ECODE    ---       #130
      00FFBF4FH   LINE      ECODE    ---       #131
      00FFBF51H   LINE      ECODE    ---       #132
      00FFBF54H   LINE      ECODE    ---       #133
      00FFBF56H   LINE      ECODE    ---       #134
      00FFBF5EH   LINE      ECODE    ---       #135
      00FFBF61H   LINE      ECODE    ---       #136
      ---         BLOCKEND  ---      ---       LVL=0

      00FFBF64H   BLOCK     ECODE    ---       LVL=0
      R15         REGSYM    ---      BYTE      ack_x
      00FFBF6AH   BLOCK     ECODE    NEAR LAB  LVL=1
      R13         REGSYM    ---      BYTE      i
      R14         REGSYM    ---      BYTE      c
      ---         BLOCKEND  ---      ---       LVL=1
      00FFBF64H   LINE      ECODE    ---       #142
      00FFBF6AH   LINE      ECODE    ---       #143
      00FFBF6AH   LINE      ECODE    ---       #146
      00FFBF6CH   LINE      ECODE    ---       #147
      00FFBF6EH   LINE      ECODE    ---       #148
      00FFBF71H   LINE      ECODE    ---       #149
      00FFBF73H   LINE      ECODE    ---       #151
L251 LINKER/LOCATER V4.66.93.0                                                        07/23/2023  00:26:15  PAGE 128


      00FFBF76H   LINE      ECODE    ---       #153
      00FFBF79H   LINE      ECODE    ---       #154
      00FFBF7BH   LINE      ECODE    ---       #155
      00FFBF7EH   LINE      ECODE    ---       #156
      00FFBF80H   LINE      ECODE    ---       #157
      00FFBF83H   LINE      ECODE    ---       #158
      00FFBF85H   LINE      ECODE    ---       #159
      00FFBF88H   LINE      ECODE    ---       #161
      00FFBF8AH   LINE      ECODE    ---       #162
      00FFBF8EH   LINE      ECODE    ---       #165
      00FFBF90H   LINE      ECODE    ---       #166
      00FFBF93H   LINE      ECODE    ---       #167
      00FFBF98H   LINE      ECODE    ---       #169
      00FFBF9AH   LINE      ECODE    ---       #170
      ---         BLOCKEND  ---      ---       LVL=0

      00FFBF9FH   BLOCK     ECODE    ---       LVL=0
      R13         REGSYM    ---      BYTE      dev_add
      R14         REGSYM    ---      BYTE      reg
      R15         REGSYM    ---      BYTE      dat
      00FFBF9FH   LINE      ECODE    ---       #182
      00FFBFA7H   LINE      ECODE    ---       #184
      00FFBFAAH   LINE      ECODE    ---       #185
      00FFBFAFH   LINE      ECODE    ---       #186
      00FFBFB4H   LINE      ECODE    ---       #187
      00FFBFB9H   LINE      ECODE    ---       #188
      00FFBFBCH   LINE      ECODE    ---       #189
      ---         BLOCKEND  ---      ---       LVL=0

      00FFBFC1H   BLOCK     ECODE    ---       LVL=0
      R15         REGSYM    ---      BYTE      dev_add
      R14         REGSYM    ---      BYTE      reg
      00FFBFC7H   BLOCK     ECODE    NEAR LAB  LVL=1
      R15         REGSYM    ---      BYTE      dat
      ---         BLOCKEND  ---      ---       LVL=1
      00FFBFC1H   LINE      ECODE    ---       #200
      00FFBFC7H   LINE      ECODE    ---       #201
      00FFBFC7H   LINE      ECODE    ---       #203
      00FFBFCAH   LINE      ECODE    ---       #204
      00FFBFCFH   LINE      ECODE    ---       #205
      00FFBFD4H   LINE      ECODE    ---       #208
      00FFBFD7H   LINE      ECODE    ---       #209
      00FFBFE0H   LINE      ECODE    ---       #210
      00FFBFE4H   LINE      ECODE    ---       #211
      00FFBFE7H   LINE      ECODE    ---       #213
      00FFBFE7H   LINE      ECODE    ---       #214
      ---         BLOCKEND  ---      ---       LVL=0

      00FFBFEAH   BLOCK     ECODE    ---       LVL=0
      00000884H   SYMBOL    EDATA    BYTE      dev_add
      00000885H   SYMBOL    EDATA    BYTE      reg
      REG=3       REGSYM    ---      ---       dat_add
      00000886H   SYMBOL    EDATA    BYTE      num
      00FFBFEAH   LINE      ECODE    ---       #227
      00FFBFFAH   LINE      ECODE    ---       #229
      00FFBFFDH   LINE      ECODE    ---       #230
      00FFC006H   LINE      ECODE    ---       #231
      00FFC00DH   LINE      ECODE    ---       #234
      00FFC010H   LINE      ECODE    ---       #235
      00FFC01BH   LINE      ECODE    ---       #236
      00FFC01DH   LINE      ECODE    ---       #238
      00FFC025H   LINE      ECODE    ---       #239
      00FFC027H   LINE      ECODE    ---       #240
      00FFC032H   LINE      ECODE    ---       #241
      00FFC039H   LINE      ECODE    ---       #242
L251 LINKER/LOCATER V4.66.93.0                                                        07/23/2023  00:26:15  PAGE 129


      00FFC03CH   LINE      ECODE    ---       #243
      ---         BLOCKEND  ---      ---       LVL=0

      00FFC03FH   BLOCK     ECODE    ---       LVL=0
      00FFC03FH   LINE      ECODE    ---       #252
      00FFC03FH   LINE      ECODE    ---       #254
      00FFC049H   LINE      ECODE    ---       #255
      00FFC054H   LINE      ECODE    ---       #256
      00FFC062H   LINE      ECODE    ---       #258
      00FFC06EH   LINE      ECODE    ---       #259
      00FFC071H   LINE      ECODE    ---       #265
      00FFC071H   LINE      ECODE    ---       #267
      00FFC072H   LINE      ECODE    ---       #269
      ---         BLOCKEND  ---      ---       LVL=0

      00FFC073H   BLOCK     ECODE    ---       LVL=0
      00FFC073H   LINE      ECODE    ---       #279
      00FFC073H   LINE      ECODE    ---       #281
      00FFC07BH   LINE      ECODE    ---       #283
      00FFC080H   LINE      ECODE    ---       #285
      00FFC083H   LINE      ECODE    ---       #286
      00FFC083H   LINE      ECODE    ---       #287
      00FFC08DH   LINE      ECODE    ---       #288
      00FFC098H   LINE      ECODE    ---       #289
      00FFC0A3H   LINE      ECODE    ---       #290
      00FFC0AEH   LINE      ECODE    ---       #291
      00FFC0B9H   LINE      ECODE    ---       #292
      00FFC0C3H   LINE      ECODE    ---       #293
      00FFC0CEH   LINE      ECODE    ---       #294
      00FFC0CFH   LINE      ECODE    ---       #295
      ---         BLOCKEND  ---      ---       LVL=0

      00FFC0D0H   BLOCK     ECODE    ---       LVL=0
      00FFC0D0H   LINE      ECODE    ---       #306
      00FFC0D0H   LINE      ECODE    ---       #307
      00FFC0D0H   LINE      ECODE    ---       #310
      00FFC0E0H   LINE      ECODE    ---       #311
      00FFC0F0H   LINE      ECODE    ---       #312
      00FFC100H   LINE      ECODE    ---       #313
      00FFC110H   LINE      ECODE    ---       #314
      ---         BLOCKEND  ---      ---       LVL=0

      00FFC111H   BLOCK     ECODE    ---       LVL=0
      00FFC111H   LINE      ECODE    ---       #324
      00FFC111H   LINE      ECODE    ---       #325
      00FFC111H   LINE      ECODE    ---       #328
      00FFC121H   LINE      ECODE    ---       #329
      00FFC131H   LINE      ECODE    ---       #330
      00FFC141H   LINE      ECODE    ---       #331
      00FFC151H   LINE      ECODE    ---       #332
      ---         BLOCKEND  ---      ---       LVL=0

      ---         MODULE    ---      ---       SEEKFREE_OLED
      00FF3092H   PUBLIC    ECODE    ---       oled_putpixel?
      00FF3863H   PUBLIC    ECODE    ---       oled_hexascii_spi?
      00FF3035H   PUBLIC    ECODE    ---       oled_set_pos?
      00FF3DB7H   PUBLIC    ECODE    ---       oled_dis_bmp_spi?
      00FF3381H   PUBLIC    ECODE    ---       oled_printf_float?
      00FF3ADEH   PUBLIC    ECODE    ---       oled_p8x16str_spi?
      00FF3A05H   PUBLIC    ECODE    ---       oled_clrpixel_spi?
      00FF2F18H   PUBLIC    ECODE    ---       oled_wrcmd?
      00FF40DEH   PUBLIC    ECODE    ---       oled_print_chinese_spi?
      00FF2EEFH   PUBLIC    ECODE    ---       oled_wrdat?
      00FF305BH   PUBLIC    ECODE    ---       oled_fill?
      00FF32FCH   PUBLIC    ECODE    ---       oled_printf_int32?
L251 LINKER/LOCATER V4.66.93.0                                                        07/23/2023  00:26:15  PAGE 130


      00FF328FH   PUBLIC    ECODE    ---       oled_uint16?
      00FF39CFH   PUBLIC    ECODE    ---       oled_putpixel_spi?
      00FF3974H   PUBLIC    ECODE    ---       oled_set_pos_spi?
      00FF30FBH   PUBLIC    ECODE    ---       oled_p6x8str?
      00FF32AEH   PUBLIC    ECODE    ---       oled_int16?
      00FF2F73H   PUBLIC    ECODE    ---       oled_init?
      00FF3CBAH   PUBLIC    ECODE    ---       oled_printf_float_spi?
      00FF3858H   PUBLIC    ECODE    ---       oled_wrcmd_spi?
      00FF384DH   PUBLIC    ECODE    ---       oled_wrdat_spi?
      00FF2F41H   PUBLIC    ECODE    ---       oled_hexascii?
      00FF3998H   PUBLIC    ECODE    ---       oled_fill_spi?
      00FF3C35H   PUBLIC    ECODE    ---       oled_printf_int32_spi?
      00FF3BC8H   PUBLIC    ECODE    ---       oled_uint16_spi?
      00FF3A34H   PUBLIC    ECODE    ---       oled_p6x8str_spi?
      00FF3BE7H   PUBLIC    ECODE    ---       oled_int16_spi?
      00FF347EH   PUBLIC    ECODE    ---       oled_dis_bmp?
      00FF3895H   PUBLIC    ECODE    ---       oled_init_spi?
      00FF31A5H   PUBLIC    ECODE    ---       oled_p8x16str?
      00FF30CAH   PUBLIC    ECODE    ---       oled_clrpixel?
      00FF37BBH   PUBLIC    ECODE    ---       oled_print_chinese?
      000000D0H   SFRSYM    DATA     BYTE      PSW
      0000009DH   SFRSYM    DATA     BYTE      IRCBAND
      00000097H   SFRSYM    DATA     BYTE      AUXR2
      000000EFH   SFRSYM    DATA     BYTE      AUXINTIF
      000000FDH   SFRSYM    DATA     BYTE      S4CON
      000000ACH   SFRSYM    DATA     BYTE      S3CON
      0000009AH   SFRSYM    DATA     BYTE      S2CON
      000000B7H   SFRSYM    DATA     BYTE      IPH
      000000CDH   SFRSYM    DATA     BYTE      SPSTAT
      000000DDH   SFRSYM    DATA     BYTE      T4T3M
      000000C1H   SFRSYM    DATA     BYTE      WDT_CONTR
      000000DFH   SFRSYM    DATA     BYTE      IP3
      000000F4H   SFRSYM    DATA     BYTE      USBCON
      000000B5H   SFRSYM    DATA     BYTE      IP2
      000000FFH   SFRSYM    DATA     BYTE      RSTCFG
      000000F9H   SFRSYM    DATA     BYTE      LINICR
      0000008EH   SFRSYM    DATA     BYTE      AUXR
      000000AFH   SFRSYM    DATA     BYTE      IE2
      000000A0H.5 SFRSYM    DATA     BIT       P25
      00000088H   SFRSYM    DATA     BYTE      TCON
      000000A0H.3 SFRSYM    DATA     BIT       P23
      00000098H   SFRSYM    DATA     BYTE      SCON
      000000A0H.2 SFRSYM    DATA     BIT       P22
      000000A0H.1 SFRSYM    DATA     BIT       P21
      000000A0H.0 SFRSYM    DATA     BIT       P20
      000000F1H   SFRSYM    DATA     BYTE      CANICR
      00000087H   SFRSYM    DATA     BYTE      PCON
      000000BCH   SFRSYM    DATA     BYTE      ADC_CONTR
      000000E7H   SFRSYM    DATA     BYTE      CMPCR2
      000000E6H   SFRSYM    DATA     BYTE      CMPCR1
      000000B8H   SFRSYM    DATA     BYTE      IP
      0000008FH   SFRSYM    DATA     BYTE      INTCLKO
      000000EEH   SFRSYM    DATA     BYTE      IP3H
      000000B6H   SFRSYM    DATA     BYTE      IP2H
      000000A8H   SFRSYM    DATA     BYTE      IE
      000000BBH   SFRSYM    DATA     BYTE      P_SW3
      000000BAH   SFRSYM    DATA     BYTE      P_SW2
      000000A2H   SFRSYM    DATA     BYTE      P_SW1
      000000CEH   SFRSYM    DATA     BYTE      SPCTL
      000000F8H   SFRSYM    DATA     BYTE      P7
      000000E8H   SFRSYM    DATA     BYTE      P6
      000000C8H   SFRSYM    DATA     BYTE      P5
      000000C0H   SFRSYM    DATA     BYTE      P4
      000000B0H   SFRSYM    DATA     BYTE      P3
      000000A0H   SFRSYM    DATA     BYTE      P2
L251 LINKER/LOCATER V4.66.93.0                                                        07/23/2023  00:26:15  PAGE 131


      00000090H   SFRSYM    DATA     BYTE      P1
      00000080H   SFRSYM    DATA     BYTE      P0

      00FF2EEFH   BLOCK     ECODE    ---       LVL=0
      R7          REGSYM    ---      BYTE      dat
      00FF2EF1H   BLOCK     ECODE    NEAR LAB  LVL=1
      R6          REGSYM    ---      BYTE      i
      ---         BLOCKEND  ---      ---       LVL=1
      00FF2EEFH   LINE      ECODE    ---       #47
      00FF2EF1H   LINE      ECODE    ---       #48
      00FF2EF1H   LINE      ECODE    ---       #49
      00FF2EF4H   LINE      ECODE    ---       #51
      00FF2EF6H   LINE      ECODE    ---       #52
      00FF2EF8H   LINE      ECODE    ---       #53
      00FF2EFAH   LINE      ECODE    ---       #54
      00FF2EFCH   LINE      ECODE    ---       #56
      00FF2F05H   LINE      ECODE    ---       #57
      00FF2F07H   LINE      ECODE    ---       #58
      00FF2F09H   LINE      ECODE    ---       #60
      00FF2F0BH   LINE      ECODE    ---       #61
      00FF2F0DH   LINE      ECODE    ---       #62
      00FF2F15H   LINE      ECODE    ---       #63
      00FF2F17H   LINE      ECODE    ---       #64
      ---         BLOCKEND  ---      ---       LVL=0

      00FF2F18H   BLOCK     ECODE    ---       LVL=0
      R7          REGSYM    ---      BYTE      cmd
      00FF2F1AH   BLOCK     ECODE    NEAR LAB  LVL=1
      R6          REGSYM    ---      BYTE      i
      ---         BLOCKEND  ---      ---       LVL=1
      00FF2F18H   LINE      ECODE    ---       #98
      00FF2F1AH   LINE      ECODE    ---       #99
      00FF2F1AH   LINE      ECODE    ---       #100
      00FF2F1DH   LINE      ECODE    ---       #102
      00FF2F1FH   LINE      ECODE    ---       #103
      00FF2F21H   LINE      ECODE    ---       #104
      00FF2F23H   LINE      ECODE    ---       #106
      00FF2F25H   LINE      ECODE    ---       #108
      00FF2F2EH   LINE      ECODE    ---       #109
      00FF2F30H   LINE      ECODE    ---       #110
      00FF2F32H   LINE      ECODE    ---       #112
      00FF2F34H   LINE      ECODE    ---       #113
      00FF2F36H   LINE      ECODE    ---       #114
      00FF2F3EH   LINE      ECODE    ---       #115
      00FF2F40H   LINE      ECODE    ---       #116
      ---         BLOCKEND  ---      ---       LVL=0

      00FF2F41H   BLOCK     ECODE    ---       LVL=0
      WR8         REGSYM    ---      WORD      hex
      REG=7       REGSYM    ---      ---       Print
      00FF2F45H   BLOCK     ECODE    NEAR LAB  LVL=1
      R5          REGSYM    ---      BYTE      hexcheck
      R10         REGSYM    ---      BYTE      TEMP
      ---         BLOCKEND  ---      ---       LVL=1
      00FF2F41H   LINE      ECODE    ---       #125
      00FF2F45H   LINE      ECODE    ---       #126
      00FF2F45H   LINE      ECODE    ---       #129
      00FF2F48H   LINE      ECODE    ---       #130
      00FF2F4DH   LINE      ECODE    ---       #131
      00FF2F4DH   LINE      ECODE    ---       #133
      00FF2F4FH   LINE      ECODE    ---       #134
      00FF2F57H   LINE      ECODE    ---       #135
      00FF2F5DH   LINE      ECODE    ---       #136
      00FF2F6EH   LINE      ECODE    ---       #137
      00FF2F72H   LINE      ECODE    ---       #139
L251 LINKER/LOCATER V4.66.93.0                                                        07/23/2023  00:26:15  PAGE 132


      ---         BLOCKEND  ---      ---       LVL=0

      00FF2F73H   BLOCK     ECODE    ---       LVL=0
      00FF2F73H   LINE      ECODE    ---       #148
      00FF2F73H   LINE      ECODE    ---       #151
      00FF2F75H   LINE      ECODE    ---       #152
      00FF2F77H   LINE      ECODE    ---       #154
      00FF2F79H   LINE      ECODE    ---       #155
      00FF2F81H   LINE      ECODE    ---       #156
      00FF2F83H   LINE      ECODE    ---       #158
      00FF2F89H   LINE      ECODE    ---       #159
      00FF2F8EH   LINE      ECODE    ---       #160
      00FF2F94H   LINE      ECODE    ---       #161
      00FF2F9AH   LINE      ECODE    ---       #162
      00FF2FA0H   LINE      ECODE    ---       #163
      00FF2FA6H   LINE      ECODE    ---       #166
      00FF2FACH   LINE      ECODE    ---       #167
      00FF2FB2H   LINE      ECODE    ---       #173
      00FF2FB8H   LINE      ECODE    ---       #174
      00FF2FBEH   LINE      ECODE    ---       #175
      00FF2FC4H   LINE      ECODE    ---       #176
      00FF2FCAH   LINE      ECODE    ---       #177
      00FF2FCFH   LINE      ECODE    ---       #178
      00FF2FD5H   LINE      ECODE    ---       #179
      00FF2FDBH   LINE      ECODE    ---       #180
      00FF2FE1H   LINE      ECODE    ---       #181
      00FF2FE7H   LINE      ECODE    ---       #182
      00FF2FEDH   LINE      ECODE    ---       #183
      00FF2FF3H   LINE      ECODE    ---       #184
      00FF2FF9H   LINE      ECODE    ---       #185
      00FF2FFFH   LINE      ECODE    ---       #186
      00FF3005H   LINE      ECODE    ---       #187
      00FF300BH   LINE      ECODE    ---       #188
      00FF3011H   LINE      ECODE    ---       #189
      00FF3017H   LINE      ECODE    ---       #190
      00FF301DH   LINE      ECODE    ---       #191
      00FF3023H   LINE      ECODE    ---       #192
      00FF3029H   LINE      ECODE    ---       #193
      00FF302EH   LINE      ECODE    ---       #194
      ---         BLOCKEND  ---      ---       LVL=0

      00FF3035H   BLOCK     ECODE    ---       LVL=0
      R15         REGSYM    ---      BYTE      x
      R10         REGSYM    ---      BYTE      y
      00FF3035H   LINE      ECODE    ---       #205
      00FF3039H   LINE      ECODE    ---       #207
      00FF3041H   LINE      ECODE    ---       #208
      00FF3050H   LINE      ECODE    ---       #209
      00FF3058H   LINE      ECODE    ---       #210
      ---         BLOCKEND  ---      ---       LVL=0

      00FF305BH   BLOCK     ECODE    ---       LVL=0
      R15         REGSYM    ---      BYTE      bmp_data
      00FF3061H   BLOCK     ECODE    NEAR LAB  LVL=1
      R14         REGSYM    ---      BYTE      y
      R13         REGSYM    ---      BYTE      x
      ---         BLOCKEND  ---      ---       LVL=1
      00FF305BH   LINE      ECODE    ---       #219
      00FF3061H   LINE      ECODE    ---       #220
      00FF3061H   LINE      ECODE    ---       #223
      00FF3063H   LINE      ECODE    ---       #225
      00FF306BH   LINE      ECODE    ---       #226
      00FF3071H   LINE      ECODE    ---       #227
      00FF3077H   LINE      ECODE    ---       #228
      00FF3086H   LINE      ECODE    ---       #229
L251 LINKER/LOCATER V4.66.93.0                                                        07/23/2023  00:26:15  PAGE 133


      00FF308DH   LINE      ECODE    ---       #230
      ---         BLOCKEND  ---      ---       LVL=0

      00FF3092H   BLOCK     ECODE    ---       LVL=0
      R15         REGSYM    ---      BYTE      x
      R14         REGSYM    ---      BYTE      y
      R13         REGSYM    ---      BYTE      data1
      00FF3092H   LINE      ECODE    ---       #243
      00FF309CH   LINE      ECODE    ---       #245
      00FF30A0H   LINE      ECODE    ---       #246
      00FF30A8H   LINE      ECODE    ---       #247
      00FF30B7H   LINE      ECODE    ---       #248
      00FF30BFH   LINE      ECODE    ---       #249
      00FF30C5H   LINE      ECODE    ---       #250
      ---         BLOCKEND  ---      ---       LVL=0

      00FF30CAH   BLOCK     ECODE    ---       LVL=0
      R15         REGSYM    ---      BYTE      x
      R14         REGSYM    ---      BYTE      y
      00FF30CAH   LINE      ECODE    ---       #260
      00FF30D0H   LINE      ECODE    ---       #262
      00FF30D4H   LINE      ECODE    ---       #263
      00FF30DCH   LINE      ECODE    ---       #264
      00FF30EBH   LINE      ECODE    ---       #265
      00FF30F3H   LINE      ECODE    ---       #266
      00FF30F8H   LINE      ECODE    ---       #267
      ---         BLOCKEND  ---      ---       LVL=0

      00FF30FBH   BLOCK     ECODE    ---       LVL=0
      00000833H   SYMBOL    EDATA    BYTE      x
      00000834H   SYMBOL    EDATA    BYTE      y
      REG=3       REGSYM    ---      ---       ch
      00FF3107H   BLOCK     ECODE    NEAR LAB  LVL=1
      00000835H   SYMBOL    EDATA    BYTE      c
      00000836H   SYMBOL    EDATA    BYTE      i
      00000837H   SYMBOL    EDATA    BYTE      j
      ---         BLOCKEND  ---      ---       LVL=1
      00FF30FBH   LINE      ECODE    ---       #279
      00FF3107H   LINE      ECODE    ---       #280
      00FF3107H   LINE      ECODE    ---       #281
      00FF3110H   LINE      ECODE    ---       #282
      00FF3112H   LINE      ECODE    ---       #284
      00FF3129H   LINE      ECODE    ---       #285
      00FF3140H   LINE      ECODE    ---       #286
      00FF314CH   LINE      ECODE    ---       #287
      00FF317DH   LINE      ECODE    ---       #288
      00FF3187H   LINE      ECODE    ---       #289
      00FF3190H   LINE      ECODE    ---       #290
      00FF31A2H   LINE      ECODE    ---       #291
      ---         BLOCKEND  ---      ---       LVL=0

      00FF31A5H   BLOCK     ECODE    ---       LVL=0
      REG=3       REGSYM    ---      ---       ch
      00FF31B1H   BLOCK     ECODE    NEAR LAB  LVL=1
      ---         BLOCKEND  ---      ---       LVL=1
      00FF31A5H   LINE      ECODE    ---       #302
      00FF31B1H   LINE      ECODE    ---       #303
      00FF31B1H   LINE      ECODE    ---       #304
      00FF31BAH   LINE      ECODE    ---       #306
      00FF31BDH   LINE      ECODE    ---       #308
      00FF31D4H   LINE      ECODE    ---       #309
      00FF31EBH   LINE      ECODE    ---       #311
      00FF31F7H   LINE      ECODE    ---       #312
      00FF3228H   LINE      ECODE    ---       #314
      00FF3236H   LINE      ECODE    ---       #315
L251 LINKER/LOCATER V4.66.93.0                                                        07/23/2023  00:26:15  PAGE 134


      00FF3267H   LINE      ECODE    ---       #317
      00FF3271H   LINE      ECODE    ---       #318
      00FF327AH   LINE      ECODE    ---       #319
      00FF328CH   LINE      ECODE    ---       #320
      ---         BLOCKEND  ---      ---       LVL=0

      00FF328FH   BLOCK     ECODE    ---       LVL=0
      R14         REGSYM    ---      BYTE      x
      R15         REGSYM    ---      BYTE      y
      WR4         REGSYM    ---      WORD      num
      00FF3295H   BLOCK     ECODE    NEAR LAB  LVL=1
      ---         BLOCKEND  ---      ---       LVL=1
      00FF328FH   LINE      ECODE    ---       #331
      00FF3295H   LINE      ECODE    ---       #332
      00FF3295H   LINE      ECODE    ---       #335
      00FF329FH   LINE      ECODE    ---       #337
      00FF32ABH   LINE      ECODE    ---       #339
      ---         BLOCKEND  ---      ---       LVL=0

      00FF32AEH   BLOCK     ECODE    ---       LVL=0
      R15         REGSYM    ---      BYTE      x
      R14         REGSYM    ---      BYTE      y
      WR12        REGSYM    ---      INT       num
      00FF32B6H   BLOCK     ECODE    NEAR LAB  LVL=1
      ---         BLOCKEND  ---      ---       LVL=1
      00FF32AEH   LINE      ECODE    ---       #350
      00FF32B6H   LINE      ECODE    ---       #351
      00FF32B6H   LINE      ECODE    ---       #353
      00FF32D0H   LINE      ECODE    ---       #354
      00FF32E0H   LINE      ECODE    ---       #355
      00FF32E3H   LINE      ECODE    ---       #357
      00FF32EDH   LINE      ECODE    ---       #358
      00FF32F9H   LINE      ECODE    ---       #359
      ---         BLOCKEND  ---      ---       LVL=0

      00FF32FCH   BLOCK     ECODE    ---       LVL=0
      WR12        REGSYM    ---      WORD      y
      R15         REGSYM    ---      BYTE      num
      00FF330AH   BLOCK     ECODE    NEAR LAB  LVL=1
      R14         REGSYM    ---      BYTE      length
      ---         BLOCKEND  ---      ---       LVL=1
      00FF32FCH   LINE      ECODE    ---       #372
      00FF330AH   LINE      ECODE    ---       #373
      00FF330AH   LINE      ECODE    ---       #377
      00FF3312H   LINE      ECODE    ---       #379
      00FF3314H   LINE      ECODE    ---       #380
      00FF3336H   LINE      ECODE    ---       #383
      00FF333CH   LINE      ECODE    ---       #384
      00FF3356H   LINE      ECODE    ---       #385
      00FF3358H   LINE      ECODE    ---       #386
      00FF3358H   LINE      ECODE    ---       #387
      00FF335DH   LINE      ECODE    ---       #389
      00FF3363H   LINE      ECODE    ---       #390
      00FF3365H   LINE      ECODE    ---       #391
      00FF3369H   LINE      ECODE    ---       #392
      00FF3370H   LINE      ECODE    ---       #394
      00FF337EH   LINE      ECODE    ---       #395
      ---         BLOCKEND  ---      ---       LVL=0

      00FF3381H   BLOCK     ECODE    ---       LVL=0
      DR12        REGSYM    ---      FLOAT     dat
      00FF3391H   BLOCK     ECODE    NEAR LAB  LVL=1
      R7          REGSYM    ---      CHAR      point
      ---         BLOCKEND  ---      ---       LVL=1
      00FF3381H   LINE      ECODE    ---       #412
L251 LINKER/LOCATER V4.66.93.0                                                        07/23/2023  00:26:15  PAGE 135


      00FF3391H   LINE      ECODE    ---       #413
      00FF3391H   LINE      ECODE    ---       #418
      00FF33A0H   LINE      ECODE    ---       #419
      00FF33AFH   LINE      ECODE    ---       #421
      00FF33D3H   LINE      ECODE    ---       #424
      00FF33EDH   LINE      ECODE    ---       #425
      00FF33F2H   LINE      ECODE    ---       #426
      00FF33F2H   LINE      ECODE    ---       #427
      00FF33FCH   LINE      ECODE    ---       #428
      00FF340CH   LINE      ECODE    ---       #429
      00FF341CH   LINE      ECODE    ---       #430
      00FF3421H   LINE      ECODE    ---       #432
      00FF342BH   LINE      ECODE    ---       #433
      00FF3434H   LINE      ECODE    ---       #434
      00FF343DH   LINE      ECODE    ---       #435
      00FF3446H   LINE      ECODE    ---       #437
      00FF3454H   LINE      ECODE    ---       #438
      00FF3460H   LINE      ECODE    ---       #440
      00FF346BH   LINE      ECODE    ---       #442
      00FF347BH   LINE      ECODE    ---       #443
      ---         BLOCKEND  ---      ---       LVL=0

      00FF347EH   BLOCK     ECODE    ---       LVL=0
      WR4         REGSYM    ---      WORD      high
      REG=3       REGSYM    ---      ---       p
      00FF348CH   BLOCK     ECODE    NEAR LAB  LVL=1
      ---         BLOCKEND  ---      ---       LVL=1
      00FF347EH   LINE      ECODE    ---       #459
      00FF348CH   LINE      ECODE    ---       #460
      00FF348CH   LINE      ECODE    ---       #461
      00FF3492H   LINE      ECODE    ---       #462
      00FF3496H   LINE      ECODE    ---       #463
      00FF349AH   LINE      ECODE    ---       #464
      00FF349FH   LINE      ECODE    ---       #467
      00FF34A9H   LINE      ECODE    ---       #468
      00FF34BAH   LINE      ECODE    ---       #469
      00FF34C6H   LINE      ECODE    ---       #471
      00FF34C9H   LINE      ECODE    ---       #473
      00FF34D2H   LINE      ECODE    ---       #475
      00FF34D7H   LINE      ECODE    ---       #477
      00FF34DCH   LINE      ECODE    ---       #478
      00FF3525H   LINE      ECODE    ---       #479
      00FF3572H   LINE      ECODE    ---       #480
      00FF35C1H   LINE      ECODE    ---       #481
      00FF3618H   LINE      ECODE    ---       #482
      00FF366DH   LINE      ECODE    ---       #483
      00FF36C8H   LINE      ECODE    ---       #484
      00FF3725H   LINE      ECODE    ---       #485
      00FF3782H   LINE      ECODE    ---       #487
      00FF378AH   LINE      ECODE    ---       #488
      00FF37A1H   LINE      ECODE    ---       #489
      00FF37B8H   LINE      ECODE    ---       #490
      ---         BLOCKEND  ---      ---       LVL=0

      00FF37BBH   BLOCK     ECODE    ---       LVL=0
      REG=3       REGSYM    ---      ---       p
      00FF37CFH   BLOCK     ECODE    NEAR LAB  LVL=1
      ---         BLOCKEND  ---      ---       LVL=1
      00FF37BBH   LINE      ECODE    ---       #504
      00FF37CFH   LINE      ECODE    ---       #505
      00FF37CFH   LINE      ECODE    ---       #508
      00FF37D3H   LINE      ECODE    ---       #510
      00FF37D7H   LINE      ECODE    ---       #512
      00FF37F9H   LINE      ECODE    ---       #513
      00FF37FFH   LINE      ECODE    ---       #515
L251 LINKER/LOCATER V4.66.93.0                                                        07/23/2023  00:26:15  PAGE 136


      00FF3806H   LINE      ECODE    ---       #516
      00FF3808H   LINE      ECODE    ---       #517
      00FF3818H   LINE      ECODE    ---       #518
      00FF3834H   LINE      ECODE    ---       #519
      00FF384AH   LINE      ECODE    ---       #520
      ---         BLOCKEND  ---      ---       LVL=0

      00FF384DH   BLOCK     ECODE    ---       LVL=0
      R7          REGSYM    ---      BYTE      dat
      00FF384DH   LINE      ECODE    ---       #534
      00FF384DH   LINE      ECODE    ---       #536
      00FF384FH   LINE      ECODE    ---       #537
      00FF3851H   LINE      ECODE    ---       #538
      00FF3855H   LINE      ECODE    ---       #539
      00FF3857H   LINE      ECODE    ---       #542
      ---         BLOCKEND  ---      ---       LVL=0

      00FF3858H   BLOCK     ECODE    ---       LVL=0
      R7          REGSYM    ---      BYTE      cmd
      00FF3858H   LINE      ECODE    ---       #576
      00FF3858H   LINE      ECODE    ---       #578
      00FF385AH   LINE      ECODE    ---       #579
      00FF385CH   LINE      ECODE    ---       #580
      00FF3860H   LINE      ECODE    ---       #581
      00FF3862H   LINE      ECODE    ---       #582
      ---         BLOCKEND  ---      ---       LVL=0

      00FF3863H   BLOCK     ECODE    ---       LVL=0
      WR8         REGSYM    ---      WORD      hex
      REG=7       REGSYM    ---      ---       Print
      00FF3867H   BLOCK     ECODE    NEAR LAB  LVL=1
      R5          REGSYM    ---      BYTE      hexcheck
      R10         REGSYM    ---      BYTE      TEMP
      ---         BLOCKEND  ---      ---       LVL=1
      00FF3863H   LINE      ECODE    ---       #591
      00FF3867H   LINE      ECODE    ---       #592
      00FF3867H   LINE      ECODE    ---       #595
      00FF386AH   LINE      ECODE    ---       #596
      00FF386FH   LINE      ECODE    ---       #597
      00FF386FH   LINE      ECODE    ---       #599
      00FF3871H   LINE      ECODE    ---       #600
      00FF3879H   LINE      ECODE    ---       #601
      00FF387FH   LINE      ECODE    ---       #602
      00FF3890H   LINE      ECODE    ---       #603
      00FF3894H   LINE      ECODE    ---       #605
      ---         BLOCKEND  ---      ---       LVL=0

      00FF3895H   BLOCK     ECODE    ---       LVL=0
      00FF3895H   LINE      ECODE    ---       #614
      00FF3895H   LINE      ECODE    ---       #617
      00FF3897H   LINE      ECODE    ---       #619
      00FF38B6H   LINE      ECODE    ---       #621
      00FF38B8H   LINE      ECODE    ---       #622
      00FF38C0H   LINE      ECODE    ---       #623
      00FF38C2H   LINE      ECODE    ---       #625
      00FF38C8H   LINE      ECODE    ---       #626
      00FF38CDH   LINE      ECODE    ---       #627
      00FF38D3H   LINE      ECODE    ---       #628
      00FF38D9H   LINE      ECODE    ---       #629
      00FF38DFH   LINE      ECODE    ---       #630
      00FF38E5H   LINE      ECODE    ---       #633
      00FF38EBH   LINE      ECODE    ---       #634
      00FF38F1H   LINE      ECODE    ---       #640
      00FF38F7H   LINE      ECODE    ---       #641
      00FF38FDH   LINE      ECODE    ---       #642
L251 LINKER/LOCATER V4.66.93.0                                                        07/23/2023  00:26:15  PAGE 137


      00FF3903H   LINE      ECODE    ---       #643
      00FF3909H   LINE      ECODE    ---       #644
      00FF390EH   LINE      ECODE    ---       #645
      00FF3914H   LINE      ECODE    ---       #646
      00FF391AH   LINE      ECODE    ---       #647
      00FF3920H   LINE      ECODE    ---       #648
      00FF3926H   LINE      ECODE    ---       #649
      00FF392CH   LINE      ECODE    ---       #650
      00FF3932H   LINE      ECODE    ---       #651
      00FF3938H   LINE      ECODE    ---       #652
      00FF393EH   LINE      ECODE    ---       #653
      00FF3944H   LINE      ECODE    ---       #654
      00FF394AH   LINE      ECODE    ---       #655
      00FF3950H   LINE      ECODE    ---       #656
      00FF3956H   LINE      ECODE    ---       #657
      00FF395CH   LINE      ECODE    ---       #658
      00FF3962H   LINE      ECODE    ---       #659
      00FF3968H   LINE      ECODE    ---       #660
      00FF396DH   LINE      ECODE    ---       #661
      ---         BLOCKEND  ---      ---       LVL=0

      00FF3974H   BLOCK     ECODE    ---       LVL=0
      R15         REGSYM    ---      BYTE      x
      R10         REGSYM    ---      BYTE      y
      00FF3974H   LINE      ECODE    ---       #672
      00FF3978H   LINE      ECODE    ---       #676
      00FF3980H   LINE      ECODE    ---       #677
      00FF398DH   LINE      ECODE    ---       #678
      00FF3995H   LINE      ECODE    ---       #679
      ---         BLOCKEND  ---      ---       LVL=0

      00FF3998H   BLOCK     ECODE    ---       LVL=0
      R15         REGSYM    ---      BYTE      bmp_data
      00FF399EH   BLOCK     ECODE    NEAR LAB  LVL=1
      R14         REGSYM    ---      BYTE      y
      R13         REGSYM    ---      BYTE      x
      ---         BLOCKEND  ---      ---       LVL=1
      00FF3998H   LINE      ECODE    ---       #688
      00FF399EH   LINE      ECODE    ---       #689
      00FF399EH   LINE      ECODE    ---       #692
      00FF39A0H   LINE      ECODE    ---       #694
      00FF39A8H   LINE      ECODE    ---       #695
      00FF39AEH   LINE      ECODE    ---       #696
      00FF39B4H   LINE      ECODE    ---       #697
      00FF39C3H   LINE      ECODE    ---       #698
      00FF39CAH   LINE      ECODE    ---       #699
      ---         BLOCKEND  ---      ---       LVL=0

      00FF39CFH   BLOCK     ECODE    ---       LVL=0
      R15         REGSYM    ---      BYTE      x
      R14         REGSYM    ---      BYTE      y
      R13         REGSYM    ---      BYTE      data1
      00FF39CFH   LINE      ECODE    ---       #712
      00FF39D9H   LINE      ECODE    ---       #714
      00FF39DDH   LINE      ECODE    ---       #715
      00FF39E5H   LINE      ECODE    ---       #716
      00FF39F2H   LINE      ECODE    ---       #717
      00FF39FAH   LINE      ECODE    ---       #718
      00FF3A00H   LINE      ECODE    ---       #719
      ---         BLOCKEND  ---      ---       LVL=0

      00FF3A05H   BLOCK     ECODE    ---       LVL=0
      R15         REGSYM    ---      BYTE      x
      R14         REGSYM    ---      BYTE      y
      00FF3A05H   LINE      ECODE    ---       #729
L251 LINKER/LOCATER V4.66.93.0                                                        07/23/2023  00:26:15  PAGE 138


      00FF3A0BH   LINE      ECODE    ---       #731
      00FF3A0FH   LINE      ECODE    ---       #732
      00FF3A17H   LINE      ECODE    ---       #733
      00FF3A24H   LINE      ECODE    ---       #734
      00FF3A2CH   LINE      ECODE    ---       #735
      00FF3A31H   LINE      ECODE    ---       #736
      ---         BLOCKEND  ---      ---       LVL=0

      00FF3A34H   BLOCK     ECODE    ---       LVL=0
      00000838H   SYMBOL    EDATA    BYTE      x
      00000839H   SYMBOL    EDATA    BYTE      y
      REG=3       REGSYM    ---      ---       ch
      00FF3A40H   BLOCK     ECODE    NEAR LAB  LVL=1
      0000083AH   SYMBOL    EDATA    BYTE      c
      0000083BH   SYMBOL    EDATA    BYTE      i
      0000083CH   SYMBOL    EDATA    BYTE      j
      ---         BLOCKEND  ---      ---       LVL=1
      00FF3A34H   LINE      ECODE    ---       #748
      00FF3A40H   LINE      ECODE    ---       #749
      00FF3A40H   LINE      ECODE    ---       #750
      00FF3A49H   LINE      ECODE    ---       #751
      00FF3A4BH   LINE      ECODE    ---       #753
      00FF3A62H   LINE      ECODE    ---       #754
      00FF3A79H   LINE      ECODE    ---       #755
      00FF3A85H   LINE      ECODE    ---       #756
      00FF3AB6H   LINE      ECODE    ---       #757
      00FF3AC0H   LINE      ECODE    ---       #758
      00FF3AC9H   LINE      ECODE    ---       #759
      00FF3ADBH   LINE      ECODE    ---       #760
      ---         BLOCKEND  ---      ---       LVL=0

      00FF3ADEH   BLOCK     ECODE    ---       LVL=0
      REG=3       REGSYM    ---      ---       ch
      00FF3AEAH   BLOCK     ECODE    NEAR LAB  LVL=1
      ---         BLOCKEND  ---      ---       LVL=1
      00FF3ADEH   LINE      ECODE    ---       #771
      00FF3AEAH   LINE      ECODE    ---       #772
      00FF3AEAH   LINE      ECODE    ---       #773
      00FF3AF3H   LINE      ECODE    ---       #775
      00FF3AF6H   LINE      ECODE    ---       #777
      00FF3B0DH   LINE      ECODE    ---       #778
      00FF3B24H   LINE      ECODE    ---       #780
      00FF3B30H   LINE      ECODE    ---       #781
      00FF3B61H   LINE      ECODE    ---       #783
      00FF3B6FH   LINE      ECODE    ---       #784
      00FF3BA0H   LINE      ECODE    ---       #786
      00FF3BAAH   LINE      ECODE    ---       #787
      00FF3BB3H   LINE      ECODE    ---       #788
      00FF3BC5H   LINE      ECODE    ---       #789
      ---         BLOCKEND  ---      ---       LVL=0

      00FF3BC8H   BLOCK     ECODE    ---       LVL=0
      R14         REGSYM    ---      BYTE      x
      R15         REGSYM    ---      BYTE      y
      WR4         REGSYM    ---      WORD      num
      00FF3BCEH   BLOCK     ECODE    NEAR LAB  LVL=1
      ---         BLOCKEND  ---      ---       LVL=1
      00FF3BC8H   LINE      ECODE    ---       #800
      00FF3BCEH   LINE      ECODE    ---       #801
      00FF3BCEH   LINE      ECODE    ---       #804
      00FF3BD8H   LINE      ECODE    ---       #806
      00FF3BE4H   LINE      ECODE    ---       #808
      ---         BLOCKEND  ---      ---       LVL=0

      00FF3BE7H   BLOCK     ECODE    ---       LVL=0
L251 LINKER/LOCATER V4.66.93.0                                                        07/23/2023  00:26:15  PAGE 139


      R15         REGSYM    ---      BYTE      x
      R14         REGSYM    ---      BYTE      y
      WR12        REGSYM    ---      INT       num
      00FF3BEFH   BLOCK     ECODE    NEAR LAB  LVL=1
      ---         BLOCKEND  ---      ---       LVL=1
      00FF3BE7H   LINE      ECODE    ---       #819
      00FF3BEFH   LINE      ECODE    ---       #820
      00FF3BEFH   LINE      ECODE    ---       #822
      00FF3C09H   LINE      ECODE    ---       #823
      00FF3C19H   LINE      ECODE    ---       #824
      00FF3C1CH   LINE      ECODE    ---       #826
      00FF3C26H   LINE      ECODE    ---       #827
      00FF3C32H   LINE      ECODE    ---       #828
      ---         BLOCKEND  ---      ---       LVL=0

      00FF3C35H   BLOCK     ECODE    ---       LVL=0
      WR12        REGSYM    ---      WORD      y
      R15         REGSYM    ---      BYTE      num
      00FF3C43H   BLOCK     ECODE    NEAR LAB  LVL=1
      R14         REGSYM    ---      BYTE      length
      ---         BLOCKEND  ---      ---       LVL=1
      00FF3C35H   LINE      ECODE    ---       #841
      00FF3C43H   LINE      ECODE    ---       #842
      00FF3C43H   LINE      ECODE    ---       #846
      00FF3C4BH   LINE      ECODE    ---       #848
      00FF3C4DH   LINE      ECODE    ---       #849
      00FF3C6FH   LINE      ECODE    ---       #852
      00FF3C75H   LINE      ECODE    ---       #853
      00FF3C8FH   LINE      ECODE    ---       #854
      00FF3C91H   LINE      ECODE    ---       #855
      00FF3C91H   LINE      ECODE    ---       #856
      00FF3C96H   LINE      ECODE    ---       #858
      00FF3C9CH   LINE      ECODE    ---       #859
      00FF3C9EH   LINE      ECODE    ---       #860
      00FF3CA2H   LINE      ECODE    ---       #861
      00FF3CA9H   LINE      ECODE    ---       #863
      00FF3CB7H   LINE      ECODE    ---       #864
      ---         BLOCKEND  ---      ---       LVL=0

      00FF3CBAH   BLOCK     ECODE    ---       LVL=0
      DR12        REGSYM    ---      FLOAT     dat
      00FF3CCAH   BLOCK     ECODE    NEAR LAB  LVL=1
      R7          REGSYM    ---      CHAR      point
      ---         BLOCKEND  ---      ---       LVL=1
      00FF3CBAH   LINE      ECODE    ---       #881
      00FF3CCAH   LINE      ECODE    ---       #882
      00FF3CCAH   LINE      ECODE    ---       #887
      00FF3CD9H   LINE      ECODE    ---       #888
      00FF3CE8H   LINE      ECODE    ---       #890
      00FF3D0CH   LINE      ECODE    ---       #893
      00FF3D26H   LINE      ECODE    ---       #894
      00FF3D2BH   LINE      ECODE    ---       #895
      00FF3D2BH   LINE      ECODE    ---       #896
      00FF3D35H   LINE      ECODE    ---       #897
      00FF3D45H   LINE      ECODE    ---       #898
      00FF3D55H   LINE      ECODE    ---       #899
      00FF3D5AH   LINE      ECODE    ---       #901
      00FF3D64H   LINE      ECODE    ---       #902
      00FF3D6DH   LINE      ECODE    ---       #903
      00FF3D76H   LINE      ECODE    ---       #904
      00FF3D7FH   LINE      ECODE    ---       #906
      00FF3D8DH   LINE      ECODE    ---       #907
      00FF3D99H   LINE      ECODE    ---       #909
      00FF3DA4H   LINE      ECODE    ---       #911
      00FF3DB4H   LINE      ECODE    ---       #912
L251 LINKER/LOCATER V4.66.93.0                                                        07/23/2023  00:26:15  PAGE 140


      ---         BLOCKEND  ---      ---       LVL=0

      00FF3DB7H   BLOCK     ECODE    ---       LVL=0
      WR4         REGSYM    ---      WORD      high
      REG=3       REGSYM    ---      ---       p
      00FF3DC5H   BLOCK     ECODE    NEAR LAB  LVL=1
      ---         BLOCKEND  ---      ---       LVL=1
      00FF3DB7H   LINE      ECODE    ---       #928
      00FF3DC5H   LINE      ECODE    ---       #929
      00FF3DC5H   LINE      ECODE    ---       #935
      00FF3DCDH   LINE      ECODE    ---       #936
      00FF3DD9H   LINE      ECODE    ---       #937
      00FF3DE7H   LINE      ECODE    ---       #939
      00FF3DECH   LINE      ECODE    ---       #941
      00FF3DF5H   LINE      ECODE    ---       #942
      00FF3DFAH   LINE      ECODE    ---       #944
      00FF3DFFH   LINE      ECODE    ---       #945
      00FF3E48H   LINE      ECODE    ---       #946
      00FF3E95H   LINE      ECODE    ---       #947
      00FF3EE4H   LINE      ECODE    ---       #948
      00FF3F3BH   LINE      ECODE    ---       #949
      00FF3F90H   LINE      ECODE    ---       #950
      00FF3FEBH   LINE      ECODE    ---       #951
      00FF4048H   LINE      ECODE    ---       #952
      00FF40A5H   LINE      ECODE    ---       #954
      00FF40ADH   LINE      ECODE    ---       #955
      00FF40C4H   LINE      ECODE    ---       #956
      00FF40DBH   LINE      ECODE    ---       #957
      ---         BLOCKEND  ---      ---       LVL=0

      00FF40DEH   BLOCK     ECODE    ---       LVL=0
      REG=3       REGSYM    ---      ---       p
      00FF40F2H   BLOCK     ECODE    NEAR LAB  LVL=1
      ---         BLOCKEND  ---      ---       LVL=1
      00FF40DEH   LINE      ECODE    ---       #971
      00FF40F2H   LINE      ECODE    ---       #972
      00FF40F2H   LINE      ECODE    ---       #975
      00FF40F6H   LINE      ECODE    ---       #977
      00FF40FAH   LINE      ECODE    ---       #979
      00FF411CH   LINE      ECODE    ---       #980
      00FF4122H   LINE      ECODE    ---       #982
      00FF4129H   LINE      ECODE    ---       #983
      00FF412BH   LINE      ECODE    ---       #984
      00FF413BH   LINE      ECODE    ---       #985
      00FF4157H   LINE      ECODE    ---       #986
      00FF416DH   LINE      ECODE    ---       #987
      ---         BLOCKEND  ---      ---       LVL=0

      ---         MODULE    ---      ---       SEEKFREE_PRINTF
      00FF9CE5H   PUBLIC    ECODE    ---       number_conversion_ascii?
      00FF9DB9H   PUBLIC    ECODE    ---       zf_sprintf?
      00FF9D7BH   PUBLIC    ECODE    ---       printf_reverse_order?
      0000034DH   PUBLIC    EDATA    BYTE      ?number_conversion_ascii??BYTE
      0000031FH   PUBLIC    EDATA    BYTE      ?zf_sprintf??BYTE
      000000D0H   SFRSYM    DATA     BYTE      PSW
      0000009DH   SFRSYM    DATA     BYTE      IRCBAND
      00000097H   SFRSYM    DATA     BYTE      AUXR2
      000000EFH   SFRSYM    DATA     BYTE      AUXINTIF
      000000FDH   SFRSYM    DATA     BYTE      S4CON
      000000ACH   SFRSYM    DATA     BYTE      S3CON
      0000009AH   SFRSYM    DATA     BYTE      S2CON
      000000B7H   SFRSYM    DATA     BYTE      IPH
      000000CDH   SFRSYM    DATA     BYTE      SPSTAT
      000000DDH   SFRSYM    DATA     BYTE      T4T3M
      000000C1H   SFRSYM    DATA     BYTE      WDT_CONTR
L251 LINKER/LOCATER V4.66.93.0                                                        07/23/2023  00:26:15  PAGE 141


      000000DFH   SFRSYM    DATA     BYTE      IP3
      000000F4H   SFRSYM    DATA     BYTE      USBCON
      000000B5H   SFRSYM    DATA     BYTE      IP2
      000000FFH   SFRSYM    DATA     BYTE      RSTCFG
      000000F9H   SFRSYM    DATA     BYTE      LINICR
      0000008EH   SFRSYM    DATA     BYTE      AUXR
      000000AFH   SFRSYM    DATA     BYTE      IE2
      00000088H   SFRSYM    DATA     BYTE      TCON
      00000098H   SFRSYM    DATA     BYTE      SCON
      000000F1H   SFRSYM    DATA     BYTE      CANICR
      00000087H   SFRSYM    DATA     BYTE      PCON
      000000BCH   SFRSYM    DATA     BYTE      ADC_CONTR
      000000E7H   SFRSYM    DATA     BYTE      CMPCR2
      000000E6H   SFRSYM    DATA     BYTE      CMPCR1
      000000B8H   SFRSYM    DATA     BYTE      IP
      0000008FH   SFRSYM    DATA     BYTE      INTCLKO
      000000EEH   SFRSYM    DATA     BYTE      IP3H
      000000B6H   SFRSYM    DATA     BYTE      IP2H
      000000A8H   SFRSYM    DATA     BYTE      IE
      000000BBH   SFRSYM    DATA     BYTE      P_SW3
      000000BAH   SFRSYM    DATA     BYTE      P_SW2
      000000A2H   SFRSYM    DATA     BYTE      P_SW1
      000000CEH   SFRSYM    DATA     BYTE      SPCTL
      000000F8H   SFRSYM    DATA     BYTE      P7
      000000E8H   SFRSYM    DATA     BYTE      P6
      000000C8H   SFRSYM    DATA     BYTE      P5
      000000C0H   SFRSYM    DATA     BYTE      P4
      000000B0H   SFRSYM    DATA     BYTE      P3
      000000A0H   SFRSYM    DATA     BYTE      P2
      00000090H   SFRSYM    DATA     BYTE      P1
      00000080H   SFRSYM    DATA     BYTE      P0

      00FF9CE5H   BLOCK     ECODE    ---       LVL=0
      DR24        REGSYM    ---      DWORD     dat
      REG=7       REGSYM    ---      ---       p
      R10         REGSYM    ---      BYTE      neg_type
      00000356H   SYMBOL    EDATA    BYTE      radix
      00FF9CEDH   BLOCK     ECODE    NEAR LAB  LVL=1
      DR20        REGSYM    ---      LONG      neg_dat
      DR24        REGSYM    ---      DWORD     pos_dat
      R14         REGSYM    ---      BYTE      temp_data
      R15         REGSYM    ---      BYTE      valid_num
      ---         BLOCKEND  ---      ---       LVL=1
      00FF9CE5H   LINE      ECODE    ---       #25
      00FF9CEDH   LINE      ECODE    ---       #26
      00FF9CEDH   LINE      ECODE    ---       #29
      00FF9CEDH   LINE      ECODE    ---       #30
      00FF9CEFH   LINE      ECODE    ---       #32
      00FF9CF3H   LINE      ECODE    ---       #34
      00FF9CF5H   LINE      ECODE    ---       #35
      00FF9D05H   LINE      ECODE    ---       #36
      00FF9D05H   LINE      ECODE    ---       #38
      00FF9D1CH   LINE      ECODE    ---       #39
      00FF9D2CH   LINE      ECODE    ---       #40
      00FF9D2EH   LINE      ECODE    ---       #42
      00FF9D34H   LINE      ECODE    ---       #43
      00FF9D36H   LINE      ECODE    ---       #44
      00FF9D38H   LINE      ECODE    ---       #45
      00FF9D3AH   LINE      ECODE    ---       #48
      00FF9D3AH   LINE      ECODE    ---       #49
      00FF9D3AH   LINE      ECODE    ---       #51
      00FF9D4AH   LINE      ECODE    ---       #52
      00FF9D54H   LINE      ECODE    ---       #53
      00FF9D57H   LINE      ECODE    ---       #55
      00FF9D5AH   LINE      ECODE    ---       #57
L251 LINKER/LOCATER V4.66.93.0                                                        07/23/2023  00:26:15  PAGE 142


      00FF9D6AH   LINE      ECODE    ---       #58
      00FF9D6CH   LINE      ECODE    ---       #60
      00FF9D72H   LINE      ECODE    ---       #61
      00FF9D74H   LINE      ECODE    ---       #62
      00FF9D76H   LINE      ECODE    ---       #63
      00FF9D76H   LINE      ECODE    ---       #64
      00FF9D78H   LINE      ECODE    ---       #65
      ---         BLOCKEND  ---      ---       LVL=0

      00FF9D7BH   BLOCK     ECODE    ---       LVL=0
      REG=7       REGSYM    ---      ---       d_buff
      DR24        REGSYM    ---      DWORD     len
      00FF9D7FH   BLOCK     ECODE    NEAR LAB  LVL=1
      DR4         REGSYM    ---      DWORD     i
      R3          REGSYM    ---      CHAR      temp_data
      ---         BLOCKEND  ---      ---       LVL=1
      00FF9D7BH   LINE      ECODE    ---       #67
      00FF9D7FH   LINE      ECODE    ---       #68
      00FF9D7FH   LINE      ECODE    ---       #71
      00FF9D83H   LINE      ECODE    ---       #73
      00FF9D92H   LINE      ECODE    ---       #74
      00FF9DA0H   LINE      ECODE    ---       #75
      00FF9DA7H   LINE      ECODE    ---       #76
      00FF9DB8H   LINE      ECODE    ---       #77
      ---         BLOCKEND  ---      ---       LVL=0

      00FF9DB9H   BLOCK     ECODE    ---       LVL=0
      REG=3       REGSYM    ---      ---       buff
      00000323H   SYMBOL    EDATA    ---       format
      00FF9DC1H   BLOCK     ECODE    NEAR LAB  LVL=1
      00000327H   SYMBOL    EDATA    DWORD     buff_len
      0000032BH   SYMBOL    EDATA    ---       arg
      00FF9DD6H   BLOCK     ECODE    NEAR LAB  LVL=2
      0000032FH   SYMBOL    EDATA    CHAR      ret
      00FF9F00H   BLOCK     ECODE    NEAR LAB  LVL=3
      00000330H   SYMBOL    EDATA    CHAR      ch
      ---         BLOCKEND  ---      ---       LVL=3
      00FF9F19H   BLOCK     ECODE    NEAR LAB  LVL=3
      00000330H   SYMBOL    EDATA    ---       vstr
      00000351H   SYMBOL    EDATA    LONG      ival
      00000355H   SYMBOL    EDATA    BYTE      vlen
      ---         BLOCKEND  ---      ---       LVL=3
      00FF9F95H   BLOCK     ECODE    NEAR LAB  LVL=3
      00000330H   SYMBOL    EDATA    ---       vstr
      00000351H   SYMBOL    EDATA    FLOAT     ival
      00000355H   SYMBOL    EDATA    BYTE      vlen
      ---         BLOCKEND  ---      ---       LVL=3
      00FFA0DDH   BLOCK     ECODE    NEAR LAB  LVL=3
      00000330H   SYMBOL    EDATA    ---       vstr
      00000351H   SYMBOL    EDATA    DWORD     ival
      00000355H   SYMBOL    EDATA    BYTE      vlen
      ---         BLOCKEND  ---      ---       LVL=3
      00FFA138H   BLOCK     ECODE    NEAR LAB  LVL=3
      00000330H   SYMBOL    EDATA    ---       vstr
      00000351H   SYMBOL    EDATA    DWORD     ival
      00000355H   SYMBOL    EDATA    BYTE      vlen
      ---         BLOCKEND  ---      ---       LVL=3
      00FFA192H   BLOCK     ECODE    NEAR LAB  LVL=3
      00000330H   SYMBOL    EDATA    ---       vstr
      00000351H   SYMBOL    EDATA    DWORD     ival
      00000355H   SYMBOL    EDATA    BYTE      vlen
      ---         BLOCKEND  ---      ---       LVL=3
      00FFA1F7H   BLOCK     ECODE    NEAR LAB  LVL=3
      00000330H   SYMBOL    EDATA    ---       pc
      ---         BLOCKEND  ---      ---       LVL=3
L251 LINKER/LOCATER V4.66.93.0                                                        07/23/2023  00:26:15  PAGE 143


      00FFA239H   BLOCK     ECODE    NEAR LAB  LVL=3
      00000330H   SYMBOL    EDATA    ---       vstr
      00000351H   SYMBOL    EDATA    DWORD     ival
      ---         BLOCKEND  ---      ---       LVL=3
      ---         BLOCKEND  ---      ---       LVL=2
      ---         BLOCKEND  ---      ---       LVL=1
      00FF9DB9H   LINE      ECODE    ---       #212
      00FF9DC1H   LINE      ECODE    ---       #213
      00FF9DC1H   LINE      ECODE    ---       #214
      00FF9DC7H   LINE      ECODE    ---       #216
      00FF9DD3H   LINE      ECODE    ---       #218
      00FF9DD6H   LINE      ECODE    ---       #219
      00FF9DD6H   LINE      ECODE    ---       #220
      00FF9DE1H   LINE      ECODE    ---       #221
      00FF9DE9H   LINE      ECODE    ---       #223
      00FF9F00H   LINE      ECODE    ---       #225
      00FF9F00H   LINE      ECODE    ---       #229
      00FF9F00H   LINE      ECODE    ---       #232
      00FF9F00H   LINE      ECODE    ---       #233
      00FF9F00H   LINE      ECODE    ---       #234
      00FF9F16H   LINE      ECODE    ---       #235
      00FF9F16H   LINE      ECODE    ---       #236
      00FF9F16H   LINE      ECODE    ---       #237
      00FF9F16H   LINE      ECODE    ---       #239
      00FF9F19H   LINE      ECODE    ---       #242
      00FF9F19H   LINE      ECODE    ---       #243
      00FF9F19H   LINE      ECODE    ---       #244
      00FF9F19H   LINE      ECODE    ---       #246
      00FF9F32H   LINE      ECODE    ---       #247
      00FF9F46H   LINE      ECODE    ---       #249
      00FF9F50H   LINE      ECODE    ---       #251
      00FF9F5DH   LINE      ECODE    ---       #252
      00FF9F62H   LINE      ECODE    ---       #253
      00FF9F62H   LINE      ECODE    ---       #254
      00FF9F72H   LINE      ECODE    ---       #255
      00FF9F86H   LINE      ECODE    ---       #256
      00FF9F8EH   LINE      ECODE    ---       #257
      00FF9F92H   LINE      ECODE    ---       #260
      00FF9F95H   LINE      ECODE    ---       #262
      00FF9F95H   LINE      ECODE    ---       #263
      00FF9F95H   LINE      ECODE    ---       #264
      00FF9F95H   LINE      ECODE    ---       #266
      00FF9FAEH   LINE      ECODE    ---       #267
      00FF9FC6H   LINE      ECODE    ---       #269
      00FF9FD2H   LINE      ECODE    ---       #271
      00FF9FDFH   LINE      ECODE    ---       #272
      00FF9FE4H   LINE      ECODE    ---       #273
      00FF9FE4H   LINE      ECODE    ---       #274
      00FF9FF4H   LINE      ECODE    ---       #275
      00FFA008H   LINE      ECODE    ---       #276
      00FFA010H   LINE      ECODE    ---       #277
      00FFA022H   LINE      ECODE    ---       #279
      00FFA04AH   LINE      ECODE    ---       #280
      00FFA050H   LINE      ECODE    ---       #282
      00FFA064H   LINE      ECODE    ---       #283
      00FFA066H   LINE      ECODE    ---       #286
      00FFA080H   LINE      ECODE    ---       #287
      00FFA086H   LINE      ECODE    ---       #288
      00FFA086H   LINE      ECODE    ---       #290
      00FFA08BH   LINE      ECODE    ---       #292
      00FFA095H   LINE      ECODE    ---       #293
      00FFA09AH   LINE      ECODE    ---       #294
      00FFA0A3H   LINE      ECODE    ---       #296
      00FFA0ABH   LINE      ECODE    ---       #297
      00FFA0B2H   LINE      ECODE    ---       #299
L251 LINKER/LOCATER V4.66.93.0                                                        07/23/2023  00:26:15  PAGE 144


      00FFA0C2H   LINE      ECODE    ---       #300
      00FFA0D6H   LINE      ECODE    ---       #301
      00FFA0DAH   LINE      ECODE    ---       #303
      00FFA0DDH   LINE      ECODE    ---       #306
      00FFA0DDH   LINE      ECODE    ---       #307
      00FFA0DDH   LINE      ECODE    ---       #309
      00FFA0F6H   LINE      ECODE    ---       #310
      00FFA109H   LINE      ECODE    ---       #312
      00FFA115H   LINE      ECODE    ---       #313
      00FFA129H   LINE      ECODE    ---       #314
      00FFA131H   LINE      ECODE    ---       #315
      00FFA135H   LINE      ECODE    ---       #316
      00FFA138H   LINE      ECODE    ---       #318
      00FFA138H   LINE      ECODE    ---       #319
      00FFA138H   LINE      ECODE    ---       #321
      00FFA151H   LINE      ECODE    ---       #322
      00FFA164H   LINE      ECODE    ---       #324
      00FFA170H   LINE      ECODE    ---       #325
      00FFA184H   LINE      ECODE    ---       #326
      00FFA18CH   LINE      ECODE    ---       #327
      00FFA190H   LINE      ECODE    ---       #329
      00FFA192H   LINE      ECODE    ---       #331
      00FFA192H   LINE      ECODE    ---       #332
      00FFA192H   LINE      ECODE    ---       #333
      00FFA192H   LINE      ECODE    ---       #335
      00FFA1ABH   LINE      ECODE    ---       #336
      00FFA1BEH   LINE      ECODE    ---       #338
      00FFA1CAH   LINE      ECODE    ---       #339
      00FFA1DEH   LINE      ECODE    ---       #340
      00FFA1E6H   LINE      ECODE    ---       #341
      00FFA1F4H   LINE      ECODE    ---       #342
      00FFA1F7H   LINE      ECODE    ---       #345
      00FFA1F7H   LINE      ECODE    ---       #346
      00FFA1F7H   LINE      ECODE    ---       #347
      00FFA20CH   LINE      ECODE    ---       #348
      00FFA20EH   LINE      ECODE    ---       #350
      00FFA218H   LINE      ECODE    ---       #351
      00FFA21AH   LINE      ECODE    ---       #352
      00FFA224H   LINE      ECODE    ---       #353
      00FFA22EH   LINE      ECODE    ---       #354
      00FFA237H   LINE      ECODE    ---       #355
      00FFA239H   LINE      ECODE    ---       #357
      00FFA239H   LINE      ECODE    ---       #358
      00FFA239H   LINE      ECODE    ---       #360
      00FFA252H   LINE      ECODE    ---       #362
      00FFA261H   LINE      ECODE    ---       #364
      00FFA26DH   LINE      ECODE    ---       #365
      00FFA27FH   LINE      ECODE    ---       #366
      00FFA283H   LINE      ECODE    ---       #367
      00FFA28BH   LINE      ECODE    ---       #369
      00FFA28DH   LINE      ECODE    ---       #372
      00FFA28DH   LINE      ECODE    ---       #374
      00FFA292H   LINE      ECODE    ---       #375
      00FFA294H   LINE      ECODE    ---       #376
      00FFA29AH   LINE      ECODE    ---       #377
      00FFA29CH   LINE      ECODE    ---       #379
      00FFA29CH   LINE      ECODE    ---       #380
      00FFA29CH   LINE      ECODE    ---       #381
      00FFA29CH   LINE      ECODE    ---       #384
      00FFA2A6H   LINE      ECODE    ---       #385
      00FFA2A8H   LINE      ECODE    ---       #386
      00FFA2B2H   LINE      ECODE    ---       #387
      00FFA2B2H   LINE      ECODE    ---       #388
      00FFA2BCH   LINE      ECODE    ---       #389
      00FFA2C8H   LINE      ECODE    ---       #392
L251 LINKER/LOCATER V4.66.93.0                                                        07/23/2023  00:26:15  PAGE 145


      00FFA2CCH   LINE      ECODE    ---       #393
      ---         BLOCKEND  ---      ---       LVL=0

      ---         MODULE    ---      ---       SEEKFREE_TSL1401
      00000357H   PUBLIC    EDATA    BYTE      tsl1401_finish_flag
      00000358H   PUBLIC    EDATA    ---       ccd_data
      000000D0H   SFRSYM    DATA     BYTE      PSW
      0000009DH   SFRSYM    DATA     BYTE      IRCBAND
      00000097H   SFRSYM    DATA     BYTE      AUXR2
      000000EFH   SFRSYM    DATA     BYTE      AUXINTIF
      000000FDH   SFRSYM    DATA     BYTE      S4CON
      000000ACH   SFRSYM    DATA     BYTE      S3CON
      0000009AH   SFRSYM    DATA     BYTE      S2CON
      000000B7H   SFRSYM    DATA     BYTE      IPH
      000000CDH   SFRSYM    DATA     BYTE      SPSTAT
      000000DDH   SFRSYM    DATA     BYTE      T4T3M
      000000C1H   SFRSYM    DATA     BYTE      WDT_CONTR
      000000DFH   SFRSYM    DATA     BYTE      IP3
      000000F4H   SFRSYM    DATA     BYTE      USBCON
      000000B5H   SFRSYM    DATA     BYTE      IP2
      000000FFH   SFRSYM    DATA     BYTE      RSTCFG
      000000F9H   SFRSYM    DATA     BYTE      LINICR
      0000008EH   SFRSYM    DATA     BYTE      AUXR
      000000AFH   SFRSYM    DATA     BYTE      IE2
      000000B0H.3 SFRSYM    DATA     BIT       P33
      00000088H   SFRSYM    DATA     BYTE      TCON
      000000B0H.2 SFRSYM    DATA     BIT       P32
      00000098H   SFRSYM    DATA     BYTE      SCON
      000000F1H   SFRSYM    DATA     BYTE      CANICR
      00000087H   SFRSYM    DATA     BYTE      PCON
      000000BCH   SFRSYM    DATA     BYTE      ADC_CONTR
      000000E7H   SFRSYM    DATA     BYTE      CMPCR2
      000000E6H   SFRSYM    DATA     BYTE      CMPCR1
      000000B8H   SFRSYM    DATA     BYTE      IP
      0000008FH   SFRSYM    DATA     BYTE      INTCLKO
      000000EEH   SFRSYM    DATA     BYTE      IP3H
      000000B6H   SFRSYM    DATA     BYTE      IP2H
      000000A8H   SFRSYM    DATA     BYTE      IE
      000000BBH   SFRSYM    DATA     BYTE      P_SW3
      000000BAH   SFRSYM    DATA     BYTE      P_SW2
      000000A2H   SFRSYM    DATA     BYTE      P_SW1
      000000CEH   SFRSYM    DATA     BYTE      SPCTL
      000000F8H   SFRSYM    DATA     BYTE      P7
      000000E8H   SFRSYM    DATA     BYTE      P6
      000000C8H   SFRSYM    DATA     BYTE      P5
      000000C0H   SFRSYM    DATA     BYTE      P4
      000000B0H   SFRSYM    DATA     BYTE      P3
      000000A0H   SFRSYM    DATA     BYTE      P2
      00000090H   SFRSYM    DATA     BYTE      P1
      00000080H   SFRSYM    DATA     BYTE      P0
      REG=3       REGSYM    ---      ---       dat
      R15         REGSYM    ---      BYTE      i

      ---         MODULE    ---      ---       SEEKFREE_VIRSCO
      00FFDB29H   PUBLIC    ECODE    ---       CRC_CHECK?
      00FFDB63H   PUBLIC    ECODE    ---       data_conversion?
      0000080FH   PUBLIC    EDATA    ---       virtual_scope_data
      000000D0H   SFRSYM    DATA     BYTE      PSW
      0000009DH   SFRSYM    DATA     BYTE      IRCBAND
      00000097H   SFRSYM    DATA     BYTE      AUXR2
      000000EFH   SFRSYM    DATA     BYTE      AUXINTIF
      000000FDH   SFRSYM    DATA     BYTE      S4CON
      000000ACH   SFRSYM    DATA     BYTE      S3CON
      0000009AH   SFRSYM    DATA     BYTE      S2CON
      000000B7H   SFRSYM    DATA     BYTE      IPH
L251 LINKER/LOCATER V4.66.93.0                                                        07/23/2023  00:26:15  PAGE 146


      000000CDH   SFRSYM    DATA     BYTE      SPSTAT
      000000DDH   SFRSYM    DATA     BYTE      T4T3M
      000000C1H   SFRSYM    DATA     BYTE      WDT_CONTR
      000000DFH   SFRSYM    DATA     BYTE      IP3
      000000F4H   SFRSYM    DATA     BYTE      USBCON
      000000B5H   SFRSYM    DATA     BYTE      IP2
      000000FFH   SFRSYM    DATA     BYTE      RSTCFG
      000000F9H   SFRSYM    DATA     BYTE      LINICR
      0000008EH   SFRSYM    DATA     BYTE      AUXR
      000000AFH   SFRSYM    DATA     BYTE      IE2
      00000088H   SFRSYM    DATA     BYTE      TCON
      00000098H   SFRSYM    DATA     BYTE      SCON
      000000F1H   SFRSYM    DATA     BYTE      CANICR
      00000087H   SFRSYM    DATA     BYTE      PCON
      000000BCH   SFRSYM    DATA     BYTE      ADC_CONTR
      000000E7H   SFRSYM    DATA     BYTE      CMPCR2
      000000E6H   SFRSYM    DATA     BYTE      CMPCR1
      000000B8H   SFRSYM    DATA     BYTE      IP
      0000008FH   SFRSYM    DATA     BYTE      INTCLKO
      000000EEH   SFRSYM    DATA     BYTE      IP3H
      000000B6H   SFRSYM    DATA     BYTE      IP2H
      000000A8H   SFRSYM    DATA     BYTE      IE
      000000BBH   SFRSYM    DATA     BYTE      P_SW3
      000000BAH   SFRSYM    DATA     BYTE      P_SW2
      000000A2H   SFRSYM    DATA     BYTE      P_SW1
      000000CEH   SFRSYM    DATA     BYTE      SPCTL
      000000F8H   SFRSYM    DATA     BYTE      P7
      000000E8H   SFRSYM    DATA     BYTE      P6
      000000C8H   SFRSYM    DATA     BYTE      P5
      000000C0H   SFRSYM    DATA     BYTE      P4
      000000B0H   SFRSYM    DATA     BYTE      P3
      000000A0H   SFRSYM    DATA     BYTE      P2
      00000090H   SFRSYM    DATA     BYTE      P1
      00000080H   SFRSYM    DATA     BYTE      P0

      00FFDB29H   BLOCK     ECODE    ---       LVL=0
      REG=7       REGSYM    ---      ---       Buf
      R10         REGSYM    ---      BYTE      CRC_CNT
      00FFDB2DH   BLOCK     ECODE    NEAR LAB  LVL=1
      WR6         REGSYM    ---      WORD      CRC_Temp
      R5          REGSYM    ---      BYTE      i
      R4          REGSYM    ---      BYTE      j
      ---         BLOCKEND  ---      ---       LVL=1
      00FFDB29H   LINE      ECODE    ---       #38
      00FFDB2DH   LINE      ECODE    ---       #39
      00FFDB2DH   LINE      ECODE    ---       #42
      00FFDB31H   LINE      ECODE    ---       #44
      00FFDB35H   LINE      ECODE    ---       #45
      00FFDB42H   LINE      ECODE    ---       #46
      00FFDB44H   LINE      ECODE    ---       #47
      00FFDB4CH   LINE      ECODE    ---       #48
      00FFDB54H   LINE      ECODE    ---       #50
      00FFDB56H   LINE      ECODE    ---       #51
      00FFDB5CH   LINE      ECODE    ---       #52
      00FFDB62H   LINE      ECODE    ---       #53
      00FFDB62H   LINE      ECODE    ---       #54
      ---         BLOCKEND  ---      ---       LVL=0

      00FFDB63H   BLOCK     ECODE    ---       LVL=0
      WR0         REGSYM    ---      INT       data1
      WR30        REGSYM    ---      INT       data2
      WR8         REGSYM    ---      INT       data3
      WR10        REGSYM    ---      INT       data4
      00FFDB6BH   BLOCK     ECODE    NEAR LAB  LVL=1
      WR6         REGSYM    ---      WORD      CRC16
L251 LINKER/LOCATER V4.66.93.0                                                        07/23/2023  00:26:15  PAGE 147


      ---         BLOCKEND  ---      ---       LVL=1
      00FFDB63H   LINE      ECODE    ---       #67
      00FFDB6BH   LINE      ECODE    ---       #68
      00FFDB6BH   LINE      ECODE    ---       #71
      00FFDB72H   LINE      ECODE    ---       #72
      00FFDB7CH   LINE      ECODE    ---       #74
      00FFDB86H   LINE      ECODE    ---       #75
      00FFDB90H   LINE      ECODE    ---       #77
      00FFDB98H   LINE      ECODE    ---       #78
      00FFDBA0H   LINE      ECODE    ---       #80
      00FFDBA8H   LINE      ECODE    ---       #81
      00FFDBB0H   LINE      ECODE    ---       #83
      00FFDBBAH   LINE      ECODE    ---       #84
      00FFDBC2H   LINE      ECODE    ---       #85
      00FFDBCCH   LINE      ECODE    ---       #88
      ---         BLOCKEND  ---      ---       LVL=0

      ---         MODULE    ---      ---       SEEKFREE_WIRELESS
      00FFDACAH   PUBLIC    ECODE    ---       wireless_uart_read_buff?
      00FFDA6FH   PUBLIC    ECODE    ---       wireless_uart_send_buff?
      00FFDA55H   PUBLIC    ECODE    ---       wireless_uart_callback?
      00FFDAEDH   PUBLIC    ECODE    ---       wireless_uart_init?
      000000D0H   SFRSYM    DATA     BYTE      PSW
      0000009DH   SFRSYM    DATA     BYTE      IRCBAND
      00000097H   SFRSYM    DATA     BYTE      AUXR2
      000000EFH   SFRSYM    DATA     BYTE      AUXINTIF
      000000FDH   SFRSYM    DATA     BYTE      S4CON
      000000ACH   SFRSYM    DATA     BYTE      S3CON
      0000009AH   SFRSYM    DATA     BYTE      S2CON
      000000FEH   SFRSYM    DATA     BYTE      S4BUF
      000000B7H   SFRSYM    DATA     BYTE      IPH
      000000CDH   SFRSYM    DATA     BYTE      SPSTAT
      000000DDH   SFRSYM    DATA     BYTE      T4T3M
      000000C1H   SFRSYM    DATA     BYTE      WDT_CONTR
      000000DFH   SFRSYM    DATA     BYTE      IP3
      000000F4H   SFRSYM    DATA     BYTE      USBCON
      000000B5H   SFRSYM    DATA     BYTE      IP2
      000000FFH   SFRSYM    DATA     BYTE      RSTCFG
      000000F9H   SFRSYM    DATA     BYTE      LINICR
      0000008EH   SFRSYM    DATA     BYTE      AUXR
      000000AFH   SFRSYM    DATA     BYTE      IE2
      000000C0H.5 SFRSYM    DATA     BIT       P45
      00000088H   SFRSYM    DATA     BYTE      TCON
      00000098H   SFRSYM    DATA     BYTE      SCON
      000000F1H   SFRSYM    DATA     BYTE      CANICR
      00000087H   SFRSYM    DATA     BYTE      PCON
      000000BCH   SFRSYM    DATA     BYTE      ADC_CONTR
      000000E7H   SFRSYM    DATA     BYTE      CMPCR2
      000000E6H   SFRSYM    DATA     BYTE      CMPCR1
      000000B8H   SFRSYM    DATA     BYTE      IP
      0000008FH   SFRSYM    DATA     BYTE      INTCLKO
      000000EEH   SFRSYM    DATA     BYTE      IP3H
      000000B6H   SFRSYM    DATA     BYTE      IP2H
      000000A8H   SFRSYM    DATA     BYTE      IE
      000000BBH   SFRSYM    DATA     BYTE      P_SW3
      000000BAH   SFRSYM    DATA     BYTE      P_SW2
      000000A2H   SFRSYM    DATA     BYTE      P_SW1
      000000CEH   SFRSYM    DATA     BYTE      SPCTL
      000000F8H   SFRSYM    DATA     BYTE      P7
      000000E8H   SFRSYM    DATA     BYTE      P6
      000000C8H   SFRSYM    DATA     BYTE      P5
      000000C0H   SFRSYM    DATA     BYTE      P4
      000000B0H   SFRSYM    DATA     BYTE      P3
      000000A0H   SFRSYM    DATA     BYTE      P2
      00000090H   SFRSYM    DATA     BYTE      P1
L251 LINKER/LOCATER V4.66.93.0                                                        07/23/2023  00:26:15  PAGE 148


      00000080H   SFRSYM    DATA     BYTE      P0
      000006BEH   SYMBOL    EDATA    BYTE      wireless_uart_data
      000006BFH   SYMBOL    EDATA    ---       wireless_uart_fifo
      000006D3H   SYMBOL    EDATA    ---       wireless_uart_buffer

      00FFDA55H   BLOCK     ECODE    ---       LVL=0
      00FFDA55H   LINE      ECODE    ---       #48
      00FFDA55H   LINE      ECODE    ---       #51
      00FFDA5BH   LINE      ECODE    ---       #52
      ---         BLOCKEND  ---      ---       LVL=0

      00FFDA6FH   BLOCK     ECODE    ---       LVL=0
      REG=3       REGSYM    ---      ---       buff
      00FFDA6FH   LINE      ECODE    ---       #66
      00FFDA77H   LINE      ECODE    ---       #68
      00FFDA79H   LINE      ECODE    ---       #70
      00FFDA80H   LINE      ECODE    ---       #72
      00FFDA88H   LINE      ECODE    ---       #73
      00FFDA88H   LINE      ECODE    ---       #75
      00FFDA94H   LINE      ECODE    ---       #77
      00FFDA98H   LINE      ECODE    ---       #78
      00FFDAA4H   LINE      ECODE    ---       #79
      00FFDAAEH   LINE      ECODE    ---       #81
      00FFDAB5H   LINE      ECODE    ---       #83
      00FFDABBH   LINE      ECODE    ---       #84
      00FFDABBH   LINE      ECODE    ---       #86
      00FFDAC5H   LINE      ECODE    ---       #88
      00FFDAC7H   LINE      ECODE    ---       #89
      ---         BLOCKEND  ---      ---       LVL=0

      00FFDACAH   BLOCK     ECODE    ---       LVL=0
      REG=7       REGSYM    ---      ---       buff
      DR8         REGSYM    ---      DWORD     len
      00FFDACCH   BLOCK     ECODE    NEAR LAB  LVL=1
      ---         BLOCKEND  ---      ---       LVL=1
      00FFDACAH   LINE      ECODE    ---       #100
      00FFDACCH   LINE      ECODE    ---       #101
      00FFDACCH   LINE      ECODE    ---       #102
      00FFDAD0H   LINE      ECODE    ---       #103
      00FFDAE8H   LINE      ECODE    ---       #104
      00FFDAECH   LINE      ECODE    ---       #105
      ---         BLOCKEND  ---      ---       LVL=0

      00FFDAEDH   BLOCK     ECODE    ---       LVL=0
      00FFDAEDH   LINE      ECODE    ---       #118
      00FFDAEDH   LINE      ECODE    ---       #120
      00FFDAEFH   LINE      ECODE    ---       #121
      00FFDAF7H   LINE      ECODE    ---       #123
      00FFDB0BH   LINE      ECODE    ---       #124
      ---         BLOCKEND  ---      ---       LVL=0

      ---         MODULE    ---      ---       SEEKFREE_WIRELESS_CH573
      00FFD9F4H   PUBLIC    ECODE    ---       wireless_ch573_read_buff?
      00FFD995H   PUBLIC    ECODE    ---       wireless_ch573_send_buff?
      00FFD97BH   PUBLIC    ECODE    ---       wireless_ch573_callback?
      00FFDA17H   PUBLIC    ECODE    ---       wireless_ch573_init?
      000000D0H   SFRSYM    DATA     BYTE      PSW
      0000009DH   SFRSYM    DATA     BYTE      IRCBAND
      00000097H   SFRSYM    DATA     BYTE      AUXR2
      000000EFH   SFRSYM    DATA     BYTE      AUXINTIF
      000000FDH   SFRSYM    DATA     BYTE      S4CON
      000000ACH   SFRSYM    DATA     BYTE      S3CON
      0000009AH   SFRSYM    DATA     BYTE      S2CON
      000000FEH   SFRSYM    DATA     BYTE      S4BUF
      000000B7H   SFRSYM    DATA     BYTE      IPH
L251 LINKER/LOCATER V4.66.93.0                                                        07/23/2023  00:26:15  PAGE 149


      000000CDH   SFRSYM    DATA     BYTE      SPSTAT
      000000DDH   SFRSYM    DATA     BYTE      T4T3M
      000000C1H   SFRSYM    DATA     BYTE      WDT_CONTR
      000000DFH   SFRSYM    DATA     BYTE      IP3
      000000F4H   SFRSYM    DATA     BYTE      USBCON
      000000B5H   SFRSYM    DATA     BYTE      IP2
      000000FFH   SFRSYM    DATA     BYTE      RSTCFG
      000000F9H   SFRSYM    DATA     BYTE      LINICR
      0000008EH   SFRSYM    DATA     BYTE      AUXR
      000000AFH   SFRSYM    DATA     BYTE      IE2
      00000080H.7 SFRSYM    DATA     BIT       P07
      00000088H   SFRSYM    DATA     BYTE      TCON
      00000098H   SFRSYM    DATA     BYTE      SCON
      000000F1H   SFRSYM    DATA     BYTE      CANICR
      00000087H   SFRSYM    DATA     BYTE      PCON
      000000BCH   SFRSYM    DATA     BYTE      ADC_CONTR
      000000E7H   SFRSYM    DATA     BYTE      CMPCR2
      000000E6H   SFRSYM    DATA     BYTE      CMPCR1
      000000B8H   SFRSYM    DATA     BYTE      IP
      0000008FH   SFRSYM    DATA     BYTE      INTCLKO
      000000EEH   SFRSYM    DATA     BYTE      IP3H
      000000B6H   SFRSYM    DATA     BYTE      IP2H
      000000A8H   SFRSYM    DATA     BYTE      IE
      000000BBH   SFRSYM    DATA     BYTE      P_SW3
      000000BAH   SFRSYM    DATA     BYTE      P_SW2
      000000A2H   SFRSYM    DATA     BYTE      P_SW1
      000000CEH   SFRSYM    DATA     BYTE      SPCTL
      000000F8H   SFRSYM    DATA     BYTE      P7
      000000E8H   SFRSYM    DATA     BYTE      P6
      000000C8H   SFRSYM    DATA     BYTE      P5
      000000C0H   SFRSYM    DATA     BYTE      P4
      000000B0H   SFRSYM    DATA     BYTE      P3
      000000A0H   SFRSYM    DATA     BYTE      P2
      00000090H   SFRSYM    DATA     BYTE      P1
      00000080H   SFRSYM    DATA     BYTE      P0
      00000713H   SYMBOL    EDATA    ---       wireless_ch573_buffer
      00000753H   SYMBOL    EDATA    BYTE      wireless_ch573_data
      00000754H   SYMBOL    EDATA    ---       wireless_ch573_fifo

      00FFD97BH   BLOCK     ECODE    ---       LVL=0
      00FFD97BH   LINE      ECODE    ---       #39
      00FFD97BH   LINE      ECODE    ---       #42
      00FFD981H   LINE      ECODE    ---       #43
      ---         BLOCKEND  ---      ---       LVL=0

      00FFD995H   BLOCK     ECODE    ---       LVL=0
      REG=3       REGSYM    ---      ---       buff
      00FFD995H   LINE      ECODE    ---       #58
      00FFD99DH   LINE      ECODE    ---       #60
      00FFD99FH   LINE      ECODE    ---       #62
      00FFD9A6H   LINE      ECODE    ---       #64
      00FFD9AEH   LINE      ECODE    ---       #65
      00FFD9AEH   LINE      ECODE    ---       #67
      00FFD9BCH   LINE      ECODE    ---       #69
      00FFD9C0H   LINE      ECODE    ---       #70
      00FFD9CCH   LINE      ECODE    ---       #71
      00FFD9D6H   LINE      ECODE    ---       #73
      00FFD9DDH   LINE      ECODE    ---       #75
      00FFD9E3H   LINE      ECODE    ---       #76
      00FFD9E3H   LINE      ECODE    ---       #78
      00FFD9EFH   LINE      ECODE    ---       #80
      00FFD9F1H   LINE      ECODE    ---       #81
      ---         BLOCKEND  ---      ---       LVL=0

      00FFD9F4H   BLOCK     ECODE    ---       LVL=0
L251 LINKER/LOCATER V4.66.93.0                                                        07/23/2023  00:26:15  PAGE 150


      REG=7       REGSYM    ---      ---       buff
      DR8         REGSYM    ---      DWORD     len
      00FFD9F6H   BLOCK     ECODE    NEAR LAB  LVL=1
      ---         BLOCKEND  ---      ---       LVL=1
      00FFD9F4H   LINE      ECODE    ---       #91
      00FFD9F6H   LINE      ECODE    ---       #92
      00FFD9F6H   LINE      ECODE    ---       #93
      00FFD9FAH   LINE      ECODE    ---       #94
      00FFDA12H   LINE      ECODE    ---       #95
      00FFDA16H   LINE      ECODE    ---       #96
      ---         BLOCKEND  ---      ---       LVL=0

      00FFDA17H   BLOCK     ECODE    ---       LVL=0
      00FFDA17H   LINE      ECODE    ---       #110
      00FFDA17H   LINE      ECODE    ---       #112
      00FFDA19H   LINE      ECODE    ---       #113
      00FFDA21H   LINE      ECODE    ---       #115
      00FFDA35H   LINE      ECODE    ---       #116
      ---         BLOCKEND  ---      ---       LVL=0

      ---         MODULE    ---      ---       eeprom
      00FFD74FH   PUBLIC    ECODE    ---       read_float?
      00FFD65FH   PUBLIC    ECODE    ---       eeprom_init?
      00FFD717H   PUBLIC    ECODE    ---       save_float?
      00FFD6EAH   PUBLIC    ECODE    ---       read_int?
      00FFD6B2H   PUBLIC    ECODE    ---       save_int?
      00000605H   PUBLIC    EDATA    ---       date_buff
      000000D0H   SFRSYM    DATA     BYTE      PSW
      0000009DH   SFRSYM    DATA     BYTE      IRCBAND
      00000097H   SFRSYM    DATA     BYTE      AUXR2
      000000EFH   SFRSYM    DATA     BYTE      AUXINTIF
      000000FDH   SFRSYM    DATA     BYTE      S4CON
      000000ACH   SFRSYM    DATA     BYTE      S3CON
      0000009AH   SFRSYM    DATA     BYTE      S2CON
      000000B7H   SFRSYM    DATA     BYTE      IPH
      000000CDH   SFRSYM    DATA     BYTE      SPSTAT
      000000DDH   SFRSYM    DATA     BYTE      T4T3M
      000000C1H   SFRSYM    DATA     BYTE      WDT_CONTR
      000000DFH   SFRSYM    DATA     BYTE      IP3
      000000F4H   SFRSYM    DATA     BYTE      USBCON
      000000B5H   SFRSYM    DATA     BYTE      IP2
      000000FFH   SFRSYM    DATA     BYTE      RSTCFG
      000000F9H   SFRSYM    DATA     BYTE      LINICR
      0000008EH   SFRSYM    DATA     BYTE      AUXR
      000000AFH   SFRSYM    DATA     BYTE      IE2
      00000088H   SFRSYM    DATA     BYTE      TCON
      00000098H   SFRSYM    DATA     BYTE      SCON
      000000F1H   SFRSYM    DATA     BYTE      CANICR
      00000087H   SFRSYM    DATA     BYTE      PCON
      000000BCH   SFRSYM    DATA     BYTE      ADC_CONTR
      000000E7H   SFRSYM    DATA     BYTE      CMPCR2
      000000E6H   SFRSYM    DATA     BYTE      CMPCR1
      000000B8H   SFRSYM    DATA     BYTE      IP
      0000008FH   SFRSYM    DATA     BYTE      INTCLKO
      000000EEH   SFRSYM    DATA     BYTE      IP3H
      000000B6H   SFRSYM    DATA     BYTE      IP2H
      000000A8H   SFRSYM    DATA     BYTE      IE
      000000BBH   SFRSYM    DATA     BYTE      P_SW3
      000000BAH   SFRSYM    DATA     BYTE      P_SW2
      000000A2H   SFRSYM    DATA     BYTE      P_SW1
      000000CEH   SFRSYM    DATA     BYTE      SPCTL
      000000F8H   SFRSYM    DATA     BYTE      P7
      000000E8H   SFRSYM    DATA     BYTE      P6
      000000C8H   SFRSYM    DATA     BYTE      P5
      000000C0H   SFRSYM    DATA     BYTE      P4
L251 LINKER/LOCATER V4.66.93.0                                                        07/23/2023  00:26:15  PAGE 151


      000000B0H   SFRSYM    DATA     BYTE      P3
      000000A0H   SFRSYM    DATA     BYTE      P2
      00000090H   SFRSYM    DATA     BYTE      P1
      00000080H   SFRSYM    DATA     BYTE      P0

      00FFD65FH   BLOCK     ECODE    ---       LVL=0
      00FFD65FH   LINE      ECODE    ---       #4
      00FFD65FH   LINE      ECODE    ---       #6
      00FFD663H   LINE      ECODE    ---       #8
      00FFD671H   LINE      ECODE    ---       #11
      00FFD67DH   LINE      ECODE    ---       #12
      00FFD687H   LINE      ECODE    ---       #13
      00FFD693H   LINE      ECODE    ---       #15
      00FFD69DH   LINE      ECODE    ---       #16
      00FFD6A9H   LINE      ECODE    ---       #18
      00FFD6ADH   LINE      ECODE    ---       #19
      00FFD6B1H   LINE      ECODE    ---       #30
      ---         BLOCKEND  ---      ---       LVL=0

      00FFD6B2H   BLOCK     ECODE    ---       LVL=0
      R3          REGSYM    ---      BYTE      value_bit
      00FFD6B8H   BLOCK     ECODE    NEAR LAB  LVL=1
      R3          REGSYM    ---      BYTE      i
      R10         REGSYM    ---      BYTE      begin
      REG=1       REGSYM    ---      ---       p
      ---         BLOCKEND  ---      ---       LVL=1
      00FFD6B2H   LINE      ECODE    ---       #31
      00FFD6B8H   LINE      ECODE    ---       #32
      00FFD6B8H   LINE      ECODE    ---       #34
      00FFD6BEH   LINE      ECODE    ---       #35
      00FFD6C2H   LINE      ECODE    ---       #36
      00FFD6C4H   LINE      ECODE    ---       #38
      00FFD6D5H   LINE      ECODE    ---       #39
      00FFD6DCH   LINE      ECODE    ---       #40
      ---         BLOCKEND  ---      ---       LVL=0

      00FFD6EAH   BLOCK     ECODE    ---       LVL=0
      R6          REGSYM    ---      BYTE      value_bit
      00FFD6ECH   BLOCK     ECODE    NEAR LAB  LVL=1
      R3          REGSYM    ---      BYTE      i
      R10         REGSYM    ---      BYTE      begin
      REG=1       REGSYM    ---      ---       p
      ---         BLOCKEND  ---      ---       LVL=1
      00FFD6EAH   LINE      ECODE    ---       #43
      00FFD6ECH   LINE      ECODE    ---       #44
      00FFD6ECH   LINE      ECODE    ---       #46
      00FFD6F2H   LINE      ECODE    ---       #48
      00FFD6F6H   LINE      ECODE    ---       #49
      00FFD6F8H   LINE      ECODE    ---       #51
      00FFD70BH   LINE      ECODE    ---       #52
      00FFD712H   LINE      ECODE    ---       #53
      00FFD716H   LINE      ECODE    ---       #54
      ---         BLOCKEND  ---      ---       LVL=0

      00FFD717H   BLOCK     ECODE    ---       LVL=0
      00000875H   SYMBOL    EDATA    FLOAT     input
      R3          REGSYM    ---      BYTE      value_bit
      00FFD71DH   BLOCK     ECODE    NEAR LAB  LVL=1
      R3          REGSYM    ---      BYTE      i
      R10         REGSYM    ---      BYTE      begin
      REG=1       REGSYM    ---      ---       p
      ---         BLOCKEND  ---      ---       LVL=1
      00FFD717H   LINE      ECODE    ---       #56
      00FFD71DH   LINE      ECODE    ---       #57
      00FFD71DH   LINE      ECODE    ---       #59
L251 LINKER/LOCATER V4.66.93.0                                                        07/23/2023  00:26:15  PAGE 152


      00FFD723H   LINE      ECODE    ---       #60
      00FFD727H   LINE      ECODE    ---       #61
      00FFD729H   LINE      ECODE    ---       #63
      00FFD73AH   LINE      ECODE    ---       #64
      00FFD741H   LINE      ECODE    ---       #65
      ---         BLOCKEND  ---      ---       LVL=0

      00FFD74FH   BLOCK     ECODE    ---       LVL=0
      R6          REGSYM    ---      BYTE      value_bit
      00FFD751H   BLOCK     ECODE    NEAR LAB  LVL=1
      R3          REGSYM    ---      BYTE      i
      R10         REGSYM    ---      BYTE      begin
      00000879H   SYMBOL    EDATA    FLOAT     output
      REG=1       REGSYM    ---      ---       p
      ---         BLOCKEND  ---      ---       LVL=1
      00FFD74FH   LINE      ECODE    ---       #67
      00FFD751H   LINE      ECODE    ---       #68
      00FFD751H   LINE      ECODE    ---       #70
      00FFD757H   LINE      ECODE    ---       #72
      00FFD75BH   LINE      ECODE    ---       #73
      00FFD75DH   LINE      ECODE    ---       #75
      00FFD770H   LINE      ECODE    ---       #76
      00FFD777H   LINE      ECODE    ---       #77
      00FFD77BH   LINE      ECODE    ---       #78
      ---         BLOCKEND  ---      ---       LVL=0

      ---         MODULE    ---      ---       main
      00FFD77CH   PUBLIC    ECODE    ---       main?
      000000D0H   SFRSYM    DATA     BYTE      PSW
      0000009DH   SFRSYM    DATA     BYTE      IRCBAND
      00000097H   SFRSYM    DATA     BYTE      AUXR2
      000000EFH   SFRSYM    DATA     BYTE      AUXINTIF
      000000FDH   SFRSYM    DATA     BYTE      S4CON
      000000ACH   SFRSYM    DATA     BYTE      S3CON
      0000009AH   SFRSYM    DATA     BYTE      S2CON
      000000B7H   SFRSYM    DATA     BYTE      IPH
      000000CDH   SFRSYM    DATA     BYTE      SPSTAT
      000000DDH   SFRSYM    DATA     BYTE      T4T3M
      000000C1H   SFRSYM    DATA     BYTE      WDT_CONTR
      000000DFH   SFRSYM    DATA     BYTE      IP3
      000000F4H   SFRSYM    DATA     BYTE      USBCON
      000000B5H   SFRSYM    DATA     BYTE      IP2
      000000FFH   SFRSYM    DATA     BYTE      RSTCFG
      000000F9H   SFRSYM    DATA     BYTE      LINICR
      0000008EH   SFRSYM    DATA     BYTE      AUXR
      000000AFH   SFRSYM    DATA     BYTE      IE2
      000000E8H.7 SFRSYM    DATA     BIT       P67
      00000088H   SFRSYM    DATA     BYTE      TCON
      00000098H   SFRSYM    DATA     BYTE      SCON
      000000F1H   SFRSYM    DATA     BYTE      CANICR
      00000087H   SFRSYM    DATA     BYTE      PCON
      000000BCH   SFRSYM    DATA     BYTE      ADC_CONTR
      000000E7H   SFRSYM    DATA     BYTE      CMPCR2
      000000E6H   SFRSYM    DATA     BYTE      CMPCR1
      000000B8H   SFRSYM    DATA     BYTE      IP
      0000008FH   SFRSYM    DATA     BYTE      INTCLKO
      000000EEH   SFRSYM    DATA     BYTE      IP3H
      000000B6H   SFRSYM    DATA     BYTE      IP2H
      000000A8H   SFRSYM    DATA     BYTE      IE
      000000BBH   SFRSYM    DATA     BYTE      P_SW3
      000000BAH   SFRSYM    DATA     BYTE      P_SW2
      000000A2H   SFRSYM    DATA     BYTE      P_SW1
      000000CEH   SFRSYM    DATA     BYTE      SPCTL
      000000F8H   SFRSYM    DATA     BYTE      P7
      000000E8H   SFRSYM    DATA     BYTE      P6
L251 LINKER/LOCATER V4.66.93.0                                                        07/23/2023  00:26:15  PAGE 153


      000000C8H   SFRSYM    DATA     BYTE      P5
      000000C0H   SFRSYM    DATA     BYTE      P4
      000000B0H   SFRSYM    DATA     BYTE      P3
      000000A0H   SFRSYM    DATA     BYTE      P2
      00000090H   SFRSYM    DATA     BYTE      P1
      00000080H   SFRSYM    DATA     BYTE      P0

      00FFD77CH   BLOCK     ECODE    ---       LVL=0
      00FFD77CH   LINE      ECODE    ---       #11
      00FFD77CH   LINE      ECODE    ---       #13
      00FFD780H   LINE      ECODE    ---       #15
      00FFD78AH   LINE      ECODE    ---       #16
      00FFD794H   LINE      ECODE    ---       #17
      00FFD79EH   LINE      ECODE    ---       #18
      00FFD7A8H   LINE      ECODE    ---       #19
      00FFD7B2H   LINE      ECODE    ---       #20
      00FFD7BCH   LINE      ECODE    ---       #22
      00FFD7CEH   LINE      ECODE    ---       #23
      00FFD7E0H   LINE      ECODE    ---       #25
      00FFD7ECH   LINE      ECODE    ---       #26
      00FFD7EEH   LINE      ECODE    ---       #27
      00FFD7F2H   LINE      ECODE    ---       #29
      00FFD7FEH   LINE      ECODE    ---       #30
      00FFD80AH   LINE      ECODE    ---       #32
      00FFD80EH   LINE      ECODE    ---       #34
      00FFD822H   LINE      ECODE    ---       #35
      00FFD828H   LINE      ECODE    ---       #36
      00FFD830H   LINE      ECODE    ---       #38
      00FFD832H   LINE      ECODE    ---       #40
      00FFD83AH   LINE      ECODE    ---       #41
      00FFD846H   LINE      ECODE    ---       #42
      00FFD84CH   LINE      ECODE    ---       #44
      00FFD850H   LINE      ECODE    ---       #48
      00FFD85CH   LINE      ECODE    ---       #50
      00FFD85EH   LINE      ECODE    ---       #51
      00FFD866H   LINE      ECODE    ---       #52
      00FFD868H   LINE      ECODE    ---       #55
      00FFD868H   LINE      ECODE    ---       #57
      00FFD872H   LINE      ECODE    ---       #59
      00FFD876H   LINE      ECODE    ---       #60
      00FFD87AH   LINE      ECODE    ---       #61
      ---         BLOCKEND  ---      ---       LVL=0

      ---         MODULE    ---      ---       key
      00FF75C7H   PUBLIC    ECODE    ---       Keystroke_Menu_ONE_Four?
      00FF710FH   PUBLIC    ECODE    ---       Cursor?
      00FF7195H   PUBLIC    ECODE    ---       KeystrokeLabel_Switch?
      00FF752EH   PUBLIC    ECODE    ---       Keystroke_Menu_ONE?
      00FF758DH   PUBLIC    ECODE    ---       Keystroke_Menu_ONE_One?
      00FF74C3H   PUBLIC    ECODE    ---       Menu_ONE_Display?
      00FF78F1H   PUBLIC    ECODE    ---       Keystroke_Menu_THREE_Four?
      00FF7850H   PUBLIC    ECODE    ---       Keystroke_Menu_THREE?
      00FF777BH   PUBLIC    ECODE    ---       Keystroke_Menu_TWO_Four?
      00FF76BEH   PUBLIC    ECODE    ---       Keystroke_Menu_TWO?
      00FF78AFH   PUBLIC    ECODE    ---       Keystroke_Menu_THREE_One?
      00FF7739H   PUBLIC    ECODE    ---       Keystroke_Menu_TWO_One?
      00FF75A3H   PUBLIC    ECODE    ---       Keystroke_Menu_ONE_Two?
      00FF7DCDH   PUBLIC    ECODE    ---       Keystroke_Menu_FIVE_Three?
      00FF7791H   PUBLIC    ECODE    ---       Menu_THREE_Display?
      00FF75D5H   PUBLIC    ECODE    ---       Menu_TWO_Display?
      00FF702DH   PUBLIC    ECODE    ---       Keystroke_Scan?
      00FF78C5H   PUBLIC    ECODE    ---       Keystroke_Menu_THREE_Two?
      00FF774FH   PUBLIC    ECODE    ---       Keystroke_Menu_TWO_Two?
      00FF72FCH   PUBLIC    ECODE    ---       Keystroke_Menu?
      00FF7E14H   PUBLIC    ECODE    ---       Keystroke_Menu_FIVE_Four?
L251 LINKER/LOCATER V4.66.93.0                                                        07/23/2023  00:26:15  PAGE 154


      00FF740FH   PUBLIC    ECODE    ---       Keystroke_Menu_HOME?
      00FF7C40H   PUBLIC    ECODE    ---       Keystroke_Menu_FIVE?
      00FF72A5H   PUBLIC    ECODE    ---       Keystroke_Special_Value?
      00FF7C9FH   PUBLIC    ECODE    ---       Keystroke_Menu_FIVE_One?
      00FF78FFH   PUBLIC    ECODE    ---       Keystroke_Menu_FOUR?
      00FF7B52H   PUBLIC    ECODE    ---       Menu_FIVE_Display?
      00FF75B9H   PUBLIC    ECODE    ---       Keystroke_Menu_ONE_Three?
      00FF7D36H   PUBLIC    ECODE    ---       Keystroke_Menu_FIVE_Two?
      00FF78DBH   PUBLIC    ECODE    ---       Keystroke_Menu_THREE_Three?
      00FF7765H   PUBLIC    ECODE    ---       Keystroke_Menu_TWO_Three?
      0000079CH   PUBLIC    EDATA    BYTE      key1_status
      0000079DH   PUBLIC    EDATA    BYTE      key2_status
      0000079EH   PUBLIC    EDATA    BYTE      key3_status
      0000079FH   PUBLIC    EDATA    BYTE      key4_status
      000007A0H   PUBLIC    EDATA    INT       This_Codename
      000007A2H   PUBLIC    EDATA    BYTE      key1_last_status
      000007A3H   PUBLIC    EDATA    BYTE      key2_last_status
      000007A4H   PUBLIC    EDATA    BYTE      key3_last_status
      000007A5H   PUBLIC    EDATA    BYTE      key4_last_status
      000007A6H   PUBLIC    EDATA    BYTE      sw1_status
      000007A7H   PUBLIC    EDATA    BYTE      sw2_status
      000007A8H   PUBLIC    EDATA    BYTE      KeystrokeLabel
      000007A9H   PUBLIC    EDATA    BYTE      target_value_bit
      000007AAH   PUBLIC    EDATA    BYTE      MenuNextFlag
      000007ABH   PUBLIC    EDATA    BYTE      CursorRow
      000007ACH   PUBLIC    EDATA    INT       Dispay_Codename
      000007AEH   PUBLIC    EDATA    BYTE      key1_flag
      000007AFH   PUBLIC    EDATA    BYTE      key2_flag
      000007B0H   PUBLIC    EDATA    BYTE      key3_flag
      000007B1H   PUBLIC    EDATA    BYTE      key4_flag
      000000D0H   SFRSYM    DATA     BYTE      PSW
      0000009DH   SFRSYM    DATA     BYTE      IRCBAND
      00000097H   SFRSYM    DATA     BYTE      AUXR2
      000000EFH   SFRSYM    DATA     BYTE      AUXINTIF
      000000FDH   SFRSYM    DATA     BYTE      S4CON
      000000ACH   SFRSYM    DATA     BYTE      S3CON
      0000009AH   SFRSYM    DATA     BYTE      S2CON
      000000B7H   SFRSYM    DATA     BYTE      IPH
      000000CDH   SFRSYM    DATA     BYTE      SPSTAT
      000000DDH   SFRSYM    DATA     BYTE      T4T3M
      000000C1H   SFRSYM    DATA     BYTE      WDT_CONTR
      000000DFH   SFRSYM    DATA     BYTE      IP3
      000000F4H   SFRSYM    DATA     BYTE      USBCON
      000000B5H   SFRSYM    DATA     BYTE      IP2
      000000FFH   SFRSYM    DATA     BYTE      RSTCFG
      000000F9H   SFRSYM    DATA     BYTE      LINICR
      0000008EH   SFRSYM    DATA     BYTE      AUXR
      000000AFH   SFRSYM    DATA     BYTE      IE2
      000000F8H.6 SFRSYM    DATA     BIT       P76
      000000F8H.5 SFRSYM    DATA     BIT       P75
      000000F8H.3 SFRSYM    DATA     BIT       P73
      000000F8H.2 SFRSYM    DATA     BIT       P72
      000000F8H.1 SFRSYM    DATA     BIT       P71
      000000F8H.0 SFRSYM    DATA     BIT       P70
      00000088H   SFRSYM    DATA     BYTE      TCON
      00000098H   SFRSYM    DATA     BYTE      SCON
      000000F1H   SFRSYM    DATA     BYTE      CANICR
      00000087H   SFRSYM    DATA     BYTE      PCON
      000000BCH   SFRSYM    DATA     BYTE      ADC_CONTR
      000000E7H   SFRSYM    DATA     BYTE      CMPCR2
      000000E6H   SFRSYM    DATA     BYTE      CMPCR1
      000000B8H   SFRSYM    DATA     BYTE      IP
      0000008FH   SFRSYM    DATA     BYTE      INTCLKO
      000000EEH   SFRSYM    DATA     BYTE      IP3H
      000000B6H   SFRSYM    DATA     BYTE      IP2H
L251 LINKER/LOCATER V4.66.93.0                                                        07/23/2023  00:26:15  PAGE 155


      000000A8H   SFRSYM    DATA     BYTE      IE
      000000BBH   SFRSYM    DATA     BYTE      P_SW3
      000000BAH   SFRSYM    DATA     BYTE      P_SW2
      000000A2H   SFRSYM    DATA     BYTE      P_SW1
      000000CEH   SFRSYM    DATA     BYTE      SPCTL
      000000F8H   SFRSYM    DATA     BYTE      P7
      000000E8H   SFRSYM    DATA     BYTE      P6
      000000C8H   SFRSYM    DATA     BYTE      P5
      000000C0H   SFRSYM    DATA     BYTE      P4
      000000B0H   SFRSYM    DATA     BYTE      P3
      000000A0H   SFRSYM    DATA     BYTE      P2
      00000090H   SFRSYM    DATA     BYTE      P1
      00000080H   SFRSYM    DATA     BYTE      P0

      00FF702DH   BLOCK     ECODE    ---       LVL=0
      00FF702DH   LINE      ECODE    ---       #49
      00FF702DH   LINE      ECODE    ---       #53
      00FF7035H   LINE      ECODE    ---       #54
      00FF703DH   LINE      ECODE    ---       #58
      00FF7045H   LINE      ECODE    ---       #59
      00FF704DH   LINE      ECODE    ---       #60
      00FF7055H   LINE      ECODE    ---       #61
      00FF705DH   LINE      ECODE    ---       #63
      00FF7065H   LINE      ECODE    ---       #64
      00FF706DH   LINE      ECODE    ---       #65
      00FF7075H   LINE      ECODE    ---       #66
      00FF707DH   LINE      ECODE    ---       #70
      00FF708FH   LINE      ECODE    ---       #71
      00FF70A1H   LINE      ECODE    ---       #72
      00FF70B3H   LINE      ECODE    ---       #73
      00FF70C5H   LINE      ECODE    ---       #76
      00FF70CAH   LINE      ECODE    ---       #77
      00FF70D0H   LINE      ECODE    ---       #79
      00FF70D5H   LINE      ECODE    ---       #80
      00FF70DBH   LINE      ECODE    ---       #81
      00FF70DBH   LINE      ECODE    ---       #83
      00FF70E1H   LINE      ECODE    ---       #85
      00FF70E6H   LINE      ECODE    ---       #86
      00FF70ECH   LINE      ECODE    ---       #87
      00FF70ECH   LINE      ECODE    ---       #89
      00FF70F2H   LINE      ECODE    ---       #91
      00FF70F7H   LINE      ECODE    ---       #92
      00FF70FDH   LINE      ECODE    ---       #93
      00FF70FDH   LINE      ECODE    ---       #95
      00FF7103H   LINE      ECODE    ---       #97
      00FF7108H   LINE      ECODE    ---       #98
      00FF710EH   LINE      ECODE    ---       #99
      ---         BLOCKEND  ---      ---       LVL=0

      00FF710FH   BLOCK     ECODE    ---       LVL=0
      00FF7111H   BLOCK     ECODE    NEAR LAB  LVL=1
      R15         REGSYM    ---      BYTE      i
      ---         BLOCKEND  ---      ---       LVL=1
      00FF710FH   LINE      ECODE    ---       #105
      00FF7111H   LINE      ECODE    ---       #106
      00FF7111H   LINE      ECODE    ---       #108
      00FF7116H   LINE      ECODE    ---       #110
      00FF7116H   LINE      ECODE    ---       #112
      00FF711AH   LINE      ECODE    ---       #114
      00FF712CH   LINE      ECODE    ---       #116
      00FF712CH   LINE      ECODE    ---       #117
      00FF7131H   LINE      ECODE    ---       #118
      00FF7133H   LINE      ECODE    ---       #119
      00FF7133H   LINE      ECODE    ---       #120
      00FF713CH   LINE      ECODE    ---       #121
L251 LINKER/LOCATER V4.66.93.0                                                        07/23/2023  00:26:15  PAGE 156


      00FF713EH   LINE      ECODE    ---       #122
      00FF713EH   LINE      ECODE    ---       #123
      00FF7140H   LINE      ECODE    ---       #124
      00FF7142H   LINE      ECODE    ---       #125
      00FF7142H   LINE      ECODE    ---       #126
      00FF7148H   LINE      ECODE    ---       #127
      00FF7148H   LINE      ECODE    ---       #128
      00FF7148H   LINE      ECODE    ---       #130
      00FF714AH   LINE      ECODE    ---       #132
      00FF7152H   LINE      ECODE    ---       #134
      00FF715EH   LINE      ECODE    ---       #135
      00FF7160H   LINE      ECODE    ---       #138
      00FF7170H   LINE      ECODE    ---       #139
      00FF7170H   LINE      ECODE    ---       #140
      00FF7177H   LINE      ECODE    ---       #143
      00FF7180H   LINE      ECODE    ---       #145
      00FF7180H   LINE      ECODE    ---       #146
      00FF7182H   LINE      ECODE    ---       #147
      00FF7187H   LINE      ECODE    ---       #149
      00FF718CH   LINE      ECODE    ---       #150
      00FF7192H   LINE      ECODE    ---       #154
      ---         BLOCKEND  ---      ---       LVL=0

      00FF7195H   BLOCK     ECODE    ---       LVL=0
      DR12        REGSYM    ---      FLOAT     change_unit
      00FF719DH   BLOCK     ECODE    NEAR LAB  LVL=1
      000007B2H   SYMBOL    EDATA    FLOAT     tem_value
      ---         BLOCKEND  ---      ---       LVL=1
      00FF7195H   LINE      ECODE    ---       #156
      00FF719DH   LINE      ECODE    ---       #157
      00FF719DH   LINE      ECODE    ---       #159
      00FF71B3H   LINE      ECODE    ---       #161
      00FF71C1H   LINE      ECODE    ---       #162
      00FF71CAH   LINE      ECODE    ---       #163
      00FF71D4H   LINE      ECODE    ---       #164
      00FF71DEH   LINE      ECODE    ---       #165
      00FF71E8H   LINE      ECODE    ---       #166
      00FF71F2H   LINE      ECODE    ---       #168
      00FF71FCH   LINE      ECODE    ---       #169
      00FF7206H   LINE      ECODE    ---       #171
      00FF720AH   LINE      ECODE    ---       #173
      00FF7210H   LINE      ECODE    ---       #175
      00FF721EH   LINE      ECODE    ---       #176
      00FF721EH   LINE      ECODE    ---       #177
      00FF722AH   LINE      ECODE    ---       #179
      00FF7238H   LINE      ECODE    ---       #180
      00FF7238H   LINE      ECODE    ---       #182
      00FF724CH   LINE      ECODE    ---       #184
      00FF724CH   LINE      ECODE    ---       #185
      00FF724CH   LINE      ECODE    ---       #186
      00FF724EH   LINE      ECODE    ---       #188
      00FF724EH   LINE      ECODE    ---       #189
      00FF725CH   LINE      ECODE    ---       #190
      00FF7264H   LINE      ECODE    ---       #191
      00FF7264H   LINE      ECODE    ---       #192
      00FF7266H   LINE      ECODE    ---       #193
      00FF7266H   LINE      ECODE    ---       #194
      00FF7274H   LINE      ECODE    ---       #195
      00FF727CH   LINE      ECODE    ---       #196
      00FF7284H   LINE      ECODE    ---       #197
      00FF7286H   LINE      ECODE    ---       #199
      00FF7286H   LINE      ECODE    ---       #200
      00FF7292H   LINE      ECODE    ---       #201
      00FF7292H   LINE      ECODE    ---       #202
      00FF7294H   LINE      ECODE    ---       #203
L251 LINKER/LOCATER V4.66.93.0                                                        07/23/2023  00:26:15  PAGE 157


      00FF7294H   LINE      ECODE    ---       #204
      00FF729AH   LINE      ECODE    ---       #205
      00FF72A2H   LINE      ECODE    ---       #206
      00FF72A2H   LINE      ECODE    ---       #207
      00FF72A2H   LINE      ECODE    ---       #208
      ---         BLOCKEND  ---      ---       LVL=0

      00FF72A5H   BLOCK     ECODE    ---       LVL=0
      REG=3       REGSYM    ---      ---       parameter
      00FF72A5H   LINE      ECODE    ---       #209
      00FF72A9H   LINE      ECODE    ---       #211
      00FF72ADH   LINE      ECODE    ---       #212
      00FF72C1H   LINE      ECODE    ---       #214
      00FF72C1H   LINE      ECODE    ---       #215
      00FF72C1H   LINE      ECODE    ---       #216
      00FF72C3H   LINE      ECODE    ---       #218
      00FF72C3H   LINE      ECODE    ---       #219
      00FF72CAH   LINE      ECODE    ---       #220
      00FF72CAH   LINE      ECODE    ---       #221
      00FF72CCH   LINE      ECODE    ---       #222
      00FF72CCH   LINE      ECODE    ---       #223
      00FF72D3H   LINE      ECODE    ---       #224
      00FF72DBH   LINE      ECODE    ---       #225
      00FF72DDH   LINE      ECODE    ---       #227
      00FF72DDH   LINE      ECODE    ---       #228
      00FF72E9H   LINE      ECODE    ---       #229
      00FF72E9H   LINE      ECODE    ---       #230
      00FF72EBH   LINE      ECODE    ---       #231
      00FF72EBH   LINE      ECODE    ---       #232
      00FF72F1H   LINE      ECODE    ---       #233
      00FF72F9H   LINE      ECODE    ---       #234
      00FF72F9H   LINE      ECODE    ---       #235
      00FF72F9H   LINE      ECODE    ---       #236
      ---         BLOCKEND  ---      ---       LVL=0

      00FF72FCH   BLOCK     ECODE    ---       LVL=0
      00FF72FCH   LINE      ECODE    ---       #247
      00FF72FCH   LINE      ECODE    ---       #249
      00FF73B6H   LINE      ECODE    ---       #251
      00FF73B6H   LINE      ECODE    ---       #252
      00FF73BAH   LINE      ECODE    ---       #253
      00FF73BAH   LINE      ECODE    ---       #255
      00FF73BAH   LINE      ECODE    ---       #256
      00FF73BEH   LINE      ECODE    ---       #257
      00FF73BEH   LINE      ECODE    ---       #258
      00FF73BEH   LINE      ECODE    ---       #259
      00FF73C2H   LINE      ECODE    ---       #260
      00FF73C2H   LINE      ECODE    ---       #261
      00FF73C2H   LINE      ECODE    ---       #262
      00FF73C6H   LINE      ECODE    ---       #263
      00FF73C6H   LINE      ECODE    ---       #264
      00FF73C6H   LINE      ECODE    ---       #265
      00FF73CAH   LINE      ECODE    ---       #266
      00FF73CAH   LINE      ECODE    ---       #267
      00FF73CAH   LINE      ECODE    ---       #268
      00FF73CEH   LINE      ECODE    ---       #269
      00FF73CEH   LINE      ECODE    ---       #271
      00FF73CEH   LINE      ECODE    ---       #272
      00FF73D2H   LINE      ECODE    ---       #273
      00FF73D2H   LINE      ECODE    ---       #274
      00FF73D2H   LINE      ECODE    ---       #275
      00FF73D6H   LINE      ECODE    ---       #276
      00FF73D6H   LINE      ECODE    ---       #277
      00FF73D6H   LINE      ECODE    ---       #278
      00FF73DAH   LINE      ECODE    ---       #279
L251 LINKER/LOCATER V4.66.93.0                                                        07/23/2023  00:26:15  PAGE 158


      00FF73DAH   LINE      ECODE    ---       #280
      00FF73DAH   LINE      ECODE    ---       #281
      00FF73DEH   LINE      ECODE    ---       #282
      00FF73DEH   LINE      ECODE    ---       #283
      00FF73DEH   LINE      ECODE    ---       #284
      00FF73E2H   LINE      ECODE    ---       #285
      00FF73E2H   LINE      ECODE    ---       #287
      00FF73E2H   LINE      ECODE    ---       #288
      00FF73E6H   LINE      ECODE    ---       #289
      00FF73E6H   LINE      ECODE    ---       #290
      00FF73E6H   LINE      ECODE    ---       #291
      00FF73EAH   LINE      ECODE    ---       #292
      00FF73EAH   LINE      ECODE    ---       #293
      00FF73EAH   LINE      ECODE    ---       #294
      00FF73EEH   LINE      ECODE    ---       #295
      00FF73EEH   LINE      ECODE    ---       #296
      00FF73EEH   LINE      ECODE    ---       #297
      00FF73F2H   LINE      ECODE    ---       #298
      00FF73F2H   LINE      ECODE    ---       #299
      00FF73F2H   LINE      ECODE    ---       #300
      00FF73F6H   LINE      ECODE    ---       #301
      00FF73F6H   LINE      ECODE    ---       #303
      00FF73F6H   LINE      ECODE    ---       #304
      00FF73FAH   LINE      ECODE    ---       #305
      00FF73FAH   LINE      ECODE    ---       #307
      00FF73FAH   LINE      ECODE    ---       #308
      00FF73FEH   LINE      ECODE    ---       #309
      00FF73FEH   LINE      ECODE    ---       #310
      00FF73FEH   LINE      ECODE    ---       #311
      00FF7402H   LINE      ECODE    ---       #312
      00FF7402H   LINE      ECODE    ---       #313
      00FF7402H   LINE      ECODE    ---       #314
      00FF7406H   LINE      ECODE    ---       #315
      00FF7406H   LINE      ECODE    ---       #316
      00FF7406H   LINE      ECODE    ---       #317
      00FF740AH   LINE      ECODE    ---       #318
      00FF740AH   LINE      ECODE    ---       #319
      00FF740AH   LINE      ECODE    ---       #320
      00FF740EH   LINE      ECODE    ---       #321
      00FF740EH   LINE      ECODE    ---       #322
      00FF740EH   LINE      ECODE    ---       #323
      ---         BLOCKEND  ---      ---       LVL=0

      00FF740FH   BLOCK     ECODE    ---       LVL=0
      00FF740FH   LINE      ECODE    ---       #334
      00FF740FH   LINE      ECODE    ---       #336
      00FF7423H   LINE      ECODE    ---       #337
      00FF7437H   LINE      ECODE    ---       #338
      00FF744BH   LINE      ECODE    ---       #339
      00FF745FH   LINE      ECODE    ---       #340
      00FF7473H   LINE      ECODE    ---       #342
      00FF7477H   LINE      ECODE    ---       #344
      00FF748EH   LINE      ECODE    ---       #346
      00FF748EH   LINE      ECODE    ---       #347
      00FF7494H   LINE      ECODE    ---       #348
      00FF7495H   LINE      ECODE    ---       #350
      00FF7495H   LINE      ECODE    ---       #351
      00FF7499H   LINE      ECODE    ---       #352
      00FF7499H   LINE      ECODE    ---       #353
      00FF7499H   LINE      ECODE    ---       #354
      00FF749BH   LINE      ECODE    ---       #355
      00FF749BH   LINE      ECODE    ---       #356
      00FF749FH   LINE      ECODE    ---       #357
      00FF749FH   LINE      ECODE    ---       #358
      00FF749FH   LINE      ECODE    ---       #359
L251 LINKER/LOCATER V4.66.93.0                                                        07/23/2023  00:26:15  PAGE 159


      00FF74A1H   LINE      ECODE    ---       #360
      00FF74A1H   LINE      ECODE    ---       #361
      00FF74A5H   LINE      ECODE    ---       #362
      00FF74A5H   LINE      ECODE    ---       #363
      00FF74A5H   LINE      ECODE    ---       #364
      00FF74A7H   LINE      ECODE    ---       #365
      00FF74A7H   LINE      ECODE    ---       #366
      00FF74ABH   LINE      ECODE    ---       #367
      00FF74ABH   LINE      ECODE    ---       #368
      00FF74ABH   LINE      ECODE    ---       #369
      00FF74ADH   LINE      ECODE    ---       #371
      00FF74ADH   LINE      ECODE    ---       #372
      00FF74B5H   LINE      ECODE    ---       #373
      00FF74BDH   LINE      ECODE    ---       #374
      00FF74C2H   LINE      ECODE    ---       #375
      00FF74C2H   LINE      ECODE    ---       #377
      00FF74C2H   LINE      ECODE    ---       #378
      ---         BLOCKEND  ---      ---       LVL=0

      00FF74C3H   BLOCK     ECODE    ---       LVL=0
      R15         REGSYM    ---      BYTE      control_line
      00FF74C3H   LINE      ECODE    ---       #382
      00FF74C7H   LINE      ECODE    ---       #384
      00FF74DBH   LINE      ECODE    ---       #385
      00FF74EFH   LINE      ECODE    ---       #387
      00FF7505H   LINE      ECODE    ---       #388
      00FF751BH   LINE      ECODE    ---       #390
      00FF752BH   LINE      ECODE    ---       #391
      ---         BLOCKEND  ---      ---       LVL=0

      00FF752EH   BLOCK     ECODE    ---       LVL=0
      00FF752EH   LINE      ECODE    ---       #393
      00FF752EH   LINE      ECODE    ---       #395
      00FF7534H   LINE      ECODE    ---       #396
      00FF7538H   LINE      ECODE    ---       #398
      00FF753FH   LINE      ECODE    ---       #400
      00FF7545H   LINE      ECODE    ---       #401
      00FF7545H   LINE      ECODE    ---       #403
      00FF755DH   LINE      ECODE    ---       #405
      00FF755DH   LINE      ECODE    ---       #406
      00FF755FH   LINE      ECODE    ---       #407
      00FF755FH   LINE      ECODE    ---       #408
      00FF7561H   LINE      ECODE    ---       #409
      00FF7561H   LINE      ECODE    ---       #410
      00FF7565H   LINE      ECODE    ---       #411
      00FF7567H   LINE      ECODE    ---       #413
      00FF7567H   LINE      ECODE    ---       #414
      00FF756FH   LINE      ECODE    ---       #416
      00FF7570H   LINE      ECODE    ---       #417
      00FF7570H   LINE      ECODE    ---       #418
      00FF7574H   LINE      ECODE    ---       #419
      00FF7574H   LINE      ECODE    ---       #420
      00FF7576H   LINE      ECODE    ---       #421
      00FF7576H   LINE      ECODE    ---       #422
      00FF757AH   LINE      ECODE    ---       #423
      00FF757AH   LINE      ECODE    ---       #424
      00FF757CH   LINE      ECODE    ---       #425
      00FF757CH   LINE      ECODE    ---       #426
      00FF7584H   LINE      ECODE    ---       #427
      00FF758CH   LINE      ECODE    ---       #428
      00FF758CH   LINE      ECODE    ---       #430
      00FF758CH   LINE      ECODE    ---       #431
      ---         BLOCKEND  ---      ---       LVL=0

      00FF758DH   BLOCK     ECODE    ---       LVL=0
L251 LINKER/LOCATER V4.66.93.0                                                        07/23/2023  00:26:15  PAGE 160


      00FF758DH   LINE      ECODE    ---       #433
      00FF758DH   LINE      ECODE    ---       #435
      00FF7595H   LINE      ECODE    ---       #436
      00FF759BH   LINE      ECODE    ---       #437
      ---         BLOCKEND  ---      ---       LVL=0

      00FF75A3H   BLOCK     ECODE    ---       LVL=0
      00FF75A3H   LINE      ECODE    ---       #440
      00FF75A3H   LINE      ECODE    ---       #442
      00FF75ABH   LINE      ECODE    ---       #443
      00FF75B1H   LINE      ECODE    ---       #444
      ---         BLOCKEND  ---      ---       LVL=0

      00FF75B9H   BLOCK     ECODE    ---       LVL=0
      00FF75B9H   LINE      ECODE    ---       #447
      00FF75B9H   LINE      ECODE    ---       #449
      00FF75C1H   LINE      ECODE    ---       #450
      ---         BLOCKEND  ---      ---       LVL=0

      00FF75C7H   BLOCK     ECODE    ---       LVL=0
      00FF75C7H   LINE      ECODE    ---       #455
      00FF75C7H   LINE      ECODE    ---       #457
      00FF75CFH   LINE      ECODE    ---       #458
      ---         BLOCKEND  ---      ---       LVL=0

      00FF75D5H   BLOCK     ECODE    ---       LVL=0
      R15         REGSYM    ---      BYTE      control_line
      00FF75D5H   LINE      ECODE    ---       #465
      00FF75D9H   LINE      ECODE    ---       #467
      00FF75EDH   LINE      ECODE    ---       #468
      00FF7601H   LINE      ECODE    ---       #469
      00FF7615H   LINE      ECODE    ---       #470
      00FF7629H   LINE      ECODE    ---       #471
      00FF763DH   LINE      ECODE    ---       #473
      00FF7653H   LINE      ECODE    ---       #474
      00FF7669H   LINE      ECODE    ---       #475
      00FF767FH   LINE      ECODE    ---       #476
      00FF7695H   LINE      ECODE    ---       #477
      00FF76ABH   LINE      ECODE    ---       #479
      00FF76BBH   LINE      ECODE    ---       #480
      ---         BLOCKEND  ---      ---       LVL=0

      00FF76BEH   BLOCK     ECODE    ---       LVL=0
      00FF76BEH   LINE      ECODE    ---       #482
      00FF76BEH   LINE      ECODE    ---       #484
      00FF76C4H   LINE      ECODE    ---       #485
      00FF76C8H   LINE      ECODE    ---       #487
      00FF76CFH   LINE      ECODE    ---       #489
      00FF76D5H   LINE      ECODE    ---       #490
      00FF76D5H   LINE      ECODE    ---       #492
      00FF76F7H   LINE      ECODE    ---       #494
      00FF76F7H   LINE      ECODE    ---       #495
      00FF76F9H   LINE      ECODE    ---       #496
      00FF76F9H   LINE      ECODE    ---       #497
      00FF76FBH   LINE      ECODE    ---       #498
      00FF76FBH   LINE      ECODE    ---       #499
      00FF76FFH   LINE      ECODE    ---       #500
      00FF7701H   LINE      ECODE    ---       #502
      00FF7701H   LINE      ECODE    ---       #503
      00FF7709H   LINE      ECODE    ---       #505
      00FF770AH   LINE      ECODE    ---       #506
      00FF770AH   LINE      ECODE    ---       #507
      00FF770EH   LINE      ECODE    ---       #508
      00FF770EH   LINE      ECODE    ---       #509
      00FF7710H   LINE      ECODE    ---       #510
L251 LINKER/LOCATER V4.66.93.0                                                        07/23/2023  00:26:15  PAGE 161


      00FF7710H   LINE      ECODE    ---       #511
      00FF7714H   LINE      ECODE    ---       #512
      00FF7714H   LINE      ECODE    ---       #513
      00FF7716H   LINE      ECODE    ---       #514
      00FF7716H   LINE      ECODE    ---       #515
      00FF771AH   LINE      ECODE    ---       #516
      00FF771AH   LINE      ECODE    ---       #517
      00FF771CH   LINE      ECODE    ---       #519
      00FF771CH   LINE      ECODE    ---       #520
      00FF7720H   LINE      ECODE    ---       #521
      00FF7720H   LINE      ECODE    ---       #522
      00FF7722H   LINE      ECODE    ---       #523
      00FF7722H   LINE      ECODE    ---       #524
      00FF7726H   LINE      ECODE    ---       #525
      00FF7726H   LINE      ECODE    ---       #526
      00FF7728H   LINE      ECODE    ---       #527
      00FF7728H   LINE      ECODE    ---       #528
      00FF7730H   LINE      ECODE    ---       #529
      00FF7738H   LINE      ECODE    ---       #530
      00FF7738H   LINE      ECODE    ---       #533
      00FF7738H   LINE      ECODE    ---       #535
      ---         BLOCKEND  ---      ---       LVL=0

      00FF7739H   BLOCK     ECODE    ---       LVL=0
      00FF7739H   LINE      ECODE    ---       #537
      00FF7739H   LINE      ECODE    ---       #539
      00FF7741H   LINE      ECODE    ---       #540
      00FF7747H   LINE      ECODE    ---       #541
      ---         BLOCKEND  ---      ---       LVL=0

      00FF774FH   BLOCK     ECODE    ---       LVL=0
      00FF774FH   LINE      ECODE    ---       #543
      00FF774FH   LINE      ECODE    ---       #545
      00FF7757H   LINE      ECODE    ---       #546
      00FF775DH   LINE      ECODE    ---       #547
      ---         BLOCKEND  ---      ---       LVL=0

      00FF7765H   BLOCK     ECODE    ---       LVL=0
      00FF7765H   LINE      ECODE    ---       #549
      00FF7765H   LINE      ECODE    ---       #551
      00FF776DH   LINE      ECODE    ---       #552
      00FF7773H   LINE      ECODE    ---       #553
      ---         BLOCKEND  ---      ---       LVL=0

      00FF777BH   BLOCK     ECODE    ---       LVL=0
      00FF777BH   LINE      ECODE    ---       #555
      00FF777BH   LINE      ECODE    ---       #557
      00FF7783H   LINE      ECODE    ---       #558
      00FF7789H   LINE      ECODE    ---       #559
      ---         BLOCKEND  ---      ---       LVL=0

      00FF7791H   BLOCK     ECODE    ---       LVL=0
      R15         REGSYM    ---      BYTE      control_line
      00FF7791H   LINE      ECODE    ---       #562
      00FF7795H   LINE      ECODE    ---       #564
      00FF77A9H   LINE      ECODE    ---       #565
      00FF77BDH   LINE      ECODE    ---       #566
      00FF77D1H   LINE      ECODE    ---       #567
      00FF77E5H   LINE      ECODE    ---       #569
      00FF77FBH   LINE      ECODE    ---       #570
      00FF7811H   LINE      ECODE    ---       #571
      00FF7827H   LINE      ECODE    ---       #572
      00FF783DH   LINE      ECODE    ---       #574
      00FF784DH   LINE      ECODE    ---       #575
      ---         BLOCKEND  ---      ---       LVL=0
L251 LINKER/LOCATER V4.66.93.0                                                        07/23/2023  00:26:15  PAGE 162



      00FF7850H   BLOCK     ECODE    ---       LVL=0
      00FF7850H   LINE      ECODE    ---       #580
      00FF7850H   LINE      ECODE    ---       #582
      00FF7856H   LINE      ECODE    ---       #584
      00FF785AH   LINE      ECODE    ---       #586
      00FF7861H   LINE      ECODE    ---       #588
      00FF7867H   LINE      ECODE    ---       #589
      00FF7867H   LINE      ECODE    ---       #591
      00FF787FH   LINE      ECODE    ---       #593
      00FF787FH   LINE      ECODE    ---       #594
      00FF7881H   LINE      ECODE    ---       #595
      00FF7881H   LINE      ECODE    ---       #596
      00FF7883H   LINE      ECODE    ---       #597
      00FF7883H   LINE      ECODE    ---       #598
      00FF7887H   LINE      ECODE    ---       #599
      00FF7889H   LINE      ECODE    ---       #601
      00FF7889H   LINE      ECODE    ---       #602
      00FF7891H   LINE      ECODE    ---       #604
      00FF7892H   LINE      ECODE    ---       #605
      00FF7892H   LINE      ECODE    ---       #606
      00FF7896H   LINE      ECODE    ---       #607
      00FF7896H   LINE      ECODE    ---       #608
      00FF7898H   LINE      ECODE    ---       #609
      00FF7898H   LINE      ECODE    ---       #610
      00FF789CH   LINE      ECODE    ---       #611
      00FF789CH   LINE      ECODE    ---       #612
      00FF789EH   LINE      ECODE    ---       #613
      00FF789EH   LINE      ECODE    ---       #614
      00FF78A6H   LINE      ECODE    ---       #615
      00FF78AEH   LINE      ECODE    ---       #616
      00FF78AEH   LINE      ECODE    ---       #618
      00FF78AEH   LINE      ECODE    ---       #620
      ---         BLOCKEND  ---      ---       LVL=0

      00FF78AFH   BLOCK     ECODE    ---       LVL=0
      00FF78AFH   LINE      ECODE    ---       #622
      00FF78AFH   LINE      ECODE    ---       #624
      00FF78B7H   LINE      ECODE    ---       #625
      00FF78BDH   LINE      ECODE    ---       #626
      ---         BLOCKEND  ---      ---       LVL=0

      00FF78C5H   BLOCK     ECODE    ---       LVL=0
      00FF78C5H   LINE      ECODE    ---       #629
      00FF78C5H   LINE      ECODE    ---       #631
      00FF78CDH   LINE      ECODE    ---       #632
      00FF78D3H   LINE      ECODE    ---       #633
      ---         BLOCKEND  ---      ---       LVL=0

      00FF78DBH   BLOCK     ECODE    ---       LVL=0
      00FF78DBH   LINE      ECODE    ---       #636
      00FF78DBH   LINE      ECODE    ---       #638
      00FF78E3H   LINE      ECODE    ---       #639
      00FF78E9H   LINE      ECODE    ---       #640
      ---         BLOCKEND  ---      ---       LVL=0

      00FF78F1H   BLOCK     ECODE    ---       LVL=0
      00FF78F1H   LINE      ECODE    ---       #643
      00FF78F1H   LINE      ECODE    ---       #645
      00FF78F9H   LINE      ECODE    ---       #646
      ---         BLOCKEND  ---      ---       LVL=0

      00FF78FFH   BLOCK     ECODE    ---       LVL=0
      00FF78FFH   LINE      ECODE    ---       #652
      00FF78FFH   LINE      ECODE    ---       #654
L251 LINKER/LOCATER V4.66.93.0                                                        07/23/2023  00:26:15  PAGE 163


      00FF7913H   LINE      ECODE    ---       #655
      00FF7927H   LINE      ECODE    ---       #656
      00FF7939H   LINE      ECODE    ---       #657
      00FF794FH   LINE      ECODE    ---       #658
      00FF7965H   LINE      ECODE    ---       #659
      00FF7979H   LINE      ECODE    ---       #660
      00FF798FH   LINE      ECODE    ---       #661
      00FF79A5H   LINE      ECODE    ---       #662
      00FF79B9H   LINE      ECODE    ---       #664
      00FF79D0H   LINE      ECODE    ---       #665
      00FF79E7H   LINE      ECODE    ---       #666
      00FF79FEH   LINE      ECODE    ---       #668
      00FF7A14H   LINE      ECODE    ---       #669
      00FF7A37H   LINE      ECODE    ---       #671
      00FF7A4FH   LINE      ECODE    ---       #672
      00FF7A67H   LINE      ECODE    ---       #674
      00FF7A7FH   LINE      ECODE    ---       #675
      00FF7A97H   LINE      ECODE    ---       #677
      00FF7AADH   LINE      ECODE    ---       #678
      00FF7AC3H   LINE      ECODE    ---       #680
      00FF7AE8H   LINE      ECODE    ---       #681
      00FF7AFEH   LINE      ECODE    ---       #682
      00FF7B14H   LINE      ECODE    ---       #683
      00FF7B2AH   LINE      ECODE    ---       #686
      00FF7B2EH   LINE      ECODE    ---       #687
      00FF7B3AH   LINE      ECODE    ---       #689
      00FF7B3AH   LINE      ECODE    ---       #690
      00FF7B42H   LINE      ECODE    ---       #691
      00FF7B43H   LINE      ECODE    ---       #693
      00FF7B43H   LINE      ECODE    ---       #694
      00FF7B49H   LINE      ECODE    ---       #695
      00FF7B51H   LINE      ECODE    ---       #696
      00FF7B51H   LINE      ECODE    ---       #697
      00FF7B51H   LINE      ECODE    ---       #698
      ---         BLOCKEND  ---      ---       LVL=0

      00FF7B52H   BLOCK     ECODE    ---       LVL=0
      R15         REGSYM    ---      BYTE      control_line
      00FF7B52H   LINE      ECODE    ---       #703
      00FF7B56H   LINE      ECODE    ---       #705
      00FF7B6AH   LINE      ECODE    ---       #706
      00FF7B82H   LINE      ECODE    ---       #707
      00FF7B96H   LINE      ECODE    ---       #708
      00FF7BAEH   LINE      ECODE    ---       #710
      00FF7BC2H   LINE      ECODE    ---       #711
      00FF7BD8H   LINE      ECODE    ---       #712
      00FF7BECH   LINE      ECODE    ---       #713
      00FF7C02H   LINE      ECODE    ---       #714
      00FF7C16H   LINE      ECODE    ---       #715
      00FF7C2DH   LINE      ECODE    ---       #717
      00FF7C3DH   LINE      ECODE    ---       #718
      ---         BLOCKEND  ---      ---       LVL=0

      00FF7C40H   BLOCK     ECODE    ---       LVL=0
      00FF7C40H   LINE      ECODE    ---       #720
      00FF7C40H   LINE      ECODE    ---       #722
      00FF7C46H   LINE      ECODE    ---       #723
      00FF7C4AH   LINE      ECODE    ---       #725
      00FF7C51H   LINE      ECODE    ---       #727
      00FF7C57H   LINE      ECODE    ---       #728
      00FF7C57H   LINE      ECODE    ---       #730
      00FF7C6FH   LINE      ECODE    ---       #732
      00FF7C6FH   LINE      ECODE    ---       #733
      00FF7C71H   LINE      ECODE    ---       #734
      00FF7C71H   LINE      ECODE    ---       #735
L251 LINKER/LOCATER V4.66.93.0                                                        07/23/2023  00:26:15  PAGE 164


      00FF7C73H   LINE      ECODE    ---       #736
      00FF7C73H   LINE      ECODE    ---       #737
      00FF7C7BH   LINE      ECODE    ---       #738
      00FF7C7CH   LINE      ECODE    ---       #740
      00FF7C7CH   LINE      ECODE    ---       #741
      00FF7C80H   LINE      ECODE    ---       #742
      00FF7C80H   LINE      ECODE    ---       #743
      00FF7C82H   LINE      ECODE    ---       #744
      00FF7C82H   LINE      ECODE    ---       #745
      00FF7C86H   LINE      ECODE    ---       #746
      00FF7C86H   LINE      ECODE    ---       #747
      00FF7C88H   LINE      ECODE    ---       #748
      00FF7C88H   LINE      ECODE    ---       #749
      00FF7C8CH   LINE      ECODE    ---       #750
      00FF7C8CH   LINE      ECODE    ---       #751
      00FF7C8EH   LINE      ECODE    ---       #752
      00FF7C8EH   LINE      ECODE    ---       #753
      00FF7C96H   LINE      ECODE    ---       #754
      00FF7C9EH   LINE      ECODE    ---       #755
      00FF7C9EH   LINE      ECODE    ---       #757
      00FF7C9EH   LINE      ECODE    ---       #759
      ---         BLOCKEND  ---      ---       LVL=0

      00FF7C9FH   BLOCK     ECODE    ---       LVL=0
      00FF7CA1H   BLOCK     ECODE    NEAR LAB  LVL=1
      DR12        REGSYM    ---      FLOAT     change_unit
      ---         BLOCKEND  ---      ---       LVL=1
      00FF7C9FH   LINE      ECODE    ---       #761
      00FF7CA1H   LINE      ECODE    ---       #762
      00FF7CA1H   LINE      ECODE    ---       #763
      00FF7CA9H   LINE      ECODE    ---       #764
      00FF7CB1H   LINE      ECODE    ---       #765
      00FF7CB7H   LINE      ECODE    ---       #767
      00FF7CBBH   LINE      ECODE    ---       #768
      00FF7CC1H   LINE      ECODE    ---       #770
      00FF7CC9H   LINE      ECODE    ---       #771
      00FF7CC9H   LINE      ECODE    ---       #772
      00FF7CD1H   LINE      ECODE    ---       #774
      00FF7CD9H   LINE      ECODE    ---       #775
      00FF7CD9H   LINE      ECODE    ---       #777
      00FF7CEDH   LINE      ECODE    ---       #779
      00FF7CEDH   LINE      ECODE    ---       #780
      00FF7CEDH   LINE      ECODE    ---       #781
      00FF7CEFH   LINE      ECODE    ---       #783
      00FF7CEFH   LINE      ECODE    ---       #784
      00FF7CFDH   LINE      ECODE    ---       #785
      00FF7CFDH   LINE      ECODE    ---       #786
      00FF7CFFH   LINE      ECODE    ---       #787
      00FF7CFFH   LINE      ECODE    ---       #788
      00FF7D0DH   LINE      ECODE    ---       #789
      00FF7D15H   LINE      ECODE    ---       #790
      00FF7D17H   LINE      ECODE    ---       #792
      00FF7D17H   LINE      ECODE    ---       #793
      00FF7D23H   LINE      ECODE    ---       #794
      00FF7D23H   LINE      ECODE    ---       #795
      00FF7D25H   LINE      ECODE    ---       #796
      00FF7D25H   LINE      ECODE    ---       #797
      00FF7D2BH   LINE      ECODE    ---       #798
      00FF7D33H   LINE      ECODE    ---       #799
      00FF7D33H   LINE      ECODE    ---       #800
      00FF7D33H   LINE      ECODE    ---       #802
      ---         BLOCKEND  ---      ---       LVL=0

      00FF7D36H   BLOCK     ECODE    ---       LVL=0
      00FF7D38H   BLOCK     ECODE    NEAR LAB  LVL=1
L251 LINKER/LOCATER V4.66.93.0                                                        07/23/2023  00:26:15  PAGE 165


      DR12        REGSYM    ---      FLOAT     change_unit
      ---         BLOCKEND  ---      ---       LVL=1
      00FF7D36H   LINE      ECODE    ---       #804
      00FF7D38H   LINE      ECODE    ---       #805
      00FF7D38H   LINE      ECODE    ---       #806
      00FF7D40H   LINE      ECODE    ---       #807
      00FF7D48H   LINE      ECODE    ---       #808
      00FF7D4EH   LINE      ECODE    ---       #809
      00FF7D52H   LINE      ECODE    ---       #810
      00FF7D58H   LINE      ECODE    ---       #812
      00FF7D60H   LINE      ECODE    ---       #813
      00FF7D60H   LINE      ECODE    ---       #814
      00FF7D68H   LINE      ECODE    ---       #816
      00FF7D70H   LINE      ECODE    ---       #817
      00FF7D70H   LINE      ECODE    ---       #819
      00FF7D84H   LINE      ECODE    ---       #821
      00FF7D84H   LINE      ECODE    ---       #822
      00FF7D84H   LINE      ECODE    ---       #823
      00FF7D86H   LINE      ECODE    ---       #825
      00FF7D86H   LINE      ECODE    ---       #826
      00FF7D94H   LINE      ECODE    ---       #827
      00FF7D94H   LINE      ECODE    ---       #828
      00FF7D96H   LINE      ECODE    ---       #829
      00FF7D96H   LINE      ECODE    ---       #830
      00FF7DA4H   LINE      ECODE    ---       #831
      00FF7DACH   LINE      ECODE    ---       #832
      00FF7DAEH   LINE      ECODE    ---       #834
      00FF7DAEH   LINE      ECODE    ---       #835
      00FF7DBAH   LINE      ECODE    ---       #836
      00FF7DBAH   LINE      ECODE    ---       #837
      00FF7DBCH   LINE      ECODE    ---       #838
      00FF7DBCH   LINE      ECODE    ---       #839
      00FF7DC2H   LINE      ECODE    ---       #840
      00FF7DCAH   LINE      ECODE    ---       #841
      00FF7DCAH   LINE      ECODE    ---       #842
      00FF7DCAH   LINE      ECODE    ---       #843
      ---         BLOCKEND  ---      ---       LVL=0

      00FF7DCDH   BLOCK     ECODE    ---       LVL=0
      00FF7DCDH   LINE      ECODE    ---       #845
      00FF7DCDH   LINE      ECODE    ---       #846
      00FF7DCDH   LINE      ECODE    ---       #847
      00FF7DCDH   LINE      ECODE    ---       #848
      00FF7DD5H   LINE      ECODE    ---       #849
      00FF7DDBH   LINE      ECODE    ---       #850
      00FF7DDFH   LINE      ECODE    ---       #851
      00FF7DDFH   LINE      ECODE    ---       #853
      00FF7DDFH   LINE      ECODE    ---       #854
      00FF7DDFH   LINE      ECODE    ---       #855
      00FF7DDFH   LINE      ECODE    ---       #857
      00FF7DDFH   LINE      ECODE    ---       #858
      00FF7DDFH   LINE      ECODE    ---       #860
      00FF7DEEH   LINE      ECODE    ---       #862
      00FF7DEEH   LINE      ECODE    ---       #863
      00FF7DF6H   LINE      ECODE    ---       #864
      00FF7DF7H   LINE      ECODE    ---       #875
      00FF7DF7H   LINE      ECODE    ---       #876
      00FF7E03H   LINE      ECODE    ---       #877
      00FF7E03H   LINE      ECODE    ---       #878
      00FF7E05H   LINE      ECODE    ---       #879
      00FF7E05H   LINE      ECODE    ---       #880
      00FF7E0BH   LINE      ECODE    ---       #881
      00FF7E13H   LINE      ECODE    ---       #882
      00FF7E13H   LINE      ECODE    ---       #883
      00FF7E13H   LINE      ECODE    ---       #884
L251 LINKER/LOCATER V4.66.93.0                                                        07/23/2023  00:26:15  PAGE 166


      ---         BLOCKEND  ---      ---       LVL=0

      00FF7E14H   BLOCK     ECODE    ---       LVL=0
      00FF7E14H   LINE      ECODE    ---       #886
      00FF7E14H   LINE      ECODE    ---       #887
      00FF7E14H   LINE      ECODE    ---       #888
      00FF7E14H   LINE      ECODE    ---       #889
      00FF7E1CH   LINE      ECODE    ---       #890
      00FF7E22H   LINE      ECODE    ---       #893
      00FF7E26H   LINE      ECODE    ---       #894
      00FF7E26H   LINE      ECODE    ---       #896
      00FF7E26H   LINE      ECODE    ---       #897
      00FF7E26H   LINE      ECODE    ---       #898
      00FF7E26H   LINE      ECODE    ---       #900
      00FF7E26H   LINE      ECODE    ---       #901
      00FF7E26H   LINE      ECODE    ---       #903
      00FF7E35H   LINE      ECODE    ---       #905
      00FF7E35H   LINE      ECODE    ---       #906
      00FF7E3DH   LINE      ECODE    ---       #907
      00FF7E3EH   LINE      ECODE    ---       #918
      00FF7E3EH   LINE      ECODE    ---       #919
      00FF7E4AH   LINE      ECODE    ---       #920
      00FF7E4AH   LINE      ECODE    ---       #921
      00FF7E4CH   LINE      ECODE    ---       #922
      00FF7E4CH   LINE      ECODE    ---       #923
      00FF7E52H   LINE      ECODE    ---       #924
      00FF7E5AH   LINE      ECODE    ---       #925
      00FF7E5AH   LINE      ECODE    ---       #926
      00FF7E5AH   LINE      ECODE    ---       #927
      ---         BLOCKEND  ---      ---       LVL=0

      ---         MODULE    ---      ---       Direction
      00FFA65AH   PUBLIC    ECODE    ---       DirectionControl?
      00FFA2CFH   PUBLIC    ECODE    ---       Read_ADC?
      00FFA43AH   PUBLIC    ECODE    ---       InductorNormal?
      00000525H   PUBLIC    EDATA    INT       second_leftp
      00000527H   PUBLIC    EDATA    INT       leftS
      00000529H   PUBLIC    EDATA    INT       leftV
      0000052BH   PUBLIC    EDATA    ---       g_ValueOfAD
      0000053DH   PUBLIC    EDATA    ---       g_fDirectionError_dot
      00000549H   PUBLIC    EDATA    INT       zhidaoflag
      0000054BH   PUBLIC    EDATA    ---       g_fDirectionError
      0000055FH   PUBLIC    EDATA    ---       g_ValueOfADFilter
      00000569H   PUBLIC    EDATA    INT       rightP
      0000056BH   PUBLIC    EDATA    INT       second_rightp
      0000056DH   PUBLIC    EDATA    INT       middle
      0000056FH   PUBLIC    EDATA    INT       rightS
      00000571H   PUBLIC    EDATA    INT       rightV
      00000573H   PUBLIC    EDATA    INT       leftP
      00000008H   PUBLIC    DATA     ---       diangan
      000000D0H   SFRSYM    DATA     BYTE      PSW
      0000009DH   SFRSYM    DATA     BYTE      IRCBAND
      00000097H   SFRSYM    DATA     BYTE      AUXR2
      000000EFH   SFRSYM    DATA     BYTE      AUXINTIF
      000000FDH   SFRSYM    DATA     BYTE      S4CON
      000000ACH   SFRSYM    DATA     BYTE      S3CON
      0000009AH   SFRSYM    DATA     BYTE      S2CON
      000000B7H   SFRSYM    DATA     BYTE      IPH
      000000CDH   SFRSYM    DATA     BYTE      SPSTAT
      000000DDH   SFRSYM    DATA     BYTE      T4T3M
      000000C1H   SFRSYM    DATA     BYTE      WDT_CONTR
      000000DFH   SFRSYM    DATA     BYTE      IP3
      000000F4H   SFRSYM    DATA     BYTE      USBCON
      000000B5H   SFRSYM    DATA     BYTE      IP2
      000000FFH   SFRSYM    DATA     BYTE      RSTCFG
L251 LINKER/LOCATER V4.66.93.0                                                        07/23/2023  00:26:15  PAGE 167


      000000F9H   SFRSYM    DATA     BYTE      LINICR
      0000008EH   SFRSYM    DATA     BYTE      AUXR
      000000AFH   SFRSYM    DATA     BYTE      IE2
      00000088H   SFRSYM    DATA     BYTE      TCON
      00000098H   SFRSYM    DATA     BYTE      SCON
      000000F1H   SFRSYM    DATA     BYTE      CANICR
      00000087H   SFRSYM    DATA     BYTE      PCON
      000000BCH   SFRSYM    DATA     BYTE      ADC_CONTR
      000000E7H   SFRSYM    DATA     BYTE      CMPCR2
      000000E6H   SFRSYM    DATA     BYTE      CMPCR1
      000000B8H   SFRSYM    DATA     BYTE      IP
      0000008FH   SFRSYM    DATA     BYTE      INTCLKO
      000000EEH   SFRSYM    DATA     BYTE      IP3H
      000000B6H   SFRSYM    DATA     BYTE      IP2H
      000000A8H   SFRSYM    DATA     BYTE      IE
      000000BBH   SFRSYM    DATA     BYTE      P_SW3
      000000BAH   SFRSYM    DATA     BYTE      P_SW2
      000000A2H   SFRSYM    DATA     BYTE      P_SW1
      000000CEH   SFRSYM    DATA     BYTE      SPCTL
      000000F8H   SFRSYM    DATA     BYTE      P7
      000000E8H   SFRSYM    DATA     BYTE      P6
      000000C8H   SFRSYM    DATA     BYTE      P5
      000000C0H   SFRSYM    DATA     BYTE      P4
      000000B0H   SFRSYM    DATA     BYTE      P3
      000000A0H   SFRSYM    DATA     BYTE      P2
      00000090H   SFRSYM    DATA     BYTE      P1
      00000080H   SFRSYM    DATA     BYTE      P0

      00FFA2CFH   BLOCK     ECODE    ---       LVL=0
      00FFA2D1H   BLOCK     ECODE    NEAR LAB  LVL=1
      WR14        REGSYM    ---      INT       i
      WR4         REGSYM    ---      INT       j
      WR2         REGSYM    ---      INT       k
      WR0         REGSYM    ---      INT       temp
      0000022AH   SYMBOL    EDATA    ---       ad_valu
      00000284H   SYMBOL    EDATA    ---       ad_valu1
      00000296H   SYMBOL    EDATA    ---       ad_sum
      000002A8H   SYMBOL    EDATA    ---       ValueOfADOld
      000002BAH   SYMBOL    EDATA    ---       ValueOfADNew
      ---         BLOCKEND  ---      ---       LVL=1
      00FFA2CFH   LINE      ECODE    ---       #24
      00FFA2D1H   LINE      ECODE    ---       #25
      00FFA2D1H   LINE      ECODE    ---       #31
      00FFA2D3H   LINE      ECODE    ---       #33
      00FFA2E5H   LINE      ECODE    ---       #34
      00FFA2F7H   LINE      ECODE    ---       #35
      00FFA309H   LINE      ECODE    ---       #36
      00FFA31BH   LINE      ECODE    ---       #37
      00FFA32DH   LINE      ECODE    ---       #38
      00FFA33FH   LINE      ECODE    ---       #49
      00FFA347H   LINE      ECODE    ---       #53
      00FFA34BH   LINE      ECODE    ---       #55
      00FFA34DH   LINE      ECODE    ---       #57
      00FFA351H   LINE      ECODE    ---       #59
      00FFA369H   LINE      ECODE    ---       #61
      00FFA369H   LINE      ECODE    ---       #62
      00FFA36DH   LINE      ECODE    ---       #63
      00FFA371H   LINE      ECODE    ---       #64
      00FFA37DH   LINE      ECODE    ---       #66
      00FFA385H   LINE      ECODE    ---       #67
      00FFA38DH   LINE      ECODE    ---       #70
      00FFA38FH   LINE      ECODE    ---       #72
      00FFA3ADH   LINE      ECODE    ---       #73
      00FFA3BDH   LINE      ECODE    ---       #74
      00FFA3C5H   LINE      ECODE    ---       #77
L251 LINKER/LOCATER V4.66.93.0                                                        07/23/2023  00:26:15  PAGE 168


      00FFA3C7H   LINE      ECODE    ---       #79
      00FFA3E1H   LINE      ECODE    ---       #82
      00FFA3E9H   LINE      ECODE    ---       #83
      00FFA3F1H   LINE      ECODE    ---       #85
      00FFA3FDH   LINE      ECODE    ---       #86
      00FFA419H   LINE      ECODE    ---       #88
      00FFA42FH   LINE      ECODE    ---       #89
      00FFA437H   LINE      ECODE    ---       #91
      ---         BLOCKEND  ---      ---       LVL=0

      00FFA43AH   BLOCK     ECODE    ---       LVL=0
      00FFA43AH   LINE      ECODE    ---       #96
      00FFA43AH   LINE      ECODE    ---       #98
      00FFA43EH   LINE      ECODE    ---       #99
      00FFA445H   LINE      ECODE    ---       #100
      00FFA44CH   LINE      ECODE    ---       #101
      00FFA453H   LINE      ECODE    ---       #102
      00FFA45AH   LINE      ECODE    ---       #103
      00FFA461H   LINE      ECODE    ---       #104
      00FFA468H   LINE      ECODE    ---       #108
      00FFA499H   LINE      ECODE    ---       #109
      00FFA4C1H   LINE      ECODE    ---       #111
      00FFA4E9H   LINE      ECODE    ---       #112
      00FFA511H   LINE      ECODE    ---       #114
      00FFA53BH   LINE      ECODE    ---       #115
      00FFA55DH   LINE      ECODE    ---       #118
      00FFA56FH   LINE      ECODE    ---       #119
      00FFA587H   LINE      ECODE    ---       #120
      00FFA59DH   LINE      ECODE    ---       #121
      00FFA5B1H   LINE      ECODE    ---       #122
      00FFA5C7H   LINE      ECODE    ---       #123
      00FFA5DBH   LINE      ECODE    ---       #124
      00FFA5F1H   LINE      ECODE    ---       #125
      00FFA605H   LINE      ECODE    ---       #126
      00FFA61BH   LINE      ECODE    ---       #127
      00FFA62FH   LINE      ECODE    ---       #128
      00FFA645H   LINE      ECODE    ---       #129
      00FFA659H   LINE      ECODE    ---       #136
      ---         BLOCKEND  ---      ---       LVL=0

      00FFA65AH   BLOCK     ECODE    ---       LVL=0
      00FFA65CH   BLOCK     ECODE    NEAR LAB  LVL=1
      00000575H   SYMBOL    EDATA    ---       g_fDirectionErrorTemp
      ---         BLOCKEND  ---      ---       LVL=1
      00FFA65AH   LINE      ECODE    ---       #153
      00FFA65CH   LINE      ECODE    ---       #154
      00FFA65CH   LINE      ECODE    ---       #157
      00FFA660H   LINE      ECODE    ---       #158
      00FFA6C0H   LINE      ECODE    ---       #159
      00FFA720H   LINE      ECODE    ---       #160
      00FFA816H   LINE      ECODE    ---       #163
      00FFA828H   LINE      ECODE    ---       #165
      00FFA830H   LINE      ECODE    ---       #166
      00FFA838H   LINE      ECODE    ---       #167
      00FFA840H   LINE      ECODE    ---       #168
      00FFA848H   LINE      ECODE    ---       #169
      00FFA850H   LINE      ECODE    ---       #170
      00FFA866H   LINE      ECODE    ---       #173
      ---         BLOCKEND  ---      ---       LVL=0

      ---         MODULE    ---      ---       control
      00FFDC59H   PUBLIC    ECODE    ---       Control?
      00000819H   PUBLIC    EDATA    FLOAT     servo
      0000081DH   PUBLIC    EDATA    INT       duty1
      0000081FH   PUBLIC    EDATA    INT       duty2
L251 LINKER/LOCATER V4.66.93.0                                                        07/23/2023  00:26:15  PAGE 169


      000000D0H   SFRSYM    DATA     BYTE      PSW
      0000009DH   SFRSYM    DATA     BYTE      IRCBAND
      00000097H   SFRSYM    DATA     BYTE      AUXR2
      000000EFH   SFRSYM    DATA     BYTE      AUXINTIF
      000000FDH   SFRSYM    DATA     BYTE      S4CON
      000000ACH   SFRSYM    DATA     BYTE      S3CON
      0000009AH   SFRSYM    DATA     BYTE      S2CON
      000000B7H   SFRSYM    DATA     BYTE      IPH
      000000CDH   SFRSYM    DATA     BYTE      SPSTAT
      000000DDH   SFRSYM    DATA     BYTE      T4T3M
      000000C1H   SFRSYM    DATA     BYTE      WDT_CONTR
      000000DFH   SFRSYM    DATA     BYTE      IP3
      000000F4H   SFRSYM    DATA     BYTE      USBCON
      000000B5H   SFRSYM    DATA     BYTE      IP2
      000000FFH   SFRSYM    DATA     BYTE      RSTCFG
      000000F9H   SFRSYM    DATA     BYTE      LINICR
      0000008EH   SFRSYM    DATA     BYTE      AUXR
      000000AFH   SFRSYM    DATA     BYTE      IE2
      000000E8H.4 SFRSYM    DATA     BIT       P64
      000000E8H.0 SFRSYM    DATA     BIT       P60
      00000088H   SFRSYM    DATA     BYTE      TCON
      00000098H   SFRSYM    DATA     BYTE      SCON
      000000F1H   SFRSYM    DATA     BYTE      CANICR
      00000087H   SFRSYM    DATA     BYTE      PCON
      000000BCH   SFRSYM    DATA     BYTE      ADC_CONTR
      000000E7H   SFRSYM    DATA     BYTE      CMPCR2
      000000E6H   SFRSYM    DATA     BYTE      CMPCR1
      000000B8H   SFRSYM    DATA     BYTE      IP
      0000008FH   SFRSYM    DATA     BYTE      INTCLKO
      000000EEH   SFRSYM    DATA     BYTE      IP3H
      000000B6H   SFRSYM    DATA     BYTE      IP2H
      000000A8H   SFRSYM    DATA     BYTE      IE
      000000BBH   SFRSYM    DATA     BYTE      P_SW3
      000000BAH   SFRSYM    DATA     BYTE      P_SW2
      000000A2H   SFRSYM    DATA     BYTE      P_SW1
      000000CEH   SFRSYM    DATA     BYTE      SPCTL
      000000F8H   SFRSYM    DATA     BYTE      P7
      000000E8H   SFRSYM    DATA     BYTE      P6
      000000C8H   SFRSYM    DATA     BYTE      P5
      000000C0H   SFRSYM    DATA     BYTE      P4
      000000B0H   SFRSYM    DATA     BYTE      P3
      000000A0H   SFRSYM    DATA     BYTE      P2
      00000090H   SFRSYM    DATA     BYTE      P1
      00000080H   SFRSYM    DATA     BYTE      P0

      00FFDC59H   BLOCK     ECODE    ---       LVL=0
      00FFDC59H   LINE      ECODE    ---       #12
      00FFDC5BH   LINE      ECODE    ---       #14
      00FFDC65H   LINE      ECODE    ---       #16
      00FFDC73H   LINE      ECODE    ---       #17
      00FFDC75H   LINE      ECODE    ---       #18
      00FFDC77H   LINE      ECODE    ---       #21
      00FFDC93H   LINE      ECODE    ---       #22
      00FFDC95H   LINE      ECODE    ---       #23
      00FFDC95H   LINE      ECODE    ---       #25
      00FFDC9FH   LINE      ECODE    ---       #27
      00FFDCADH   LINE      ECODE    ---       #28
      00FFDCAFH   LINE      ECODE    ---       #29
      00FFDCB1H   LINE      ECODE    ---       #32
      00FFDCCDH   LINE      ECODE    ---       #33
      00FFDCCFH   LINE      ECODE    ---       #34
      00FFDCCFH   LINE      ECODE    ---       #39
      ---         BLOCKEND  ---      ---       LVL=0

      ---         MODULE    ---      ---       encoder
L251 LINKER/LOCATER V4.66.93.0                                                        07/23/2023  00:26:15  PAGE 170


      00FFDD3DH   PUBLIC    ECODE    ---       read_encoder?
      0000087DH   PUBLIC    EDATA    INT       speed1
      0000087FH   PUBLIC    EDATA    INT       speed2
      000000D0H   SFRSYM    DATA     BYTE      PSW
      0000009DH   SFRSYM    DATA     BYTE      IRCBAND
      00000097H   SFRSYM    DATA     BYTE      AUXR2
      000000EFH   SFRSYM    DATA     BYTE      AUXINTIF
      000000FDH   SFRSYM    DATA     BYTE      S4CON
      000000ACH   SFRSYM    DATA     BYTE      S3CON
      0000009AH   SFRSYM    DATA     BYTE      S2CON
      000000B7H   SFRSYM    DATA     BYTE      IPH
      000000CDH   SFRSYM    DATA     BYTE      SPSTAT
      000000DDH   SFRSYM    DATA     BYTE      T4T3M
      000000C1H   SFRSYM    DATA     BYTE      WDT_CONTR
      000000DFH   SFRSYM    DATA     BYTE      IP3
      000000F4H   SFRSYM    DATA     BYTE      USBCON
      000000B5H   SFRSYM    DATA     BYTE      IP2
      000000FFH   SFRSYM    DATA     BYTE      RSTCFG
      000000F9H   SFRSYM    DATA     BYTE      LINICR
      0000008EH   SFRSYM    DATA     BYTE      AUXR
      000000AFH   SFRSYM    DATA     BYTE      IE2
      000000B0H.5 SFRSYM    DATA     BIT       P35
      000000C8H.3 SFRSYM    DATA     BIT       P53
      00000088H   SFRSYM    DATA     BYTE      TCON
      00000098H   SFRSYM    DATA     BYTE      SCON
      000000F1H   SFRSYM    DATA     BYTE      CANICR
      00000087H   SFRSYM    DATA     BYTE      PCON
      000000BCH   SFRSYM    DATA     BYTE      ADC_CONTR
      000000E7H   SFRSYM    DATA     BYTE      CMPCR2
      000000E6H   SFRSYM    DATA     BYTE      CMPCR1
      000000B8H   SFRSYM    DATA     BYTE      IP
      0000008FH   SFRSYM    DATA     BYTE      INTCLKO
      000000EEH   SFRSYM    DATA     BYTE      IP3H
      000000B6H   SFRSYM    DATA     BYTE      IP2H
      000000A8H   SFRSYM    DATA     BYTE      IE
      000000BBH   SFRSYM    DATA     BYTE      P_SW3
      000000BAH   SFRSYM    DATA     BYTE      P_SW2
      000000A2H   SFRSYM    DATA     BYTE      P_SW1
      000000CEH   SFRSYM    DATA     BYTE      SPCTL
      000000F8H   SFRSYM    DATA     BYTE      P7
      000000E8H   SFRSYM    DATA     BYTE      P6
      000000C8H   SFRSYM    DATA     BYTE      P5
      000000C0H   SFRSYM    DATA     BYTE      P4
      000000B0H   SFRSYM    DATA     BYTE      P3
      000000A0H   SFRSYM    DATA     BYTE      P2
      00000090H   SFRSYM    DATA     BYTE      P1
      00000080H   SFRSYM    DATA     BYTE      P0

      00FFDD3DH   BLOCK     ECODE    ---       LVL=0
      00FFDD3DH   LINE      ECODE    ---       #7
      00FFDD3DH   LINE      ECODE    ---       #9
      00FFDD44H   LINE      ECODE    ---       #11
      00FFDD50H   LINE      ECODE    ---       #12
      00FFDD52H   LINE      ECODE    ---       #15
      00FFDD5CH   LINE      ECODE    ---       #16
      00FFDD5CH   LINE      ECODE    ---       #18
      00FFDD63H   LINE      ECODE    ---       #20
      00FFDD6BH   LINE      ECODE    ---       #21
      00FFDD6DH   LINE      ECODE    ---       #24
      00FFDD7FH   LINE      ECODE    ---       #26
      00FFDD7FH   LINE      ECODE    ---       #27
      00FFDD85H   LINE      ECODE    ---       #28
      ---         BLOCKEND  ---      ---       LVL=0

      ---         MODULE    ---      ---       pid
L251 LINKER/LOCATER V4.66.93.0                                                        07/23/2023  00:26:15  PAGE 171


      00FFA9A3H   PUBLIC    ECODE    ---       speedL_pid?
      00FFAA2BH   PUBLIC    ECODE    ---       speedR_pid?
      00FFAAB3H   PUBLIC    ECODE    ---       mpu660_PID?
      00FFAC63H   PUBLIC    ECODE    ---       Ordinary_trace?
      00FFAC11H   PUBLIC    ECODE    ---       mpu660_angle?
      00FFA8BEH   PUBLIC    ECODE    ---       Target_speed?
      00FFA869H   PUBLIC    ECODE    ---       dir_pid?
      00FFAC3AH   PUBLIC    ECODE    ---       IMU660ra_Angle_Y?
      00FFAB7CH   PUBLIC    ECODE    ---       IMU660ra_Angle_Y_V_Filter?
      0000059DH   PUBLIC    EDATA    INT       normal_speed
      0000059FH   PUBLIC    EDATA    INT       error_pre2
      000005A1H   PUBLIC    EDATA    FLOAT     angle
      000005A5H   PUBLIC    EDATA    FLOAT     cha_err1
      000005A9H   PUBLIC    EDATA    FLOAT     cha_err2
      000005ADH   PUBLIC    EDATA    FLOAT     v_angle_P
      000005B1H   PUBLIC    EDATA    FLOAT     Target_speed1
      000005B5H   PUBLIC    EDATA    FLOAT     Target_speed2
      000005B9H   PUBLIC    EDATA    FLOAT     last_err1
      000005BDH   PUBLIC    EDATA    FLOAT     g_dirControl_D
      000005C1H   PUBLIC    EDATA    FLOAT     last_err2
      000005C5H   PUBLIC    EDATA    FLOAT     g_dirControl_P
      000005C9H   PUBLIC    EDATA    INT       round_speed
      000005CBH   PUBLIC    EDATA    FLOAT     now_x
      000005CFH   PUBLIC    EDATA    FLOAT     now_y
      000005D3H   PUBLIC    EDATA    FLOAT     gr_y
      000005D7H   PUBLIC    EDATA    FLOAT     y_v_angle
      000005DBH   PUBLIC    EDATA    FLOAT     Motor_Ki_L
      000005DFH   PUBLIC    EDATA    INT       error_pre
      000005E1H   PUBLIC    EDATA    FLOAT     gr
      000005E5H   PUBLIC    EDATA    FLOAT     Motor_Ki_R
      000005E9H   PUBLIC    EDATA    FLOAT     Motor_Kp_L
      000005EDH   PUBLIC    EDATA    INT       error1
      000005EFH   PUBLIC    EDATA    INT       error2
      000005F1H   PUBLIC    EDATA    FLOAT     v_angle
      000005F5H   PUBLIC    EDATA    FLOAT     Motor_Kp_R
      000005F9H   PUBLIC    EDATA    FLOAT     angle_y
      000005FDH   PUBLIC    EDATA    FLOAT     y_v_angle_P
      00000601H   PUBLIC    EDATA    FLOAT     angle_kp1
      000000D0H   SFRSYM    DATA     BYTE      PSW
      0000009DH   SFRSYM    DATA     BYTE      IRCBAND
      00000097H   SFRSYM    DATA     BYTE      AUXR2
      000000EFH   SFRSYM    DATA     BYTE      AUXINTIF
      000000FDH   SFRSYM    DATA     BYTE      S4CON
      000000ACH   SFRSYM    DATA     BYTE      S3CON
      0000009AH   SFRSYM    DATA     BYTE      S2CON
      000000B7H   SFRSYM    DATA     BYTE      IPH
      000000CDH   SFRSYM    DATA     BYTE      SPSTAT
      000000DDH   SFRSYM    DATA     BYTE      T4T3M
      000000C1H   SFRSYM    DATA     BYTE      WDT_CONTR
      000000DFH   SFRSYM    DATA     BYTE      IP3
      000000F4H   SFRSYM    DATA     BYTE      USBCON
      000000B5H   SFRSYM    DATA     BYTE      IP2
      000000FFH   SFRSYM    DATA     BYTE      RSTCFG
      000000F9H   SFRSYM    DATA     BYTE      LINICR
      0000008EH   SFRSYM    DATA     BYTE      AUXR
      000000AFH   SFRSYM    DATA     BYTE      IE2
      000000E8H.7 SFRSYM    DATA     BIT       P67
      00000088H   SFRSYM    DATA     BYTE      TCON
      00000098H   SFRSYM    DATA     BYTE      SCON
      000000F1H   SFRSYM    DATA     BYTE      CANICR
      00000087H   SFRSYM    DATA     BYTE      PCON
      000000BCH   SFRSYM    DATA     BYTE      ADC_CONTR
      000000E7H   SFRSYM    DATA     BYTE      CMPCR2
      000000E6H   SFRSYM    DATA     BYTE      CMPCR1
      000000B8H   SFRSYM    DATA     BYTE      IP
L251 LINKER/LOCATER V4.66.93.0                                                        07/23/2023  00:26:15  PAGE 172


      0000008FH   SFRSYM    DATA     BYTE      INTCLKO
      000000EEH   SFRSYM    DATA     BYTE      IP3H
      000000B6H   SFRSYM    DATA     BYTE      IP2H
      000000A8H   SFRSYM    DATA     BYTE      IE
      000000BBH   SFRSYM    DATA     BYTE      P_SW3
      000000BAH   SFRSYM    DATA     BYTE      P_SW2
      000000A2H   SFRSYM    DATA     BYTE      P_SW1
      000000CEH   SFRSYM    DATA     BYTE      SPCTL
      000000F8H   SFRSYM    DATA     BYTE      P7
      000000E8H   SFRSYM    DATA     BYTE      P6
      000000C8H   SFRSYM    DATA     BYTE      P5
      000000C0H   SFRSYM    DATA     BYTE      P4
      000000B0H   SFRSYM    DATA     BYTE      P3
      000000A0H   SFRSYM    DATA     BYTE      P2
      00000090H   SFRSYM    DATA     BYTE      P1
      00000080H   SFRSYM    DATA     BYTE      P0

      00FFA869H   BLOCK     ECODE    ---       LVL=0
      00FFA869H   LINE      ECODE    ---       #30
      00FFA869H   LINE      ECODE    ---       #33
      00FFA891H   LINE      ECODE    ---       #34
      00FFA895H   LINE      ECODE    ---       #35
      00FFA8A9H   LINE      ECODE    ---       #37
      00FFA8AFH   LINE      ECODE    ---       #38
      00FFA8B3H   LINE      ECODE    ---       #40
      00FFA8B4H   LINE      ECODE    ---       #43
      00FFA8BAH   LINE      ECODE    ---       #44
      00FFA8BEH   LINE      ECODE    ---       #45
      00FFA8BEH   LINE      ECODE    ---       #46
      ---         BLOCKEND  ---      ---       LVL=0

      00FFA8BEH   BLOCK     ECODE    ---       LVL=0
      00FFA8BEH   LINE      ECODE    ---       #48
      00FFA8C0H   LINE      ECODE    ---       #51
      00FFA930H   LINE      ECODE    ---       #52
      00FFA99EH   LINE      ECODE    ---       #54
      00FFA9A0H   LINE      ECODE    ---       #55
      ---         BLOCKEND  ---      ---       LVL=0

      00FFA9A3H   BLOCK     ECODE    ---       LVL=0
      00FFA9A3H   LINE      ECODE    ---       #57
      00FFA9A3H   LINE      ECODE    ---       #59
      00FFA9C1H   LINE      ECODE    ---       #60
      00FFAA05H   LINE      ECODE    ---       #61
      00FFAA09H   LINE      ECODE    ---       #62
      00FFAA1CH   LINE      ECODE    ---       #63
      00FFAA2AH   LINE      ECODE    ---       #64
      ---         BLOCKEND  ---      ---       LVL=0

      00FFAA2BH   BLOCK     ECODE    ---       LVL=0
      00FFAA2BH   LINE      ECODE    ---       #66
      00FFAA2BH   LINE      ECODE    ---       #68
      00FFAA49H   LINE      ECODE    ---       #69
      00FFAA8DH   LINE      ECODE    ---       #70
      00FFAA91H   LINE      ECODE    ---       #71
      00FFAAA4H   LINE      ECODE    ---       #72
      00FFAAB2H   LINE      ECODE    ---       #73
      ---         BLOCKEND  ---      ---       LVL=0

      00FFAAB3H   BLOCK     ECODE    ---       LVL=0
      00FFAAB5H   BLOCK     ECODE    NEAR LAB  LVL=1
      0000022AH   SYMBOL    EDATA    ---       v_angle_array
      DR24        REGSYM    ---      FLOAT     temp
      WR14        REGSYM    ---      INT       i
      WR28        REGSYM    ---      INT       j
L251 LINKER/LOCATER V4.66.93.0                                                        07/23/2023  00:26:15  PAGE 173


      ---         BLOCKEND  ---      ---       LVL=1
      00FFAAB3H   LINE      ECODE    ---       #75
      00FFAAB5H   LINE      ECODE    ---       #76
      00FFAAB5H   LINE      ECODE    ---       #79
      00FFAAB9H   LINE      ECODE    ---       #81
      00FFAABBH   LINE      ECODE    ---       #83
      00FFAAD1H   LINE      ECODE    ---       #84
      00FFAAD9H   LINE      ECODE    ---       #86
      00FFAADDH   LINE      ECODE    ---       #88
      00FFAAE1H   LINE      ECODE    ---       #90
      00FFAB01H   LINE      ECODE    ---       #92
      00FFAB01H   LINE      ECODE    ---       #93
      00FFAB09H   LINE      ECODE    ---       #94
      00FFAB11H   LINE      ECODE    ---       #95
      00FFAB1DH   LINE      ECODE    ---       #97
      00FFAB25H   LINE      ECODE    ---       #99
      00FFAB47H   LINE      ECODE    ---       #102
      00FFAB63H   LINE      ECODE    ---       #104
      00FFAB6BH   LINE      ECODE    ---       #105
      00FFAB6DH   LINE      ECODE    ---       #108
      00FFAB79H   LINE      ECODE    ---       #109
      00FFAB79H   LINE      ECODE    ---       #111
      ---         BLOCKEND  ---      ---       LVL=0

      00FFAB7CH   BLOCK     ECODE    ---       LVL=0
      00FFAB7EH   BLOCK     ECODE    NEAR LAB  LVL=1
      0000022AH   SYMBOL    EDATA    ---       y_v_angle_array
      DR24        REGSYM    ---      FLOAT     temp
      WR14        REGSYM    ---      INT       i
      WR30        REGSYM    ---      INT       j
      ---         BLOCKEND  ---      ---       LVL=1
      00FFAB7CH   LINE      ECODE    ---       #113
      00FFAB7EH   LINE      ECODE    ---       #114
      00FFAB7EH   LINE      ECODE    ---       #117
      00FFAB82H   LINE      ECODE    ---       #119
      00FFAB84H   LINE      ECODE    ---       #121
      00FFAB9AH   LINE      ECODE    ---       #122
      00FFABA2H   LINE      ECODE    ---       #124
      00FFABA4H   LINE      ECODE    ---       #126
      00FFABA8H   LINE      ECODE    ---       #128
      00FFABC8H   LINE      ECODE    ---       #130
      00FFABC8H   LINE      ECODE    ---       #131
      00FFABD0H   LINE      ECODE    ---       #132
      00FFABD8H   LINE      ECODE    ---       #133
      00FFABE4H   LINE      ECODE    ---       #135
      00FFABECH   LINE      ECODE    ---       #137
      00FFAC0EH   LINE      ECODE    ---       #138
      ---         BLOCKEND  ---      ---       LVL=0

      00FFAC11H   BLOCK     ECODE    ---       LVL=0
      00FFAC11H   LINE      ECODE    ---       #140
      00FFAC11H   LINE      ECODE    ---       #142
      00FFAC15H   LINE      ECODE    ---       #143
      00FFAC1DH   LINE      ECODE    ---       #144
      00FFAC21H   LINE      ECODE    ---       #145
      00FFAC39H   LINE      ECODE    ---       #146
      ---         BLOCKEND  ---      ---       LVL=0

      00FFAC3AH   BLOCK     ECODE    ---       LVL=0
      00FFAC3AH   LINE      ECODE    ---       #148
      00FFAC3AH   LINE      ECODE    ---       #150
      00FFAC3EH   LINE      ECODE    ---       #151
      00FFAC46H   LINE      ECODE    ---       #152
      00FFAC4AH   LINE      ECODE    ---       #153
      00FFAC62H   LINE      ECODE    ---       #154
L251 LINKER/LOCATER V4.66.93.0                                                        07/23/2023  00:26:15  PAGE 174


      ---         BLOCKEND  ---      ---       LVL=0

      00FFAC63H   BLOCK     ECODE    ---       LVL=0
      00FFAC63H   LINE      ECODE    ---       #156
      00FFAC65H   LINE      ECODE    ---       #158
      00FFAC69H   LINE      ECODE    ---       #159
      00FFAC6DH   LINE      ECODE    ---       #161
      00FFAC81H   LINE      ECODE    ---       #164
      00FFAC87H   LINE      ECODE    ---       #165
      00FFAC87H   LINE      ECODE    ---       #166
      00FFAC89H   LINE      ECODE    ---       #167
      00FFAC9DH   LINE      ECODE    ---       #170
      00FFACA7H   LINE      ECODE    ---       #171
      00FFACA7H   LINE      ECODE    ---       #172
      00FFACA9H   LINE      ECODE    ---       #175
      00FFACABH   LINE      ECODE    ---       #176
      00FFACEBH   LINE      ECODE    ---       #177
      00FFACEFH   LINE      ECODE    ---       #178
      00FFACF3H   LINE      ECODE    ---       #179
      00FFACF3H   LINE      ECODE    ---       #180
      ---         BLOCKEND  ---      ---       LVL=0

      ---         MODULE    ---      ---       round
      00FF9110H   PUBLIC    ECODE    ---       Slope?
      00FF91BDH   PUBLIC    ECODE    ---       Obstacle_Deal?
      00FF93A7H   PUBLIC    ECODE    ---       Cross?
      00FF9248H   PUBLIC    ECODE    ---       Obstacle?
      00FF8F59H   PUBLIC    ECODE    ---       Huan_Dao_R?
      00FF8DA2H   PUBLIC    ECODE    ---       Huan_Dao_Z?
      00FF8A82H   PUBLIC    ECODE    ---       knn?
      00FF8CE7H   PUBLIC    ECODE    ---       Round_Deal?
      00000768H   PUBLIC    EDATA    INT       round1_type
      0000076AH   PUBLIC    EDATA    INT       round2_type
      0000076CH   PUBLIC    EDATA    INT       round3_type
      0000076EH   PUBLIC    EDATA    INT       flag_hd_Z
      00000770H   PUBLIC    EDATA    INT       round4_type
      00000772H   PUBLIC    EDATA    INT       obstacle_number_MAX
      00000774H   PUBLIC    EDATA    INT       roundcount2
      00000776H   PUBLIC    EDATA    INT       roundcount3
      00000778H   PUBLIC    EDATA    INT       flag_c_hd
      0000077AH   PUBLIC    EDATA    INT       round_number
      0000077CH   PUBLIC    EDATA    INT       flag_r_hd
      0000077EH   PUBLIC    EDATA    INT       slope_flag
      00000780H   PUBLIC    EDATA    INT       obstacle1_type
      00000782H   PUBLIC    EDATA    INT       cross_flag
      00000784H   PUBLIC    EDATA    INT       obstacle2_type
      00000786H   PUBLIC    EDATA    INT       obstacle3_type
      00000788H   PUBLIC    EDATA    INT       obstacle_number
      0000078AH   PUBLIC    EDATA    FLOAT     Gyro_Pitch_Angle
      0000078EH   PUBLIC    EDATA    INT       obstacle_flag
      00000790H   PUBLIC    EDATA    INT       real_obstacle_flag
      00000792H   PUBLIC    EDATA    INT       roundcount
      00000794H   PUBLIC    EDATA    INT       round_number_MAX
      00000796H   PUBLIC    EDATA    INT       e_r1
      00000798H   PUBLIC    EDATA    INT       e_r2
      0000079AH   PUBLIC    EDATA    INT       flag_hd_R
      000000D0H   SFRSYM    DATA     BYTE      PSW
      0000009DH   SFRSYM    DATA     BYTE      IRCBAND
      00000097H   SFRSYM    DATA     BYTE      AUXR2
      000000EFH   SFRSYM    DATA     BYTE      AUXINTIF
      000000FDH   SFRSYM    DATA     BYTE      S4CON
      000000ACH   SFRSYM    DATA     BYTE      S3CON
      0000009AH   SFRSYM    DATA     BYTE      S2CON
      000000B7H   SFRSYM    DATA     BYTE      IPH
      000000CDH   SFRSYM    DATA     BYTE      SPSTAT
L251 LINKER/LOCATER V4.66.93.0                                                        07/23/2023  00:26:15  PAGE 175


      000000DDH   SFRSYM    DATA     BYTE      T4T3M
      000000C1H   SFRSYM    DATA     BYTE      WDT_CONTR
      000000DFH   SFRSYM    DATA     BYTE      IP3
      000000F4H   SFRSYM    DATA     BYTE      USBCON
      000000B5H   SFRSYM    DATA     BYTE      IP2
      000000FFH   SFRSYM    DATA     BYTE      RSTCFG
      000000F9H   SFRSYM    DATA     BYTE      LINICR
      0000008EH   SFRSYM    DATA     BYTE      AUXR
      000000AFH   SFRSYM    DATA     BYTE      IE2
      000000E8H.7 SFRSYM    DATA     BIT       P67
      000000A0H.6 SFRSYM    DATA     BIT       P26
      00000088H   SFRSYM    DATA     BYTE      TCON
      00000098H   SFRSYM    DATA     BYTE      SCON
      000000F1H   SFRSYM    DATA     BYTE      CANICR
      00000087H   SFRSYM    DATA     BYTE      PCON
      000000BCH   SFRSYM    DATA     BYTE      ADC_CONTR
      000000E7H   SFRSYM    DATA     BYTE      CMPCR2
      000000E6H   SFRSYM    DATA     BYTE      CMPCR1
      000000B8H   SFRSYM    DATA     BYTE      IP
      0000008FH   SFRSYM    DATA     BYTE      INTCLKO
      000000EEH   SFRSYM    DATA     BYTE      IP3H
      000000B6H   SFRSYM    DATA     BYTE      IP2H
      000000A8H   SFRSYM    DATA     BYTE      IE
      000000BBH   SFRSYM    DATA     BYTE      P_SW3
      000000BAH   SFRSYM    DATA     BYTE      P_SW2
      000000A2H   SFRSYM    DATA     BYTE      P_SW1
      000000CEH   SFRSYM    DATA     BYTE      SPCTL
      000000F8H   SFRSYM    DATA     BYTE      P7
      000000E8H   SFRSYM    DATA     BYTE      P6
      000000C8H   SFRSYM    DATA     BYTE      P5
      000000C0H   SFRSYM    DATA     BYTE      P4
      000000B0H   SFRSYM    DATA     BYTE      P3
      000000A0H   SFRSYM    DATA     BYTE      P2
      00000090H   SFRSYM    DATA     BYTE      P1
      00000080H   SFRSYM    DATA     BYTE      P0

      00FF8A82H   BLOCK     ECODE    ---       LVL=0
      00FF8A82H   LINE      ECODE    ---       #36
      00FF8A84H   LINE      ECODE    ---       #38
      00FF8B44H   LINE      ECODE    ---       #42
      00FF8C04H   LINE      ECODE    ---       #46
      00FF8C30H   LINE      ECODE    ---       #48
      00FF8C38H   LINE      ECODE    ---       #49
      00FF8C38H   LINE      ECODE    ---       #52
      00FF8C48H   LINE      ECODE    ---       #54
      00FF8C50H   LINE      ECODE    ---       #55
      00FF8C50H   LINE      ECODE    ---       #57
      00FF8C8CH   LINE      ECODE    ---       #60
      00FF8C94H   LINE      ECODE    ---       #61
      00FF8C94H   LINE      ECODE    ---       #63
      00FF8CDCH   LINE      ECODE    ---       #66
      00FF8CE4H   LINE      ECODE    ---       #67
      ---         BLOCKEND  ---      ---       LVL=0

      00FF8CE7H   BLOCK     ECODE    ---       LVL=0
      00FF8CE7H   LINE      ECODE    ---       #75
      00FF8CE9H   LINE      ECODE    ---       #77
      00FF8CF3H   LINE      ECODE    ---       #79
      00FF8CF9H   LINE      ECODE    ---       #80
      00FF8CFCH   LINE      ECODE    ---       #82
      00FF8D0EH   LINE      ECODE    ---       #84
      00FF8D18H   LINE      ECODE    ---       #86
      00FF8D18H   LINE      ECODE    ---       #87
      00FF8D1AH   LINE      ECODE    ---       #88
      00FF8D23H   LINE      ECODE    ---       #90
L251 LINKER/LOCATER V4.66.93.0                                                        07/23/2023  00:26:15  PAGE 176


      00FF8D23H   LINE      ECODE    ---       #91
      00FF8D25H   LINE      ECODE    ---       #94
      00FF8D35H   LINE      ECODE    ---       #96
      00FF8D3FH   LINE      ECODE    ---       #98
      00FF8D3FH   LINE      ECODE    ---       #99
      00FF8D41H   LINE      ECODE    ---       #100
      00FF8D47H   LINE      ECODE    ---       #102
      00FF8D47H   LINE      ECODE    ---       #103
      00FF8D49H   LINE      ECODE    ---       #106
      00FF8D59H   LINE      ECODE    ---       #108
      00FF8D63H   LINE      ECODE    ---       #110
      00FF8D63H   LINE      ECODE    ---       #111
      00FF8D65H   LINE      ECODE    ---       #112
      00FF8D6BH   LINE      ECODE    ---       #114
      00FF8D6BH   LINE      ECODE    ---       #115
      00FF8D6DH   LINE      ECODE    ---       #118
      00FF8D7DH   LINE      ECODE    ---       #120
      00FF8D87H   LINE      ECODE    ---       #122
      00FF8D8FH   LINE      ECODE    ---       #123
      00FF8D91H   LINE      ECODE    ---       #124
      00FF8D97H   LINE      ECODE    ---       #126
      00FF8D9FH   LINE      ECODE    ---       #127
      00FF8D9FH   LINE      ECODE    ---       #130
      ---         BLOCKEND  ---      ---       LVL=0

      00FF8DA2H   BLOCK     ECODE    ---       LVL=0
      WR12        REGSYM    ---      INT       round_into_waiting_distance
      00FF8DA2H   LINE      ECODE    ---       #132
      00FF8DA6H   LINE      ECODE    ---       #135
      00FF8DD0H   LINE      ECODE    ---       #136
      00FF8DE4H   LINE      ECODE    ---       #138
      00FF8E11H   LINE      ECODE    ---       #139
      00FF8E19H   LINE      ECODE    ---       #140
      00FF8E29H   LINE      ECODE    ---       #142
      00FF8E6DH   LINE      ECODE    ---       #143
      00FF8E71H   LINE      ECODE    ---       #144
      00FF8E74H   LINE      ECODE    ---       #145
      00FF8E7DH   LINE      ECODE    ---       #147
      00FF8E81H   LINE      ECODE    ---       #149
      00FF8E93H   LINE      ECODE    ---       #151
      00FF8E95H   LINE      ECODE    ---       #152
      00FF8E9BH   LINE      ECODE    ---       #153
      00FF8E9DH   LINE      ECODE    ---       #155
      00FF8EADH   LINE      ECODE    ---       #157
      00FF8EB3H   LINE      ECODE    ---       #158
      00FF8EB7H   LINE      ECODE    ---       #159
      00FF8EBAH   LINE      ECODE    ---       #161
      00FF8EDEH   LINE      ECODE    ---       #163
      00FF8EDEH   LINE      ECODE    ---       #164
      00FF8EE0H   LINE      ECODE    ---       #166
      00FF8F04H   LINE      ECODE    ---       #169
      00FF8F0EH   LINE      ECODE    ---       #171
      00FF8F10H   LINE      ECODE    ---       #173
      00FF8F34H   LINE      ECODE    ---       #175
      00FF8F38H   LINE      ECODE    ---       #176
      00FF8F3AH   LINE      ECODE    ---       #184
      00FF8F40H   LINE      ECODE    ---       #185
      00FF8F44H   LINE      ECODE    ---       #186
      00FF8F48H   LINE      ECODE    ---       #187
      00FF8F52H   LINE      ECODE    ---       #188
      00FF8F56H   LINE      ECODE    ---       #190
      00FF8F56H   LINE      ECODE    ---       #192
      ---         BLOCKEND  ---      ---       LVL=0

      00FF8F59H   BLOCK     ECODE    ---       LVL=0
L251 LINKER/LOCATER V4.66.93.0                                                        07/23/2023  00:26:15  PAGE 177


      WR12        REGSYM    ---      INT       round_into_waiting_distance
      00FF8F59H   LINE      ECODE    ---       #195
      00FF8F5DH   LINE      ECODE    ---       #198
      00FF8F87H   LINE      ECODE    ---       #199
      00FF8F9BH   LINE      ECODE    ---       #201
      00FF8FC8H   LINE      ECODE    ---       #202
      00FF8FD0H   LINE      ECODE    ---       #203
      00FF8FE0H   LINE      ECODE    ---       #205
      00FF9024H   LINE      ECODE    ---       #206
      00FF9028H   LINE      ECODE    ---       #207
      00FF902BH   LINE      ECODE    ---       #208
      00FF9034H   LINE      ECODE    ---       #210
      00FF9038H   LINE      ECODE    ---       #212
      00FF904AH   LINE      ECODE    ---       #214
      00FF904CH   LINE      ECODE    ---       #215
      00FF9052H   LINE      ECODE    ---       #216
      00FF9054H   LINE      ECODE    ---       #218
      00FF9064H   LINE      ECODE    ---       #220
      00FF906AH   LINE      ECODE    ---       #221
      00FF906EH   LINE      ECODE    ---       #222
      00FF9071H   LINE      ECODE    ---       #224
      00FF9095H   LINE      ECODE    ---       #226
      00FF9095H   LINE      ECODE    ---       #227
      00FF9097H   LINE      ECODE    ---       #228
      00FF90BBH   LINE      ECODE    ---       #231
      00FF90C5H   LINE      ECODE    ---       #233
      00FF90C7H   LINE      ECODE    ---       #235
      00FF90EBH   LINE      ECODE    ---       #237
      00FF90EFH   LINE      ECODE    ---       #239
      00FF90F1H   LINE      ECODE    ---       #247
      00FF90F7H   LINE      ECODE    ---       #248
      00FF90FBH   LINE      ECODE    ---       #249
      00FF90FFH   LINE      ECODE    ---       #250
      00FF9109H   LINE      ECODE    ---       #251
      00FF910DH   LINE      ECODE    ---       #254
      00FF910DH   LINE      ECODE    ---       #256
      ---         BLOCKEND  ---      ---       LVL=0

      00FF9110H   BLOCK     ECODE    ---       LVL=0
      00FF9110H   LINE      ECODE    ---       #259
      00FF9112H   LINE      ECODE    ---       #261
      00FF9124H   LINE      ECODE    ---       #263
      00FF912CH   LINE      ECODE    ---       #264
      00FF912CH   LINE      ECODE    ---       #265
      00FF913BH   LINE      ECODE    ---       #267
      00FF913BH   LINE      ECODE    ---       #270
      00FF913FH   LINE      ECODE    ---       #272
      00FF9143H   LINE      ECODE    ---       #273
      00FF914BH   LINE      ECODE    ---       #274
      00FF9157H   LINE      ECODE    ---       #278
      00FF915FH   LINE      ECODE    ---       #279
      00FF915FH   LINE      ECODE    ---       #280
      00FF9161H   LINE      ECODE    ---       #282
      00FF9161H   LINE      ECODE    ---       #285
      00FF9165H   LINE      ECODE    ---       #287
      00FF9192H   LINE      ECODE    ---       #288
      00FF919AH   LINE      ECODE    ---       #290
      00FF91A0H   LINE      ECODE    ---       #292
      00FF91A6H   LINE      ECODE    ---       #293
      00FF91AAH   LINE      ECODE    ---       #294
      00FF91B4H   LINE      ECODE    ---       #295
      00FF91B8H   LINE      ECODE    ---       #296
      00FF91BAH   LINE      ECODE    ---       #297
      00FF91BAH   LINE      ECODE    ---       #298
      00FF91BAH   LINE      ECODE    ---       #299
L251 LINKER/LOCATER V4.66.93.0                                                        07/23/2023  00:26:15  PAGE 178


      00FF91BAH   LINE      ECODE    ---       #300
      ---         BLOCKEND  ---      ---       LVL=0

      00FF91BDH   BLOCK     ECODE    ---       LVL=0
      00FF91BDH   LINE      ECODE    ---       #304
      00FF91BFH   LINE      ECODE    ---       #306
      00FF91C9H   LINE      ECODE    ---       #308
      00FF91CFH   LINE      ECODE    ---       #309
      00FF91D1H   LINE      ECODE    ---       #311
      00FF91E3H   LINE      ECODE    ---       #313
      00FF91EDH   LINE      ECODE    ---       #315
      00FF91EDH   LINE      ECODE    ---       #316
      00FF91EFH   LINE      ECODE    ---       #317
      00FF91F5H   LINE      ECODE    ---       #319
      00FF91F5H   LINE      ECODE    ---       #320
      00FF91F7H   LINE      ECODE    ---       #323
      00FF9207H   LINE      ECODE    ---       #325
      00FF9211H   LINE      ECODE    ---       #327
      00FF9211H   LINE      ECODE    ---       #328
      00FF9213H   LINE      ECODE    ---       #329
      00FF9219H   LINE      ECODE    ---       #331
      00FF9219H   LINE      ECODE    ---       #332
      00FF921BH   LINE      ECODE    ---       #335
      00FF922BH   LINE      ECODE    ---       #337
      00FF9235H   LINE      ECODE    ---       #339
      00FF9239H   LINE      ECODE    ---       #340
      00FF923BH   LINE      ECODE    ---       #341
      00FF9241H   LINE      ECODE    ---       #343
      00FF9245H   LINE      ECODE    ---       #344
      00FF9245H   LINE      ECODE    ---       #347
      ---         BLOCKEND  ---      ---       LVL=0

      00FF9248H   BLOCK     ECODE    ---       LVL=0
      00FF9248H   LINE      ECODE    ---       #350
      00FF924AH   LINE      ECODE    ---       #352
      00FF9277H   LINE      ECODE    ---       #353
      00FF927FH   LINE      ECODE    ---       #355
      00FF9298H   LINE      ECODE    ---       #357
      00FF9298H   LINE      ECODE    ---       #358
      00FF929AH   LINE      ECODE    ---       #359
      00FF92BEH   LINE      ECODE    ---       #360
      00FF92CAH   LINE      ECODE    ---       #361
      00FF92D4H   LINE      ECODE    ---       #362
      00FF92D8H   LINE      ECODE    ---       #363
      00FF92F7H   LINE      ECODE    ---       #365
      00FF92F9H   LINE      ECODE    ---       #366
      00FF9301H   LINE      ECODE    ---       #367
      00FF9307H   LINE      ECODE    ---       #368
      00FF930BH   LINE      ECODE    ---       #369
      00FF930BH   LINE      ECODE    ---       #370
      00FF930EH   LINE      ECODE    ---       #372
      00FF930EH   LINE      ECODE    ---       #373
      00FF9332H   LINE      ECODE    ---       #374
      00FF933EH   LINE      ECODE    ---       #375
      00FF9348H   LINE      ECODE    ---       #376
      00FF934CH   LINE      ECODE    ---       #377
      00FF937AH   LINE      ECODE    ---       #379
      00FF937CH   LINE      ECODE    ---       #380
      00FF9386H   LINE      ECODE    ---       #381
      00FF938CH   LINE      ECODE    ---       #382
      00FF9390H   LINE      ECODE    ---       #383
      00FF9394H   LINE      ECODE    ---       #384
      00FF9398H   LINE      ECODE    ---       #386
      00FF9398H   LINE      ECODE    ---       #387
      00FF939AH   LINE      ECODE    ---       #389
L251 LINKER/LOCATER V4.66.93.0                                                        07/23/2023  00:26:15  PAGE 179


      00FF939AH   LINE      ECODE    ---       #390
      00FF93A0H   LINE      ECODE    ---       #391
      00FF93A4H   LINE      ECODE    ---       #393
      00FF93A4H   LINE      ECODE    ---       #394
      00FF93A4H   LINE      ECODE    ---       #396
      ---         BLOCKEND  ---      ---       LVL=0

      00FF93A7H   BLOCK     ECODE    ---       LVL=0
      00FF93A7H   LINE      ECODE    ---       #400
      00FF93A9H   LINE      ECODE    ---       #402
      00FF93D6H   LINE      ECODE    ---       #403
      00FF93DEH   LINE      ECODE    ---       #404
      00FF93E7H   LINE      ECODE    ---       #406
      00FF93E9H   LINE      ECODE    ---       #407
      00FF9447H   LINE      ECODE    ---       #408
      00FF944BH   LINE      ECODE    ---       #409
      00FF94BBH   LINE      ECODE    ---       #410
      00FF952BH   LINE      ECODE    ---       #411
      00FF952DH   LINE      ECODE    ---       #414
      00FF9533H   LINE      ECODE    ---       #415
      00FF9537H   LINE      ECODE    ---       #416
      00FF9537H   LINE      ECODE    ---       #417
      ---         BLOCKEND  ---      ---       LVL=0

      ---         MODULE    ---      ---       isr
      00FFC892H   PUBLIC    ECODE    ---       UART1_Isr?
      00FFC8CBH   PUBLIC    ECODE    ---       UART2_Isr?
      00FFC8E5H   PUBLIC    ECODE    ---       UART3_Isr?
      00FFC8FFH   PUBLIC    ECODE    ---       UART4_Isr?
      00FFC967H   PUBLIC    ECODE    ---       INT0_Isr?
      00FFC96AH   PUBLIC    ECODE    ---       INT1_Isr?
      00FFC96BH   PUBLIC    ECODE    ---       INT2_Isr?
      00FFC96FH   PUBLIC    ECODE    ---       INT3_Isr?
      00FFC973H   PUBLIC    ECODE    ---       INT4_Isr?
      00FFC977H   PUBLIC    ECODE    ---       TM0_Isr?
      00FFC978H   PUBLIC    ECODE    ---       TM1_Isr?
      00FFC979H   PUBLIC    ECODE    ---       TM2_Isr?
      00FFC97DH   PUBLIC    ECODE    ---       TM3_Isr?
      00FFC981H   PUBLIC    ECODE    ---       TM4_Isr?
      000000D0H   SFRSYM    DATA     BYTE      PSW
      0000009DH   SFRSYM    DATA     BYTE      IRCBAND
      00000097H   SFRSYM    DATA     BYTE      AUXR2
      000000EFH   SFRSYM    DATA     BYTE      AUXINTIF
      000000FDH   SFRSYM    DATA     BYTE      S4CON
      000000ACH   SFRSYM    DATA     BYTE      S3CON
      0000009AH   SFRSYM    DATA     BYTE      S2CON
      000000B7H   SFRSYM    DATA     BYTE      IPH
      000000CDH   SFRSYM    DATA     BYTE      SPSTAT
      000000DDH   SFRSYM    DATA     BYTE      T4T3M
      000000C1H   SFRSYM    DATA     BYTE      WDT_CONTR
      000000DFH   SFRSYM    DATA     BYTE      IP3
      000000F4H   SFRSYM    DATA     BYTE      USBCON
      000000B5H   SFRSYM    DATA     BYTE      IP2
      000000FFH   SFRSYM    DATA     BYTE      RSTCFG
      000000C7H   SFRSYM    DATA     BYTE      IAP_CONTR
      000000F9H   SFRSYM    DATA     BYTE      LINICR
      0000008EH   SFRSYM    DATA     BYTE      AUXR
      000000AFH   SFRSYM    DATA     BYTE      IE2
      000000C8H.2 SFRSYM    DATA     BIT       P52
      00000088H   SFRSYM    DATA     BYTE      TCON
      00000098H   SFRSYM    DATA     BYTE      SCON
      000000F1H   SFRSYM    DATA     BYTE      CANICR
      00000087H   SFRSYM    DATA     BYTE      PCON
      00000099H   SFRSYM    DATA     BYTE      SBUF
      000000BCH   SFRSYM    DATA     BYTE      ADC_CONTR
L251 LINKER/LOCATER V4.66.93.0                                                        07/23/2023  00:26:15  PAGE 180


      000000E7H   SFRSYM    DATA     BYTE      CMPCR2
      000000E6H   SFRSYM    DATA     BYTE      CMPCR1
      000000B8H   SFRSYM    DATA     BYTE      IP
      0000008FH   SFRSYM    DATA     BYTE      INTCLKO
      000000EEH   SFRSYM    DATA     BYTE      IP3H
      000000B6H   SFRSYM    DATA     BYTE      IP2H
      000000A8H   SFRSYM    DATA     BYTE      IE
      000000BBH   SFRSYM    DATA     BYTE      P_SW3
      000000BAH   SFRSYM    DATA     BYTE      P_SW2
      000000A2H   SFRSYM    DATA     BYTE      P_SW1
      000000CEH   SFRSYM    DATA     BYTE      SPCTL
      000000F8H   SFRSYM    DATA     BYTE      P7
      000000E8H   SFRSYM    DATA     BYTE      P6
      000000C8H   SFRSYM    DATA     BYTE      P5
      000000C0H   SFRSYM    DATA     BYTE      P4
      000000B0H   SFRSYM    DATA     BYTE      P3
      000000A0H   SFRSYM    DATA     BYTE      P2
      00000090H   SFRSYM    DATA     BYTE      P1
      00000080H   SFRSYM    DATA     BYTE      P0

      00FFC892H   BLOCK     ECODE    ---       LVL=0
      00FFC894H   BLOCK     ECODE    NEAR LAB  LVL=1
      R11         REGSYM    ---      BYTE      res
      00000891H   SYMBOL    EDATA    BYTE      dwon_count
      ---         BLOCKEND  ---      ---       LVL=1
      00FFC892H   LINE      ECODE    ---       #23
      00FFC894H   LINE      ECODE    ---       #24
      00FFC894H   LINE      ECODE    ---       #27
      00FFC899H   LINE      ECODE    ---       #29
      00FFC89CH   LINE      ECODE    ---       #30
      00FFC8A1H   LINE      ECODE    ---       #31
      00FFC8A1H   LINE      ECODE    ---       #32
      00FFC8A6H   LINE      ECODE    ---       #34
      00FFC8A9H   LINE      ECODE    ---       #35
      00FFC8ABH   LINE      ECODE    ---       #37
      00FFC8AEH   LINE      ECODE    ---       #39
      00FFC8BEH   LINE      ECODE    ---       #40
      00FFC8C1H   LINE      ECODE    ---       #41
      00FFC8C3H   LINE      ECODE    ---       #44
      00FFC8C8H   LINE      ECODE    ---       #45
      00FFC8C8H   LINE      ECODE    ---       #46
      ---         BLOCKEND  ---      ---       LVL=0

      00FFC8CBH   BLOCK     ECODE    ---       LVL=0
      00FFC8CBH   LINE      ECODE    ---       #50
      00FFC8CDH   LINE      ECODE    ---       #52
      00FFC8D2H   LINE      ECODE    ---       #54
      00FFC8D5H   LINE      ECODE    ---       #55
      00FFC8DAH   LINE      ECODE    ---       #56
      00FFC8DAH   LINE      ECODE    ---       #57
      00FFC8DFH   LINE      ECODE    ---       #59
      00FFC8E2H   LINE      ECODE    ---       #62
      ---         BLOCKEND  ---      ---       LVL=0

      00FFC8E5H   BLOCK     ECODE    ---       LVL=0
      00FFC8E5H   LINE      ECODE    ---       #67
      00FFC8E7H   LINE      ECODE    ---       #69
      00FFC8ECH   LINE      ECODE    ---       #71
      00FFC8EFH   LINE      ECODE    ---       #72
      00FFC8F4H   LINE      ECODE    ---       #73
      00FFC8F4H   LINE      ECODE    ---       #74
      00FFC8F9H   LINE      ECODE    ---       #76
      00FFC8FCH   LINE      ECODE    ---       #79
      ---         BLOCKEND  ---      ---       LVL=0

L251 LINKER/LOCATER V4.66.93.0                                                        07/23/2023  00:26:15  PAGE 181


      00FFC8FFH   BLOCK     ECODE    ---       LVL=0
      00FFC8FFH   LINE      ECODE    ---       #84
      00FFC915H   LINE      ECODE    ---       #86
      00FFC91AH   LINE      ECODE    ---       #88
      00FFC91DH   LINE      ECODE    ---       #89
      00FFC922H   LINE      ECODE    ---       #90
      00FFC922H   LINE      ECODE    ---       #91
      00FFC927H   LINE      ECODE    ---       #93
      00FFC92AH   LINE      ECODE    ---       #96
      00FFC934H   LINE      ECODE    ---       #98
      00FFC938H   LINE      ECODE    ---       #99
      00FFC93AH   LINE      ECODE    ---       #100
      00FFC940H   LINE      ECODE    ---       #102
      00FFC944H   LINE      ECODE    ---       #103
      00FFC946H   LINE      ECODE    ---       #104
      00FFC94CH   LINE      ECODE    ---       #106
      00FFC950H   LINE      ECODE    ---       #107
      00FFC950H   LINE      ECODE    ---       #109
      ---         BLOCKEND  ---      ---       LVL=0

      00FFC967H   BLOCK     ECODE    ---       LVL=0
      00FFC967H   LINE      ECODE    ---       #112
      00FFC967H   LINE      ECODE    ---       #114
      00FFC969H   LINE      ECODE    ---       #115
      ---         BLOCKEND  ---      ---       LVL=0

      00FFC96AH   BLOCK     ECODE    ---       LVL=0
      00FFC96AH   LINE      ECODE    ---       #116
      00FFC96AH   LINE      ECODE    ---       #119
      ---         BLOCKEND  ---      ---       LVL=0

      00FFC96BH   BLOCK     ECODE    ---       LVL=0
      00FFC96BH   LINE      ECODE    ---       #120
      00FFC96BH   LINE      ECODE    ---       #122
      00FFC96EH   LINE      ECODE    ---       #123
      ---         BLOCKEND  ---      ---       LVL=0

      00FFC96FH   BLOCK     ECODE    ---       LVL=0
      00FFC96FH   LINE      ECODE    ---       #124
      00FFC96FH   LINE      ECODE    ---       #126
      00FFC972H   LINE      ECODE    ---       #127
      ---         BLOCKEND  ---      ---       LVL=0

      00FFC973H   BLOCK     ECODE    ---       LVL=0
      00FFC973H   LINE      ECODE    ---       #129
      00FFC973H   LINE      ECODE    ---       #131
      00FFC976H   LINE      ECODE    ---       #132
      ---         BLOCKEND  ---      ---       LVL=0

      00FFC977H   BLOCK     ECODE    ---       LVL=0
      00FFC977H   LINE      ECODE    ---       #134
      00FFC977H   LINE      ECODE    ---       #137
      ---         BLOCKEND  ---      ---       LVL=0

      00FFC978H   BLOCK     ECODE    ---       LVL=0
      00FFC978H   LINE      ECODE    ---       #138
      00FFC978H   LINE      ECODE    ---       #141
      ---         BLOCKEND  ---      ---       LVL=0

      00FFC979H   BLOCK     ECODE    ---       LVL=0
      00FFC979H   LINE      ECODE    ---       #142
      00FFC979H   LINE      ECODE    ---       #144
      00FFC97CH   LINE      ECODE    ---       #146
      ---         BLOCKEND  ---      ---       LVL=0

L251 LINKER/LOCATER V4.66.93.0                                                        07/23/2023  00:26:15  PAGE 182


      00FFC97DH   BLOCK     ECODE    ---       LVL=0
      00FFC97DH   LINE      ECODE    ---       #147
      00FFC97DH   LINE      ECODE    ---       #149
      00FFC980H   LINE      ECODE    ---       #151
      ---         BLOCKEND  ---      ---       LVL=0

      00FFC981H   BLOCK     ECODE    ---       LVL=0
      00FFC981H   LINE      ECODE    ---       #154
      00FFC997H   LINE      ECODE    ---       #156
      00FFC99AH   LINE      ECODE    ---       #159
      00FFC99EH   LINE      ECODE    ---       #160
      00FFC9A2H   LINE      ECODE    ---       #161
      00FFC9A6H   LINE      ECODE    ---       #164
      00FFC9B0H   LINE      ECODE    ---       #166
      00FFC9B8H   LINE      ECODE    ---       #168
      00FFC9BCH   LINE      ECODE    ---       #170
      00FFC9BEH   LINE      ECODE    ---       #172
      00FFC9C8H   LINE      ECODE    ---       #175
      00FFC9CCH   LINE      ECODE    ---       #176
      00FFC9CEH   LINE      ECODE    ---       #182
      00FFC9D8H   LINE      ECODE    ---       #184
      00FFC9DCH   LINE      ECODE    ---       #185
      00FFC9DEH   LINE      ECODE    ---       #186
      00FFC9E8H   LINE      ECODE    ---       #188
      00FFC9ECH   LINE      ECODE    ---       #189
      00FFC9EEH   LINE      ECODE    ---       #193
      00FFC9F2H   LINE      ECODE    ---       #194
      00FFC9F2H   LINE      ECODE    ---       #195
      00FFC9F4H   LINE      ECODE    ---       #197
      00FFC9F8H   LINE      ECODE    ---       #199
      00FFCA25H   LINE      ECODE    ---       #200
      00FFCA31H   LINE      ECODE    ---       #201
      00FFCA35H   LINE      ECODE    ---       #202
      00FFCA35H   LINE      ECODE    ---       #204
      00FFCA39H   LINE      ECODE    ---       #205
      00FFCA3DH   LINE      ECODE    ---       #206
      00FFCA41H   LINE      ECODE    ---       #207
      00FFCA45H   LINE      ECODE    ---       #209
      00FFCA57H   LINE      ECODE    ---       #210
      00FFCA6BH   LINE      ECODE    ---       #211
      00FFCA83H   LINE      ECODE    ---       #212
      00FFCA99H   LINE      ECODE    ---       #213
      ---         BLOCKEND  ---      ---       LVL=0

      ---         MODULE    ---      ---       park
      00FFB553H   PUBLIC    ECODE    ---       CHUKU?
      00FFB5BDH   PUBLIC    ECODE    ---       RuKu?
      00FFB858H   PUBLIC    ECODE    ---       Re_Start?
      00FFB6C3H   PUBLIC    ECODE    ---       RuKu_Back_Into?
      00FFB7B4H   PUBLIC    ECODE    ---       RuKu_Encoder_Round_After?
      000007B6H   PUBLIC    EDATA    INT       Hall
      000007B8H   PUBLIC    EDATA    INT       ruku_encoder_round_after_flag
      000007BAH   PUBLIC    EDATA    INT       CK_count
      000007BCH   PUBLIC    EDATA    INT       park_number
      000007BEH   PUBLIC    EDATA    INT       XJ
      000007C0H   PUBLIC    EDATA    INT       roundcount_k
      000007C2H   PUBLIC    EDATA    INT       CK_count2
      000007C4H   PUBLIC    EDATA    INT       garage_out_direction
      000007C6H   PUBLIC    EDATA    INT       roundcount2_k
      000007C8H   PUBLIC    EDATA    INT       Start_Flag
      000000D0H   SFRSYM    DATA     BYTE      PSW
      0000009DH   SFRSYM    DATA     BYTE      IRCBAND
      00000097H   SFRSYM    DATA     BYTE      AUXR2
      000000EFH   SFRSYM    DATA     BYTE      AUXINTIF
      000000FDH   SFRSYM    DATA     BYTE      S4CON
L251 LINKER/LOCATER V4.66.93.0                                                        07/23/2023  00:26:15  PAGE 183


      000000ACH   SFRSYM    DATA     BYTE      S3CON
      0000009AH   SFRSYM    DATA     BYTE      S2CON
      000000B7H   SFRSYM    DATA     BYTE      IPH
      000000CDH   SFRSYM    DATA     BYTE      SPSTAT
      000000DDH   SFRSYM    DATA     BYTE      T4T3M
      000000C1H   SFRSYM    DATA     BYTE      WDT_CONTR
      000000DFH   SFRSYM    DATA     BYTE      IP3
      000000F4H   SFRSYM    DATA     BYTE      USBCON
      000000B5H   SFRSYM    DATA     BYTE      IP2
      000000FFH   SFRSYM    DATA     BYTE      RSTCFG
      000000F9H   SFRSYM    DATA     BYTE      LINICR
      0000008EH   SFRSYM    DATA     BYTE      AUXR
      000000AFH   SFRSYM    DATA     BYTE      IE2
      000000E8H.7 SFRSYM    DATA     BIT       P67
      00000088H   SFRSYM    DATA     BYTE      TCON
      00000098H   SFRSYM    DATA     BYTE      SCON
      000000F1H   SFRSYM    DATA     BYTE      CANICR
      00000087H   SFRSYM    DATA     BYTE      PCON
      000000BCH   SFRSYM    DATA     BYTE      ADC_CONTR
      000000E7H   SFRSYM    DATA     BYTE      CMPCR2
      000000E6H   SFRSYM    DATA     BYTE      CMPCR1
      000000B8H   SFRSYM    DATA     BYTE      IP
      0000008FH   SFRSYM    DATA     BYTE      INTCLKO
      000000EEH   SFRSYM    DATA     BYTE      IP3H
      000000B6H   SFRSYM    DATA     BYTE      IP2H
      000000A8H   SFRSYM    DATA     BYTE      IE
      000000BBH   SFRSYM    DATA     BYTE      P_SW3
      000000BAH   SFRSYM    DATA     BYTE      P_SW2
      000000A2H   SFRSYM    DATA     BYTE      P_SW1
      000000CEH   SFRSYM    DATA     BYTE      SPCTL
      000000F8H   SFRSYM    DATA     BYTE      P7
      000000E8H   SFRSYM    DATA     BYTE      P6
      000000C8H   SFRSYM    DATA     BYTE      P5
      000000C0H   SFRSYM    DATA     BYTE      P4
      000000B0H   SFRSYM    DATA     BYTE      P3
      000000A0H   SFRSYM    DATA     BYTE      P2
      00000090H   SFRSYM    DATA     BYTE      P1
      00000080H   SFRSYM    DATA     BYTE      P0

      00FFB553H   BLOCK     ECODE    ---       LVL=0
      00FFB553H   LINE      ECODE    ---       #16
      00FFB553H   LINE      ECODE    ---       #18
      00FFB56BH   LINE      ECODE    ---       #20
      00FFB575H   LINE      ECODE    ---       #22
      00FFB57FH   LINE      ECODE    ---       #23
      00FFB587H   LINE      ECODE    ---       #24
      00FFB58BH   LINE      ECODE    ---       #25
      00FFB58DH   LINE      ECODE    ---       #26
      00FFB593H   LINE      ECODE    ---       #28
      00FFB59DH   LINE      ECODE    ---       #29
      00FFB5A5H   LINE      ECODE    ---       #30
      00FFB5ADH   LINE      ECODE    ---       #31
      00FFB5AEH   LINE      ECODE    ---       #34
      00FFB5B4H   LINE      ECODE    ---       #36
      00FFB5BCH   LINE      ECODE    ---       #37
      ---         BLOCKEND  ---      ---       LVL=0

      00FFB5BDH   BLOCK     ECODE    ---       LVL=0
      00FFB5BDH   LINE      ECODE    ---       #41
      00FFB5BFH   LINE      ECODE    ---       #43
      00FFB5ECH   LINE      ECODE    ---       #44
      00FFB5F4H   LINE      ECODE    ---       #45
      00FFB600H   LINE      ECODE    ---       #47
      00FFB602H   LINE      ECODE    ---       #48
      00FFB60CH   LINE      ECODE    ---       #49
L251 LINKER/LOCATER V4.66.93.0                                                        07/23/2023  00:26:15  PAGE 184


      00FFB610H   LINE      ECODE    ---       #50
      00FFB612H   LINE      ECODE    ---       #51
      00FFB615H   LINE      ECODE    ---       #54
      00FFB642H   LINE      ECODE    ---       #55
      00FFB64AH   LINE      ECODE    ---       #57
      00FFB656H   LINE      ECODE    ---       #59
      00FFB660H   LINE      ECODE    ---       #60
      00FFB664H   LINE      ECODE    ---       #61
      00FFB666H   LINE      ECODE    ---       #62
      00FFB668H   LINE      ECODE    ---       #65
      00FFB66CH   LINE      ECODE    ---       #66
      00FFB67EH   LINE      ECODE    ---       #68
      00FFB688H   LINE      ECODE    ---       #69
      00FFB68CH   LINE      ECODE    ---       #70
      00FFB696H   LINE      ECODE    ---       #72
      00FFB6A0H   LINE      ECODE    ---       #73
      00FFB6A2H   LINE      ECODE    ---       #74
      00FFB6A8H   LINE      ECODE    ---       #76
      00FFB6AEH   LINE      ECODE    ---       #77
      00FFB6B0H   LINE      ECODE    ---       #81
      00FFB6B2H   LINE      ECODE    ---       #82
      00FFB6B8H   LINE      ECODE    ---       #83
      00FFB6BCH   LINE      ECODE    ---       #84
      00FFB6C0H   LINE      ECODE    ---       #85
      00FFB6C0H   LINE      ECODE    ---       #86
      00FFB6C0H   LINE      ECODE    ---       #87
      00FFB6C0H   LINE      ECODE    ---       #88
      ---         BLOCKEND  ---      ---       LVL=0

      00FFB6C3H   BLOCK     ECODE    ---       LVL=0
      00FFB6C3H   LINE      ECODE    ---       #91
      00FFB6C5H   LINE      ECODE    ---       #93
      00FFB6F2H   LINE      ECODE    ---       #94
      00FFB6FAH   LINE      ECODE    ---       #95
      00FFB706H   LINE      ECODE    ---       #97
      00FFB708H   LINE      ECODE    ---       #98
      00FFB712H   LINE      ECODE    ---       #99
      00FFB716H   LINE      ECODE    ---       #100
      00FFB71CH   LINE      ECODE    ---       #101
      00FFB71FH   LINE      ECODE    ---       #102
      00FFB731H   LINE      ECODE    ---       #104
      00FFB735H   LINE      ECODE    ---       #105
      00FFB737H   LINE      ECODE    ---       #106
      00FFB743H   LINE      ECODE    ---       #108
      00FFB743H   LINE      ECODE    ---       #111
      00FFB74DH   LINE      ECODE    ---       #112
      00FFB75FH   LINE      ECODE    ---       #114
      00FFB769H   LINE      ECODE    ---       #115
      00FFB76DH   LINE      ECODE    ---       #116
      00FFB76FH   LINE      ECODE    ---       #119
      00FFB76FH   LINE      ECODE    ---       #120
      00FFB76FH   LINE      ECODE    ---       #121
      00FFB76FH   LINE      ECODE    ---       #122
      00FFB76FH   LINE      ECODE    ---       #123
      00FFB76FH   LINE      ECODE    ---       #124
      00FFB771H   LINE      ECODE    ---       #126
      00FFB771H   LINE      ECODE    ---       #129
      00FFB77BH   LINE      ECODE    ---       #130
      00FFB78DH   LINE      ECODE    ---       #132
      00FFB797H   LINE      ECODE    ---       #133
      00FFB79FH   LINE      ECODE    ---       #134
      00FFB7A1H   LINE      ECODE    ---       #137
      00FFB7A3H   LINE      ECODE    ---       #138
      00FFB7A9H   LINE      ECODE    ---       #139
      00FFB7ADH   LINE      ECODE    ---       #140
L251 LINKER/LOCATER V4.66.93.0                                                        07/23/2023  00:26:15  PAGE 185


      00FFB7B1H   LINE      ECODE    ---       #141
      00FFB7B1H   LINE      ECODE    ---       #142
      00FFB7B1H   LINE      ECODE    ---       #143
      00FFB7B1H   LINE      ECODE    ---       #144
      ---         BLOCKEND  ---      ---       LVL=0

      00FFB7B4H   BLOCK     ECODE    ---       LVL=0
      00FFB7B4H   LINE      ECODE    ---       #152
      00FFB7B6H   LINE      ECODE    ---       #154
      00FFB7E3H   LINE      ECODE    ---       #155
      00FFB7EBH   LINE      ECODE    ---       #157
      00FFB7F7H   LINE      ECODE    ---       #159
      00FFB7F7H   LINE      ECODE    ---       #160
      00FFB7F7H   LINE      ECODE    ---       #162
      00FFB7F7H   LINE      ECODE    ---       #163
      00FFB7FBH   LINE      ECODE    ---       #164
      00FFB805H   LINE      ECODE    ---       #166
      00FFB80DH   LINE      ECODE    ---       #167
      00FFB80DH   LINE      ECODE    ---       #168
      00FFB80FH   LINE      ECODE    ---       #170
      00FFB80FH   LINE      ECODE    ---       #171
      00FFB813H   LINE      ECODE    ---       #172
      00FFB815H   LINE      ECODE    ---       #174
      00FFB81FH   LINE      ECODE    ---       #175
      00FFB831H   LINE      ECODE    ---       #177
      00FFB83BH   LINE      ECODE    ---       #178
      00FFB843H   LINE      ECODE    ---       #179
      00FFB845H   LINE      ECODE    ---       #182
      00FFB847H   LINE      ECODE    ---       #183
      00FFB84DH   LINE      ECODE    ---       #184
      00FFB851H   LINE      ECODE    ---       #185
      00FFB855H   LINE      ECODE    ---       #186
      00FFB855H   LINE      ECODE    ---       #187
      00FFB855H   LINE      ECODE    ---       #188
      00FFB855H   LINE      ECODE    ---       #189
      ---         BLOCKEND  ---      ---       LVL=0

      00FFB858H   BLOCK     ECODE    ---       LVL=0
      00FFB858H   LINE      ECODE    ---       #195
      00FFB85AH   LINE      ECODE    ---       #197
      00FFB887H   LINE      ECODE    ---       #198
      00FFB88FH   LINE      ECODE    ---       #199
      00FFB893H   LINE      ECODE    ---       #200
      00FFB89DH   LINE      ECODE    ---       #202
      00FFB8A3H   LINE      ECODE    ---       #203
      00FFB8A7H   LINE      ECODE    ---       #204
      00FFB8ABH   LINE      ECODE    ---       #205
      00FFB8AFH   LINE      ECODE    ---       #206
      00FFB8B9H   LINE      ECODE    ---       #207
      ---         BLOCKEND  ---      ---       LVL=0

      ---         MODULE    ---      ---       SEEKFREE_CONFIG
      00FF00A7H   PUBLIC    CODE     ---       imu660ra_config_file

      ---         MODULE    ---      ---       ?C?FPADD?
      00FF7E61H   PUBLIC    ECODE    ---       ?C?FPADD?
      00FF7E5EH   PUBLIC    ECODE    ---       ?C?FPSUB?

      ---         MODULE    ---      ---       ?C?FPMUL?
      00FF7F19H   PUBLIC    ECODE    ---       ?C?FPMUL?

      ---         MODULE    ---      ---       ?C?FPDIV?
      00FF7FB9H   PUBLIC    ECODE    ---       ?C?FPDIV?

      ---         MODULE    ---      ---       ?C?FPCMP?
L251 LINKER/LOCATER V4.66.93.0                                                        07/23/2023  00:26:15  PAGE 186


      00FF803AH   PUBLIC    ECODE    ---       ?C?FPCMP3?
      00FF803CH   PUBLIC    ECODE    ---       ?C?FPCMP?

      ---         MODULE    ---      ---       ?C?FCAST?
      00FF808AH   PUBLIC    ECODE    FAR LAB   ?C?FCASTC?
      00FF8085H   PUBLIC    ECODE    FAR LAB   ?C?FCASTI?
      00FF8080H   PUBLIC    ECODE    FAR LAB   ?C?FCASTL?

      ---         MODULE    ---      ---       ?C?CASTF?
      00FF80BDH   PUBLIC    ECODE    FAR LAB   ?C?CASTF?

      ---         MODULE    ---      ---       PRINTF?
      00000306H   PUBLIC    EDATA    ---       ?PRINTF??BYTE
      00FF80FAH   PUBLIC    ECODE    FAR LAB   PRINTF?

      ---         MODULE    ---      ---       SQRT??
      00FF8127H   PUBLIC    ECODE    ---       SQRT??

      ---         MODULE    ---      ---       POW??
      00FFD87CH   PUBLIC    ECODE    ---       pow??

      ---         MODULE    ---      ---       ?C?FPGETOPN?
      00FF81B9H   PUBLIC    ECODE    ---       ?C?FPGETOPN2?
      00FF81F6H   PUBLIC    ECODE    ---       ?C?FPNANRESULT?
      00FF81FEH   PUBLIC    ECODE    ---       ?C?FPOVERFLOW?
      00FF81E8H   PUBLIC    ECODE    ---       ?C?FPRESULT2?
      00FF81D2H   PUBLIC    ECODE    ---       ?C?FPRESULT?
      00FF81FBH   PUBLIC    ECODE    ---       ?C?FPUNDERFLOW?

      ---         MODULE    ---      ---       _CHKFLOAT_??
      00FF820AH   PUBLIC    ECODE    ---       _CHKFLOAT_??

      ---         MODULE    ---      ---       ?C?FPNEG?
      00FF8227H   PUBLIC    ECODE    ---       ?C?FPNEG?

      ---         MODULE    ---      ---       ?C?PRNFMT?
      00FF8262H   PUBLIC    ECODE    ---       ?C?PRNFMT?

      ---         MODULE    ---      ---       EXP??
      00FF86AAH   PUBLIC    ECODE    ---       EXP??

      ---         MODULE    ---      ---       LOG??
      00FF873DH   PUBLIC    ECODE    FAR LAB   LOG??

      ---         MODULE    ---      ---       ?C?FPCONVERT?
      00FF8818H   PUBLIC    ECODE    ---       ?C?FPCONVERT?
      00FF88D2H   PUBLIC    ECODE    ---       ?C?FPROUND?

      ---         MODULE    ---      ---       ?C?FPSERIES?
      00FF8915H   PUBLIC    ECODE    ---       ?C?FP2SERIES?
      00FF891FH   PUBLIC    ECODE    ---       ?C?FPSERIES?

      ---         MODULE    ---      ---       ?C?FTNPWR?
      00FF8975H   PUBLIC    ECODE    ---       ?C?FTNPWR?

      ---         MODULE    ---      ---       ?C_START?
      00FF0000H   PUBLIC    CODE     ---       ?C?STARTUP?
      00FF0000H   PUBLIC    CODE     ---       ?C_STARTUP?

      ---         MODULE    ---      ---       ?C?INITEDATA
      00FF2EC2H   PUBLIC    CODE     ---       ?C?INITEDATA

      ---         MODULE    ---      ---       ?C?SIDIV?
      00FF89ADH   PUBLIC    ECODE    ---       ?C?SIDIV?

L251 LINKER/LOCATER V4.66.93.0                                                        07/23/2023  00:26:15  PAGE 187


      ---         MODULE    ---      ---       ?C?LMUL?
      00FF89DFH   PUBLIC    ECODE    ---       ?C?LMUL?

      ---         MODULE    ---      ---       ?C?LIMUL?
      00FF89F0H   PUBLIC    ECODE    ---       ?C?LIMUL?

      ---         MODULE    ---      ---       ?C?ULDIV?
      00FF89FBH   PUBLIC    ECODE    FAR LAB   ?C?ULDIV?
      00FF89F9H   PUBLIC    ECODE    FAR LAB   ?C?ULIDIV?

      ---         MODULE    ---      ---       ?C?SLDIV?
      00FF8A4CH   PUBLIC    ECODE    FAR LAB   ?C?SLDIV?

      ---         MODULE    ---      ---       ABS?
      00FF0067H   PUBLIC    ECODE    ---       abs??

      ---         MODULE    ---      ---       MEMCPY?
      00FFDD8DH   PUBLIC    ECODE    ---       memcpy??

      ---         MODULE    ---      ---       MEMSET?
      00FF0027H   PUBLIC    ECODE    ---       memset??

      ---         MODULE    ---      ---       ?C?INITEDATA_END
      00FFE07EH   PUBLIC    HCONST   WORD      ?C?INITEDATA_END



*** WARNING L15: MULTIPLE CALL TO FUNCTION
    NAME:    imu660ra_simspi_r_reg_bytes/SEEKFREE_IMU660RA
    CALLER1: TM4_Isr?/isr
    CALLER2: ?C_C51STARTUP?3

Program Size: data=26.0 edata+hdata=2424 xdata=0 const=1313 code=56688
L251 RUN COMPLETE.  1 WARNING(S),  0 ERROR(S)
